   1              		.cpu cortex-m3
   2              		.eabi_attribute 20, 1
   3              		.eabi_attribute 21, 1
   4              		.eabi_attribute 23, 3
   5              		.eabi_attribute 24, 1
   6              		.eabi_attribute 25, 1
   7              		.eabi_attribute 26, 1
   8              		.eabi_attribute 30, 2
   9              		.eabi_attribute 34, 1
  10              		.eabi_attribute 18, 4
  11              		.file	"main.c"
  12              		.text
  13              	.Ltext0:
  14              		.cfi_sections	.debug_frame
  15              		.syntax unified
  16              		add3_embasm:
  17 0000 00F10300 		 add r0, #3
  18 0004 7047     		 bx lr
  19              		
  20              		.thumb
  21              		.syntax unified
  22              		.section	.text.GPIOInit,"ax",%progbits
  23              		.align	1
  24              		.p2align 2,,3
  25              		.global	GPIOInit
  26              		.arch armv7-m
  27              		.syntax unified
  28              		.thumb
  29              		.thumb_func
  30              		.fpu softvfp
  32              	GPIOInit:
  33              	.LVL0:
  34              	.LFB32:
  35              		.file 1 "../USER/main.c"
   1:../USER/main.c **** 
   2:../USER/main.c **** /*
   3:../USER/main.c ****  * *****************************************************************************************
   4:../USER/main.c ****  *
   5:../USER/main.c ****  * 		Copyright (C) 2014-2021 Gowin Semiconductor Technology Co.,Ltd.
   6:../USER/main.c ****  * 		
   7:../USER/main.c ****  * @file			main.c
   8:../USER/main.c ****  * @author		Embedded Development Team
   9:../USER/main.c ****  * @version		V1.x.x
  10:../USER/main.c ****  * @date			2021-01-01 09:00:00
  11:../USER/main.c ****  * @brief			Main program body.
  12:../USER/main.c ****  ******************************************************************************************
  13:../USER/main.c ****  */
  14:../USER/main.c **** 
  15:../USER/main.c **** /* Includes ------------------------------------------------------------------*/
  16:../USER/main.c **** #include "gw1ns4c.h"
  17:../USER/main.c **** //#include "GOWIN_M3.h"
  18:../USER/main.c **** 
  19:../USER/main.c **** #include <stdio.h>
  20:../USER/main.c **** #include <stdlib.h>
  21:../USER/main.c **** #include <string.h>
  22:../USER/main.c **** /* Declarations ------------------------------------------------------------------*/
  23:../USER/main.c **** void delay_ms(__IO uint32_t delay_ms);
  24:../USER/main.c **** void GPIOInit(uint32_t pin);
  25:../USER/main.c **** void UartInit(void);
  26:../USER/main.c **** 
  27:../USER/main.c **** /* Functions ------------------------------------------------------------------*/
  28:../USER/main.c **** //Initializes GPIO
  29:../USER/main.c **** void GPIOInit(uint32_t pin)
  30:../USER/main.c **** {
  36              		.loc 1 30 1 view -0
  37              		.cfi_startproc
  38              		@ args = 0, pretend = 0, frame = 8
  39              		@ frame_needed = 0, uses_anonymous_args = 0
  31:../USER/main.c **** 	GPIO_InitTypeDef GPIO_InitType;
  40              		.loc 1 31 2 view .LVU1
  32:../USER/main.c **** 	GPIO_InitType.GPIO_Pin = pin;
  41              		.loc 1 32 2 view .LVU2
  30:../USER/main.c **** 	GPIO_InitTypeDef GPIO_InitType;
  42              		.loc 1 30 1 is_stmt 0 view .LVU3
  43 0000 30B5     		push	{r4, r5, lr}
  44              		.cfi_def_cfa_offset 12
  45              		.cfi_offset 4, -12
  46              		.cfi_offset 5, -8
  47              		.cfi_offset 14, -4
  33:../USER/main.c **** 	GPIO_InitType.GPIO_Mode = GPIO_Mode_OUT;
  48              		.loc 1 33 26 view .LVU4
  49 0002 0123     		movs	r3, #1
  30:../USER/main.c **** 	GPIO_InitTypeDef GPIO_InitType;
  50              		.loc 1 30 1 view .LVU5
  51 0004 0546     		mov	r5, r0
  34:../USER/main.c **** 	GPIO_InitType.GPIO_Int = GPIO_Int_Disable;
  35:../USER/main.c **** 	GPIO_Init(GPIO0,&GPIO_InitType);
  52              		.loc 1 35 2 view .LVU6
  53 0006 074C     		ldr	r4, .L4
  30:../USER/main.c **** 	GPIO_InitTypeDef GPIO_InitType;
  54              		.loc 1 30 1 view .LVU7
  55 0008 83B0     		sub	sp, sp, #12
  56              		.cfi_def_cfa_offset 24
  57              		.loc 1 35 2 view .LVU8
  58 000a 6946     		mov	r1, sp
  59 000c 2046     		mov	r0, r4
  60              	.LVL1:
  33:../USER/main.c **** 	GPIO_InitType.GPIO_Mode = GPIO_Mode_OUT;
  61              		.loc 1 33 26 view .LVU9
  62 000e ADF80430 		strh	r3, [sp, #4]	@ movhi
  32:../USER/main.c **** 	GPIO_InitType.GPIO_Mode = GPIO_Mode_OUT;
  63              		.loc 1 32 25 view .LVU10
  64 0012 0095     		str	r5, [sp]
  33:../USER/main.c **** 	GPIO_InitType.GPIO_Int = GPIO_Int_Disable;
  65              		.loc 1 33 2 is_stmt 1 view .LVU11
  34:../USER/main.c **** 	GPIO_Init(GPIO0,&GPIO_InitType);
  66              		.loc 1 34 2 view .LVU12
  67              		.loc 1 35 2 view .LVU13
  68 0014 FFF7FEFF 		bl	GPIO_Init
  69              	.LVL2:
  36:../USER/main.c ****   GPIO_SetBit(GPIO0,pin);
  70              		.loc 1 36 3 view .LVU14
  71 0018 2946     		mov	r1, r5
  72 001a 2046     		mov	r0, r4
  73 001c FFF7FEFF 		bl	GPIO_SetBit
  74              	.LVL3:
  37:../USER/main.c **** }
  75              		.loc 1 37 1 is_stmt 0 view .LVU15
  76 0020 03B0     		add	sp, sp, #12
  77              		.cfi_def_cfa_offset 12
  78              		@ sp needed
  79 0022 30BD     		pop	{r4, r5, pc}
  80              	.LVL4:
  81              	.L5:
  82              		.loc 1 37 1 view .LVU16
  83              		.align	2
  84              	.L4:
  85 0024 00000140 		.word	1073807360
  86              		.cfi_endproc
  87              	.LFE32:
  89              		.section	.text.UartInit,"ax",%progbits
  90              		.align	1
  91              		.p2align 2,,3
  92              		.global	UartInit
  93              		.syntax unified
  94              		.thumb
  95              		.thumb_func
  96              		.fpu softvfp
  98              	UartInit:
  99              	.LFB33:
  38:../USER/main.c **** 
  39:../USER/main.c **** void UartInit(void)
  40:../USER/main.c **** {
 100              		.loc 1 40 1 is_stmt 1 view -0
 101              		.cfi_startproc
 102              		@ args = 0, pretend = 0, frame = 16
 103              		@ frame_needed = 0, uses_anonymous_args = 0
  41:../USER/main.c ****   UART_InitTypeDef UART_InitStruct;
 104              		.loc 1 41 3 view .LVU18
  42:../USER/main.c **** 
  43:../USER/main.c ****   UART_InitStruct.UART_Mode.UARTMode_Tx = ENABLE;
 105              		.loc 1 43 3 view .LVU19
  44:../USER/main.c ****   UART_InitStruct.UART_Mode.UARTMode_Rx = ENABLE;
 106              		.loc 1 44 3 view .LVU20
  45:../USER/main.c ****   UART_InitStruct.UART_Int.UARTInt_Tx = DISABLE;
 107              		.loc 1 45 3 view .LVU21
  46:../USER/main.c ****   UART_InitStruct.UART_Int.UARTInt_Rx = DISABLE;
 108              		.loc 1 46 3 view .LVU22
  47:../USER/main.c ****   UART_InitStruct.UART_Ovr.UARTOvr_Tx = DISABLE;
 109              		.loc 1 47 3 view .LVU23
  48:../USER/main.c ****   UART_InitStruct.UART_Ovr.UARTOvr_Rx = DISABLE;
 110              		.loc 1 48 3 view .LVU24
  49:../USER/main.c ****   UART_InitStruct.UART_Hstm = DISABLE;
 111              		.loc 1 49 3 view .LVU25
  50:../USER/main.c ****   UART_InitStruct.UART_BaudRate = 115200*80/72;//Baud Rate
 112              		.loc 1 50 3 view .LVU26
  40:../USER/main.c ****   UART_InitTypeDef UART_InitStruct;
 113              		.loc 1 40 1 is_stmt 0 view .LVU27
 114 0000 10B5     		push	{r4, lr}
 115              		.cfi_def_cfa_offset 8
 116              		.cfi_offset 4, -8
 117              		.cfi_offset 14, -4
  47:../USER/main.c ****   UART_InitStruct.UART_Ovr.UARTOvr_Rx = DISABLE;
 118              		.loc 1 47 39 view .LVU28
 119 0002 0023     		movs	r3, #0
  43:../USER/main.c ****   UART_InitStruct.UART_Mode.UARTMode_Rx = ENABLE;
 120              		.loc 1 43 41 view .LVU29
 121 0004 40F20112 		movw	r2, #257
 122              		.loc 1 50 33 view .LVU30
 123 0008 4FF4FA34 		mov	r4, #128000
  40:../USER/main.c ****   UART_InitTypeDef UART_InitStruct;
 124              		.loc 1 40 1 view .LVU31
 125 000c 84B0     		sub	sp, sp, #16
 126              		.cfi_def_cfa_offset 24
  51:../USER/main.c ****   UART_Init(UART0,&UART_InitStruct);
 127              		.loc 1 51 3 view .LVU32
 128 000e 01A9     		add	r1, sp, #4
 129 0010 4FF04020 		mov	r0, #1073758208
  43:../USER/main.c ****   UART_InitStruct.UART_Mode.UARTMode_Rx = ENABLE;
 130              		.loc 1 43 41 view .LVU33
 131 0014 CDE90142 		strd	r4, r2, [sp, #4]
  47:../USER/main.c ****   UART_InitStruct.UART_Ovr.UARTOvr_Rx = DISABLE;
 132              		.loc 1 47 39 view .LVU34
 133 0018 ADF80C30 		strh	r3, [sp, #12]	@ movhi
  49:../USER/main.c ****   UART_InitStruct.UART_BaudRate = 115200*80/72;//Baud Rate
 134              		.loc 1 49 29 view .LVU35
 135 001c 8DF80E30 		strb	r3, [sp, #14]
 136              		.loc 1 51 3 is_stmt 1 view .LVU36
 137 0020 FFF7FEFF 		bl	UART_Init
 138              	.LVL5:
  52:../USER/main.c **** }
 139              		.loc 1 52 1 is_stmt 0 view .LVU37
 140 0024 04B0     		add	sp, sp, #16
 141              		.cfi_def_cfa_offset 8
 142              		@ sp needed
 143 0026 10BD     		pop	{r4, pc}
 144              		.cfi_endproc
 145              	.LFE33:
 147              		.section	.text.SPIInit,"ax",%progbits
 148              		.align	1
 149              		.p2align 2,,3
 150              		.global	SPIInit
 151              		.syntax unified
 152              		.thumb
 153              		.thumb_func
 154              		.fpu softvfp
 156              	SPIInit:
 157              	.LFB34:
  53:../USER/main.c **** 
  54:../USER/main.c **** //Initializes SPI
  55:../USER/main.c **** void SPIInit(void)
  56:../USER/main.c **** {
 158              		.loc 1 56 1 is_stmt 1 view -0
 159              		.cfi_startproc
 160              		@ args = 0, pretend = 0, frame = 8
 161              		@ frame_needed = 0, uses_anonymous_args = 0
  57:../USER/main.c **** 	SPI_InitTypeDef init_spi;
 162              		.loc 1 57 2 view .LVU39
  58:../USER/main.c ****   init_spi.CLKSEL= CLKSEL_CLK_DIV_4;		//80MHZ / 8
 163              		.loc 1 58 3 view .LVU40
  59:../USER/main.c ****   init_spi.DIRECTION = DISABLE;					//MSB First
 164              		.loc 1 59 3 view .LVU41
  60:../USER/main.c ****   init_spi.PHASE =DISABLE;							//ENABLE;//posedge
 165              		.loc 1 60 3 view .LVU42
  61:../USER/main.c ****   init_spi.POLARITY =DISABLE;						//polarity 0
 166              		.loc 1 61 3 view .LVU43
  59:../USER/main.c ****   init_spi.DIRECTION = DISABLE;					//MSB First
 167              		.loc 1 59 22 is_stmt 0 view .LVU44
 168 0000 4FF08073 		mov	r3, #16777216
  56:../USER/main.c **** 	SPI_InitTypeDef init_spi;
 169              		.loc 1 56 1 view .LVU45
 170 0004 00B5     		push	{lr}
 171              		.cfi_def_cfa_offset 4
 172              		.cfi_offset 14, -4
 173 0006 83B0     		sub	sp, sp, #12
 174              		.cfi_def_cfa_offset 16
  62:../USER/main.c ****   SPI_Init(&init_spi);
 175              		.loc 1 62 3 view .LVU46
 176 0008 01A8     		add	r0, sp, #4
  59:../USER/main.c ****   init_spi.PHASE =DISABLE;							//ENABLE;//posedge
 177              		.loc 1 59 22 view .LVU47
 178 000a 0193     		str	r3, [sp, #4]
 179              		.loc 1 62 3 is_stmt 1 view .LVU48
 180 000c FFF7FEFF 		bl	SPI_Init
 181              	.LVL6:
  63:../USER/main.c **** }
 182              		.loc 1 63 1 is_stmt 0 view .LVU49
 183 0010 03B0     		add	sp, sp, #12
 184              		.cfi_def_cfa_offset 4
 185              		@ sp needed
 186 0012 5DF804FB 		ldr	pc, [sp], #4
 187              		.cfi_endproc
 188              	.LFE34:
 190 0016 00BF     		.section	.text.delay_ms,"ax",%progbits
 191              		.align	1
 192              		.p2align 2,,3
 193              		.global	delay_ms
 194              		.syntax unified
 195              		.thumb
 196              		.thumb_func
 197              		.fpu softvfp
 199              	delay_ms:
 200              	.LVL7:
 201              	.LFB35:
  64:../USER/main.c **** //delay ms
  65:../USER/main.c **** void delay_ms(__IO uint32_t delay_ms) {
 202              		.loc 1 65 39 is_stmt 1 view -0
 203              		.cfi_startproc
 204              		@ args = 0, pretend = 0, frame = 8
 205              		@ frame_needed = 0, uses_anonymous_args = 0
 206              		@ link register save eliminated.
  66:../USER/main.c **** 	for(delay_ms=(SystemCoreClock>>13)*delay_ms; delay_ms != 0; delay_ms--);
 207              		.loc 1 66 2 view .LVU51
 208              		.loc 1 66 31 is_stmt 0 view .LVU52
 209 0000 094B     		ldr	r3, .L18
  65:../USER/main.c **** 	for(delay_ms=(SystemCoreClock>>13)*delay_ms; delay_ms != 0; delay_ms--);
 210              		.loc 1 65 39 view .LVU53
 211 0002 82B0     		sub	sp, sp, #8
 212              		.cfi_def_cfa_offset 8
  65:../USER/main.c **** 	for(delay_ms=(SystemCoreClock>>13)*delay_ms; delay_ms != 0; delay_ms--);
 213              		.loc 1 65 39 view .LVU54
 214 0004 0190     		str	r0, [sp, #4]
 215              		.loc 1 66 31 view .LVU55
 216 0006 1A68     		ldr	r2, [r3]
 217              		.loc 1 66 36 view .LVU56
 218 0008 019B     		ldr	r3, [sp, #4]
 219              		.loc 1 66 31 view .LVU57
 220 000a 520B     		lsrs	r2, r2, #13
 221              		.loc 1 66 36 view .LVU58
 222 000c 03FB02F3 		mul	r3, r3, r2
 223              		.loc 1 66 14 view .LVU59
 224 0010 0193     		str	r3, [sp, #4]
 225              		.loc 1 66 56 view .LVU60
 226 0012 019B     		ldr	r3, [sp, #4]
 227              		.loc 1 66 2 view .LVU61
 228 0014 2BB1     		cbz	r3, .L10
 229              	.L12:
 230              		.loc 1 66 73 is_stmt 1 discriminator 3 view .LVU62
 231              		.loc 1 66 70 is_stmt 0 discriminator 3 view .LVU63
 232 0016 019B     		ldr	r3, [sp, #4]
 233 0018 013B     		subs	r3, r3, #1
 234 001a 0193     		str	r3, [sp, #4]
 235              		.loc 1 66 56 discriminator 3 view .LVU64
 236 001c 019B     		ldr	r3, [sp, #4]
 237              		.loc 1 66 2 discriminator 3 view .LVU65
 238 001e 002B     		cmp	r3, #0
 239 0020 F9D1     		bne	.L12
 240              	.L10:
  67:../USER/main.c **** }
 241              		.loc 1 67 1 view .LVU66
 242 0022 02B0     		add	sp, sp, #8
 243              		.cfi_def_cfa_offset 0
 244              		@ sp needed
 245 0024 7047     		bx	lr
 246              	.L19:
 247 0026 00BF     		.align	2
 248              	.L18:
 249 0028 00000000 		.word	SystemCoreClock
 250              		.cfi_endproc
 251              	.LFE35:
 253              		.section	.text.check_gpio,"ax",%progbits
 254              		.align	1
 255              		.p2align 2,,3
 256              		.global	check_gpio
 257              		.syntax unified
 258              		.thumb
 259              		.thumb_func
 260              		.fpu softvfp
 262              	check_gpio:
 263              	.LFB36:
  68:../USER/main.c **** 
  69:../USER/main.c **** int mdgpio;
  70:../USER/main.c **** void check_gpio(){
 264              		.loc 1 70 18 is_stmt 1 view -0
 265              		.cfi_startproc
 266              		@ args = 0, pretend = 0, frame = 0
 267              		@ frame_needed = 0, uses_anonymous_args = 0
  71:../USER/main.c **** 	int i;
 268              		.loc 1 71 2 view .LVU68
  72:../USER/main.c **** 	mdgpio = GPIO_ReadBits(GPIO0);	// ukey2 = bit13
 269              		.loc 1 72 2 view .LVU69
  70:../USER/main.c **** 	int i;
 270              		.loc 1 70 18 is_stmt 0 view .LVU70
 271 0000 70B5     		push	{r4, r5, r6, lr}
 272              		.cfi_def_cfa_offset 16
 273              		.cfi_offset 4, -16
 274              		.cfi_offset 5, -12
 275              		.cfi_offset 6, -8
 276              		.cfi_offset 14, -4
 277              		.loc 1 72 11 view .LVU71
 278 0002 1248     		ldr	r0, .L36
 279 0004 FFF7FEFF 		bl	GPIO_ReadBits
 280              	.LVL8:
 281              		.loc 1 72 9 view .LVU72
 282 0008 0225     		movs	r5, #2
 283 000a 114B     		ldr	r3, .L36+4
 284 000c 114E     		ldr	r6, .L36+8
  73:../USER/main.c **** 	for(i=0;i<2;i++){
  74:../USER/main.c **** 		GPIO_WriteBits(GPIO0,0x03); delay_ms(100);
 285              		.loc 1 74 3 view .LVU73
 286 000e 0F4C     		ldr	r4, .L36
  72:../USER/main.c **** 	for(i=0;i<2;i++){
 287              		.loc 1 72 9 view .LVU74
 288 0010 1860     		str	r0, [r3]
  73:../USER/main.c **** 	for(i=0;i<2;i++){
 289              		.loc 1 73 2 is_stmt 1 view .LVU75
 290              	.LVL9:
 291              	.L25:
 292              		.loc 1 74 3 discriminator 3 view .LVU76
 293 0012 0321     		movs	r1, #3
 294 0014 2046     		mov	r0, r4
 295 0016 FFF7FEFF 		bl	GPIO_WriteBits
 296              	.LVL10:
 297              		.loc 1 74 31 discriminator 3 view .LVU77
 298 001a 6423     		movs	r3, #100
 299              	.LVL11:
 300              	.LBB35:
 301              	.LBI35:
  65:../USER/main.c **** 	for(delay_ms=(SystemCoreClock>>13)*delay_ms; delay_ms != 0; delay_ms--);
 302              		.loc 1 65 6 discriminator 3 view .LVU78
 303              	.LBB36:
  66:../USER/main.c **** }
 304              		.loc 1 66 2 discriminator 3 view .LVU79
  66:../USER/main.c **** }
 305              		.loc 1 66 31 is_stmt 0 discriminator 3 view .LVU80
 306 001c 3268     		ldr	r2, [r6]
 307 001e 520B     		lsrs	r2, r2, #13
  66:../USER/main.c **** }
 308              		.loc 1 66 36 discriminator 3 view .LVU81
 309 0020 03FB02F3 		mul	r3, r3, r2
  66:../USER/main.c **** }
 310              		.loc 1 66 2 discriminator 3 view .LVU82
 311 0024 0BB1     		cbz	r3, .L21
 312              	.L22:
  66:../USER/main.c **** }
 313              		.loc 1 66 73 is_stmt 1 view .LVU83
  66:../USER/main.c **** }
 314              		.loc 1 66 2 is_stmt 0 view .LVU84
 315 0026 013B     		subs	r3, r3, #1
 316 0028 FDD1     		bne	.L22
 317              	.L21:
 318              	.LVL12:
  66:../USER/main.c **** }
 319              		.loc 1 66 2 view .LVU85
 320              	.LBE36:
 321              	.LBE35:
  75:../USER/main.c **** 		GPIO_WriteBits(GPIO0,0x00); delay_ms(100);
 322              		.loc 1 75 3 is_stmt 1 view .LVU86
 323 002a 0021     		movs	r1, #0
 324 002c 2046     		mov	r0, r4
 325 002e FFF7FEFF 		bl	GPIO_WriteBits
 326              	.LVL13:
 327              		.loc 1 75 31 view .LVU87
 328 0032 6423     		movs	r3, #100
 329              	.LVL14:
 330              	.LBB37:
 331              	.LBI37:
  65:../USER/main.c **** 	for(delay_ms=(SystemCoreClock>>13)*delay_ms; delay_ms != 0; delay_ms--);
 332              		.loc 1 65 6 view .LVU88
 333              	.LBB38:
  66:../USER/main.c **** }
 334              		.loc 1 66 2 view .LVU89
  66:../USER/main.c **** }
 335              		.loc 1 66 31 is_stmt 0 view .LVU90
 336 0034 3268     		ldr	r2, [r6]
 337 0036 520B     		lsrs	r2, r2, #13
  66:../USER/main.c **** }
 338              		.loc 1 66 36 view .LVU91
 339 0038 03FB02F3 		mul	r3, r3, r2
  66:../USER/main.c **** }
 340              		.loc 1 66 2 view .LVU92
 341 003c 0BB1     		cbz	r3, .L23
 342              	.L24:
  66:../USER/main.c **** }
 343              		.loc 1 66 73 is_stmt 1 view .LVU93
  66:../USER/main.c **** }
 344              		.loc 1 66 2 is_stmt 0 view .LVU94
 345 003e 013B     		subs	r3, r3, #1
 346 0040 FDD1     		bne	.L24
 347              	.L23:
 348              	.LVL15:
  66:../USER/main.c **** }
 349              		.loc 1 66 2 view .LVU95
 350              	.LBE38:
 351              	.LBE37:
  73:../USER/main.c **** 		GPIO_WriteBits(GPIO0,0x03); delay_ms(100);
 352              		.loc 1 73 2 view .LVU96
 353 0042 012D     		cmp	r5, #1
 354 0044 00D1     		bne	.L26
  76:../USER/main.c **** 	}
  77:../USER/main.c **** }// アセンブラ　コンパイルできる記述例(実行性は未検証)
 355              		.loc 1 77 1 view .LVU97
 356 0046 70BD     		pop	{r4, r5, r6, pc}
 357              	.L26:
 358 0048 0125     		movs	r5, #1
 359 004a E2E7     		b	.L25
 360              	.L37:
 361              		.align	2
 362              	.L36:
 363 004c 00000140 		.word	1073807360
 364 0050 00000000 		.word	mdgpio
 365 0054 00000000 		.word	SystemCoreClock
 366              		.cfi_endproc
 367              	.LFE36:
 369              		.section	.text.c2asm,"ax",%progbits
 370              		.align	1
 371              		.p2align 2,,3
 372              		.global	c2asm
 373              		.syntax unified
 374              		.thumb
 375              		.thumb_func
 376              		.fpu softvfp
 378              	c2asm:
 379              	.LFB37:
  78:../USER/main.c **** //　関数例　gcc用(Arm純正はエラー)
  79:../USER/main.c **** int add3_embasm(int i);
  80:../USER/main.c **** asm (
  81:../USER/main.c ****     "add3_embasm:\n\t"
  82:../USER/main.c ****     " add r0, #3\n\t"
  83:../USER/main.c ****     " bx lr\n\t"
  84:../USER/main.c **** );
  85:../USER/main.c **** 
  86:../USER/main.c **** void c2asm(void){
 380              		.loc 1 86 17 is_stmt 1 view -0
 381              		.cfi_startproc
 382              		@ args = 0, pretend = 0, frame = 0
 383              		@ frame_needed = 0, uses_anonymous_args = 0
 384              		@ link register save eliminated.
  87:../USER/main.c **** 	__asm("nop");
 385              		.loc 1 87 2 view .LVU99
 386              		.syntax unified
 387              	@ 87 "../USER/main.c" 1
 388 0000 00BF     		nop
 389              	@ 0 "" 2
  88:../USER/main.c **** 	//　インライン Arm純正ツールチェーン用(レジスタ名は書けない)
  89:../USER/main.c **** 	static int vb,i
 390              		.loc 1 89 2 view .LVU100
  90:../USER/main.c **** 	 __asm("add vb, i");
  91:../USER/main.c **** 	//　インライン　gcc用
  92:../USER/main.c **** 	asm( "add %[Rd1], %[Rs1] \n\t"	// 命令(add)テンプレート
 391              		.loc 1 92 2 view .LVU101
 392              		.thumb
 393              		.syntax unified
 394 0002 024A     		ldr	r2, .L39
 395 0004 0023     		movs	r3, #0
 396              		.syntax unified
 397              	@ 92 "../USER/main.c" 1
 398 0006 1B44     		add r3, r3 
 399              		
 400              	@ 0 "" 2
 401              		.thumb
 402              		.syntax unified
 403 0008 1360     		str	r3, [r2]
  93:../USER/main.c **** 	    : [Rd1] "=r" (vb)			// 変数(vb)をレジスタ(rd1)にヒモ付け
  94:../USER/main.c **** 	    : [Rs1] "r" (i)
  95:../USER/main.c **** 	    :							// 壊れるレジスタを記述
  96:../USER/main.c **** 	);
  97:../USER/main.c **** }
 404              		.loc 1 97 1 is_stmt 0 view .LVU102
 405 000a 7047     		bx	lr
 406              	.L40:
 407              		.align	2
 408              	.L39:
 409 000c 00000000 		.word	.LANCHOR0
 410              		.cfi_endproc
 411              	.LFE37:
 413              		.section	.text.setsup,"ax",%progbits
 414              		.align	1
 415              		.p2align 2,,3
 416              		.global	setsup
 417              		.syntax unified
 418              		.thumb
 419              		.thumb_func
 420              		.fpu softvfp
 422              	setsup:
 423              	.LVL16:
 424              	.LFB38:
  98:../USER/main.c **** 
  99:../USER/main.c **** #define getch getchuart
 100:../USER/main.c **** #define putch putchuart
 101:../USER/main.c **** #define gets  getsuart
 102:../USER/main.c **** #define puts  putsuart
 103:../USER/main.c **** void setsup(buf) char *buf;{
 425              		.loc 1 103 28 is_stmt 1 view -0
 426              		.cfi_startproc
 427              		@ args = 0, pretend = 0, frame = 0
 428              		@ frame_needed = 0, uses_anonymous_args = 0
 429              		@ link register save eliminated.
 104:../USER/main.c ****   while(*buf!=0x0d){
 430              		.loc 1 104 3 view .LVU104
 431              		.loc 1 104 9 is_stmt 0 view .LVU105
 432 0000 90F90030 		ldrsb	r3, [r0]
 433              		.loc 1 104 8 view .LVU106
 434 0004 0D2B     		cmp	r3, #13
 435 0006 0FD0     		beq	.L41
 436              	.LVL17:
 437              	.L45:
 105:../USER/main.c ****    if( *buf>='a' && *buf<='z') *buf = *buf - 0x20;
 438              		.loc 1 105 4 is_stmt 1 view .LVU107
 439              		.loc 1 105 32 view .LVU108
 106:../USER/main.c ****    buf++;
 440              		.loc 1 106 4 view .LVU109
 105:../USER/main.c ****    if( *buf>='a' && *buf<='z') *buf = *buf - 0x20;
 441              		.loc 1 105 18 is_stmt 0 view .LVU110
 442 0008 DBB2     		uxtb	r3, r3
 105:../USER/main.c ****    if( *buf>='a' && *buf<='z') *buf = *buf - 0x20;
 443              		.loc 1 105 44 view .LVU111
 444 000a A3F12002 		sub	r2, r3, #32
 105:../USER/main.c ****    if( *buf>='a' && *buf<='z') *buf = *buf - 0x20;
 445              		.loc 1 105 6 view .LVU112
 446 000e 613B     		subs	r3, r3, #97
 447 0010 192B     		cmp	r3, #25
 448 0012 05D8     		bhi	.L43
 105:../USER/main.c ****    if( *buf>='a' && *buf<='z') *buf = *buf - 0x20;
 449              		.loc 1 105 37 discriminator 1 view .LVU113
 450 0014 0270     		strb	r2, [r0]
 451              		.loc 1 106 4 is_stmt 1 discriminator 1 view .LVU114
 104:../USER/main.c ****   while(*buf!=0x0d){
 452              		.loc 1 104 9 is_stmt 0 discriminator 1 view .LVU115
 453 0016 10F9013F 		ldrsb	r3, [r0, #1]!
 454              	.LVL18:
 104:../USER/main.c ****   while(*buf!=0x0d){
 455              		.loc 1 104 8 discriminator 1 view .LVU116
 456 001a 0D2B     		cmp	r3, #13
 457 001c F4D1     		bne	.L45
 458 001e 7047     		bx	lr
 459              	.LVL19:
 460              	.L43:
 104:../USER/main.c ****   while(*buf!=0x0d){
 461              		.loc 1 104 9 view .LVU117
 462 0020 10F9013F 		ldrsb	r3, [r0, #1]!
 463              	.LVL20:
 104:../USER/main.c ****   while(*buf!=0x0d){
 464              		.loc 1 104 8 view .LVU118
 465 0024 0D2B     		cmp	r3, #13
 466 0026 EFD1     		bne	.L45
 467              	.LVL21:
 468              	.L41:
 107:../USER/main.c ****   }
 108:../USER/main.c **** }
 469              		.loc 1 108 1 view .LVU119
 470 0028 7047     		bx	lr
 471              		.cfi_endproc
 472              	.LFE38:
 474 002a 00BF     		.section	.text.spi_read,"ax",%progbits
 475              		.align	1
 476              		.p2align 2,,3
 477              		.global	spi_read
 478              		.syntax unified
 479              		.thumb
 480              		.thumb_func
 481              		.fpu softvfp
 483              	spi_read:
 484              	.LFB39:
 109:../USER/main.c **** char kinbuf[256];
 110:../USER/main.c **** int kinbwp =0, kinbrp = 0;
 111:../USER/main.c **** void spi_read() {
 485              		.loc 1 111 17 is_stmt 1 view -0
 486              		.cfi_startproc
 487              		@ args = 0, pretend = 0, frame = 0
 488              		@ frame_needed = 0, uses_anonymous_args = 0
 112:../USER/main.c **** 	char ch;
 489              		.loc 1 112 2 view .LVU121
 113:../USER/main.c **** 	ch = SPI_ReadData();
 490              		.loc 1 113 2 view .LVU122
 111:../USER/main.c **** 	char ch;
 491              		.loc 1 111 17 is_stmt 0 view .LVU123
 492 0000 10B5     		push	{r4, lr}
 493              		.cfi_def_cfa_offset 8
 494              		.cfi_offset 4, -8
 495              		.cfi_offset 14, -4
 496              		.loc 1 113 7 view .LVU124
 497 0002 FFF7FEFF 		bl	SPI_ReadData
 498              	.LVL22:
 499              		.loc 1 113 5 view .LVU125
 500 0006 40B2     		sxtb	r0, r0
 501              	.LVL23:
 114:../USER/main.c **** 	if(ch!=0) kinbuf[kinbwp++] = ch;
 502              		.loc 1 114 2 is_stmt 1 view .LVU126
 503              		.loc 1 114 25 is_stmt 0 view .LVU127
 504 0008 094B     		ldr	r3, .L57
 505              		.loc 1 114 4 view .LVU128
 506 000a 28B9     		cbnz	r0, .L53
 507 000c 1A68     		ldr	r2, [r3]
 115:../USER/main.c **** 	if(kinbwp>=256) kinbwp = 0;
 508              		.loc 1 115 2 is_stmt 1 view .LVU129
 509              		.loc 1 115 4 is_stmt 0 view .LVU130
 510 000e FF2A     		cmp	r2, #255
 511              		.loc 1 115 18 is_stmt 1 view .LVU131
 512              		.loc 1 115 25 is_stmt 0 view .LVU132
 513 0010 C4BF     		itt	gt
 514 0012 0022     		movgt	r2, #0
 515 0014 1A60     		strgt	r2, [r3]
 116:../USER/main.c **** }
 516              		.loc 1 116 1 view .LVU133
 517 0016 10BD     		pop	{r4, pc}
 518              	.L53:
 114:../USER/main.c **** 	if(ch!=0) kinbuf[kinbwp++] = ch;
 519              		.loc 1 114 12 is_stmt 1 discriminator 1 view .LVU134
 114:../USER/main.c **** 	if(ch!=0) kinbuf[kinbwp++] = ch;
 520              		.loc 1 114 25 is_stmt 0 discriminator 1 view .LVU135
 521 0018 1968     		ldr	r1, [r3]
 114:../USER/main.c **** 	if(ch!=0) kinbuf[kinbwp++] = ch;
 522              		.loc 1 114 29 discriminator 1 view .LVU136
 523 001a 064C     		ldr	r4, .L57+4
 114:../USER/main.c **** 	if(ch!=0) kinbuf[kinbwp++] = ch;
 524              		.loc 1 114 25 discriminator 1 view .LVU137
 525 001c 4A1C     		adds	r2, r1, #1
 115:../USER/main.c **** 	if(kinbwp>=256) kinbwp = 0;
 526              		.loc 1 115 4 discriminator 1 view .LVU138
 527 001e FF2A     		cmp	r2, #255
 114:../USER/main.c **** 	if(ch!=0) kinbuf[kinbwp++] = ch;
 528              		.loc 1 114 25 discriminator 1 view .LVU139
 529 0020 1A60     		str	r2, [r3]
 115:../USER/main.c **** 	if(kinbwp>=256) kinbwp = 0;
 530              		.loc 1 115 2 is_stmt 1 discriminator 1 view .LVU140
 115:../USER/main.c **** 	if(kinbwp>=256) kinbwp = 0;
 531              		.loc 1 115 18 discriminator 1 view .LVU141
 115:../USER/main.c **** 	if(kinbwp>=256) kinbwp = 0;
 532              		.loc 1 115 25 is_stmt 0 discriminator 1 view .LVU142
 533 0022 C8BF     		it	gt
 534 0024 0022     		movgt	r2, #0
 114:../USER/main.c **** 	if(ch!=0) kinbuf[kinbwp++] = ch;
 535              		.loc 1 114 29 discriminator 1 view .LVU143
 536 0026 6054     		strb	r0, [r4, r1]
 115:../USER/main.c **** 	if(kinbwp>=256) kinbwp = 0;
 537              		.loc 1 115 25 discriminator 1 view .LVU144
 538 0028 C8BF     		it	gt
 539 002a 1A60     		strgt	r2, [r3]
 540              		.loc 1 116 1 discriminator 1 view .LVU145
 541 002c 10BD     		pop	{r4, pc}
 542              	.L58:
 543 002e 00BF     		.align	2
 544              	.L57:
 545 0030 00000000 		.word	.LANCHOR1
 546 0034 00000000 		.word	kinbuf
 547              		.cfi_endproc
 548              	.LFE39:
 550              		.section	.text.getchuart,"ax",%progbits
 551              		.align	1
 552              		.p2align 2,,3
 553              		.global	getchuart
 554              		.syntax unified
 555              		.thumb
 556              		.thumb_func
 557              		.fpu softvfp
 559              	getchuart:
 560              	.LFB40:
 117:../USER/main.c **** char getchuart(void){
 561              		.loc 1 117 21 is_stmt 1 view -0
 562              		.cfi_startproc
 563              		@ args = 0, pretend = 0, frame = 0
 564              		@ frame_needed = 0, uses_anonymous_args = 0
 118:../USER/main.c **** 	if((mdgpio & 0x2000)==0) return UART_ReceiveChar(UART0);
 565              		.loc 1 118 2 view .LVU147
 117:../USER/main.c **** char getchuart(void){
 566              		.loc 1 117 21 is_stmt 0 view .LVU148
 567 0000 F8B5     		push	{r3, r4, r5, r6, r7, lr}
 568              		.cfi_def_cfa_offset 24
 569              		.cfi_offset 3, -24
 570              		.cfi_offset 4, -20
 571              		.cfi_offset 5, -16
 572              		.cfi_offset 6, -12
 573              		.cfi_offset 7, -8
 574              		.cfi_offset 14, -4
 575              		.loc 1 118 13 view .LVU149
 576 0002 174B     		ldr	r3, .L70
 577 0004 1B68     		ldr	r3, [r3]
 578              		.loc 1 118 4 view .LVU150
 579 0006 9B04     		lsls	r3, r3, #18
 580 0008 23D5     		bpl	.L60
 581              	.LBB46:
 582              	.LBB47:
 583              	.LBB48:
 115:../USER/main.c **** }
 584              		.loc 1 115 25 view .LVU151
 585 000a 0027     		movs	r7, #0
 586 000c 154C     		ldr	r4, .L70+4
 587 000e 164E     		ldr	r6, .L70+8
 588 0010 2368     		ldr	r3, [r4]
 589 0012 164D     		ldr	r5, .L70+12
 590              	.L65:
 591              	.LBE48:
 592              	.LBE47:
 119:../USER/main.c **** 	else {
 120:../USER/main.c **** 		char dt;
 121:../USER/main.c **** 		while(kinbrp==kinbwp) spi_read();
 593              		.loc 1 121 25 is_stmt 1 discriminator 1 view .LVU152
 594              	.LBB54:
 595              	.LBI47:
 111:../USER/main.c **** 	char ch;
 596              		.loc 1 111 6 discriminator 1 view .LVU153
 597              	.LBB49:
 112:../USER/main.c **** 	ch = SPI_ReadData();
 598              		.loc 1 112 2 discriminator 1 view .LVU154
 113:../USER/main.c **** 	if(ch!=0) kinbuf[kinbwp++] = ch;
 599              		.loc 1 113 2 discriminator 1 view .LVU155
 600              	.LBE49:
 601              	.LBE54:
 602              		.loc 1 121 15 is_stmt 0 discriminator 1 view .LVU156
 603 0014 2A68     		ldr	r2, [r5]
 604              		.loc 1 121 8 discriminator 1 view .LVU157
 605 0016 9A42     		cmp	r2, r3
 606 0018 0BD1     		bne	.L69
 607              	.L66:
 608              	.LBB55:
 609              	.LBB50:
 113:../USER/main.c **** 	if(ch!=0) kinbuf[kinbwp++] = ch;
 610              		.loc 1 113 7 view .LVU158
 611 001a FFF7FEFF 		bl	SPI_ReadData
 612              	.LVL24:
 114:../USER/main.c **** 	if(kinbwp>=256) kinbwp = 0;
 613              		.loc 1 114 12 is_stmt 1 view .LVU159
 115:../USER/main.c **** }
 614              		.loc 1 115 18 view .LVU160
 113:../USER/main.c **** 	if(ch!=0) kinbuf[kinbwp++] = ch;
 615              		.loc 1 113 5 is_stmt 0 view .LVU161
 616 001e 40B2     		sxtb	r0, r0
 617              	.LVL25:
 114:../USER/main.c **** 	if(kinbwp>=256) kinbwp = 0;
 618              		.loc 1 114 2 is_stmt 1 view .LVU162
 114:../USER/main.c **** 	if(kinbwp>=256) kinbwp = 0;
 619              		.loc 1 114 4 is_stmt 0 view .LVU163
 620 0020 80B9     		cbnz	r0, .L62
 621 0022 2368     		ldr	r3, [r4]
 115:../USER/main.c **** }
 622              		.loc 1 115 2 is_stmt 1 view .LVU164
 115:../USER/main.c **** }
 623              		.loc 1 115 4 is_stmt 0 view .LVU165
 624 0024 FF2B     		cmp	r3, #255
 625 0026 F5DD     		ble	.L65
 626              	.L63:
 627 0028 0023     		movs	r3, #0
 628              	.LBE50:
 629              	.LBE55:
 630              		.loc 1 121 15 view .LVU166
 631 002a 2A68     		ldr	r2, [r5]
 632              	.LBB56:
 633              	.LBB51:
 115:../USER/main.c **** }
 634              		.loc 1 115 25 view .LVU167
 635 002c 2760     		str	r7, [r4]
 636              	.LBE51:
 637              	.LBE56:
 638              		.loc 1 121 25 is_stmt 1 view .LVU168
 639              	.LBB57:
 111:../USER/main.c **** 	char ch;
 640              		.loc 1 111 6 view .LVU169
 641              	.LBB52:
 112:../USER/main.c **** 	ch = SPI_ReadData();
 642              		.loc 1 112 2 view .LVU170
 113:../USER/main.c **** 	if(ch!=0) kinbuf[kinbwp++] = ch;
 643              		.loc 1 113 2 view .LVU171
 644              	.LBE52:
 645              	.LBE57:
 646              		.loc 1 121 8 is_stmt 0 view .LVU172
 647 002e 9A42     		cmp	r2, r3
 648 0030 F3D0     		beq	.L66
 649              	.LVL26:
 650              	.L69:
 122:../USER/main.c **** 		dt = kinbuf[kinbrp++];
 651              		.loc 1 122 3 is_stmt 1 view .LVU173
 652              		.loc 1 122 21 is_stmt 0 view .LVU174
 653 0032 531C     		adds	r3, r2, #1
 123:../USER/main.c **** 		if(kinbrp>=256) kinbrp = 0;
 654              		.loc 1 123 5 view .LVU175
 655 0034 FF2B     		cmp	r3, #255
 122:../USER/main.c **** 		dt = kinbuf[kinbrp++];
 656              		.loc 1 122 21 view .LVU176
 657 0036 2B60     		str	r3, [r5]
 658              		.loc 1 123 26 view .LVU177
 659 0038 C8BF     		it	gt
 660 003a 0023     		movgt	r3, #0
 122:../USER/main.c **** 		dt = kinbuf[kinbrp++];
 661              		.loc 1 122 6 view .LVU178
 662 003c B056     		ldrsb	r0, [r6, r2]
 663              	.LVL27:
 664              		.loc 1 123 3 is_stmt 1 view .LVU179
 665              		.loc 1 123 19 view .LVU180
 666              		.loc 1 123 26 is_stmt 0 view .LVU181
 667 003e C8BF     		it	gt
 668 0040 2B60     		strgt	r3, [r5]
 669              	.LBE46:
 124:../USER/main.c **** 		return dt;
 125:../USER/main.c **** 	}
 126:../USER/main.c **** }
 670              		.loc 1 126 1 view .LVU182
 671 0042 F8BD     		pop	{r3, r4, r5, r6, r7, pc}
 672              	.LVL28:
 673              	.L62:
 674              	.LBB59:
 675              	.LBB58:
 676              	.LBB53:
 114:../USER/main.c **** 	if(kinbwp>=256) kinbwp = 0;
 677              		.loc 1 114 25 view .LVU183
 678 0044 2268     		ldr	r2, [r4]
 679 0046 531C     		adds	r3, r2, #1
 115:../USER/main.c **** }
 680              		.loc 1 115 4 view .LVU184
 681 0048 FF2B     		cmp	r3, #255
 114:../USER/main.c **** 	if(kinbwp>=256) kinbwp = 0;
 682              		.loc 1 114 29 view .LVU185
 683 004a B054     		strb	r0, [r6, r2]
 115:../USER/main.c **** }
 684              		.loc 1 115 2 is_stmt 1 view .LVU186
 114:../USER/main.c **** 	if(kinbwp>=256) kinbwp = 0;
 685              		.loc 1 114 25 is_stmt 0 view .LVU187
 686 004c 2360     		str	r3, [r4]
 115:../USER/main.c **** }
 687              		.loc 1 115 4 view .LVU188
 688 004e E1DD     		ble	.L65
 115:../USER/main.c **** }
 689              		.loc 1 115 4 view .LVU189
 690 0050 EAE7     		b	.L63
 691              	.LVL29:
 692              	.L60:
 115:../USER/main.c **** }
 693              		.loc 1 115 4 view .LVU190
 694              	.LBE53:
 695              	.LBE58:
 696              	.LBE59:
 697              	.LBB60:
 698              	.LBI60:
 117:../USER/main.c **** 	if((mdgpio & 0x2000)==0) return UART_ReceiveChar(UART0);
 699              		.loc 1 117 6 is_stmt 1 view .LVU191
 700              	.LBB61:
 118:../USER/main.c **** 	else {
 701              		.loc 1 118 27 view .LVU192
 118:../USER/main.c **** 	else {
 702              		.loc 1 118 34 is_stmt 0 view .LVU193
 703 0052 4FF04020 		mov	r0, #1073758208
 704              	.LBE61:
 705              	.LBE60:
 706              		.loc 1 126 1 view .LVU194
 707 0056 BDE8F840 		pop	{r3, r4, r5, r6, r7, lr}
 708              		.cfi_restore 14
 709              		.cfi_restore 7
 710              		.cfi_restore 6
 711              		.cfi_restore 5
 712              		.cfi_restore 4
 713              		.cfi_restore 3
 714              		.cfi_def_cfa_offset 0
 715              	.LBB63:
 716              	.LBB62:
 118:../USER/main.c **** 	else {
 717              		.loc 1 118 34 view .LVU195
 718 005a FFF7FEBF 		b	UART_ReceiveChar
 719              	.LVL30:
 720              	.L71:
 721 005e 00BF     		.align	2
 722              	.L70:
 723 0060 00000000 		.word	mdgpio
 724 0064 00000000 		.word	.LANCHOR1
 725 0068 00000000 		.word	kinbuf
 726 006c 00000000 		.word	.LANCHOR2
 727              	.LBE62:
 728              	.LBE63:
 729              		.cfi_endproc
 730              	.LFE40:
 732              		.section	.text.putchuart,"ax",%progbits
 733              		.align	1
 734              		.p2align 2,,3
 735              		.global	putchuart
 736              		.syntax unified
 737              		.thumb
 738              		.thumb_func
 739              		.fpu softvfp
 741              	putchuart:
 742              	.LVL31:
 743              	.LFB41:
 127:../USER/main.c **** void putchuart(char ch){
 744              		.loc 1 127 24 is_stmt 1 view -0
 745              		.cfi_startproc
 746              		@ args = 0, pretend = 0, frame = 8
 747              		@ frame_needed = 0, uses_anonymous_args = 0
 128:../USER/main.c **** 	volatile uint32_t gpiord;
 748              		.loc 1 128 2 view .LVU197
 129:../USER/main.c **** 	if((mdgpio & 0x2000)==0)
 749              		.loc 1 129 2 view .LVU198
 750              		.loc 1 129 13 is_stmt 0 view .LVU199
 751 0000 1A4B     		ldr	r3, .L90
 752 0002 1B68     		ldr	r3, [r3]
 753              		.loc 1 129 4 view .LVU200
 754 0004 9904     		lsls	r1, r3, #18
 755 0006 2BD5     		bpl	.L88
 756              	.LBB68:
 757              	.LBB69:
 130:../USER/main.c **** 		UART_SendChar(UART0,ch);
 131:../USER/main.c **** 	else {
 132:../USER/main.c **** 		gpiord = 0x4000;
 758              		.loc 1 132 10 view .LVU201
 759 0008 4FF48043 		mov	r3, #16384
 760              	.LBE69:
 761              	.LBE68:
 127:../USER/main.c **** 	volatile uint32_t gpiord;
 762              		.loc 1 127 24 view .LVU202
 763 000c 2DE9F041 		push	{r4, r5, r6, r7, r8, lr}
 764              		.cfi_def_cfa_offset 24
 765              		.cfi_offset 4, -24
 766              		.cfi_offset 5, -20
 767              		.cfi_offset 6, -16
 768              		.cfi_offset 7, -12
 769              		.cfi_offset 8, -8
 770              		.cfi_offset 14, -4
 771 0010 82B0     		sub	sp, sp, #8
 772              		.cfi_def_cfa_offset 32
 773              	.LBB83:
 774              	.LBB80:
 775              		.loc 1 132 10 view .LVU203
 776 0012 0193     		str	r3, [sp, #4]
 133:../USER/main.c **** 		while((gpiord & 0x4000)!=0) {
 777              		.loc 1 133 17 view .LVU204
 778 0014 019B     		ldr	r3, [sp, #4]
 779 0016 0646     		mov	r6, r0
 780              	.LVL32:
 781              		.loc 1 133 17 view .LVU205
 782              	.LBE80:
 783              	.LBI68:
 127:../USER/main.c **** 	volatile uint32_t gpiord;
 784              		.loc 1 127 6 is_stmt 1 view .LVU206
 785              	.LBB81:
 132:../USER/main.c **** 		while((gpiord & 0x4000)!=0) {
 786              		.loc 1 132 3 view .LVU207
 787              		.loc 1 133 3 view .LVU208
 788              		.loc 1 133 8 is_stmt 0 view .LVU209
 789 0018 5A04     		lsls	r2, r3, #17
 790 001a 1BD5     		bpl	.L79
 791 001c 144C     		ldr	r4, .L90+4
 792              	.LBB70:
 793              	.LBB71:
 114:../USER/main.c **** 	if(kinbwp>=256) kinbwp = 0;
 794              		.loc 1 114 29 view .LVU210
 795 001e DFF85880 		ldr	r8, .L90+12
 796              	.LBE71:
 797              	.LBE70:
 134:../USER/main.c **** 			spi_read();
 135:../USER/main.c **** 			gpiord = GPIO_ReadBits(GPIO0);
 798              		.loc 1 135 13 view .LVU211
 799 0022 144D     		ldr	r5, .L90+8
 800              	.LBB76:
 801              	.LBB72:
 115:../USER/main.c **** }
 802              		.loc 1 115 25 view .LVU212
 803 0024 0027     		movs	r7, #0
 804 0026 0AE0     		b	.L74
 805              	.LVL33:
 806              	.L89:
 115:../USER/main.c **** }
 807              		.loc 1 115 25 view .LVU213
 808 0028 2368     		ldr	r3, [r4]
 809              	.L76:
 115:../USER/main.c **** }
 810              		.loc 1 115 2 is_stmt 1 view .LVU214
 115:../USER/main.c **** }
 811              		.loc 1 115 18 view .LVU215
 812              	.LVL34:
 115:../USER/main.c **** }
 813              		.loc 1 115 18 is_stmt 0 view .LVU216
 814              	.LBE72:
 815              	.LBE76:
 816              		.loc 1 135 4 is_stmt 1 view .LVU217
 817              	.LBB77:
 818              	.LBB73:
 115:../USER/main.c **** }
 819              		.loc 1 115 4 is_stmt 0 view .LVU218
 820 002a FF2B     		cmp	r3, #255
 821              	.LBE73:
 822              	.LBE77:
 823              		.loc 1 135 13 view .LVU219
 824 002c 2846     		mov	r0, r5
 825              	.LBB78:
 826              	.LBB74:
 115:../USER/main.c **** }
 827              		.loc 1 115 25 view .LVU220
 828 002e C8BF     		it	gt
 829 0030 2760     		strgt	r7, [r4]
 830              	.LBE74:
 831              	.LBE78:
 832              		.loc 1 135 4 is_stmt 1 view .LVU221
 833              		.loc 1 135 13 is_stmt 0 view .LVU222
 834 0032 FFF7FEFF 		bl	GPIO_ReadBits
 835              	.LVL35:
 836              		.loc 1 135 11 view .LVU223
 837 0036 0190     		str	r0, [sp, #4]
 133:../USER/main.c **** 			spi_read();
 838              		.loc 1 133 17 view .LVU224
 839 0038 019B     		ldr	r3, [sp, #4]
 133:../USER/main.c **** 			spi_read();
 840              		.loc 1 133 8 view .LVU225
 841 003a 5B04     		lsls	r3, r3, #17
 842 003c 0AD5     		bpl	.L79
 843              	.L74:
 134:../USER/main.c **** 			spi_read();
 844              		.loc 1 134 4 is_stmt 1 view .LVU226
 845              	.LBB79:
 846              	.LBI70:
 111:../USER/main.c **** 	char ch;
 847              		.loc 1 111 6 view .LVU227
 848              	.LBB75:
 112:../USER/main.c **** 	ch = SPI_ReadData();
 849              		.loc 1 112 2 view .LVU228
 113:../USER/main.c **** 	if(ch!=0) kinbuf[kinbwp++] = ch;
 850              		.loc 1 113 2 view .LVU229
 113:../USER/main.c **** 	if(ch!=0) kinbuf[kinbwp++] = ch;
 851              		.loc 1 113 7 is_stmt 0 view .LVU230
 852 003e FFF7FEFF 		bl	SPI_ReadData
 853              	.LVL36:
 114:../USER/main.c **** 	if(kinbwp>=256) kinbwp = 0;
 854              		.loc 1 114 12 is_stmt 1 view .LVU231
 113:../USER/main.c **** 	if(ch!=0) kinbuf[kinbwp++] = ch;
 855              		.loc 1 113 5 is_stmt 0 view .LVU232
 856 0042 40B2     		sxtb	r0, r0
 857              	.LVL37:
 114:../USER/main.c **** 	if(kinbwp>=256) kinbwp = 0;
 858              		.loc 1 114 2 is_stmt 1 view .LVU233
 114:../USER/main.c **** 	if(kinbwp>=256) kinbwp = 0;
 859              		.loc 1 114 4 is_stmt 0 view .LVU234
 860 0044 0028     		cmp	r0, #0
 861 0046 EFD0     		beq	.L89
 114:../USER/main.c **** 	if(kinbwp>=256) kinbwp = 0;
 862              		.loc 1 114 25 view .LVU235
 863 0048 2268     		ldr	r2, [r4]
 864 004a 531C     		adds	r3, r2, #1
 114:../USER/main.c **** 	if(kinbwp>=256) kinbwp = 0;
 865              		.loc 1 114 29 view .LVU236
 866 004c 08F80200 		strb	r0, [r8, r2]
 114:../USER/main.c **** 	if(kinbwp>=256) kinbwp = 0;
 867              		.loc 1 114 25 view .LVU237
 868 0050 2360     		str	r3, [r4]
 869 0052 EAE7     		b	.L76
 870              	.LVL38:
 871              	.L79:
 114:../USER/main.c **** 	if(kinbwp>=256) kinbwp = 0;
 872              		.loc 1 114 25 view .LVU238
 873              	.LBE75:
 874              	.LBE79:
 136:../USER/main.c **** 		}
 137:../USER/main.c **** 		SPI_WriteData(ch);
 875              		.loc 1 137 3 is_stmt 1 view .LVU239
 876 0054 F0B2     		uxtb	r0, r6
 877              	.LBE81:
 878              	.LBE83:
 138:../USER/main.c **** 	}
 139:../USER/main.c **** }
 879              		.loc 1 139 1 is_stmt 0 view .LVU240
 880 0056 02B0     		add	sp, sp, #8
 881              		.cfi_def_cfa_offset 24
 882              		@ sp needed
 883 0058 BDE8F041 		pop	{r4, r5, r6, r7, r8, lr}
 884              		.cfi_restore 14
 885              		.cfi_restore 8
 886              		.cfi_restore 7
 887              		.cfi_restore 6
 888              		.cfi_restore 5
 889              		.cfi_restore 4
 890              		.cfi_def_cfa_offset 0
 891              	.LVL39:
 892              	.LBB84:
 893              	.LBB82:
 137:../USER/main.c **** 	}
 894              		.loc 1 137 3 view .LVU241
 895 005c FFF7FEBF 		b	SPI_WriteData
 896              	.LVL40:
 897              	.L88:
 137:../USER/main.c **** 	}
 898              		.loc 1 137 3 view .LVU242
 899              	.LBE82:
 900              	.LBE84:
 130:../USER/main.c **** 	else {
 901              		.loc 1 130 3 is_stmt 1 view .LVU243
 902 0060 0146     		mov	r1, r0
 903 0062 4FF04020 		mov	r0, #1073758208
 904              	.LVL41:
 130:../USER/main.c **** 	else {
 905              		.loc 1 130 3 is_stmt 0 view .LVU244
 906 0066 FFF7FEBF 		b	UART_SendChar
 907              	.LVL42:
 908              	.L91:
 909 006a 00BF     		.align	2
 910              	.L90:
 911 006c 00000000 		.word	mdgpio
 912 0070 00000000 		.word	.LANCHOR1
 913 0074 00000140 		.word	1073807360
 914 0078 00000000 		.word	kinbuf
 915              		.cfi_endproc
 916              	.LFE41:
 918              		.section	.text.puth,"ax",%progbits
 919              		.align	1
 920              		.p2align 2,,3
 921              		.global	puth
 922              		.syntax unified
 923              		.thumb
 924              		.thumb_func
 925              		.fpu softvfp
 927              	puth:
 928              	.LVL43:
 929              	.LFB42:
 140:../USER/main.c **** 
 141:../USER/main.c **** void puth(dt) int dt;{ if(dt<10) putch(0x30+dt); else putch(0x37+dt); }
 930              		.loc 1 141 22 is_stmt 1 view -0
 931              		.cfi_startproc
 932              		@ args = 0, pretend = 0, frame = 8
 933              		@ frame_needed = 0, uses_anonymous_args = 0
 934              		.loc 1 141 24 view .LVU246
 935              		.loc 1 141 22 is_stmt 0 view .LVU247
 936 0000 2DE9F041 		push	{r4, r5, r6, r7, r8, lr}
 937              		.cfi_def_cfa_offset 24
 938              		.cfi_offset 4, -24
 939              		.cfi_offset 5, -20
 940              		.cfi_offset 6, -16
 941              		.cfi_offset 7, -12
 942              		.cfi_offset 8, -8
 943              		.cfi_offset 14, -4
 944 0004 304B     		ldr	r3, .L124
 945              		.loc 1 141 26 view .LVU248
 946 0006 0928     		cmp	r0, #9
 947 0008 1B68     		ldr	r3, [r3]
 948              		.loc 1 141 22 view .LVU249
 949 000a 82B0     		sub	sp, sp, #8
 950              		.cfi_def_cfa_offset 32
 951 000c C2B2     		uxtb	r2, r0
 952 000e 03F40053 		and	r3, r3, #8192
 953              		.loc 1 141 26 view .LVU250
 954 0012 25DC     		bgt	.L93
 955              		.loc 1 141 34 is_stmt 1 discriminator 1 view .LVU251
 956              		.loc 1 141 44 is_stmt 0 discriminator 1 view .LVU252
 957 0014 3032     		adds	r2, r2, #48
 958 0016 D5B2     		uxtb	r5, r2
 959              	.LVL44:
 960              	.LBB97:
 961              	.LBI97:
 127:../USER/main.c **** 	volatile uint32_t gpiord;
 962              		.loc 1 127 6 is_stmt 1 discriminator 1 view .LVU253
 963              	.LBB98:
 128:../USER/main.c **** 	if((mdgpio & 0x2000)==0)
 964              		.loc 1 128 2 discriminator 1 view .LVU254
 129:../USER/main.c **** 		UART_SendChar(UART0,ch);
 965              		.loc 1 129 2 discriminator 1 view .LVU255
 129:../USER/main.c **** 		UART_SendChar(UART0,ch);
 966              		.loc 1 129 4 is_stmt 0 discriminator 1 view .LVU256
 967 0018 002B     		cmp	r3, #0
 968 001a 46D0     		beq	.L121
 969              	.LVL45:
 970              	.LBB99:
 971              	.LBI99:
 127:../USER/main.c **** 	volatile uint32_t gpiord;
 972              		.loc 1 127 6 is_stmt 1 view .LVU257
 973              	.LBB100:
 132:../USER/main.c **** 		while((gpiord & 0x4000)!=0) {
 974              		.loc 1 132 3 view .LVU258
 132:../USER/main.c **** 		while((gpiord & 0x4000)!=0) {
 975              		.loc 1 132 10 is_stmt 0 view .LVU259
 976 001c 4FF48043 		mov	r3, #16384
 977 0020 0093     		str	r3, [sp]
 133:../USER/main.c **** 			spi_read();
 978              		.loc 1 133 3 is_stmt 1 view .LVU260
 133:../USER/main.c **** 			spi_read();
 979              		.loc 1 133 17 is_stmt 0 view .LVU261
 980 0022 009B     		ldr	r3, [sp]
 133:../USER/main.c **** 			spi_read();
 981              		.loc 1 133 8 view .LVU262
 982 0024 5804     		lsls	r0, r3, #17
 983              	.LVL46:
 133:../USER/main.c **** 			spi_read();
 984              		.loc 1 133 8 view .LVU263
 985 0026 48D5     		bpl	.L107
 986 0028 284C     		ldr	r4, .L124+4
 987              	.LBB101:
 988              	.LBB102:
 114:../USER/main.c **** 	if(kinbwp>=256) kinbwp = 0;
 989              		.loc 1 114 29 view .LVU264
 990 002a DFF8A880 		ldr	r8, .L124+12
 991              	.LBE102:
 992              	.LBE101:
 135:../USER/main.c **** 		}
 993              		.loc 1 135 13 view .LVU265
 994 002e 284E     		ldr	r6, .L124+8
 995              	.LBB107:
 996              	.LBB103:
 115:../USER/main.c **** }
 997              		.loc 1 115 25 view .LVU266
 998 0030 0027     		movs	r7, #0
 999 0032 0AE0     		b	.L95
 1000              	.LVL47:
 1001              	.L122:
 115:../USER/main.c **** }
 1002              		.loc 1 115 25 view .LVU267
 1003 0034 2368     		ldr	r3, [r4]
 1004              	.L97:
 115:../USER/main.c **** }
 1005              		.loc 1 115 2 is_stmt 1 view .LVU268
 115:../USER/main.c **** }
 1006              		.loc 1 115 18 view .LVU269
 1007              	.LVL48:
 115:../USER/main.c **** }
 1008              		.loc 1 115 18 is_stmt 0 view .LVU270
 1009              	.LBE103:
 1010              	.LBE107:
 135:../USER/main.c **** 		}
 1011              		.loc 1 135 4 is_stmt 1 view .LVU271
 1012              	.LBB108:
 1013              	.LBB104:
 115:../USER/main.c **** }
 1014              		.loc 1 115 4 is_stmt 0 view .LVU272
 1015 0036 FF2B     		cmp	r3, #255
 1016              	.LBE104:
 1017              	.LBE108:
 135:../USER/main.c **** 		}
 1018              		.loc 1 135 13 view .LVU273
 1019 0038 3046     		mov	r0, r6
 1020              	.LBB109:
 1021              	.LBB105:
 115:../USER/main.c **** }
 1022              		.loc 1 115 25 view .LVU274
 1023 003a C8BF     		it	gt
 1024 003c 2760     		strgt	r7, [r4]
 1025              	.LBE105:
 1026              	.LBE109:
 135:../USER/main.c **** 		}
 1027              		.loc 1 135 4 is_stmt 1 view .LVU275
 135:../USER/main.c **** 		}
 1028              		.loc 1 135 13 is_stmt 0 view .LVU276
 1029 003e FFF7FEFF 		bl	GPIO_ReadBits
 1030              	.LVL49:
 135:../USER/main.c **** 		}
 1031              		.loc 1 135 11 view .LVU277
 1032 0042 0090     		str	r0, [sp]
 133:../USER/main.c **** 			spi_read();
 1033              		.loc 1 133 17 view .LVU278
 1034 0044 009B     		ldr	r3, [sp]
 133:../USER/main.c **** 			spi_read();
 1035              		.loc 1 133 8 view .LVU279
 1036 0046 5904     		lsls	r1, r3, #17
 1037 0048 37D5     		bpl	.L107
 1038              	.L95:
 134:../USER/main.c **** 			gpiord = GPIO_ReadBits(GPIO0);
 1039              		.loc 1 134 4 is_stmt 1 view .LVU280
 1040              	.LBB110:
 1041              	.LBI101:
 111:../USER/main.c **** 	char ch;
 1042              		.loc 1 111 6 view .LVU281
 1043              	.LBB106:
 112:../USER/main.c **** 	ch = SPI_ReadData();
 1044              		.loc 1 112 2 view .LVU282
 113:../USER/main.c **** 	if(ch!=0) kinbuf[kinbwp++] = ch;
 1045              		.loc 1 113 2 view .LVU283
 113:../USER/main.c **** 	if(ch!=0) kinbuf[kinbwp++] = ch;
 1046              		.loc 1 113 7 is_stmt 0 view .LVU284
 1047 004a FFF7FEFF 		bl	SPI_ReadData
 1048              	.LVL50:
 114:../USER/main.c **** 	if(kinbwp>=256) kinbwp = 0;
 1049              		.loc 1 114 12 is_stmt 1 view .LVU285
 113:../USER/main.c **** 	if(ch!=0) kinbuf[kinbwp++] = ch;
 1050              		.loc 1 113 5 is_stmt 0 view .LVU286
 1051 004e 40B2     		sxtb	r0, r0
 1052              	.LVL51:
 114:../USER/main.c **** 	if(kinbwp>=256) kinbwp = 0;
 1053              		.loc 1 114 2 is_stmt 1 view .LVU287
 114:../USER/main.c **** 	if(kinbwp>=256) kinbwp = 0;
 1054              		.loc 1 114 4 is_stmt 0 view .LVU288
 1055 0050 0028     		cmp	r0, #0
 1056 0052 EFD0     		beq	.L122
 114:../USER/main.c **** 	if(kinbwp>=256) kinbwp = 0;
 1057              		.loc 1 114 25 view .LVU289
 1058 0054 2268     		ldr	r2, [r4]
 1059 0056 531C     		adds	r3, r2, #1
 114:../USER/main.c **** 	if(kinbwp>=256) kinbwp = 0;
 1060              		.loc 1 114 29 view .LVU290
 1061 0058 08F80200 		strb	r0, [r8, r2]
 114:../USER/main.c **** 	if(kinbwp>=256) kinbwp = 0;
 1062              		.loc 1 114 25 view .LVU291
 1063 005c 2360     		str	r3, [r4]
 1064 005e EAE7     		b	.L97
 1065              	.LVL52:
 1066              	.L93:
 114:../USER/main.c **** 	if(kinbwp>=256) kinbwp = 0;
 1067              		.loc 1 114 25 view .LVU292
 1068              	.LBE106:
 1069              	.LBE110:
 1070              	.LBE100:
 1071              	.LBE99:
 1072              	.LBE98:
 1073              	.LBE97:
 1074              		.loc 1 141 55 is_stmt 1 discriminator 2 view .LVU293
 1075              		.loc 1 141 65 is_stmt 0 discriminator 2 view .LVU294
 1076 0060 3732     		adds	r2, r2, #55
 1077 0062 D5B2     		uxtb	r5, r2
 1078              	.LVL53:
 1079              	.LBB111:
 1080              	.LBI111:
 127:../USER/main.c **** 	volatile uint32_t gpiord;
 1081              		.loc 1 127 6 is_stmt 1 discriminator 2 view .LVU295
 1082              	.LBB112:
 128:../USER/main.c **** 	if((mdgpio & 0x2000)==0)
 1083              		.loc 1 128 2 discriminator 2 view .LVU296
 129:../USER/main.c **** 		UART_SendChar(UART0,ch);
 1084              		.loc 1 129 2 discriminator 2 view .LVU297
 129:../USER/main.c **** 		UART_SendChar(UART0,ch);
 1085              		.loc 1 129 4 is_stmt 0 discriminator 2 view .LVU298
 1086 0064 0BB3     		cbz	r3, .L121
 1087              	.LVL54:
 1088              	.LBB113:
 1089              	.LBI113:
 127:../USER/main.c **** 	volatile uint32_t gpiord;
 1090              		.loc 1 127 6 is_stmt 1 view .LVU299
 1091              	.LBB114:
 132:../USER/main.c **** 		while((gpiord & 0x4000)!=0) {
 1092              		.loc 1 132 3 view .LVU300
 132:../USER/main.c **** 		while((gpiord & 0x4000)!=0) {
 1093              		.loc 1 132 10 is_stmt 0 view .LVU301
 1094 0066 4FF48043 		mov	r3, #16384
 1095 006a 0193     		str	r3, [sp, #4]
 133:../USER/main.c **** 			spi_read();
 1096              		.loc 1 133 3 is_stmt 1 view .LVU302
 133:../USER/main.c **** 			spi_read();
 1097              		.loc 1 133 17 is_stmt 0 view .LVU303
 1098 006c 019B     		ldr	r3, [sp, #4]
 133:../USER/main.c **** 			spi_read();
 1099              		.loc 1 133 8 view .LVU304
 1100 006e 5A04     		lsls	r2, r3, #17
 1101 0070 23D5     		bpl	.L107
 1102 0072 164C     		ldr	r4, .L124+4
 1103              	.LBB115:
 1104              	.LBB116:
 114:../USER/main.c **** 	if(kinbwp>=256) kinbwp = 0;
 1105              		.loc 1 114 29 view .LVU305
 1106 0074 DFF85C80 		ldr	r8, .L124+12
 1107              	.LBE116:
 1108              	.LBE115:
 135:../USER/main.c **** 		}
 1109              		.loc 1 135 13 view .LVU306
 1110 0078 154E     		ldr	r6, .L124+8
 1111              	.LBB121:
 1112              	.LBB117:
 115:../USER/main.c **** }
 1113              		.loc 1 115 25 view .LVU307
 1114 007a 0027     		movs	r7, #0
 1115 007c 0AE0     		b	.L102
 1116              	.LVL55:
 1117              	.L123:
 115:../USER/main.c **** }
 1118              		.loc 1 115 25 view .LVU308
 1119 007e 2368     		ldr	r3, [r4]
 1120              	.L104:
 115:../USER/main.c **** }
 1121              		.loc 1 115 2 is_stmt 1 view .LVU309
 115:../USER/main.c **** }
 1122              		.loc 1 115 18 view .LVU310
 1123              	.LVL56:
 115:../USER/main.c **** }
 1124              		.loc 1 115 18 is_stmt 0 view .LVU311
 1125              	.LBE117:
 1126              	.LBE121:
 135:../USER/main.c **** 		}
 1127              		.loc 1 135 4 is_stmt 1 view .LVU312
 1128              	.LBB122:
 1129              	.LBB118:
 115:../USER/main.c **** }
 1130              		.loc 1 115 4 is_stmt 0 view .LVU313
 1131 0080 FF2B     		cmp	r3, #255
 1132              	.LBE118:
 1133              	.LBE122:
 135:../USER/main.c **** 		}
 1134              		.loc 1 135 13 view .LVU314
 1135 0082 3046     		mov	r0, r6
 1136              	.LBB123:
 1137              	.LBB119:
 115:../USER/main.c **** }
 1138              		.loc 1 115 25 view .LVU315
 1139 0084 C8BF     		it	gt
 1140 0086 2760     		strgt	r7, [r4]
 1141              	.LBE119:
 1142              	.LBE123:
 135:../USER/main.c **** 		}
 1143              		.loc 1 135 4 is_stmt 1 view .LVU316
 135:../USER/main.c **** 		}
 1144              		.loc 1 135 13 is_stmt 0 view .LVU317
 1145 0088 FFF7FEFF 		bl	GPIO_ReadBits
 1146              	.LVL57:
 135:../USER/main.c **** 		}
 1147              		.loc 1 135 11 view .LVU318
 1148 008c 0190     		str	r0, [sp, #4]
 133:../USER/main.c **** 			spi_read();
 1149              		.loc 1 133 17 view .LVU319
 1150 008e 019B     		ldr	r3, [sp, #4]
 133:../USER/main.c **** 			spi_read();
 1151              		.loc 1 133 8 view .LVU320
 1152 0090 5B04     		lsls	r3, r3, #17
 1153 0092 12D5     		bpl	.L107
 1154              	.L102:
 134:../USER/main.c **** 			gpiord = GPIO_ReadBits(GPIO0);
 1155              		.loc 1 134 4 is_stmt 1 view .LVU321
 1156              	.LBB124:
 1157              	.LBI115:
 111:../USER/main.c **** 	char ch;
 1158              		.loc 1 111 6 view .LVU322
 1159              	.LBB120:
 112:../USER/main.c **** 	ch = SPI_ReadData();
 1160              		.loc 1 112 2 view .LVU323
 113:../USER/main.c **** 	if(ch!=0) kinbuf[kinbwp++] = ch;
 1161              		.loc 1 113 2 view .LVU324
 113:../USER/main.c **** 	if(ch!=0) kinbuf[kinbwp++] = ch;
 1162              		.loc 1 113 7 is_stmt 0 view .LVU325
 1163 0094 FFF7FEFF 		bl	SPI_ReadData
 1164              	.LVL58:
 114:../USER/main.c **** 	if(kinbwp>=256) kinbwp = 0;
 1165              		.loc 1 114 12 is_stmt 1 view .LVU326
 113:../USER/main.c **** 	if(ch!=0) kinbuf[kinbwp++] = ch;
 1166              		.loc 1 113 5 is_stmt 0 view .LVU327
 1167 0098 40B2     		sxtb	r0, r0
 1168              	.LVL59:
 114:../USER/main.c **** 	if(kinbwp>=256) kinbwp = 0;
 1169              		.loc 1 114 2 is_stmt 1 view .LVU328
 114:../USER/main.c **** 	if(kinbwp>=256) kinbwp = 0;
 1170              		.loc 1 114 4 is_stmt 0 view .LVU329
 1171 009a 0028     		cmp	r0, #0
 1172 009c EFD0     		beq	.L123
 114:../USER/main.c **** 	if(kinbwp>=256) kinbwp = 0;
 1173              		.loc 1 114 25 view .LVU330
 1174 009e 2268     		ldr	r2, [r4]
 1175 00a0 531C     		adds	r3, r2, #1
 114:../USER/main.c **** 	if(kinbwp>=256) kinbwp = 0;
 1176              		.loc 1 114 29 view .LVU331
 1177 00a2 08F80200 		strb	r0, [r8, r2]
 114:../USER/main.c **** 	if(kinbwp>=256) kinbwp = 0;
 1178              		.loc 1 114 25 view .LVU332
 1179 00a6 2360     		str	r3, [r4]
 1180 00a8 EAE7     		b	.L104
 1181              	.LVL60:
 1182              	.L121:
 114:../USER/main.c **** 	if(kinbwp>=256) kinbwp = 0;
 1183              		.loc 1 114 25 view .LVU333
 1184              	.LBE120:
 1185              	.LBE124:
 1186              	.LBE114:
 1187              	.LBE113:
 130:../USER/main.c **** 	else {
 1188              		.loc 1 130 3 is_stmt 1 view .LVU334
 1189 00aa 4FF04020 		mov	r0, #1073758208
 1190              	.LVL61:
 130:../USER/main.c **** 	else {
 1191              		.loc 1 130 3 is_stmt 0 view .LVU335
 1192 00ae 69B2     		sxtb	r1, r5
 1193              	.LBE112:
 1194              	.LBE111:
 1195              		.loc 1 141 1 view .LVU336
 1196 00b0 02B0     		add	sp, sp, #8
 1197              		.cfi_remember_state
 1198              		.cfi_def_cfa_offset 24
 1199              		@ sp needed
 1200 00b2 BDE8F041 		pop	{r4, r5, r6, r7, r8, lr}
 1201              		.cfi_restore 14
 1202              		.cfi_restore 8
 1203              		.cfi_restore 7
 1204              		.cfi_restore 6
 1205              		.cfi_restore 5
 1206              		.cfi_restore 4
 1207              		.cfi_def_cfa_offset 0
 1208              	.LBB131:
 1209              	.LBB129:
 130:../USER/main.c **** 	else {
 1210              		.loc 1 130 3 view .LVU337
 1211 00b6 FFF7FEBF 		b	UART_SendChar
 1212              	.LVL62:
 1213              	.L107:
 1214              		.cfi_restore_state
 1215              	.LBB127:
 1216              	.LBB125:
 137:../USER/main.c **** 	}
 1217              		.loc 1 137 3 is_stmt 1 view .LVU338
 1218 00ba 2846     		mov	r0, r5
 1219              	.LBE125:
 1220              	.LBE127:
 1221              	.LBE129:
 1222              	.LBE131:
 1223              		.loc 1 141 1 is_stmt 0 view .LVU339
 1224 00bc 02B0     		add	sp, sp, #8
 1225              		.cfi_def_cfa_offset 24
 1226              		@ sp needed
 1227 00be BDE8F041 		pop	{r4, r5, r6, r7, r8, lr}
 1228              		.cfi_restore 14
 1229              		.cfi_restore 8
 1230              		.cfi_restore 7
 1231              		.cfi_restore 6
 1232              		.cfi_restore 5
 1233              		.cfi_restore 4
 1234              		.cfi_def_cfa_offset 0
 1235              	.LBB132:
 1236              	.LBB130:
 1237              	.LBB128:
 1238              	.LBB126:
 137:../USER/main.c **** 	}
 1239              		.loc 1 137 3 view .LVU340
 1240 00c2 FFF7FEBF 		b	SPI_WriteData
 1241              	.LVL63:
 1242              	.L125:
 1243 00c6 00BF     		.align	2
 1244              	.L124:
 1245 00c8 00000000 		.word	mdgpio
 1246 00cc 00000000 		.word	.LANCHOR1
 1247 00d0 00000140 		.word	1073807360
 1248 00d4 00000000 		.word	kinbuf
 1249              	.LBE126:
 1250              	.LBE128:
 1251              	.LBE130:
 1252              	.LBE132:
 1253              		.cfi_endproc
 1254              	.LFE42:
 1256              		.section	.text.puth2,"ax",%progbits
 1257              		.align	1
 1258              		.p2align 2,,3
 1259              		.global	puth2
 1260              		.syntax unified
 1261              		.thumb
 1262              		.thumb_func
 1263              		.fpu softvfp
 1265              	puth2:
 1266              	.LVL64:
 1267              	.LFB43:
 142:../USER/main.c **** void puth2(dt) int dt;{ puth((dt >> 4) & 0xf); puth(dt & 0xf); }
 1268              		.loc 1 142 23 is_stmt 1 view -0
 1269              		.cfi_startproc
 1270              		@ args = 0, pretend = 0, frame = 16
 1271              		@ frame_needed = 0, uses_anonymous_args = 0
 1272              		.loc 1 142 25 view .LVU342
 1273              		.loc 1 142 23 is_stmt 0 view .LVU343
 1274 0000 2DE9F047 		push	{r4, r5, r6, r7, r8, r9, r10, lr}
 1275              		.cfi_def_cfa_offset 32
 1276              		.cfi_offset 4, -32
 1277              		.cfi_offset 5, -28
 1278              		.cfi_offset 6, -24
 1279              		.cfi_offset 7, -20
 1280              		.cfi_offset 8, -16
 1281              		.cfi_offset 9, -12
 1282              		.cfi_offset 10, -8
 1283              		.cfi_offset 14, -4
 1284 0004 624E     		ldr	r6, .L189
 1285              		.loc 1 142 25 view .LVU344
 1286 0006 C0F30312 		ubfx	r2, r0, #4, #4
 1287              	.LVL65:
 1288              	.LBB161:
 1289              	.LBI161:
 141:../USER/main.c **** void puth2(dt) int dt;{ puth((dt >> 4) & 0xf); puth(dt & 0xf); }
 1290              		.loc 1 141 6 is_stmt 1 view .LVU345
 1291              	.LBB162:
 141:../USER/main.c **** void puth2(dt) int dt;{ puth((dt >> 4) & 0xf); puth(dt & 0xf); }
 1292              		.loc 1 141 24 view .LVU346
 1293 000a 3368     		ldr	r3, [r6]
 141:../USER/main.c **** void puth2(dt) int dt;{ puth((dt >> 4) & 0xf); puth(dt & 0xf); }
 1294              		.loc 1 141 26 is_stmt 0 view .LVU347
 1295 000c 092A     		cmp	r2, #9
 1296              	.LBE162:
 1297              	.LBE161:
 1298              		.loc 1 142 23 view .LVU348
 1299 000e 0546     		mov	r5, r0
 1300 0010 84B0     		sub	sp, sp, #16
 1301              		.cfi_def_cfa_offset 48
 1302 0012 D0B2     		uxtb	r0, r2
 1303              	.LVL66:
 1304              		.loc 1 142 23 view .LVU349
 1305 0014 03F40053 		and	r3, r3, #8192
 1306              	.LBB197:
 1307              	.LBB195:
 141:../USER/main.c **** void puth2(dt) int dt;{ puth((dt >> 4) & 0xf); puth(dt & 0xf); }
 1308              		.loc 1 141 26 view .LVU350
 1309 0018 28DC     		bgt	.L127
 141:../USER/main.c **** void puth2(dt) int dt;{ puth((dt >> 4) & 0xf); puth(dt & 0xf); }
 1310              		.loc 1 141 34 is_stmt 1 view .LVU351
 141:../USER/main.c **** void puth2(dt) int dt;{ puth((dt >> 4) & 0xf); puth(dt & 0xf); }
 1311              		.loc 1 141 44 is_stmt 0 view .LVU352
 1312 001a 00F13007 		add	r7, r0, #48
 1313              	.LVL67:
 1314              	.LBB163:
 1315              	.LBI163:
 127:../USER/main.c **** 	volatile uint32_t gpiord;
 1316              		.loc 1 127 6 is_stmt 1 view .LVU353
 1317              	.LBB164:
 128:../USER/main.c **** 	if((mdgpio & 0x2000)==0)
 1318              		.loc 1 128 2 view .LVU354
 129:../USER/main.c **** 		UART_SendChar(UART0,ch);
 1319              		.loc 1 129 2 view .LVU355
 129:../USER/main.c **** 		UART_SendChar(UART0,ch);
 1320              		.loc 1 129 4 is_stmt 0 view .LVU356
 1321 001e 002B     		cmp	r3, #0
 1322 0020 4CD0     		beq	.L179
 1323              	.LVL68:
 1324              	.LBB165:
 1325              	.LBI165:
 127:../USER/main.c **** 	volatile uint32_t gpiord;
 1326              		.loc 1 127 6 is_stmt 1 view .LVU357
 1327              	.LBB166:
 132:../USER/main.c **** 		while((gpiord & 0x4000)!=0) {
 1328              		.loc 1 132 3 view .LVU358
 132:../USER/main.c **** 		while((gpiord & 0x4000)!=0) {
 1329              		.loc 1 132 10 is_stmt 0 view .LVU359
 1330 0022 4FF48043 		mov	r3, #16384
 1331 0026 0093     		str	r3, [sp]
 133:../USER/main.c **** 			spi_read();
 1332              		.loc 1 133 3 is_stmt 1 view .LVU360
 133:../USER/main.c **** 			spi_read();
 1333              		.loc 1 133 17 is_stmt 0 view .LVU361
 1334 0028 009B     		ldr	r3, [sp]
 133:../USER/main.c **** 			spi_read();
 1335              		.loc 1 133 8 view .LVU362
 1336 002a 5804     		lsls	r0, r3, #17
 1337 002c 7FD5     		bpl	.L142
 1338 002e 594C     		ldr	r4, .L189+4
 1339              	.LBB167:
 1340              	.LBB168:
 114:../USER/main.c **** 	if(kinbwp>=256) kinbwp = 0;
 1341              		.loc 1 114 29 view .LVU363
 1342 0030 DFF868A1 		ldr	r10, .L189+12
 1343              	.LBE168:
 1344              	.LBE167:
 135:../USER/main.c **** 		}
 1345              		.loc 1 135 13 view .LVU364
 1346 0034 DFF86081 		ldr	r8, .L189+8
 1347              	.LBB173:
 1348              	.LBB169:
 115:../USER/main.c **** }
 1349              		.loc 1 115 25 view .LVU365
 1350 0038 4FF00009 		mov	r9, #0
 1351 003c 0BE0     		b	.L130
 1352              	.LVL69:
 1353              	.L185:
 115:../USER/main.c **** }
 1354              		.loc 1 115 25 view .LVU366
 1355 003e 2368     		ldr	r3, [r4]
 1356              	.L132:
 115:../USER/main.c **** }
 1357              		.loc 1 115 2 is_stmt 1 view .LVU367
 115:../USER/main.c **** }
 1358              		.loc 1 115 18 view .LVU368
 1359              	.LVL70:
 115:../USER/main.c **** }
 1360              		.loc 1 115 18 is_stmt 0 view .LVU369
 1361              	.LBE169:
 1362              	.LBE173:
 135:../USER/main.c **** 		}
 1363              		.loc 1 135 4 is_stmt 1 view .LVU370
 1364              	.LBB174:
 1365              	.LBB170:
 115:../USER/main.c **** }
 1366              		.loc 1 115 4 is_stmt 0 view .LVU371
 1367 0040 FF2B     		cmp	r3, #255
 1368              	.LBE170:
 1369              	.LBE174:
 135:../USER/main.c **** 		}
 1370              		.loc 1 135 13 view .LVU372
 1371 0042 4046     		mov	r0, r8
 1372              	.LBB175:
 1373              	.LBB171:
 115:../USER/main.c **** }
 1374              		.loc 1 115 25 view .LVU373
 1375 0044 C8BF     		it	gt
 1376 0046 C4F80090 		strgt	r9, [r4]
 1377              	.LBE171:
 1378              	.LBE175:
 135:../USER/main.c **** 		}
 1379              		.loc 1 135 4 is_stmt 1 view .LVU374
 135:../USER/main.c **** 		}
 1380              		.loc 1 135 13 is_stmt 0 view .LVU375
 1381 004a FFF7FEFF 		bl	GPIO_ReadBits
 1382              	.LVL71:
 135:../USER/main.c **** 		}
 1383              		.loc 1 135 11 view .LVU376
 1384 004e 0090     		str	r0, [sp]
 133:../USER/main.c **** 			spi_read();
 1385              		.loc 1 133 17 view .LVU377
 1386 0050 009B     		ldr	r3, [sp]
 133:../USER/main.c **** 			spi_read();
 1387              		.loc 1 133 8 view .LVU378
 1388 0052 5904     		lsls	r1, r3, #17
 1389 0054 6BD5     		bpl	.L142
 1390              	.L130:
 134:../USER/main.c **** 			gpiord = GPIO_ReadBits(GPIO0);
 1391              		.loc 1 134 4 is_stmt 1 view .LVU379
 1392              	.LBB176:
 1393              	.LBI167:
 111:../USER/main.c **** 	char ch;
 1394              		.loc 1 111 6 view .LVU380
 1395              	.LBB172:
 112:../USER/main.c **** 	ch = SPI_ReadData();
 1396              		.loc 1 112 2 view .LVU381
 113:../USER/main.c **** 	if(ch!=0) kinbuf[kinbwp++] = ch;
 1397              		.loc 1 113 2 view .LVU382
 113:../USER/main.c **** 	if(ch!=0) kinbuf[kinbwp++] = ch;
 1398              		.loc 1 113 7 is_stmt 0 view .LVU383
 1399 0056 FFF7FEFF 		bl	SPI_ReadData
 1400              	.LVL72:
 114:../USER/main.c **** 	if(kinbwp>=256) kinbwp = 0;
 1401              		.loc 1 114 12 is_stmt 1 view .LVU384
 113:../USER/main.c **** 	if(ch!=0) kinbuf[kinbwp++] = ch;
 1402              		.loc 1 113 5 is_stmt 0 view .LVU385
 1403 005a 40B2     		sxtb	r0, r0
 1404              	.LVL73:
 114:../USER/main.c **** 	if(kinbwp>=256) kinbwp = 0;
 1405              		.loc 1 114 2 is_stmt 1 view .LVU386
 114:../USER/main.c **** 	if(kinbwp>=256) kinbwp = 0;
 1406              		.loc 1 114 4 is_stmt 0 view .LVU387
 1407 005c 0028     		cmp	r0, #0
 1408 005e EED0     		beq	.L185
 114:../USER/main.c **** 	if(kinbwp>=256) kinbwp = 0;
 1409              		.loc 1 114 25 view .LVU388
 1410 0060 2268     		ldr	r2, [r4]
 1411 0062 531C     		adds	r3, r2, #1
 114:../USER/main.c **** 	if(kinbwp>=256) kinbwp = 0;
 1412              		.loc 1 114 29 view .LVU389
 1413 0064 0AF80200 		strb	r0, [r10, r2]
 114:../USER/main.c **** 	if(kinbwp>=256) kinbwp = 0;
 1414              		.loc 1 114 25 view .LVU390
 1415 0068 2360     		str	r3, [r4]
 1416 006a E9E7     		b	.L132
 1417              	.LVL74:
 1418              	.L127:
 114:../USER/main.c **** 	if(kinbwp>=256) kinbwp = 0;
 1419              		.loc 1 114 25 view .LVU391
 1420              	.LBE172:
 1421              	.LBE176:
 1422              	.LBE166:
 1423              	.LBE165:
 1424              	.LBE164:
 1425              	.LBE163:
 141:../USER/main.c **** void puth2(dt) int dt;{ puth((dt >> 4) & 0xf); puth(dt & 0xf); }
 1426              		.loc 1 141 55 is_stmt 1 view .LVU392
 141:../USER/main.c **** void puth2(dt) int dt;{ puth((dt >> 4) & 0xf); puth(dt & 0xf); }
 1427              		.loc 1 141 65 is_stmt 0 view .LVU393
 1428 006c 00F13707 		add	r7, r0, #55
 1429              	.LVL75:
 1430              	.LBB177:
 1431              	.LBI177:
 127:../USER/main.c **** 	volatile uint32_t gpiord;
 1432              		.loc 1 127 6 is_stmt 1 view .LVU394
 1433              	.LBB178:
 128:../USER/main.c **** 	if((mdgpio & 0x2000)==0)
 1434              		.loc 1 128 2 view .LVU395
 129:../USER/main.c **** 		UART_SendChar(UART0,ch);
 1435              		.loc 1 129 2 view .LVU396
 129:../USER/main.c **** 		UART_SendChar(UART0,ch);
 1436              		.loc 1 129 4 is_stmt 0 view .LVU397
 1437 0070 23B3     		cbz	r3, .L179
 1438              	.LVL76:
 1439              	.LBB179:
 1440              	.LBI179:
 127:../USER/main.c **** 	volatile uint32_t gpiord;
 1441              		.loc 1 127 6 is_stmt 1 view .LVU398
 1442              	.LBB180:
 132:../USER/main.c **** 		while((gpiord & 0x4000)!=0) {
 1443              		.loc 1 132 3 view .LVU399
 132:../USER/main.c **** 		while((gpiord & 0x4000)!=0) {
 1444              		.loc 1 132 10 is_stmt 0 view .LVU400
 1445 0072 4FF48043 		mov	r3, #16384
 1446 0076 0193     		str	r3, [sp, #4]
 133:../USER/main.c **** 			spi_read();
 1447              		.loc 1 133 3 is_stmt 1 view .LVU401
 133:../USER/main.c **** 			spi_read();
 1448              		.loc 1 133 17 is_stmt 0 view .LVU402
 1449 0078 019B     		ldr	r3, [sp, #4]
 133:../USER/main.c **** 			spi_read();
 1450              		.loc 1 133 8 view .LVU403
 1451 007a 5A04     		lsls	r2, r3, #17
 1452              	.LVL77:
 133:../USER/main.c **** 			spi_read();
 1453              		.loc 1 133 8 view .LVU404
 1454 007c 57D5     		bpl	.L142
 1455 007e 454C     		ldr	r4, .L189+4
 1456              	.LBB181:
 1457              	.LBB182:
 114:../USER/main.c **** 	if(kinbwp>=256) kinbwp = 0;
 1458              		.loc 1 114 29 view .LVU405
 1459 0080 DFF818A1 		ldr	r10, .L189+12
 1460              	.LBE182:
 1461              	.LBE181:
 135:../USER/main.c **** 		}
 1462              		.loc 1 135 13 view .LVU406
 1463 0084 DFF81081 		ldr	r8, .L189+8
 1464              	.LBB187:
 1465              	.LBB183:
 115:../USER/main.c **** }
 1466              		.loc 1 115 25 view .LVU407
 1467 0088 4FF00009 		mov	r9, #0
 1468 008c 0BE0     		b	.L137
 1469              	.LVL78:
 1470              	.L186:
 115:../USER/main.c **** }
 1471              		.loc 1 115 25 view .LVU408
 1472 008e 2368     		ldr	r3, [r4]
 1473              	.L139:
 115:../USER/main.c **** }
 1474              		.loc 1 115 2 is_stmt 1 view .LVU409
 115:../USER/main.c **** }
 1475              		.loc 1 115 18 view .LVU410
 1476              	.LVL79:
 115:../USER/main.c **** }
 1477              		.loc 1 115 18 is_stmt 0 view .LVU411
 1478              	.LBE183:
 1479              	.LBE187:
 135:../USER/main.c **** 		}
 1480              		.loc 1 135 4 is_stmt 1 view .LVU412
 1481              	.LBB188:
 1482              	.LBB184:
 115:../USER/main.c **** }
 1483              		.loc 1 115 4 is_stmt 0 view .LVU413
 1484 0090 FF2B     		cmp	r3, #255
 1485              	.LBE184:
 1486              	.LBE188:
 135:../USER/main.c **** 		}
 1487              		.loc 1 135 13 view .LVU414
 1488 0092 4046     		mov	r0, r8
 1489              	.LBB189:
 1490              	.LBB185:
 115:../USER/main.c **** }
 1491              		.loc 1 115 25 view .LVU415
 1492 0094 C8BF     		it	gt
 1493 0096 C4F80090 		strgt	r9, [r4]
 1494              	.LBE185:
 1495              	.LBE189:
 135:../USER/main.c **** 		}
 1496              		.loc 1 135 4 is_stmt 1 view .LVU416
 135:../USER/main.c **** 		}
 1497              		.loc 1 135 13 is_stmt 0 view .LVU417
 1498 009a FFF7FEFF 		bl	GPIO_ReadBits
 1499              	.LVL80:
 135:../USER/main.c **** 		}
 1500              		.loc 1 135 11 view .LVU418
 1501 009e 0190     		str	r0, [sp, #4]
 133:../USER/main.c **** 			spi_read();
 1502              		.loc 1 133 17 view .LVU419
 1503 00a0 019B     		ldr	r3, [sp, #4]
 133:../USER/main.c **** 			spi_read();
 1504              		.loc 1 133 8 view .LVU420
 1505 00a2 5B04     		lsls	r3, r3, #17
 1506 00a4 43D5     		bpl	.L142
 1507              	.L137:
 134:../USER/main.c **** 			gpiord = GPIO_ReadBits(GPIO0);
 1508              		.loc 1 134 4 is_stmt 1 view .LVU421
 1509              	.LBB190:
 1510              	.LBI181:
 111:../USER/main.c **** 	char ch;
 1511              		.loc 1 111 6 view .LVU422
 1512              	.LBB186:
 112:../USER/main.c **** 	ch = SPI_ReadData();
 1513              		.loc 1 112 2 view .LVU423
 113:../USER/main.c **** 	if(ch!=0) kinbuf[kinbwp++] = ch;
 1514              		.loc 1 113 2 view .LVU424
 113:../USER/main.c **** 	if(ch!=0) kinbuf[kinbwp++] = ch;
 1515              		.loc 1 113 7 is_stmt 0 view .LVU425
 1516 00a6 FFF7FEFF 		bl	SPI_ReadData
 1517              	.LVL81:
 114:../USER/main.c **** 	if(kinbwp>=256) kinbwp = 0;
 1518              		.loc 1 114 12 is_stmt 1 view .LVU426
 113:../USER/main.c **** 	if(ch!=0) kinbuf[kinbwp++] = ch;
 1519              		.loc 1 113 5 is_stmt 0 view .LVU427
 1520 00aa 40B2     		sxtb	r0, r0
 1521              	.LVL82:
 114:../USER/main.c **** 	if(kinbwp>=256) kinbwp = 0;
 1522              		.loc 1 114 2 is_stmt 1 view .LVU428
 114:../USER/main.c **** 	if(kinbwp>=256) kinbwp = 0;
 1523              		.loc 1 114 4 is_stmt 0 view .LVU429
 1524 00ac 0028     		cmp	r0, #0
 1525 00ae EED0     		beq	.L186
 114:../USER/main.c **** 	if(kinbwp>=256) kinbwp = 0;
 1526              		.loc 1 114 25 view .LVU430
 1527 00b0 2268     		ldr	r2, [r4]
 1528 00b2 531C     		adds	r3, r2, #1
 114:../USER/main.c **** 	if(kinbwp>=256) kinbwp = 0;
 1529              		.loc 1 114 29 view .LVU431
 1530 00b4 0AF80200 		strb	r0, [r10, r2]
 114:../USER/main.c **** 	if(kinbwp>=256) kinbwp = 0;
 1531              		.loc 1 114 25 view .LVU432
 1532 00b8 2360     		str	r3, [r4]
 1533 00ba E9E7     		b	.L139
 1534              	.LVL83:
 1535              	.L179:
 114:../USER/main.c **** 	if(kinbwp>=256) kinbwp = 0;
 1536              		.loc 1 114 25 view .LVU433
 1537              	.LBE186:
 1538              	.LBE190:
 1539              	.LBE180:
 1540              	.LBE179:
 130:../USER/main.c **** 	else {
 1541              		.loc 1 130 3 is_stmt 1 view .LVU434
 1542 00bc 3946     		mov	r1, r7
 1543 00be 4FF04020 		mov	r0, #1073758208
 1544 00c2 FFF7FEFF 		bl	UART_SendChar
 1545              	.LVL84:
 1546              	.L129:
 130:../USER/main.c **** 	else {
 1547              		.loc 1 130 3 is_stmt 0 view .LVU435
 1548              	.LBE178:
 1549              	.LBE177:
 1550              	.LBE195:
 1551              	.LBE197:
 1552              		.loc 1 142 48 is_stmt 1 view .LVU436
 1553 00c6 05F00F05 		and	r5, r5, #15
 1554              	.LVL85:
 1555              	.LBB198:
 1556              	.LBI198:
 141:../USER/main.c **** void puth2(dt) int dt;{ puth((dt >> 4) & 0xf); puth(dt & 0xf); }
 1557              		.loc 1 141 6 view .LVU437
 1558              	.LBB199:
 141:../USER/main.c **** void puth2(dt) int dt;{ puth((dt >> 4) & 0xf); puth(dt & 0xf); }
 1559              		.loc 1 141 24 view .LVU438
 1560 00ca 3368     		ldr	r3, [r6]
 141:../USER/main.c **** void puth2(dt) int dt;{ puth((dt >> 4) & 0xf); puth(dt & 0xf); }
 1561              		.loc 1 141 26 is_stmt 0 view .LVU439
 1562 00cc 092D     		cmp	r5, #9
 1563 00ce 03F40053 		and	r3, r3, #8192
 1564 00d2 E8B2     		uxtb	r0, r5
 1565 00d4 2FDC     		bgt	.L143
 141:../USER/main.c **** void puth2(dt) int dt;{ puth((dt >> 4) & 0xf); puth(dt & 0xf); }
 1566              		.loc 1 141 34 is_stmt 1 view .LVU440
 141:../USER/main.c **** void puth2(dt) int dt;{ puth((dt >> 4) & 0xf); puth(dt & 0xf); }
 1567              		.loc 1 141 44 is_stmt 0 view .LVU441
 1568 00d6 00F13005 		add	r5, r0, #48
 1569              	.LVL86:
 1570              	.LBB200:
 1571              	.LBI200:
 127:../USER/main.c **** 	volatile uint32_t gpiord;
 1572              		.loc 1 127 6 is_stmt 1 view .LVU442
 1573              	.LBB201:
 128:../USER/main.c **** 	if((mdgpio & 0x2000)==0)
 1574              		.loc 1 128 2 view .LVU443
 129:../USER/main.c **** 		UART_SendChar(UART0,ch);
 1575              		.loc 1 129 2 view .LVU444
 129:../USER/main.c **** 		UART_SendChar(UART0,ch);
 1576              		.loc 1 129 4 is_stmt 0 view .LVU445
 1577 00da 002B     		cmp	r3, #0
 1578 00dc 50D0     		beq	.L184
 1579              	.LVL87:
 1580              	.LBB202:
 1581              	.LBI202:
 127:../USER/main.c **** 	volatile uint32_t gpiord;
 1582              		.loc 1 127 6 is_stmt 1 view .LVU446
 1583              	.LBB203:
 132:../USER/main.c **** 		while((gpiord & 0x4000)!=0) {
 1584              		.loc 1 132 3 view .LVU447
 132:../USER/main.c **** 		while((gpiord & 0x4000)!=0) {
 1585              		.loc 1 132 10 is_stmt 0 view .LVU448
 1586 00de 4FF48043 		mov	r3, #16384
 1587 00e2 0293     		str	r3, [sp, #8]
 133:../USER/main.c **** 			spi_read();
 1588              		.loc 1 133 3 is_stmt 1 view .LVU449
 133:../USER/main.c **** 			spi_read();
 1589              		.loc 1 133 17 is_stmt 0 view .LVU450
 1590 00e4 029B     		ldr	r3, [sp, #8]
 133:../USER/main.c **** 			spi_read();
 1591              		.loc 1 133 8 view .LVU451
 1592 00e6 5804     		lsls	r0, r3, #17
 1593 00e8 1BD5     		bpl	.L157
 1594 00ea 2A4C     		ldr	r4, .L189+4
 1595              	.LBB204:
 1596              	.LBB205:
 114:../USER/main.c **** 	if(kinbwp>=256) kinbwp = 0;
 1597              		.loc 1 114 29 view .LVU452
 1598 00ec DFF8AC80 		ldr	r8, .L189+12
 1599              	.LBE205:
 1600              	.LBE204:
 135:../USER/main.c **** 		}
 1601              		.loc 1 135 13 view .LVU453
 1602 00f0 294E     		ldr	r6, .L189+8
 1603              	.LBB210:
 1604              	.LBB206:
 115:../USER/main.c **** }
 1605              		.loc 1 115 25 view .LVU454
 1606 00f2 0027     		movs	r7, #0
 1607 00f4 0AE0     		b	.L145
 1608              	.LVL88:
 1609              	.L187:
 115:../USER/main.c **** }
 1610              		.loc 1 115 25 view .LVU455
 1611 00f6 2368     		ldr	r3, [r4]
 1612              	.L147:
 115:../USER/main.c **** }
 1613              		.loc 1 115 2 is_stmt 1 view .LVU456
 115:../USER/main.c **** }
 1614              		.loc 1 115 18 view .LVU457
 1615              	.LVL89:
 115:../USER/main.c **** }
 1616              		.loc 1 115 18 is_stmt 0 view .LVU458
 1617              	.LBE206:
 1618              	.LBE210:
 135:../USER/main.c **** 		}
 1619              		.loc 1 135 4 is_stmt 1 view .LVU459
 1620              	.LBB211:
 1621              	.LBB207:
 115:../USER/main.c **** }
 1622              		.loc 1 115 4 is_stmt 0 view .LVU460
 1623 00f8 FF2B     		cmp	r3, #255
 1624              	.LBE207:
 1625              	.LBE211:
 135:../USER/main.c **** 		}
 1626              		.loc 1 135 13 view .LVU461
 1627 00fa 3046     		mov	r0, r6
 1628              	.LBB212:
 1629              	.LBB208:
 115:../USER/main.c **** }
 1630              		.loc 1 115 25 view .LVU462
 1631 00fc C8BF     		it	gt
 1632 00fe 2760     		strgt	r7, [r4]
 1633              	.LBE208:
 1634              	.LBE212:
 135:../USER/main.c **** 		}
 1635              		.loc 1 135 4 is_stmt 1 view .LVU463
 135:../USER/main.c **** 		}
 1636              		.loc 1 135 13 is_stmt 0 view .LVU464
 1637 0100 FFF7FEFF 		bl	GPIO_ReadBits
 1638              	.LVL90:
 135:../USER/main.c **** 		}
 1639              		.loc 1 135 11 view .LVU465
 1640 0104 0290     		str	r0, [sp, #8]
 133:../USER/main.c **** 			spi_read();
 1641              		.loc 1 133 17 view .LVU466
 1642 0106 029B     		ldr	r3, [sp, #8]
 133:../USER/main.c **** 			spi_read();
 1643              		.loc 1 133 8 view .LVU467
 1644 0108 5904     		lsls	r1, r3, #17
 1645 010a 0AD5     		bpl	.L157
 1646              	.L145:
 134:../USER/main.c **** 			gpiord = GPIO_ReadBits(GPIO0);
 1647              		.loc 1 134 4 is_stmt 1 view .LVU468
 1648              	.LBB213:
 1649              	.LBI204:
 111:../USER/main.c **** 	char ch;
 1650              		.loc 1 111 6 view .LVU469
 1651              	.LBB209:
 112:../USER/main.c **** 	ch = SPI_ReadData();
 1652              		.loc 1 112 2 view .LVU470
 113:../USER/main.c **** 	if(ch!=0) kinbuf[kinbwp++] = ch;
 1653              		.loc 1 113 2 view .LVU471
 113:../USER/main.c **** 	if(ch!=0) kinbuf[kinbwp++] = ch;
 1654              		.loc 1 113 7 is_stmt 0 view .LVU472
 1655 010c FFF7FEFF 		bl	SPI_ReadData
 1656              	.LVL91:
 114:../USER/main.c **** 	if(kinbwp>=256) kinbwp = 0;
 1657              		.loc 1 114 12 is_stmt 1 view .LVU473
 113:../USER/main.c **** 	if(ch!=0) kinbuf[kinbwp++] = ch;
 1658              		.loc 1 113 5 is_stmt 0 view .LVU474
 1659 0110 40B2     		sxtb	r0, r0
 1660              	.LVL92:
 114:../USER/main.c **** 	if(kinbwp>=256) kinbwp = 0;
 1661              		.loc 1 114 2 is_stmt 1 view .LVU475
 114:../USER/main.c **** 	if(kinbwp>=256) kinbwp = 0;
 1662              		.loc 1 114 4 is_stmt 0 view .LVU476
 1663 0112 0028     		cmp	r0, #0
 1664 0114 EFD0     		beq	.L187
 114:../USER/main.c **** 	if(kinbwp>=256) kinbwp = 0;
 1665              		.loc 1 114 25 view .LVU477
 1666 0116 2268     		ldr	r2, [r4]
 1667 0118 531C     		adds	r3, r2, #1
 114:../USER/main.c **** 	if(kinbwp>=256) kinbwp = 0;
 1668              		.loc 1 114 29 view .LVU478
 1669 011a 08F80200 		strb	r0, [r8, r2]
 114:../USER/main.c **** 	if(kinbwp>=256) kinbwp = 0;
 1670              		.loc 1 114 25 view .LVU479
 1671 011e 2360     		str	r3, [r4]
 1672 0120 EAE7     		b	.L147
 1673              	.LVL93:
 1674              	.L157:
 114:../USER/main.c **** 	if(kinbwp>=256) kinbwp = 0;
 1675              		.loc 1 114 25 view .LVU480
 1676              	.LBE209:
 1677              	.LBE213:
 1678              	.LBE203:
 1679              	.LBE202:
 1680              	.LBE201:
 1681              	.LBE200:
 1682              	.LBB214:
 1683              	.LBB215:
 1684              	.LBB216:
 1685              	.LBB217:
 137:../USER/main.c **** 	}
 1686              		.loc 1 137 3 is_stmt 1 view .LVU481
 1687 0122 2846     		mov	r0, r5
 1688              	.LBE217:
 1689              	.LBE216:
 1690              	.LBE215:
 1691              	.LBE214:
 1692              	.LBE199:
 1693              	.LBE198:
 1694              		.loc 1 142 1 is_stmt 0 view .LVU482
 1695 0124 04B0     		add	sp, sp, #16
 1696              		.cfi_remember_state
 1697              		.cfi_def_cfa_offset 32
 1698              		@ sp needed
 1699 0126 BDE8F047 		pop	{r4, r5, r6, r7, r8, r9, r10, lr}
 1700              		.cfi_restore 14
 1701              		.cfi_restore 10
 1702              		.cfi_restore 9
 1703              		.cfi_restore 8
 1704              		.cfi_restore 7
 1705              		.cfi_restore 6
 1706              		.cfi_restore 5
 1707              		.cfi_restore 4
 1708              		.cfi_def_cfa_offset 0
 1709              	.LBB241:
 1710              	.LBB238:
 1711              	.LBB235:
 1712              	.LBB232:
 1713              	.LBB230:
 1714              	.LBB228:
 137:../USER/main.c **** 	}
 1715              		.loc 1 137 3 view .LVU483
 1716 012a FFF7FEBF 		b	SPI_WriteData
 1717              	.LVL94:
 1718              	.L142:
 1719              		.cfi_restore_state
 137:../USER/main.c **** 	}
 1720              		.loc 1 137 3 view .LVU484
 1721              	.LBE228:
 1722              	.LBE230:
 1723              	.LBE232:
 1724              	.LBE235:
 1725              	.LBE238:
 1726              	.LBE241:
 1727              	.LBB242:
 1728              	.LBB196:
 1729              	.LBB194:
 1730              	.LBB193:
 1731              	.LBB192:
 1732              	.LBB191:
 137:../USER/main.c **** 	}
 1733              		.loc 1 137 3 is_stmt 1 view .LVU485
 1734 012e 3846     		mov	r0, r7
 1735 0130 FFF7FEFF 		bl	SPI_WriteData
 1736              	.LVL95:
 1737 0134 C7E7     		b	.L129
 1738              	.LVL96:
 1739              	.L143:
 137:../USER/main.c **** 	}
 1740              		.loc 1 137 3 is_stmt 0 view .LVU486
 1741              	.LBE191:
 1742              	.LBE192:
 1743              	.LBE193:
 1744              	.LBE194:
 1745              	.LBE196:
 1746              	.LBE242:
 1747              	.LBB243:
 1748              	.LBB239:
 141:../USER/main.c **** void puth2(dt) int dt;{ puth((dt >> 4) & 0xf); puth(dt & 0xf); }
 1749              		.loc 1 141 55 is_stmt 1 view .LVU487
 141:../USER/main.c **** void puth2(dt) int dt;{ puth((dt >> 4) & 0xf); puth(dt & 0xf); }
 1750              		.loc 1 141 65 is_stmt 0 view .LVU488
 1751 0136 00F13705 		add	r5, r0, #55
 1752              	.LVL97:
 1753              	.LBB236:
 1754              	.LBI214:
 127:../USER/main.c **** 	volatile uint32_t gpiord;
 1755              		.loc 1 127 6 is_stmt 1 view .LVU489
 1756              	.LBB233:
 128:../USER/main.c **** 	if((mdgpio & 0x2000)==0)
 1757              		.loc 1 128 2 view .LVU490
 129:../USER/main.c **** 		UART_SendChar(UART0,ch);
 1758              		.loc 1 129 2 view .LVU491
 129:../USER/main.c **** 		UART_SendChar(UART0,ch);
 1759              		.loc 1 129 4 is_stmt 0 view .LVU492
 1760 013a 0BB3     		cbz	r3, .L184
 1761              	.LVL98:
 1762              	.LBB231:
 1763              	.LBI216:
 127:../USER/main.c **** 	volatile uint32_t gpiord;
 1764              		.loc 1 127 6 is_stmt 1 view .LVU493
 1765              	.LBB229:
 132:../USER/main.c **** 		while((gpiord & 0x4000)!=0) {
 1766              		.loc 1 132 3 view .LVU494
 132:../USER/main.c **** 		while((gpiord & 0x4000)!=0) {
 1767              		.loc 1 132 10 is_stmt 0 view .LVU495
 1768 013c 4FF48043 		mov	r3, #16384
 1769 0140 0393     		str	r3, [sp, #12]
 133:../USER/main.c **** 			spi_read();
 1770              		.loc 1 133 3 is_stmt 1 view .LVU496
 133:../USER/main.c **** 			spi_read();
 1771              		.loc 1 133 17 is_stmt 0 view .LVU497
 1772 0142 039B     		ldr	r3, [sp, #12]
 133:../USER/main.c **** 			spi_read();
 1773              		.loc 1 133 8 view .LVU498
 1774 0144 5A04     		lsls	r2, r3, #17
 1775 0146 ECD5     		bpl	.L157
 1776 0148 124C     		ldr	r4, .L189+4
 1777              	.LBB218:
 1778              	.LBB219:
 114:../USER/main.c **** 	if(kinbwp>=256) kinbwp = 0;
 1779              		.loc 1 114 29 view .LVU499
 1780 014a DFF85080 		ldr	r8, .L189+12
 1781              	.LBE219:
 1782              	.LBE218:
 135:../USER/main.c **** 		}
 1783              		.loc 1 135 13 view .LVU500
 1784 014e 124E     		ldr	r6, .L189+8
 1785              	.LBB224:
 1786              	.LBB220:
 115:../USER/main.c **** }
 1787              		.loc 1 115 25 view .LVU501
 1788 0150 0027     		movs	r7, #0
 1789 0152 0AE0     		b	.L152
 1790              	.LVL99:
 1791              	.L188:
 115:../USER/main.c **** }
 1792              		.loc 1 115 25 view .LVU502
 1793 0154 2368     		ldr	r3, [r4]
 1794              	.L154:
 115:../USER/main.c **** }
 1795              		.loc 1 115 2 is_stmt 1 view .LVU503
 115:../USER/main.c **** }
 1796              		.loc 1 115 18 view .LVU504
 1797              	.LVL100:
 115:../USER/main.c **** }
 1798              		.loc 1 115 18 is_stmt 0 view .LVU505
 1799              	.LBE220:
 1800              	.LBE224:
 135:../USER/main.c **** 		}
 1801              		.loc 1 135 4 is_stmt 1 view .LVU506
 1802              	.LBB225:
 1803              	.LBB221:
 115:../USER/main.c **** }
 1804              		.loc 1 115 4 is_stmt 0 view .LVU507
 1805 0156 FF2B     		cmp	r3, #255
 1806              	.LBE221:
 1807              	.LBE225:
 135:../USER/main.c **** 		}
 1808              		.loc 1 135 13 view .LVU508
 1809 0158 3046     		mov	r0, r6
 1810              	.LBB226:
 1811              	.LBB222:
 115:../USER/main.c **** }
 1812              		.loc 1 115 25 view .LVU509
 1813 015a C8BF     		it	gt
 1814 015c 2760     		strgt	r7, [r4]
 1815              	.LBE222:
 1816              	.LBE226:
 135:../USER/main.c **** 		}
 1817              		.loc 1 135 4 is_stmt 1 view .LVU510
 135:../USER/main.c **** 		}
 1818              		.loc 1 135 13 is_stmt 0 view .LVU511
 1819 015e FFF7FEFF 		bl	GPIO_ReadBits
 1820              	.LVL101:
 135:../USER/main.c **** 		}
 1821              		.loc 1 135 11 view .LVU512
 1822 0162 0390     		str	r0, [sp, #12]
 133:../USER/main.c **** 			spi_read();
 1823              		.loc 1 133 17 view .LVU513
 1824 0164 039B     		ldr	r3, [sp, #12]
 133:../USER/main.c **** 			spi_read();
 1825              		.loc 1 133 8 view .LVU514
 1826 0166 5B04     		lsls	r3, r3, #17
 1827 0168 DBD5     		bpl	.L157
 1828              	.L152:
 134:../USER/main.c **** 			gpiord = GPIO_ReadBits(GPIO0);
 1829              		.loc 1 134 4 is_stmt 1 view .LVU515
 1830              	.LBB227:
 1831              	.LBI218:
 111:../USER/main.c **** 	char ch;
 1832              		.loc 1 111 6 view .LVU516
 1833              	.LBB223:
 112:../USER/main.c **** 	ch = SPI_ReadData();
 1834              		.loc 1 112 2 view .LVU517
 113:../USER/main.c **** 	if(ch!=0) kinbuf[kinbwp++] = ch;
 1835              		.loc 1 113 2 view .LVU518
 113:../USER/main.c **** 	if(ch!=0) kinbuf[kinbwp++] = ch;
 1836              		.loc 1 113 7 is_stmt 0 view .LVU519
 1837 016a FFF7FEFF 		bl	SPI_ReadData
 1838              	.LVL102:
 114:../USER/main.c **** 	if(kinbwp>=256) kinbwp = 0;
 1839              		.loc 1 114 12 is_stmt 1 view .LVU520
 113:../USER/main.c **** 	if(ch!=0) kinbuf[kinbwp++] = ch;
 1840              		.loc 1 113 5 is_stmt 0 view .LVU521
 1841 016e 40B2     		sxtb	r0, r0
 1842              	.LVL103:
 114:../USER/main.c **** 	if(kinbwp>=256) kinbwp = 0;
 1843              		.loc 1 114 2 is_stmt 1 view .LVU522
 114:../USER/main.c **** 	if(kinbwp>=256) kinbwp = 0;
 1844              		.loc 1 114 4 is_stmt 0 view .LVU523
 1845 0170 0028     		cmp	r0, #0
 1846 0172 EFD0     		beq	.L188
 114:../USER/main.c **** 	if(kinbwp>=256) kinbwp = 0;
 1847              		.loc 1 114 25 view .LVU524
 1848 0174 2268     		ldr	r2, [r4]
 1849 0176 531C     		adds	r3, r2, #1
 114:../USER/main.c **** 	if(kinbwp>=256) kinbwp = 0;
 1850              		.loc 1 114 29 view .LVU525
 1851 0178 08F80200 		strb	r0, [r8, r2]
 114:../USER/main.c **** 	if(kinbwp>=256) kinbwp = 0;
 1852              		.loc 1 114 25 view .LVU526
 1853 017c 2360     		str	r3, [r4]
 1854 017e EAE7     		b	.L154
 1855              	.LVL104:
 1856              	.L184:
 114:../USER/main.c **** 	if(kinbwp>=256) kinbwp = 0;
 1857              		.loc 1 114 25 view .LVU527
 1858              	.LBE223:
 1859              	.LBE227:
 1860              	.LBE229:
 1861              	.LBE231:
 130:../USER/main.c **** 	else {
 1862              		.loc 1 130 3 is_stmt 1 view .LVU528
 1863 0180 2946     		mov	r1, r5
 1864 0182 4FF04020 		mov	r0, #1073758208
 1865              	.LBE233:
 1866              	.LBE236:
 1867              	.LBE239:
 1868              	.LBE243:
 1869              		.loc 1 142 1 is_stmt 0 view .LVU529
 1870 0186 04B0     		add	sp, sp, #16
 1871              		.cfi_def_cfa_offset 32
 1872              		@ sp needed
 1873 0188 BDE8F047 		pop	{r4, r5, r6, r7, r8, r9, r10, lr}
 1874              		.cfi_restore 14
 1875              		.cfi_restore 10
 1876              		.cfi_restore 9
 1877              		.cfi_restore 8
 1878              		.cfi_restore 7
 1879              		.cfi_restore 6
 1880              		.cfi_restore 5
 1881              		.cfi_restore 4
 1882              		.cfi_def_cfa_offset 0
 1883              	.LBB244:
 1884              	.LBB240:
 1885              	.LBB237:
 1886              	.LBB234:
 130:../USER/main.c **** 	else {
 1887              		.loc 1 130 3 view .LVU530
 1888 018c FFF7FEBF 		b	UART_SendChar
 1889              	.LVL105:
 1890              	.L190:
 1891              		.align	2
 1892              	.L189:
 1893 0190 00000000 		.word	mdgpio
 1894 0194 00000000 		.word	.LANCHOR1
 1895 0198 00000140 		.word	1073807360
 1896 019c 00000000 		.word	kinbuf
 1897              	.LBE234:
 1898              	.LBE237:
 1899              	.LBE240:
 1900              	.LBE244:
 1901              		.cfi_endproc
 1902              	.LFE43:
 1904              		.section	.text.puth4,"ax",%progbits
 1905              		.align	1
 1906              		.p2align 2,,3
 1907              		.global	puth4
 1908              		.syntax unified
 1909              		.thumb
 1910              		.thumb_func
 1911              		.fpu softvfp
 1913              	puth4:
 1914              	.LVL106:
 1915              	.LFB44:
 143:../USER/main.c **** void puth4(dt) int dt;{ puth2((dt >> 8) & 0xff); puth2(dt & 0xff); }
 1916              		.loc 1 143 23 is_stmt 1 view -0
 1917              		.cfi_startproc
 1918              		@ args = 0, pretend = 0, frame = 32
 1919              		@ frame_needed = 0, uses_anonymous_args = 0
 1920              		.loc 1 143 25 view .LVU532
 1921              		.loc 1 143 23 is_stmt 0 view .LVU533
 1922 0000 2DE9F04F 		push	{r4, r5, r6, r7, r8, r9, r10, fp, lr}
 1923              		.cfi_def_cfa_offset 36
 1924              		.cfi_offset 4, -36
 1925              		.cfi_offset 5, -32
 1926              		.cfi_offset 6, -28
 1927              		.cfi_offset 7, -24
 1928              		.cfi_offset 8, -20
 1929              		.cfi_offset 9, -16
 1930              		.cfi_offset 10, -12
 1931              		.cfi_offset 11, -8
 1932              		.cfi_offset 14, -4
 1933 0004 AF4E     		ldr	r6, .L316
 1934              	.LBB305:
 1935              	.LBB306:
 142:../USER/main.c **** void puth4(dt) int dt;{ puth2((dt >> 8) & 0xff); puth2(dt & 0xff); }
 1936              		.loc 1 142 34 view .LVU534
 1937 0006 C0F30332 		ubfx	r2, r0, #12, #4
 1938 000a 3368     		ldr	r3, [r6]
 1939              	.LBB307:
 1940              	.LBB308:
 141:../USER/main.c **** void puth2(dt) int dt;{ puth((dt >> 4) & 0xf); puth(dt & 0xf); }
 1941              		.loc 1 141 26 view .LVU535
 1942 000c 092A     		cmp	r2, #9
 1943              	.LBE308:
 1944              	.LBE307:
 1945              	.LBE306:
 1946              	.LBE305:
 1947              		.loc 1 143 23 view .LVU536
 1948 000e 89B0     		sub	sp, sp, #36
 1949              		.cfi_def_cfa_offset 72
 1950              		.loc 1 143 23 view .LVU537
 1951 0010 0546     		mov	r5, r0
 1952 0012 5FFA82F8 		uxtb	r8, r2
 1953 0016 03F40053 		and	r3, r3, #8192
 1954              		.loc 1 143 35 view .LVU538
 1955 001a 4FEA2027 		asr	r7, r0, #8
 1956              	.LVL107:
 1957              	.LBB389:
 1958              	.LBI305:
 142:../USER/main.c **** void puth4(dt) int dt;{ puth2((dt >> 8) & 0xff); puth2(dt & 0xff); }
 1959              		.loc 1 142 6 is_stmt 1 view .LVU539
 1960              	.LBB385:
 142:../USER/main.c **** void puth4(dt) int dt;{ puth2((dt >> 8) & 0xff); puth2(dt & 0xff); }
 1961              		.loc 1 142 25 view .LVU540
 1962              	.LBB343:
 1963              	.LBI307:
 141:../USER/main.c **** void puth2(dt) int dt;{ puth((dt >> 4) & 0xf); puth(dt & 0xf); }
 1964              		.loc 1 141 6 view .LVU541
 1965              	.LBB341:
 141:../USER/main.c **** void puth2(dt) int dt;{ puth((dt >> 4) & 0xf); puth(dt & 0xf); }
 1966              		.loc 1 141 24 view .LVU542
 141:../USER/main.c **** void puth2(dt) int dt;{ puth((dt >> 4) & 0xf); puth(dt & 0xf); }
 1967              		.loc 1 141 26 is_stmt 0 view .LVU543
 1968 001e 2ADC     		bgt	.L192
 141:../USER/main.c **** void puth2(dt) int dt;{ puth((dt >> 4) & 0xf); puth(dt & 0xf); }
 1969              		.loc 1 141 34 is_stmt 1 view .LVU544
 141:../USER/main.c **** void puth2(dt) int dt;{ puth((dt >> 4) & 0xf); puth(dt & 0xf); }
 1970              		.loc 1 141 44 is_stmt 0 view .LVU545
 1971 0020 08F13008 		add	r8, r8, #48
 1972              	.LVL108:
 1973              	.LBB309:
 1974              	.LBI309:
 127:../USER/main.c **** 	volatile uint32_t gpiord;
 1975              		.loc 1 127 6 is_stmt 1 view .LVU546
 1976              	.LBB310:
 128:../USER/main.c **** 	if((mdgpio & 0x2000)==0)
 1977              		.loc 1 128 2 view .LVU547
 129:../USER/main.c **** 		UART_SendChar(UART0,ch);
 1978              		.loc 1 129 2 view .LVU548
 129:../USER/main.c **** 		UART_SendChar(UART0,ch);
 1979              		.loc 1 129 4 is_stmt 0 view .LVU549
 1980 0024 002B     		cmp	r3, #0
 1981 0026 50D0     		beq	.L292
 1982              	.LVL109:
 1983              	.LBB311:
 1984              	.LBI311:
 127:../USER/main.c **** 	volatile uint32_t gpiord;
 1985              		.loc 1 127 6 is_stmt 1 view .LVU550
 1986              	.LBB312:
 132:../USER/main.c **** 		while((gpiord & 0x4000)!=0) {
 1987              		.loc 1 132 3 view .LVU551
 132:../USER/main.c **** 		while((gpiord & 0x4000)!=0) {
 1988              		.loc 1 132 10 is_stmt 0 view .LVU552
 1989 0028 4FF48043 		mov	r3, #16384
 1990 002c 0093     		str	r3, [sp]
 133:../USER/main.c **** 			spi_read();
 1991              		.loc 1 133 3 is_stmt 1 view .LVU553
 133:../USER/main.c **** 			spi_read();
 1992              		.loc 1 133 17 is_stmt 0 view .LVU554
 1993 002e 009B     		ldr	r3, [sp]
 133:../USER/main.c **** 			spi_read();
 1994              		.loc 1 133 8 view .LVU555
 1995 0030 5804     		lsls	r0, r3, #17
 1996              	.LVL110:
 133:../USER/main.c **** 			spi_read();
 1997              		.loc 1 133 8 view .LVU556
 1998 0032 40F1F080 		bpl	.L207
 1999 0036 A44C     		ldr	r4, .L316+4
 2000              	.LBB313:
 2001              	.LBB314:
 114:../USER/main.c **** 	if(kinbwp>=256) kinbwp = 0;
 2002              		.loc 1 114 29 view .LVU557
 2003 0038 DFF894B2 		ldr	fp, .L316+12
 2004              	.LBE314:
 2005              	.LBE313:
 135:../USER/main.c **** 		}
 2006              		.loc 1 135 13 view .LVU558
 2007 003c DFF88C92 		ldr	r9, .L316+8
 2008              	.LBB319:
 2009              	.LBB315:
 115:../USER/main.c **** }
 2010              		.loc 1 115 25 view .LVU559
 2011 0040 4FF0000A 		mov	r10, #0
 2012 0044 0CE0     		b	.L195
 2013              	.LVL111:
 2014              	.L308:
 115:../USER/main.c **** }
 2015              		.loc 1 115 25 view .LVU560
 2016 0046 2368     		ldr	r3, [r4]
 2017              	.L197:
 115:../USER/main.c **** }
 2018              		.loc 1 115 2 is_stmt 1 view .LVU561
 115:../USER/main.c **** }
 2019              		.loc 1 115 18 view .LVU562
 2020              	.LVL112:
 115:../USER/main.c **** }
 2021              		.loc 1 115 18 is_stmt 0 view .LVU563
 2022              	.LBE315:
 2023              	.LBE319:
 135:../USER/main.c **** 		}
 2024              		.loc 1 135 4 is_stmt 1 view .LVU564
 2025              	.LBB320:
 2026              	.LBB316:
 115:../USER/main.c **** }
 2027              		.loc 1 115 4 is_stmt 0 view .LVU565
 2028 0048 FF2B     		cmp	r3, #255
 2029              	.LBE316:
 2030              	.LBE320:
 135:../USER/main.c **** 		}
 2031              		.loc 1 135 13 view .LVU566
 2032 004a 4846     		mov	r0, r9
 2033              	.LBB321:
 2034              	.LBB317:
 115:../USER/main.c **** }
 2035              		.loc 1 115 25 view .LVU567
 2036 004c C8BF     		it	gt
 2037 004e C4F800A0 		strgt	r10, [r4]
 2038              	.LBE317:
 2039              	.LBE321:
 135:../USER/main.c **** 		}
 2040              		.loc 1 135 4 is_stmt 1 view .LVU568
 135:../USER/main.c **** 		}
 2041              		.loc 1 135 13 is_stmt 0 view .LVU569
 2042 0052 FFF7FEFF 		bl	GPIO_ReadBits
 2043              	.LVL113:
 135:../USER/main.c **** 		}
 2044              		.loc 1 135 11 view .LVU570
 2045 0056 0090     		str	r0, [sp]
 133:../USER/main.c **** 			spi_read();
 2046              		.loc 1 133 17 view .LVU571
 2047 0058 009B     		ldr	r3, [sp]
 133:../USER/main.c **** 			spi_read();
 2048              		.loc 1 133 8 view .LVU572
 2049 005a 5904     		lsls	r1, r3, #17
 2050 005c 40F1DB80 		bpl	.L207
 2051              	.L195:
 134:../USER/main.c **** 			gpiord = GPIO_ReadBits(GPIO0);
 2052              		.loc 1 134 4 is_stmt 1 view .LVU573
 2053              	.LBB322:
 2054              	.LBI313:
 111:../USER/main.c **** 	char ch;
 2055              		.loc 1 111 6 view .LVU574
 2056              	.LBB318:
 112:../USER/main.c **** 	ch = SPI_ReadData();
 2057              		.loc 1 112 2 view .LVU575
 113:../USER/main.c **** 	if(ch!=0) kinbuf[kinbwp++] = ch;
 2058              		.loc 1 113 2 view .LVU576
 113:../USER/main.c **** 	if(ch!=0) kinbuf[kinbwp++] = ch;
 2059              		.loc 1 113 7 is_stmt 0 view .LVU577
 2060 0060 FFF7FEFF 		bl	SPI_ReadData
 2061              	.LVL114:
 114:../USER/main.c **** 	if(kinbwp>=256) kinbwp = 0;
 2062              		.loc 1 114 12 is_stmt 1 view .LVU578
 113:../USER/main.c **** 	if(ch!=0) kinbuf[kinbwp++] = ch;
 2063              		.loc 1 113 5 is_stmt 0 view .LVU579
 2064 0064 40B2     		sxtb	r0, r0
 2065              	.LVL115:
 114:../USER/main.c **** 	if(kinbwp>=256) kinbwp = 0;
 2066              		.loc 1 114 2 is_stmt 1 view .LVU580
 114:../USER/main.c **** 	if(kinbwp>=256) kinbwp = 0;
 2067              		.loc 1 114 4 is_stmt 0 view .LVU581
 2068 0066 0028     		cmp	r0, #0
 2069 0068 EDD0     		beq	.L308
 114:../USER/main.c **** 	if(kinbwp>=256) kinbwp = 0;
 2070              		.loc 1 114 25 view .LVU582
 2071 006a 2268     		ldr	r2, [r4]
 2072 006c 531C     		adds	r3, r2, #1
 114:../USER/main.c **** 	if(kinbwp>=256) kinbwp = 0;
 2073              		.loc 1 114 29 view .LVU583
 2074 006e 0BF80200 		strb	r0, [fp, r2]
 114:../USER/main.c **** 	if(kinbwp>=256) kinbwp = 0;
 2075              		.loc 1 114 25 view .LVU584
 2076 0072 2360     		str	r3, [r4]
 2077 0074 E8E7     		b	.L197
 2078              	.LVL116:
 2079              	.L192:
 114:../USER/main.c **** 	if(kinbwp>=256) kinbwp = 0;
 2080              		.loc 1 114 25 view .LVU585
 2081              	.LBE318:
 2082              	.LBE322:
 2083              	.LBE312:
 2084              	.LBE311:
 2085              	.LBE310:
 2086              	.LBE309:
 141:../USER/main.c **** void puth2(dt) int dt;{ puth((dt >> 4) & 0xf); puth(dt & 0xf); }
 2087              		.loc 1 141 55 is_stmt 1 view .LVU586
 141:../USER/main.c **** void puth2(dt) int dt;{ puth((dt >> 4) & 0xf); puth(dt & 0xf); }
 2088              		.loc 1 141 65 is_stmt 0 view .LVU587
 2089 0076 08F13708 		add	r8, r8, #55
 2090              	.LVL117:
 2091              	.LBB323:
 2092              	.LBI323:
 127:../USER/main.c **** 	volatile uint32_t gpiord;
 2093              		.loc 1 127 6 is_stmt 1 view .LVU588
 2094              	.LBB324:
 128:../USER/main.c **** 	if((mdgpio & 0x2000)==0)
 2095              		.loc 1 128 2 view .LVU589
 129:../USER/main.c **** 		UART_SendChar(UART0,ch);
 2096              		.loc 1 129 2 view .LVU590
 129:../USER/main.c **** 		UART_SendChar(UART0,ch);
 2097              		.loc 1 129 4 is_stmt 0 view .LVU591
 2098 007a 33B3     		cbz	r3, .L292
 2099              	.LVL118:
 2100              	.LBB325:
 2101              	.LBI325:
 127:../USER/main.c **** 	volatile uint32_t gpiord;
 2102              		.loc 1 127 6 is_stmt 1 view .LVU592
 2103              	.LBB326:
 132:../USER/main.c **** 		while((gpiord & 0x4000)!=0) {
 2104              		.loc 1 132 3 view .LVU593
 132:../USER/main.c **** 		while((gpiord & 0x4000)!=0) {
 2105              		.loc 1 132 10 is_stmt 0 view .LVU594
 2106 007c 4FF48043 		mov	r3, #16384
 2107 0080 0193     		str	r3, [sp, #4]
 133:../USER/main.c **** 			spi_read();
 2108              		.loc 1 133 3 is_stmt 1 view .LVU595
 133:../USER/main.c **** 			spi_read();
 2109              		.loc 1 133 17 is_stmt 0 view .LVU596
 2110 0082 019B     		ldr	r3, [sp, #4]
 133:../USER/main.c **** 			spi_read();
 2111              		.loc 1 133 8 view .LVU597
 2112 0084 5A04     		lsls	r2, r3, #17
 2113              	.LVL119:
 133:../USER/main.c **** 			spi_read();
 2114              		.loc 1 133 8 view .LVU598
 2115 0086 40F1C680 		bpl	.L207
 2116 008a 8F4C     		ldr	r4, .L316+4
 2117              	.LBB327:
 2118              	.LBB328:
 114:../USER/main.c **** 	if(kinbwp>=256) kinbwp = 0;
 2119              		.loc 1 114 29 view .LVU599
 2120 008c DFF840B2 		ldr	fp, .L316+12
 2121              	.LBE328:
 2122              	.LBE327:
 135:../USER/main.c **** 		}
 2123              		.loc 1 135 13 view .LVU600
 2124 0090 DFF83892 		ldr	r9, .L316+8
 2125              	.LBB333:
 2126              	.LBB329:
 115:../USER/main.c **** }
 2127              		.loc 1 115 25 view .LVU601
 2128 0094 4FF0000A 		mov	r10, #0
 2129 0098 0CE0     		b	.L202
 2130              	.LVL120:
 2131              	.L309:
 115:../USER/main.c **** }
 2132              		.loc 1 115 25 view .LVU602
 2133 009a 2368     		ldr	r3, [r4]
 2134              	.L204:
 115:../USER/main.c **** }
 2135              		.loc 1 115 2 is_stmt 1 view .LVU603
 115:../USER/main.c **** }
 2136              		.loc 1 115 18 view .LVU604
 2137              	.LVL121:
 115:../USER/main.c **** }
 2138              		.loc 1 115 18 is_stmt 0 view .LVU605
 2139              	.LBE329:
 2140              	.LBE333:
 135:../USER/main.c **** 		}
 2141              		.loc 1 135 4 is_stmt 1 view .LVU606
 2142              	.LBB334:
 2143              	.LBB330:
 115:../USER/main.c **** }
 2144              		.loc 1 115 4 is_stmt 0 view .LVU607
 2145 009c FF2B     		cmp	r3, #255
 2146              	.LBE330:
 2147              	.LBE334:
 135:../USER/main.c **** 		}
 2148              		.loc 1 135 13 view .LVU608
 2149 009e 4846     		mov	r0, r9
 2150              	.LBB335:
 2151              	.LBB331:
 115:../USER/main.c **** }
 2152              		.loc 1 115 25 view .LVU609
 2153 00a0 C8BF     		it	gt
 2154 00a2 C4F800A0 		strgt	r10, [r4]
 2155              	.LBE331:
 2156              	.LBE335:
 135:../USER/main.c **** 		}
 2157              		.loc 1 135 4 is_stmt 1 view .LVU610
 135:../USER/main.c **** 		}
 2158              		.loc 1 135 13 is_stmt 0 view .LVU611
 2159 00a6 FFF7FEFF 		bl	GPIO_ReadBits
 2160              	.LVL122:
 135:../USER/main.c **** 		}
 2161              		.loc 1 135 11 view .LVU612
 2162 00aa 0190     		str	r0, [sp, #4]
 133:../USER/main.c **** 			spi_read();
 2163              		.loc 1 133 17 view .LVU613
 2164 00ac 019B     		ldr	r3, [sp, #4]
 133:../USER/main.c **** 			spi_read();
 2165              		.loc 1 133 8 view .LVU614
 2166 00ae 5B04     		lsls	r3, r3, #17
 2167 00b0 40F1B180 		bpl	.L207
 2168              	.L202:
 134:../USER/main.c **** 			gpiord = GPIO_ReadBits(GPIO0);
 2169              		.loc 1 134 4 is_stmt 1 view .LVU615
 2170              	.LBB336:
 2171              	.LBI327:
 111:../USER/main.c **** 	char ch;
 2172              		.loc 1 111 6 view .LVU616
 2173              	.LBB332:
 112:../USER/main.c **** 	ch = SPI_ReadData();
 2174              		.loc 1 112 2 view .LVU617
 113:../USER/main.c **** 	if(ch!=0) kinbuf[kinbwp++] = ch;
 2175              		.loc 1 113 2 view .LVU618
 113:../USER/main.c **** 	if(ch!=0) kinbuf[kinbwp++] = ch;
 2176              		.loc 1 113 7 is_stmt 0 view .LVU619
 2177 00b4 FFF7FEFF 		bl	SPI_ReadData
 2178              	.LVL123:
 114:../USER/main.c **** 	if(kinbwp>=256) kinbwp = 0;
 2179              		.loc 1 114 12 is_stmt 1 view .LVU620
 113:../USER/main.c **** 	if(ch!=0) kinbuf[kinbwp++] = ch;
 2180              		.loc 1 113 5 is_stmt 0 view .LVU621
 2181 00b8 40B2     		sxtb	r0, r0
 2182              	.LVL124:
 114:../USER/main.c **** 	if(kinbwp>=256) kinbwp = 0;
 2183              		.loc 1 114 2 is_stmt 1 view .LVU622
 114:../USER/main.c **** 	if(kinbwp>=256) kinbwp = 0;
 2184              		.loc 1 114 4 is_stmt 0 view .LVU623
 2185 00ba 0028     		cmp	r0, #0
 2186 00bc EDD0     		beq	.L309
 114:../USER/main.c **** 	if(kinbwp>=256) kinbwp = 0;
 2187              		.loc 1 114 25 view .LVU624
 2188 00be 2268     		ldr	r2, [r4]
 2189 00c0 531C     		adds	r3, r2, #1
 114:../USER/main.c **** 	if(kinbwp>=256) kinbwp = 0;
 2190              		.loc 1 114 29 view .LVU625
 2191 00c2 0BF80200 		strb	r0, [fp, r2]
 114:../USER/main.c **** 	if(kinbwp>=256) kinbwp = 0;
 2192              		.loc 1 114 25 view .LVU626
 2193 00c6 2360     		str	r3, [r4]
 2194 00c8 E8E7     		b	.L204
 2195              	.LVL125:
 2196              	.L292:
 114:../USER/main.c **** 	if(kinbwp>=256) kinbwp = 0;
 2197              		.loc 1 114 25 view .LVU627
 2198              	.LBE332:
 2199              	.LBE336:
 2200              	.LBE326:
 2201              	.LBE325:
 130:../USER/main.c **** 	else {
 2202              		.loc 1 130 3 is_stmt 1 view .LVU628
 2203 00ca 4146     		mov	r1, r8
 2204 00cc 4FF04020 		mov	r0, #1073758208
 2205              	.LVL126:
 130:../USER/main.c **** 	else {
 2206              		.loc 1 130 3 is_stmt 0 view .LVU629
 2207 00d0 FFF7FEFF 		bl	UART_SendChar
 2208              	.LVL127:
 2209              	.L194:
 130:../USER/main.c **** 	else {
 2210              		.loc 1 130 3 view .LVU630
 2211              	.LBE324:
 2212              	.LBE323:
 2213              	.LBE341:
 2214              	.LBE343:
 142:../USER/main.c **** void puth4(dt) int dt;{ puth2((dt >> 8) & 0xff); puth2(dt & 0xff); }
 2215              		.loc 1 142 48 is_stmt 1 view .LVU631
 2216 00d4 07F00F03 		and	r3, r7, #15
 2217              	.LVL128:
 2218              	.LBB344:
 2219              	.LBI344:
 141:../USER/main.c **** void puth2(dt) int dt;{ puth((dt >> 4) & 0xf); puth(dt & 0xf); }
 2220              		.loc 1 141 6 view .LVU632
 2221              	.LBB345:
 141:../USER/main.c **** void puth2(dt) int dt;{ puth((dt >> 4) & 0xf); puth(dt & 0xf); }
 2222              		.loc 1 141 24 view .LVU633
 2223 00d8 3268     		ldr	r2, [r6]
 141:../USER/main.c **** void puth2(dt) int dt;{ puth((dt >> 4) & 0xf); puth(dt & 0xf); }
 2224              		.loc 1 141 26 is_stmt 0 view .LVU634
 2225 00da 092B     		cmp	r3, #9
 2226 00dc D8B2     		uxtb	r0, r3
 2227 00de 02F40052 		and	r2, r2, #8192
 2228 00e2 00F3C380 		bgt	.L208
 141:../USER/main.c **** void puth2(dt) int dt;{ puth((dt >> 4) & 0xf); puth(dt & 0xf); }
 2229              		.loc 1 141 34 is_stmt 1 view .LVU635
 141:../USER/main.c **** void puth2(dt) int dt;{ puth((dt >> 4) & 0xf); puth(dt & 0xf); }
 2230              		.loc 1 141 44 is_stmt 0 view .LVU636
 2231 00e6 00F13007 		add	r7, r0, #48
 2232              	.LVL129:
 2233              	.LBB346:
 2234              	.LBI346:
 127:../USER/main.c **** 	volatile uint32_t gpiord;
 2235              		.loc 1 127 6 is_stmt 1 view .LVU637
 2236              	.LBB347:
 128:../USER/main.c **** 	if((mdgpio & 0x2000)==0)
 2237              		.loc 1 128 2 view .LVU638
 129:../USER/main.c **** 		UART_SendChar(UART0,ch);
 2238              		.loc 1 129 2 view .LVU639
 129:../USER/main.c **** 		UART_SendChar(UART0,ch);
 2239              		.loc 1 129 4 is_stmt 0 view .LVU640
 2240 00ea 002A     		cmp	r2, #0
 2241 00ec 00F01C81 		beq	.L297
 2242              	.LVL130:
 2243              	.LBB348:
 2244              	.LBI348:
 127:../USER/main.c **** 	volatile uint32_t gpiord;
 2245              		.loc 1 127 6 is_stmt 1 view .LVU641
 2246              	.LBB349:
 132:../USER/main.c **** 		while((gpiord & 0x4000)!=0) {
 2247              		.loc 1 132 3 view .LVU642
 132:../USER/main.c **** 		while((gpiord & 0x4000)!=0) {
 2248              		.loc 1 132 10 is_stmt 0 view .LVU643
 2249 00f0 4FF48043 		mov	r3, #16384
 2250              	.LVL131:
 132:../USER/main.c **** 		while((gpiord & 0x4000)!=0) {
 2251              		.loc 1 132 10 view .LVU644
 2252 00f4 0293     		str	r3, [sp, #8]
 133:../USER/main.c **** 			spi_read();
 2253              		.loc 1 133 3 is_stmt 1 view .LVU645
 133:../USER/main.c **** 			spi_read();
 2254              		.loc 1 133 17 is_stmt 0 view .LVU646
 2255 00f6 029B     		ldr	r3, [sp, #8]
 133:../USER/main.c **** 			spi_read();
 2256              		.loc 1 133 8 view .LVU647
 2257 00f8 5804     		lsls	r0, r3, #17
 2258 00fa 1ED5     		bpl	.L223
 2259 00fc 724C     		ldr	r4, .L316+4
 2260              	.LBB350:
 2261              	.LBB351:
 114:../USER/main.c **** 	if(kinbwp>=256) kinbwp = 0;
 2262              		.loc 1 114 29 view .LVU648
 2263 00fe DFF8D0A1 		ldr	r10, .L316+12
 2264              	.LBE351:
 2265              	.LBE350:
 135:../USER/main.c **** 		}
 2266              		.loc 1 135 13 view .LVU649
 2267 0102 DFF8C881 		ldr	r8, .L316+8
 2268              	.LBB356:
 2269              	.LBB352:
 115:../USER/main.c **** }
 2270              		.loc 1 115 25 view .LVU650
 2271 0106 4FF00009 		mov	r9, #0
 2272 010a 0BE0     		b	.L211
 2273              	.LVL132:
 2274              	.L310:
 115:../USER/main.c **** }
 2275              		.loc 1 115 25 view .LVU651
 2276 010c 2368     		ldr	r3, [r4]
 2277              	.L213:
 115:../USER/main.c **** }
 2278              		.loc 1 115 2 is_stmt 1 view .LVU652
 115:../USER/main.c **** }
 2279              		.loc 1 115 18 view .LVU653
 2280              	.LVL133:
 115:../USER/main.c **** }
 2281              		.loc 1 115 18 is_stmt 0 view .LVU654
 2282              	.LBE352:
 2283              	.LBE356:
 135:../USER/main.c **** 		}
 2284              		.loc 1 135 4 is_stmt 1 view .LVU655
 2285              	.LBB357:
 2286              	.LBB353:
 115:../USER/main.c **** }
 2287              		.loc 1 115 4 is_stmt 0 view .LVU656
 2288 010e FF2B     		cmp	r3, #255
 2289              	.LBE353:
 2290              	.LBE357:
 135:../USER/main.c **** 		}
 2291              		.loc 1 135 13 view .LVU657
 2292 0110 4046     		mov	r0, r8
 2293              	.LBB358:
 2294              	.LBB354:
 115:../USER/main.c **** }
 2295              		.loc 1 115 25 view .LVU658
 2296 0112 C8BF     		it	gt
 2297 0114 C4F80090 		strgt	r9, [r4]
 2298              	.LBE354:
 2299              	.LBE358:
 135:../USER/main.c **** 		}
 2300              		.loc 1 135 4 is_stmt 1 view .LVU659
 135:../USER/main.c **** 		}
 2301              		.loc 1 135 13 is_stmt 0 view .LVU660
 2302 0118 FFF7FEFF 		bl	GPIO_ReadBits
 2303              	.LVL134:
 135:../USER/main.c **** 		}
 2304              		.loc 1 135 11 view .LVU661
 2305 011c 0290     		str	r0, [sp, #8]
 133:../USER/main.c **** 			spi_read();
 2306              		.loc 1 133 17 view .LVU662
 2307 011e 029B     		ldr	r3, [sp, #8]
 133:../USER/main.c **** 			spi_read();
 2308              		.loc 1 133 8 view .LVU663
 2309 0120 5904     		lsls	r1, r3, #17
 2310 0122 0AD5     		bpl	.L223
 2311              	.L211:
 134:../USER/main.c **** 			gpiord = GPIO_ReadBits(GPIO0);
 2312              		.loc 1 134 4 is_stmt 1 view .LVU664
 2313              	.LBB359:
 2314              	.LBI350:
 111:../USER/main.c **** 	char ch;
 2315              		.loc 1 111 6 view .LVU665
 2316              	.LBB355:
 112:../USER/main.c **** 	ch = SPI_ReadData();
 2317              		.loc 1 112 2 view .LVU666
 113:../USER/main.c **** 	if(ch!=0) kinbuf[kinbwp++] = ch;
 2318              		.loc 1 113 2 view .LVU667
 113:../USER/main.c **** 	if(ch!=0) kinbuf[kinbwp++] = ch;
 2319              		.loc 1 113 7 is_stmt 0 view .LVU668
 2320 0124 FFF7FEFF 		bl	SPI_ReadData
 2321              	.LVL135:
 114:../USER/main.c **** 	if(kinbwp>=256) kinbwp = 0;
 2322              		.loc 1 114 12 is_stmt 1 view .LVU669
 113:../USER/main.c **** 	if(ch!=0) kinbuf[kinbwp++] = ch;
 2323              		.loc 1 113 5 is_stmt 0 view .LVU670
 2324 0128 40B2     		sxtb	r0, r0
 2325              	.LVL136:
 114:../USER/main.c **** 	if(kinbwp>=256) kinbwp = 0;
 2326              		.loc 1 114 2 is_stmt 1 view .LVU671
 114:../USER/main.c **** 	if(kinbwp>=256) kinbwp = 0;
 2327              		.loc 1 114 4 is_stmt 0 view .LVU672
 2328 012a 0028     		cmp	r0, #0
 2329 012c EED0     		beq	.L310
 114:../USER/main.c **** 	if(kinbwp>=256) kinbwp = 0;
 2330              		.loc 1 114 25 view .LVU673
 2331 012e 2268     		ldr	r2, [r4]
 2332 0130 531C     		adds	r3, r2, #1
 114:../USER/main.c **** 	if(kinbwp>=256) kinbwp = 0;
 2333              		.loc 1 114 29 view .LVU674
 2334 0132 0AF80200 		strb	r0, [r10, r2]
 114:../USER/main.c **** 	if(kinbwp>=256) kinbwp = 0;
 2335              		.loc 1 114 25 view .LVU675
 2336 0136 2360     		str	r3, [r4]
 2337 0138 E9E7     		b	.L213
 2338              	.LVL137:
 2339              	.L223:
 114:../USER/main.c **** 	if(kinbwp>=256) kinbwp = 0;
 2340              		.loc 1 114 25 view .LVU676
 2341              	.LBE355:
 2342              	.LBE359:
 2343              	.LBE349:
 2344              	.LBE348:
 2345              	.LBE347:
 2346              	.LBE346:
 2347              	.LBB360:
 2348              	.LBB361:
 2349              	.LBB362:
 2350              	.LBB363:
 137:../USER/main.c **** 	}
 2351              		.loc 1 137 3 is_stmt 1 view .LVU677
 2352 013a 3846     		mov	r0, r7
 2353 013c FFF7FEFF 		bl	SPI_WriteData
 2354              	.LVL138:
 2355              	.L210:
 137:../USER/main.c **** 	}
 2356              		.loc 1 137 3 is_stmt 0 view .LVU678
 2357              	.LBE363:
 2358              	.LBE362:
 2359              	.LBE361:
 2360              	.LBE360:
 2361              	.LBE345:
 2362              	.LBE344:
 2363              	.LBE385:
 2364              	.LBE389:
 2365              		.loc 1 143 50 is_stmt 1 view .LVU679
 2366              	.LBB390:
 2367              	.LBI390:
 142:../USER/main.c **** void puth4(dt) int dt;{ puth2((dt >> 8) & 0xff); puth2(dt & 0xff); }
 2368              		.loc 1 142 6 view .LVU680
 2369              	.LBB391:
 142:../USER/main.c **** void puth4(dt) int dt;{ puth2((dt >> 8) & 0xff); puth2(dt & 0xff); }
 2370              		.loc 1 142 25 view .LVU681
 142:../USER/main.c **** void puth4(dt) int dt;{ puth2((dt >> 8) & 0xff); puth2(dt & 0xff); }
 2371              		.loc 1 142 34 is_stmt 0 view .LVU682
 2372 0140 C5F30313 		ubfx	r3, r5, #4, #4
 2373              	.LBB392:
 2374              	.LBI392:
 141:../USER/main.c **** void puth2(dt) int dt;{ puth((dt >> 4) & 0xf); puth(dt & 0xf); }
 2375              		.loc 1 141 6 is_stmt 1 view .LVU683
 2376              	.LBB393:
 141:../USER/main.c **** void puth2(dt) int dt;{ puth((dt >> 4) & 0xf); puth(dt & 0xf); }
 2377              		.loc 1 141 24 view .LVU684
 2378 0144 3268     		ldr	r2, [r6]
 141:../USER/main.c **** void puth2(dt) int dt;{ puth((dt >> 4) & 0xf); puth(dt & 0xf); }
 2379              		.loc 1 141 26 is_stmt 0 view .LVU685
 2380 0146 092B     		cmp	r3, #9
 2381 0148 02F40052 		and	r2, r2, #8192
 2382 014c D8B2     		uxtb	r0, r3
 2383 014e 00F3C180 		bgt	.L224
 141:../USER/main.c **** void puth2(dt) int dt;{ puth((dt >> 4) & 0xf); puth(dt & 0xf); }
 2384              		.loc 1 141 34 is_stmt 1 view .LVU686
 141:../USER/main.c **** void puth2(dt) int dt;{ puth((dt >> 4) & 0xf); puth(dt & 0xf); }
 2385              		.loc 1 141 44 is_stmt 0 view .LVU687
 2386 0152 00F13007 		add	r7, r0, #48
 2387              	.LVL139:
 2388              	.LBB394:
 2389              	.LBI394:
 127:../USER/main.c **** 	volatile uint32_t gpiord;
 2390              		.loc 1 127 6 is_stmt 1 view .LVU688
 2391              	.LBB395:
 128:../USER/main.c **** 	if((mdgpio & 0x2000)==0)
 2392              		.loc 1 128 2 view .LVU689
 129:../USER/main.c **** 		UART_SendChar(UART0,ch);
 2393              		.loc 1 129 2 view .LVU690
 129:../USER/main.c **** 		UART_SendChar(UART0,ch);
 2394              		.loc 1 129 4 is_stmt 0 view .LVU691
 2395 0156 002A     		cmp	r2, #0
 2396 0158 00F0EC80 		beq	.L302
 2397              	.LVL140:
 2398              	.LBB396:
 2399              	.LBI396:
 127:../USER/main.c **** 	volatile uint32_t gpiord;
 2400              		.loc 1 127 6 is_stmt 1 view .LVU692
 2401              	.LBB397:
 132:../USER/main.c **** 		while((gpiord & 0x4000)!=0) {
 2402              		.loc 1 132 3 view .LVU693
 132:../USER/main.c **** 		while((gpiord & 0x4000)!=0) {
 2403              		.loc 1 132 10 is_stmt 0 view .LVU694
 2404 015c 4FF48043 		mov	r3, #16384
 2405 0160 0493     		str	r3, [sp, #16]
 133:../USER/main.c **** 			spi_read();
 2406              		.loc 1 133 3 is_stmt 1 view .LVU695
 133:../USER/main.c **** 			spi_read();
 2407              		.loc 1 133 17 is_stmt 0 view .LVU696
 2408 0162 049B     		ldr	r3, [sp, #16]
 133:../USER/main.c **** 			spi_read();
 2409              		.loc 1 133 8 view .LVU697
 2410 0164 5804     		lsls	r0, r3, #17
 2411 0166 1ED5     		bpl	.L239
 2412 0168 574C     		ldr	r4, .L316+4
 2413              	.LBB398:
 2414              	.LBB399:
 114:../USER/main.c **** 	if(kinbwp>=256) kinbwp = 0;
 2415              		.loc 1 114 29 view .LVU698
 2416 016a DFF864A1 		ldr	r10, .L316+12
 2417              	.LBE399:
 2418              	.LBE398:
 135:../USER/main.c **** 		}
 2419              		.loc 1 135 13 view .LVU699
 2420 016e DFF85C81 		ldr	r8, .L316+8
 2421              	.LBB404:
 2422              	.LBB400:
 115:../USER/main.c **** }
 2423              		.loc 1 115 25 view .LVU700
 2424 0172 4FF00009 		mov	r9, #0
 2425 0176 0BE0     		b	.L227
 2426              	.LVL141:
 2427              	.L311:
 115:../USER/main.c **** }
 2428              		.loc 1 115 25 view .LVU701
 2429 0178 2368     		ldr	r3, [r4]
 2430              	.L229:
 115:../USER/main.c **** }
 2431              		.loc 1 115 2 is_stmt 1 view .LVU702
 115:../USER/main.c **** }
 2432              		.loc 1 115 18 view .LVU703
 2433              	.LVL142:
 115:../USER/main.c **** }
 2434              		.loc 1 115 18 is_stmt 0 view .LVU704
 2435              	.LBE400:
 2436              	.LBE404:
 135:../USER/main.c **** 		}
 2437              		.loc 1 135 4 is_stmt 1 view .LVU705
 2438              	.LBB405:
 2439              	.LBB401:
 115:../USER/main.c **** }
 2440              		.loc 1 115 4 is_stmt 0 view .LVU706
 2441 017a FF2B     		cmp	r3, #255
 2442              	.LBE401:
 2443              	.LBE405:
 135:../USER/main.c **** 		}
 2444              		.loc 1 135 13 view .LVU707
 2445 017c 4046     		mov	r0, r8
 2446              	.LBB406:
 2447              	.LBB402:
 115:../USER/main.c **** }
 2448              		.loc 1 115 25 view .LVU708
 2449 017e C8BF     		it	gt
 2450 0180 C4F80090 		strgt	r9, [r4]
 2451              	.LBE402:
 2452              	.LBE406:
 135:../USER/main.c **** 		}
 2453              		.loc 1 135 4 is_stmt 1 view .LVU709
 135:../USER/main.c **** 		}
 2454              		.loc 1 135 13 is_stmt 0 view .LVU710
 2455 0184 FFF7FEFF 		bl	GPIO_ReadBits
 2456              	.LVL143:
 135:../USER/main.c **** 		}
 2457              		.loc 1 135 11 view .LVU711
 2458 0188 0490     		str	r0, [sp, #16]
 133:../USER/main.c **** 			spi_read();
 2459              		.loc 1 133 17 view .LVU712
 2460 018a 049B     		ldr	r3, [sp, #16]
 133:../USER/main.c **** 			spi_read();
 2461              		.loc 1 133 8 view .LVU713
 2462 018c 5904     		lsls	r1, r3, #17
 2463 018e 0AD5     		bpl	.L239
 2464              	.L227:
 134:../USER/main.c **** 			gpiord = GPIO_ReadBits(GPIO0);
 2465              		.loc 1 134 4 is_stmt 1 view .LVU714
 2466              	.LBB407:
 2467              	.LBI398:
 111:../USER/main.c **** 	char ch;
 2468              		.loc 1 111 6 view .LVU715
 2469              	.LBB403:
 112:../USER/main.c **** 	ch = SPI_ReadData();
 2470              		.loc 1 112 2 view .LVU716
 113:../USER/main.c **** 	if(ch!=0) kinbuf[kinbwp++] = ch;
 2471              		.loc 1 113 2 view .LVU717
 113:../USER/main.c **** 	if(ch!=0) kinbuf[kinbwp++] = ch;
 2472              		.loc 1 113 7 is_stmt 0 view .LVU718
 2473 0190 FFF7FEFF 		bl	SPI_ReadData
 2474              	.LVL144:
 114:../USER/main.c **** 	if(kinbwp>=256) kinbwp = 0;
 2475              		.loc 1 114 12 is_stmt 1 view .LVU719
 113:../USER/main.c **** 	if(ch!=0) kinbuf[kinbwp++] = ch;
 2476              		.loc 1 113 5 is_stmt 0 view .LVU720
 2477 0194 40B2     		sxtb	r0, r0
 2478              	.LVL145:
 114:../USER/main.c **** 	if(kinbwp>=256) kinbwp = 0;
 2479              		.loc 1 114 2 is_stmt 1 view .LVU721
 114:../USER/main.c **** 	if(kinbwp>=256) kinbwp = 0;
 2480              		.loc 1 114 4 is_stmt 0 view .LVU722
 2481 0196 0028     		cmp	r0, #0
 2482 0198 EED0     		beq	.L311
 114:../USER/main.c **** 	if(kinbwp>=256) kinbwp = 0;
 2483              		.loc 1 114 25 view .LVU723
 2484 019a 2268     		ldr	r2, [r4]
 2485 019c 531C     		adds	r3, r2, #1
 114:../USER/main.c **** 	if(kinbwp>=256) kinbwp = 0;
 2486              		.loc 1 114 29 view .LVU724
 2487 019e 0AF80200 		strb	r0, [r10, r2]
 114:../USER/main.c **** 	if(kinbwp>=256) kinbwp = 0;
 2488              		.loc 1 114 25 view .LVU725
 2489 01a2 2360     		str	r3, [r4]
 2490 01a4 E9E7     		b	.L229
 2491              	.LVL146:
 2492              	.L239:
 114:../USER/main.c **** 	if(kinbwp>=256) kinbwp = 0;
 2493              		.loc 1 114 25 view .LVU726
 2494              	.LBE403:
 2495              	.LBE407:
 2496              	.LBE397:
 2497              	.LBE396:
 2498              	.LBE395:
 2499              	.LBE394:
 2500              	.LBB408:
 2501              	.LBB409:
 2502              	.LBB410:
 2503              	.LBB411:
 137:../USER/main.c **** 	}
 2504              		.loc 1 137 3 is_stmt 1 view .LVU727
 2505 01a6 3846     		mov	r0, r7
 2506 01a8 FFF7FEFF 		bl	SPI_WriteData
 2507              	.LVL147:
 2508              	.L226:
 2509              	.LBE411:
 2510              	.LBE410:
 2511              	.LBE409:
 2512              	.LBE408:
 2513              	.LBE393:
 2514              	.LBE392:
 142:../USER/main.c **** void puth4(dt) int dt;{ puth2((dt >> 8) & 0xff); puth2(dt & 0xff); }
 2515              		.loc 1 142 48 view .LVU728
 2516 01ac 05F00F05 		and	r5, r5, #15
 2517              	.LVL148:
 2518              	.LBB430:
 2519              	.LBI430:
 141:../USER/main.c **** void puth2(dt) int dt;{ puth((dt >> 4) & 0xf); puth(dt & 0xf); }
 2520              		.loc 1 141 6 view .LVU729
 2521              	.LBB431:
 141:../USER/main.c **** void puth2(dt) int dt;{ puth((dt >> 4) & 0xf); puth(dt & 0xf); }
 2522              		.loc 1 141 24 view .LVU730
 2523 01b0 3368     		ldr	r3, [r6]
 141:../USER/main.c **** void puth2(dt) int dt;{ puth((dt >> 4) & 0xf); puth(dt & 0xf); }
 2524              		.loc 1 141 26 is_stmt 0 view .LVU731
 2525 01b2 092D     		cmp	r5, #9
 2526 01b4 03F40053 		and	r3, r3, #8192
 2527 01b8 E8B2     		uxtb	r0, r5
 2528 01ba 30DC     		bgt	.L240
 141:../USER/main.c **** void puth2(dt) int dt;{ puth((dt >> 4) & 0xf); puth(dt & 0xf); }
 2529              		.loc 1 141 34 is_stmt 1 view .LVU732
 141:../USER/main.c **** void puth2(dt) int dt;{ puth((dt >> 4) & 0xf); puth(dt & 0xf); }
 2530              		.loc 1 141 44 is_stmt 0 view .LVU733
 2531 01bc 00F13005 		add	r5, r0, #48
 2532              	.LVL149:
 2533              	.LBB432:
 2534              	.LBI432:
 127:../USER/main.c **** 	volatile uint32_t gpiord;
 2535              		.loc 1 127 6 is_stmt 1 view .LVU734
 2536              	.LBB433:
 128:../USER/main.c **** 	if((mdgpio & 0x2000)==0)
 2537              		.loc 1 128 2 view .LVU735
 129:../USER/main.c **** 		UART_SendChar(UART0,ch);
 2538              		.loc 1 129 2 view .LVU736
 129:../USER/main.c **** 		UART_SendChar(UART0,ch);
 2539              		.loc 1 129 4 is_stmt 0 view .LVU737
 2540 01c0 002B     		cmp	r3, #0
 2541 01c2 00F0BD80 		beq	.L307
 2542              	.LVL150:
 2543              	.LBB434:
 2544              	.LBI434:
 127:../USER/main.c **** 	volatile uint32_t gpiord;
 2545              		.loc 1 127 6 is_stmt 1 view .LVU738
 2546              	.LBB435:
 132:../USER/main.c **** 		while((gpiord & 0x4000)!=0) {
 2547              		.loc 1 132 3 view .LVU739
 132:../USER/main.c **** 		while((gpiord & 0x4000)!=0) {
 2548              		.loc 1 132 10 is_stmt 0 view .LVU740
 2549 01c6 4FF48043 		mov	r3, #16384
 2550 01ca 0693     		str	r3, [sp, #24]
 133:../USER/main.c **** 			spi_read();
 2551              		.loc 1 133 3 is_stmt 1 view .LVU741
 133:../USER/main.c **** 			spi_read();
 2552              		.loc 1 133 17 is_stmt 0 view .LVU742
 2553 01cc 069B     		ldr	r3, [sp, #24]
 133:../USER/main.c **** 			spi_read();
 2554              		.loc 1 133 8 view .LVU743
 2555 01ce 5804     		lsls	r0, r3, #17
 2556 01d0 1BD5     		bpl	.L254
 2557 01d2 3D4C     		ldr	r4, .L316+4
 2558              	.LBB436:
 2559              	.LBB437:
 114:../USER/main.c **** 	if(kinbwp>=256) kinbwp = 0;
 2560              		.loc 1 114 29 view .LVU744
 2561 01d4 DFF8F880 		ldr	r8, .L316+12
 2562              	.LBE437:
 2563              	.LBE436:
 135:../USER/main.c **** 		}
 2564              		.loc 1 135 13 view .LVU745
 2565 01d8 3C4E     		ldr	r6, .L316+8
 2566              	.LBB442:
 2567              	.LBB438:
 115:../USER/main.c **** }
 2568              		.loc 1 115 25 view .LVU746
 2569 01da 0027     		movs	r7, #0
 2570 01dc 0AE0     		b	.L242
 2571              	.LVL151:
 2572              	.L312:
 115:../USER/main.c **** }
 2573              		.loc 1 115 25 view .LVU747
 2574 01de 2368     		ldr	r3, [r4]
 2575              	.L244:
 115:../USER/main.c **** }
 2576              		.loc 1 115 2 is_stmt 1 view .LVU748
 115:../USER/main.c **** }
 2577              		.loc 1 115 18 view .LVU749
 2578              	.LVL152:
 115:../USER/main.c **** }
 2579              		.loc 1 115 18 is_stmt 0 view .LVU750
 2580              	.LBE438:
 2581              	.LBE442:
 135:../USER/main.c **** 		}
 2582              		.loc 1 135 4 is_stmt 1 view .LVU751
 2583              	.LBB443:
 2584              	.LBB439:
 115:../USER/main.c **** }
 2585              		.loc 1 115 4 is_stmt 0 view .LVU752
 2586 01e0 FF2B     		cmp	r3, #255
 2587              	.LBE439:
 2588              	.LBE443:
 135:../USER/main.c **** 		}
 2589              		.loc 1 135 13 view .LVU753
 2590 01e2 3046     		mov	r0, r6
 2591              	.LBB444:
 2592              	.LBB440:
 115:../USER/main.c **** }
 2593              		.loc 1 115 25 view .LVU754
 2594 01e4 C8BF     		it	gt
 2595 01e6 2760     		strgt	r7, [r4]
 2596              	.LBE440:
 2597              	.LBE444:
 135:../USER/main.c **** 		}
 2598              		.loc 1 135 4 is_stmt 1 view .LVU755
 135:../USER/main.c **** 		}
 2599              		.loc 1 135 13 is_stmt 0 view .LVU756
 2600 01e8 FFF7FEFF 		bl	GPIO_ReadBits
 2601              	.LVL153:
 135:../USER/main.c **** 		}
 2602              		.loc 1 135 11 view .LVU757
 2603 01ec 0690     		str	r0, [sp, #24]
 133:../USER/main.c **** 			spi_read();
 2604              		.loc 1 133 17 view .LVU758
 2605 01ee 069B     		ldr	r3, [sp, #24]
 133:../USER/main.c **** 			spi_read();
 2606              		.loc 1 133 8 view .LVU759
 2607 01f0 5904     		lsls	r1, r3, #17
 2608 01f2 0AD5     		bpl	.L254
 2609              	.L242:
 134:../USER/main.c **** 			gpiord = GPIO_ReadBits(GPIO0);
 2610              		.loc 1 134 4 is_stmt 1 view .LVU760
 2611              	.LBB445:
 2612              	.LBI436:
 111:../USER/main.c **** 	char ch;
 2613              		.loc 1 111 6 view .LVU761
 2614              	.LBB441:
 112:../USER/main.c **** 	ch = SPI_ReadData();
 2615              		.loc 1 112 2 view .LVU762
 113:../USER/main.c **** 	if(ch!=0) kinbuf[kinbwp++] = ch;
 2616              		.loc 1 113 2 view .LVU763
 113:../USER/main.c **** 	if(ch!=0) kinbuf[kinbwp++] = ch;
 2617              		.loc 1 113 7 is_stmt 0 view .LVU764
 2618 01f4 FFF7FEFF 		bl	SPI_ReadData
 2619              	.LVL154:
 114:../USER/main.c **** 	if(kinbwp>=256) kinbwp = 0;
 2620              		.loc 1 114 12 is_stmt 1 view .LVU765
 113:../USER/main.c **** 	if(ch!=0) kinbuf[kinbwp++] = ch;
 2621              		.loc 1 113 5 is_stmt 0 view .LVU766
 2622 01f8 40B2     		sxtb	r0, r0
 2623              	.LVL155:
 114:../USER/main.c **** 	if(kinbwp>=256) kinbwp = 0;
 2624              		.loc 1 114 2 is_stmt 1 view .LVU767
 114:../USER/main.c **** 	if(kinbwp>=256) kinbwp = 0;
 2625              		.loc 1 114 4 is_stmt 0 view .LVU768
 2626 01fa 0028     		cmp	r0, #0
 2627 01fc EFD0     		beq	.L312
 114:../USER/main.c **** 	if(kinbwp>=256) kinbwp = 0;
 2628              		.loc 1 114 25 view .LVU769
 2629 01fe 2268     		ldr	r2, [r4]
 2630 0200 531C     		adds	r3, r2, #1
 114:../USER/main.c **** 	if(kinbwp>=256) kinbwp = 0;
 2631              		.loc 1 114 29 view .LVU770
 2632 0202 08F80200 		strb	r0, [r8, r2]
 114:../USER/main.c **** 	if(kinbwp>=256) kinbwp = 0;
 2633              		.loc 1 114 25 view .LVU771
 2634 0206 2360     		str	r3, [r4]
 2635 0208 EAE7     		b	.L244
 2636              	.LVL156:
 2637              	.L254:
 114:../USER/main.c **** 	if(kinbwp>=256) kinbwp = 0;
 2638              		.loc 1 114 25 view .LVU772
 2639              	.LBE441:
 2640              	.LBE445:
 2641              	.LBE435:
 2642              	.LBE434:
 2643              	.LBE433:
 2644              	.LBE432:
 2645              	.LBB446:
 2646              	.LBB447:
 2647              	.LBB448:
 2648              	.LBB449:
 137:../USER/main.c **** 	}
 2649              		.loc 1 137 3 is_stmt 1 view .LVU773
 2650 020a 2846     		mov	r0, r5
 2651              	.LBE449:
 2652              	.LBE448:
 2653              	.LBE447:
 2654              	.LBE446:
 2655              	.LBE431:
 2656              	.LBE430:
 2657              	.LBE391:
 2658              	.LBE390:
 2659              		.loc 1 143 1 is_stmt 0 view .LVU774
 2660 020c 09B0     		add	sp, sp, #36
 2661              		.cfi_remember_state
 2662              		.cfi_def_cfa_offset 36
 2663              		@ sp needed
 2664 020e BDE8F04F 		pop	{r4, r5, r6, r7, r8, r9, r10, fp, lr}
 2665              		.cfi_restore 14
 2666              		.cfi_restore 11
 2667              		.cfi_restore 10
 2668              		.cfi_restore 9
 2669              		.cfi_restore 8
 2670              		.cfi_restore 7
 2671              		.cfi_restore 6
 2672              		.cfi_restore 5
 2673              		.cfi_restore 4
 2674              		.cfi_def_cfa_offset 0
 2675              	.LBB487:
 2676              	.LBB482:
 2677              	.LBB476:
 2678              	.LBB472:
 2679              	.LBB468:
 2680              	.LBB464:
 2681              	.LBB462:
 2682              	.LBB460:
 137:../USER/main.c **** 	}
 2683              		.loc 1 137 3 view .LVU775
 2684 0212 FFF7FEBF 		b	SPI_WriteData
 2685              	.LVL157:
 2686              	.L207:
 2687              		.cfi_restore_state
 137:../USER/main.c **** 	}
 2688              		.loc 1 137 3 view .LVU776
 2689              	.LBE460:
 2690              	.LBE462:
 2691              	.LBE464:
 2692              	.LBE468:
 2693              	.LBE472:
 2694              	.LBE476:
 2695              	.LBE482:
 2696              	.LBE487:
 2697              	.LBB488:
 2698              	.LBB386:
 2699              	.LBB382:
 2700              	.LBB342:
 2701              	.LBB340:
 2702              	.LBB339:
 2703              	.LBB338:
 2704              	.LBB337:
 137:../USER/main.c **** 	}
 2705              		.loc 1 137 3 is_stmt 1 view .LVU777
 2706 0216 4046     		mov	r0, r8
 2707 0218 FFF7FEFF 		bl	SPI_WriteData
 2708              	.LVL158:
 2709 021c 5AE7     		b	.L194
 2710              	.LVL159:
 2711              	.L240:
 137:../USER/main.c **** 	}
 2712              		.loc 1 137 3 is_stmt 0 view .LVU778
 2713              	.LBE337:
 2714              	.LBE338:
 2715              	.LBE339:
 2716              	.LBE340:
 2717              	.LBE342:
 2718              	.LBE382:
 2719              	.LBE386:
 2720              	.LBE488:
 2721              	.LBB489:
 2722              	.LBB483:
 2723              	.LBB477:
 2724              	.LBB473:
 141:../USER/main.c **** void puth2(dt) int dt;{ puth((dt >> 4) & 0xf); puth(dt & 0xf); }
 2725              		.loc 1 141 55 is_stmt 1 view .LVU779
 141:../USER/main.c **** void puth2(dt) int dt;{ puth((dt >> 4) & 0xf); puth(dt & 0xf); }
 2726              		.loc 1 141 65 is_stmt 0 view .LVU780
 2727 021e 00F13705 		add	r5, r0, #55
 2728              	.LVL160:
 2729              	.LBB469:
 2730              	.LBI446:
 127:../USER/main.c **** 	volatile uint32_t gpiord;
 2731              		.loc 1 127 6 is_stmt 1 view .LVU781
 2732              	.LBB465:
 128:../USER/main.c **** 	if((mdgpio & 0x2000)==0)
 2733              		.loc 1 128 2 view .LVU782
 129:../USER/main.c **** 		UART_SendChar(UART0,ch);
 2734              		.loc 1 129 2 view .LVU783
 129:../USER/main.c **** 		UART_SendChar(UART0,ch);
 2735              		.loc 1 129 4 is_stmt 0 view .LVU784
 2736 0222 002B     		cmp	r3, #0
 2737 0224 00F08C80 		beq	.L307
 2738              	.LVL161:
 2739              	.LBB463:
 2740              	.LBI448:
 127:../USER/main.c **** 	volatile uint32_t gpiord;
 2741              		.loc 1 127 6 is_stmt 1 view .LVU785
 2742              	.LBB461:
 132:../USER/main.c **** 		while((gpiord & 0x4000)!=0) {
 2743              		.loc 1 132 3 view .LVU786
 132:../USER/main.c **** 		while((gpiord & 0x4000)!=0) {
 2744              		.loc 1 132 10 is_stmt 0 view .LVU787
 2745 0228 4FF48043 		mov	r3, #16384
 2746 022c 0793     		str	r3, [sp, #28]
 133:../USER/main.c **** 			spi_read();
 2747              		.loc 1 133 3 is_stmt 1 view .LVU788
 133:../USER/main.c **** 			spi_read();
 2748              		.loc 1 133 17 is_stmt 0 view .LVU789
 2749 022e 079B     		ldr	r3, [sp, #28]
 133:../USER/main.c **** 			spi_read();
 2750              		.loc 1 133 8 view .LVU790
 2751 0230 5A04     		lsls	r2, r3, #17
 2752 0232 EAD5     		bpl	.L254
 2753 0234 244C     		ldr	r4, .L316+4
 2754              	.LBB450:
 2755              	.LBB451:
 114:../USER/main.c **** 	if(kinbwp>=256) kinbwp = 0;
 2756              		.loc 1 114 29 view .LVU791
 2757 0236 DFF89880 		ldr	r8, .L316+12
 2758              	.LBE451:
 2759              	.LBE450:
 135:../USER/main.c **** 		}
 2760              		.loc 1 135 13 view .LVU792
 2761 023a 244E     		ldr	r6, .L316+8
 2762              	.LBB456:
 2763              	.LBB452:
 115:../USER/main.c **** }
 2764              		.loc 1 115 25 view .LVU793
 2765 023c 0027     		movs	r7, #0
 2766 023e 0AE0     		b	.L249
 2767              	.LVL162:
 2768              	.L313:
 115:../USER/main.c **** }
 2769              		.loc 1 115 25 view .LVU794
 2770 0240 2368     		ldr	r3, [r4]
 2771              	.L251:
 115:../USER/main.c **** }
 2772              		.loc 1 115 2 is_stmt 1 view .LVU795
 115:../USER/main.c **** }
 2773              		.loc 1 115 18 view .LVU796
 2774              	.LVL163:
 115:../USER/main.c **** }
 2775              		.loc 1 115 18 is_stmt 0 view .LVU797
 2776              	.LBE452:
 2777              	.LBE456:
 135:../USER/main.c **** 		}
 2778              		.loc 1 135 4 is_stmt 1 view .LVU798
 2779              	.LBB457:
 2780              	.LBB453:
 115:../USER/main.c **** }
 2781              		.loc 1 115 4 is_stmt 0 view .LVU799
 2782 0242 FF2B     		cmp	r3, #255
 2783              	.LBE453:
 2784              	.LBE457:
 135:../USER/main.c **** 		}
 2785              		.loc 1 135 13 view .LVU800
 2786 0244 3046     		mov	r0, r6
 2787              	.LBB458:
 2788              	.LBB454:
 115:../USER/main.c **** }
 2789              		.loc 1 115 25 view .LVU801
 2790 0246 C8BF     		it	gt
 2791 0248 2760     		strgt	r7, [r4]
 2792              	.LBE454:
 2793              	.LBE458:
 135:../USER/main.c **** 		}
 2794              		.loc 1 135 4 is_stmt 1 view .LVU802
 135:../USER/main.c **** 		}
 2795              		.loc 1 135 13 is_stmt 0 view .LVU803
 2796 024a FFF7FEFF 		bl	GPIO_ReadBits
 2797              	.LVL164:
 135:../USER/main.c **** 		}
 2798              		.loc 1 135 11 view .LVU804
 2799 024e 0790     		str	r0, [sp, #28]
 133:../USER/main.c **** 			spi_read();
 2800              		.loc 1 133 17 view .LVU805
 2801 0250 079B     		ldr	r3, [sp, #28]
 133:../USER/main.c **** 			spi_read();
 2802              		.loc 1 133 8 view .LVU806
 2803 0252 5B04     		lsls	r3, r3, #17
 2804 0254 D9D5     		bpl	.L254
 2805              	.L249:
 134:../USER/main.c **** 			gpiord = GPIO_ReadBits(GPIO0);
 2806              		.loc 1 134 4 is_stmt 1 view .LVU807
 2807              	.LBB459:
 2808              	.LBI450:
 111:../USER/main.c **** 	char ch;
 2809              		.loc 1 111 6 view .LVU808
 2810              	.LBB455:
 112:../USER/main.c **** 	ch = SPI_ReadData();
 2811              		.loc 1 112 2 view .LVU809
 113:../USER/main.c **** 	if(ch!=0) kinbuf[kinbwp++] = ch;
 2812              		.loc 1 113 2 view .LVU810
 113:../USER/main.c **** 	if(ch!=0) kinbuf[kinbwp++] = ch;
 2813              		.loc 1 113 7 is_stmt 0 view .LVU811
 2814 0256 FFF7FEFF 		bl	SPI_ReadData
 2815              	.LVL165:
 114:../USER/main.c **** 	if(kinbwp>=256) kinbwp = 0;
 2816              		.loc 1 114 12 is_stmt 1 view .LVU812
 113:../USER/main.c **** 	if(ch!=0) kinbuf[kinbwp++] = ch;
 2817              		.loc 1 113 5 is_stmt 0 view .LVU813
 2818 025a 40B2     		sxtb	r0, r0
 2819              	.LVL166:
 114:../USER/main.c **** 	if(kinbwp>=256) kinbwp = 0;
 2820              		.loc 1 114 2 is_stmt 1 view .LVU814
 114:../USER/main.c **** 	if(kinbwp>=256) kinbwp = 0;
 2821              		.loc 1 114 4 is_stmt 0 view .LVU815
 2822 025c 0028     		cmp	r0, #0
 2823 025e EFD0     		beq	.L313
 114:../USER/main.c **** 	if(kinbwp>=256) kinbwp = 0;
 2824              		.loc 1 114 25 view .LVU816
 2825 0260 2268     		ldr	r2, [r4]
 2826 0262 531C     		adds	r3, r2, #1
 114:../USER/main.c **** 	if(kinbwp>=256) kinbwp = 0;
 2827              		.loc 1 114 29 view .LVU817
 2828 0264 08F80200 		strb	r0, [r8, r2]
 114:../USER/main.c **** 	if(kinbwp>=256) kinbwp = 0;
 2829              		.loc 1 114 25 view .LVU818
 2830 0268 2360     		str	r3, [r4]
 2831 026a EAE7     		b	.L251
 2832              	.LVL167:
 2833              	.L208:
 114:../USER/main.c **** 	if(kinbwp>=256) kinbwp = 0;
 2834              		.loc 1 114 25 view .LVU819
 2835              	.LBE455:
 2836              	.LBE459:
 2837              	.LBE461:
 2838              	.LBE463:
 2839              	.LBE465:
 2840              	.LBE469:
 2841              	.LBE473:
 2842              	.LBE477:
 2843              	.LBE483:
 2844              	.LBE489:
 2845              	.LBB490:
 2846              	.LBB387:
 2847              	.LBB383:
 2848              	.LBB380:
 141:../USER/main.c **** void puth2(dt) int dt;{ puth((dt >> 4) & 0xf); puth(dt & 0xf); }
 2849              		.loc 1 141 55 is_stmt 1 view .LVU820
 141:../USER/main.c **** void puth2(dt) int dt;{ puth((dt >> 4) & 0xf); puth(dt & 0xf); }
 2850              		.loc 1 141 65 is_stmt 0 view .LVU821
 2851 026c 00F13707 		add	r7, r0, #55
 2852              	.LVL168:
 2853              	.LBB378:
 2854              	.LBI360:
 127:../USER/main.c **** 	volatile uint32_t gpiord;
 2855              		.loc 1 127 6 is_stmt 1 view .LVU822
 2856              	.LBB376:
 128:../USER/main.c **** 	if((mdgpio & 0x2000)==0)
 2857              		.loc 1 128 2 view .LVU823
 129:../USER/main.c **** 		UART_SendChar(UART0,ch);
 2858              		.loc 1 129 2 view .LVU824
 129:../USER/main.c **** 		UART_SendChar(UART0,ch);
 2859              		.loc 1 129 4 is_stmt 0 view .LVU825
 2860 0270 002A     		cmp	r2, #0
 2861 0272 59D0     		beq	.L297
 2862              	.LVL169:
 2863              	.LBB375:
 2864              	.LBI362:
 127:../USER/main.c **** 	volatile uint32_t gpiord;
 2865              		.loc 1 127 6 is_stmt 1 view .LVU826
 2866              	.LBB374:
 132:../USER/main.c **** 		while((gpiord & 0x4000)!=0) {
 2867              		.loc 1 132 3 view .LVU827
 132:../USER/main.c **** 		while((gpiord & 0x4000)!=0) {
 2868              		.loc 1 132 10 is_stmt 0 view .LVU828
 2869 0274 4FF48043 		mov	r3, #16384
 2870              	.LVL170:
 132:../USER/main.c **** 		while((gpiord & 0x4000)!=0) {
 2871              		.loc 1 132 10 view .LVU829
 2872 0278 0393     		str	r3, [sp, #12]
 133:../USER/main.c **** 			spi_read();
 2873              		.loc 1 133 3 is_stmt 1 view .LVU830
 133:../USER/main.c **** 			spi_read();
 2874              		.loc 1 133 17 is_stmt 0 view .LVU831
 2875 027a 039B     		ldr	r3, [sp, #12]
 133:../USER/main.c **** 			spi_read();
 2876              		.loc 1 133 8 view .LVU832
 2877 027c 5A04     		lsls	r2, r3, #17
 2878 027e 7FF55CAF 		bpl	.L223
 2879 0282 114C     		ldr	r4, .L316+4
 2880              	.LBB364:
 2881              	.LBB365:
 114:../USER/main.c **** 	if(kinbwp>=256) kinbwp = 0;
 2882              		.loc 1 114 29 view .LVU833
 2883 0284 DFF848A0 		ldr	r10, .L316+12
 2884              	.LBE365:
 2885              	.LBE364:
 135:../USER/main.c **** 		}
 2886              		.loc 1 135 13 view .LVU834
 2887 0288 DFF84080 		ldr	r8, .L316+8
 2888              	.LBB370:
 2889              	.LBB366:
 115:../USER/main.c **** }
 2890              		.loc 1 115 25 view .LVU835
 2891 028c 4FF00009 		mov	r9, #0
 2892 0290 0CE0     		b	.L218
 2893              	.LVL171:
 2894              	.L314:
 115:../USER/main.c **** }
 2895              		.loc 1 115 25 view .LVU836
 2896 0292 2368     		ldr	r3, [r4]
 2897              	.L220:
 115:../USER/main.c **** }
 2898              		.loc 1 115 2 is_stmt 1 view .LVU837
 115:../USER/main.c **** }
 2899              		.loc 1 115 18 view .LVU838
 2900              	.LVL172:
 115:../USER/main.c **** }
 2901              		.loc 1 115 18 is_stmt 0 view .LVU839
 2902              	.LBE366:
 2903              	.LBE370:
 135:../USER/main.c **** 		}
 2904              		.loc 1 135 4 is_stmt 1 view .LVU840
 2905              	.LBB371:
 2906              	.LBB367:
 115:../USER/main.c **** }
 2907              		.loc 1 115 4 is_stmt 0 view .LVU841
 2908 0294 FF2B     		cmp	r3, #255
 2909              	.LBE367:
 2910              	.LBE371:
 135:../USER/main.c **** 		}
 2911              		.loc 1 135 13 view .LVU842
 2912 0296 4046     		mov	r0, r8
 2913              	.LBB372:
 2914              	.LBB368:
 115:../USER/main.c **** }
 2915              		.loc 1 115 25 view .LVU843
 2916 0298 C8BF     		it	gt
 2917 029a C4F80090 		strgt	r9, [r4]
 2918              	.LBE368:
 2919              	.LBE372:
 135:../USER/main.c **** 		}
 2920              		.loc 1 135 4 is_stmt 1 view .LVU844
 135:../USER/main.c **** 		}
 2921              		.loc 1 135 13 is_stmt 0 view .LVU845
 2922 029e FFF7FEFF 		bl	GPIO_ReadBits
 2923              	.LVL173:
 135:../USER/main.c **** 		}
 2924              		.loc 1 135 11 view .LVU846
 2925 02a2 0390     		str	r0, [sp, #12]
 133:../USER/main.c **** 			spi_read();
 2926              		.loc 1 133 17 view .LVU847
 2927 02a4 039B     		ldr	r3, [sp, #12]
 133:../USER/main.c **** 			spi_read();
 2928              		.loc 1 133 8 view .LVU848
 2929 02a6 5B04     		lsls	r3, r3, #17
 2930 02a8 7FF547AF 		bpl	.L223
 2931              	.L218:
 134:../USER/main.c **** 			gpiord = GPIO_ReadBits(GPIO0);
 2932              		.loc 1 134 4 is_stmt 1 view .LVU849
 2933              	.LBB373:
 2934              	.LBI364:
 111:../USER/main.c **** 	char ch;
 2935              		.loc 1 111 6 view .LVU850
 2936              	.LBB369:
 112:../USER/main.c **** 	ch = SPI_ReadData();
 2937              		.loc 1 112 2 view .LVU851
 113:../USER/main.c **** 	if(ch!=0) kinbuf[kinbwp++] = ch;
 2938              		.loc 1 113 2 view .LVU852
 113:../USER/main.c **** 	if(ch!=0) kinbuf[kinbwp++] = ch;
 2939              		.loc 1 113 7 is_stmt 0 view .LVU853
 2940 02ac FFF7FEFF 		bl	SPI_ReadData
 2941              	.LVL174:
 114:../USER/main.c **** 	if(kinbwp>=256) kinbwp = 0;
 2942              		.loc 1 114 12 is_stmt 1 view .LVU854
 113:../USER/main.c **** 	if(ch!=0) kinbuf[kinbwp++] = ch;
 2943              		.loc 1 113 5 is_stmt 0 view .LVU855
 2944 02b0 40B2     		sxtb	r0, r0
 2945              	.LVL175:
 114:../USER/main.c **** 	if(kinbwp>=256) kinbwp = 0;
 2946              		.loc 1 114 2 is_stmt 1 view .LVU856
 114:../USER/main.c **** 	if(kinbwp>=256) kinbwp = 0;
 2947              		.loc 1 114 4 is_stmt 0 view .LVU857
 2948 02b2 0028     		cmp	r0, #0
 2949 02b4 EDD0     		beq	.L314
 114:../USER/main.c **** 	if(kinbwp>=256) kinbwp = 0;
 2950              		.loc 1 114 25 view .LVU858
 2951 02b6 2268     		ldr	r2, [r4]
 2952 02b8 531C     		adds	r3, r2, #1
 114:../USER/main.c **** 	if(kinbwp>=256) kinbwp = 0;
 2953              		.loc 1 114 29 view .LVU859
 2954 02ba 0AF80200 		strb	r0, [r10, r2]
 114:../USER/main.c **** 	if(kinbwp>=256) kinbwp = 0;
 2955              		.loc 1 114 25 view .LVU860
 2956 02be 2360     		str	r3, [r4]
 2957 02c0 E8E7     		b	.L220
 2958              	.L317:
 2959 02c2 00BF     		.align	2
 2960              	.L316:
 2961 02c4 00000000 		.word	mdgpio
 2962 02c8 00000000 		.word	.LANCHOR1
 2963 02cc 00000140 		.word	1073807360
 2964 02d0 00000000 		.word	kinbuf
 2965              	.LVL176:
 2966              	.L224:
 114:../USER/main.c **** 	if(kinbwp>=256) kinbwp = 0;
 2967              		.loc 1 114 25 view .LVU861
 2968              	.LBE369:
 2969              	.LBE373:
 2970              	.LBE374:
 2971              	.LBE375:
 2972              	.LBE376:
 2973              	.LBE378:
 2974              	.LBE380:
 2975              	.LBE383:
 2976              	.LBE387:
 2977              	.LBE490:
 2978              	.LBB491:
 2979              	.LBB484:
 2980              	.LBB478:
 2981              	.LBB428:
 141:../USER/main.c **** void puth2(dt) int dt;{ puth((dt >> 4) & 0xf); puth(dt & 0xf); }
 2982              		.loc 1 141 55 is_stmt 1 view .LVU862
 141:../USER/main.c **** void puth2(dt) int dt;{ puth((dt >> 4) & 0xf); puth(dt & 0xf); }
 2983              		.loc 1 141 65 is_stmt 0 view .LVU863
 2984 02d4 00F13707 		add	r7, r0, #55
 2985              	.LVL177:
 2986              	.LBB426:
 2987              	.LBI408:
 127:../USER/main.c **** 	volatile uint32_t gpiord;
 2988              		.loc 1 127 6 is_stmt 1 view .LVU864
 2989              	.LBB424:
 128:../USER/main.c **** 	if((mdgpio & 0x2000)==0)
 2990              		.loc 1 128 2 view .LVU865
 129:../USER/main.c **** 		UART_SendChar(UART0,ch);
 2991              		.loc 1 129 2 view .LVU866
 129:../USER/main.c **** 		UART_SendChar(UART0,ch);
 2992              		.loc 1 129 4 is_stmt 0 view .LVU867
 2993 02d8 62B3     		cbz	r2, .L302
 2994              	.LVL178:
 2995              	.LBB423:
 2996              	.LBI410:
 127:../USER/main.c **** 	volatile uint32_t gpiord;
 2997              		.loc 1 127 6 is_stmt 1 view .LVU868
 2998              	.LBB422:
 132:../USER/main.c **** 		while((gpiord & 0x4000)!=0) {
 2999              		.loc 1 132 3 view .LVU869
 132:../USER/main.c **** 		while((gpiord & 0x4000)!=0) {
 3000              		.loc 1 132 10 is_stmt 0 view .LVU870
 3001 02da 4FF48043 		mov	r3, #16384
 3002 02de 0593     		str	r3, [sp, #20]
 133:../USER/main.c **** 			spi_read();
 3003              		.loc 1 133 3 is_stmt 1 view .LVU871
 133:../USER/main.c **** 			spi_read();
 3004              		.loc 1 133 17 is_stmt 0 view .LVU872
 3005 02e0 059B     		ldr	r3, [sp, #20]
 133:../USER/main.c **** 			spi_read();
 3006              		.loc 1 133 8 view .LVU873
 3007 02e2 5A04     		lsls	r2, r3, #17
 3008 02e4 7FF55FAF 		bpl	.L239
 3009 02e8 194C     		ldr	r4, .L318
 3010              	.LBB412:
 3011              	.LBB413:
 114:../USER/main.c **** 	if(kinbwp>=256) kinbwp = 0;
 3012              		.loc 1 114 29 view .LVU874
 3013 02ea DFF868A0 		ldr	r10, .L318+4
 3014              	.LBE413:
 3015              	.LBE412:
 135:../USER/main.c **** 		}
 3016              		.loc 1 135 13 view .LVU875
 3017 02ee DFF86880 		ldr	r8, .L318+8
 3018              	.LBB418:
 3019              	.LBB414:
 115:../USER/main.c **** }
 3020              		.loc 1 115 25 view .LVU876
 3021 02f2 4FF00009 		mov	r9, #0
 3022 02f6 0CE0     		b	.L234
 3023              	.LVL179:
 3024              	.L315:
 115:../USER/main.c **** }
 3025              		.loc 1 115 25 view .LVU877
 3026 02f8 2368     		ldr	r3, [r4]
 3027              	.L236:
 115:../USER/main.c **** }
 3028              		.loc 1 115 2 is_stmt 1 view .LVU878
 115:../USER/main.c **** }
 3029              		.loc 1 115 18 view .LVU879
 3030              	.LVL180:
 115:../USER/main.c **** }
 3031              		.loc 1 115 18 is_stmt 0 view .LVU880
 3032              	.LBE414:
 3033              	.LBE418:
 135:../USER/main.c **** 		}
 3034              		.loc 1 135 4 is_stmt 1 view .LVU881
 3035              	.LBB419:
 3036              	.LBB415:
 115:../USER/main.c **** }
 3037              		.loc 1 115 4 is_stmt 0 view .LVU882
 3038 02fa FF2B     		cmp	r3, #255
 3039              	.LBE415:
 3040              	.LBE419:
 135:../USER/main.c **** 		}
 3041              		.loc 1 135 13 view .LVU883
 3042 02fc 4046     		mov	r0, r8
 3043              	.LBB420:
 3044              	.LBB416:
 115:../USER/main.c **** }
 3045              		.loc 1 115 25 view .LVU884
 3046 02fe C8BF     		it	gt
 3047 0300 C4F80090 		strgt	r9, [r4]
 3048              	.LBE416:
 3049              	.LBE420:
 135:../USER/main.c **** 		}
 3050              		.loc 1 135 4 is_stmt 1 view .LVU885
 135:../USER/main.c **** 		}
 3051              		.loc 1 135 13 is_stmt 0 view .LVU886
 3052 0304 FFF7FEFF 		bl	GPIO_ReadBits
 3053              	.LVL181:
 135:../USER/main.c **** 		}
 3054              		.loc 1 135 11 view .LVU887
 3055 0308 0590     		str	r0, [sp, #20]
 133:../USER/main.c **** 			spi_read();
 3056              		.loc 1 133 17 view .LVU888
 3057 030a 059B     		ldr	r3, [sp, #20]
 133:../USER/main.c **** 			spi_read();
 3058              		.loc 1 133 8 view .LVU889
 3059 030c 5B04     		lsls	r3, r3, #17
 3060 030e 7FF54AAF 		bpl	.L239
 3061              	.L234:
 134:../USER/main.c **** 			gpiord = GPIO_ReadBits(GPIO0);
 3062              		.loc 1 134 4 is_stmt 1 view .LVU890
 3063              	.LBB421:
 3064              	.LBI412:
 111:../USER/main.c **** 	char ch;
 3065              		.loc 1 111 6 view .LVU891
 3066              	.LBB417:
 112:../USER/main.c **** 	ch = SPI_ReadData();
 3067              		.loc 1 112 2 view .LVU892
 113:../USER/main.c **** 	if(ch!=0) kinbuf[kinbwp++] = ch;
 3068              		.loc 1 113 2 view .LVU893
 113:../USER/main.c **** 	if(ch!=0) kinbuf[kinbwp++] = ch;
 3069              		.loc 1 113 7 is_stmt 0 view .LVU894
 3070 0312 FFF7FEFF 		bl	SPI_ReadData
 3071              	.LVL182:
 114:../USER/main.c **** 	if(kinbwp>=256) kinbwp = 0;
 3072              		.loc 1 114 12 is_stmt 1 view .LVU895
 113:../USER/main.c **** 	if(ch!=0) kinbuf[kinbwp++] = ch;
 3073              		.loc 1 113 5 is_stmt 0 view .LVU896
 3074 0316 40B2     		sxtb	r0, r0
 3075              	.LVL183:
 114:../USER/main.c **** 	if(kinbwp>=256) kinbwp = 0;
 3076              		.loc 1 114 2 is_stmt 1 view .LVU897
 114:../USER/main.c **** 	if(kinbwp>=256) kinbwp = 0;
 3077              		.loc 1 114 4 is_stmt 0 view .LVU898
 3078 0318 0028     		cmp	r0, #0
 3079 031a EDD0     		beq	.L315
 114:../USER/main.c **** 	if(kinbwp>=256) kinbwp = 0;
 3080              		.loc 1 114 25 view .LVU899
 3081 031c 2268     		ldr	r2, [r4]
 3082 031e 531C     		adds	r3, r2, #1
 114:../USER/main.c **** 	if(kinbwp>=256) kinbwp = 0;
 3083              		.loc 1 114 29 view .LVU900
 3084 0320 0AF80200 		strb	r0, [r10, r2]
 114:../USER/main.c **** 	if(kinbwp>=256) kinbwp = 0;
 3085              		.loc 1 114 25 view .LVU901
 3086 0324 2360     		str	r3, [r4]
 3087 0326 E8E7     		b	.L236
 3088              	.LVL184:
 3089              	.L297:
 114:../USER/main.c **** 	if(kinbwp>=256) kinbwp = 0;
 3090              		.loc 1 114 25 view .LVU902
 3091              	.LBE417:
 3092              	.LBE421:
 3093              	.LBE422:
 3094              	.LBE423:
 3095              	.LBE424:
 3096              	.LBE426:
 3097              	.LBE428:
 3098              	.LBE478:
 3099              	.LBE484:
 3100              	.LBE491:
 3101              	.LBB492:
 3102              	.LBB388:
 3103              	.LBB384:
 3104              	.LBB381:
 3105              	.LBB379:
 3106              	.LBB377:
 130:../USER/main.c **** 	else {
 3107              		.loc 1 130 3 is_stmt 1 view .LVU903
 3108 0328 3946     		mov	r1, r7
 3109 032a 4FF04020 		mov	r0, #1073758208
 3110 032e FFF7FEFF 		bl	UART_SendChar
 3111              	.LVL185:
 130:../USER/main.c **** 	else {
 3112              		.loc 1 130 3 is_stmt 0 view .LVU904
 3113 0332 05E7     		b	.L210
 3114              	.LVL186:
 3115              	.L302:
 130:../USER/main.c **** 	else {
 3116              		.loc 1 130 3 view .LVU905
 3117              	.LBE377:
 3118              	.LBE379:
 3119              	.LBE381:
 3120              	.LBE384:
 3121              	.LBE388:
 3122              	.LBE492:
 3123              	.LBB493:
 3124              	.LBB485:
 3125              	.LBB479:
 3126              	.LBB429:
 3127              	.LBB427:
 3128              	.LBB425:
 130:../USER/main.c **** 	else {
 3129              		.loc 1 130 3 is_stmt 1 view .LVU906
 3130 0334 3946     		mov	r1, r7
 3131 0336 4FF04020 		mov	r0, #1073758208
 3132 033a FFF7FEFF 		bl	UART_SendChar
 3133              	.LVL187:
 3134 033e 35E7     		b	.L226
 3135              	.LVL188:
 3136              	.L307:
 130:../USER/main.c **** 	else {
 3137              		.loc 1 130 3 is_stmt 0 view .LVU907
 3138              	.LBE425:
 3139              	.LBE427:
 3140              	.LBE429:
 3141              	.LBE479:
 3142              	.LBB480:
 3143              	.LBB474:
 3144              	.LBB470:
 3145              	.LBB466:
 130:../USER/main.c **** 	else {
 3146              		.loc 1 130 3 is_stmt 1 view .LVU908
 3147 0340 2946     		mov	r1, r5
 3148 0342 4FF04020 		mov	r0, #1073758208
 3149              	.LBE466:
 3150              	.LBE470:
 3151              	.LBE474:
 3152              	.LBE480:
 3153              	.LBE485:
 3154              	.LBE493:
 3155              		.loc 1 143 1 is_stmt 0 view .LVU909
 3156 0346 09B0     		add	sp, sp, #36
 3157              		.cfi_def_cfa_offset 36
 3158              		@ sp needed
 3159 0348 BDE8F04F 		pop	{r4, r5, r6, r7, r8, r9, r10, fp, lr}
 3160              		.cfi_restore 14
 3161              		.cfi_restore 11
 3162              		.cfi_restore 10
 3163              		.cfi_restore 9
 3164              		.cfi_restore 8
 3165              		.cfi_restore 7
 3166              		.cfi_restore 6
 3167              		.cfi_restore 5
 3168              		.cfi_restore 4
 3169              		.cfi_def_cfa_offset 0
 3170              	.LBB494:
 3171              	.LBB486:
 3172              	.LBB481:
 3173              	.LBB475:
 3174              	.LBB471:
 3175              	.LBB467:
 130:../USER/main.c **** 	else {
 3176              		.loc 1 130 3 view .LVU910
 3177 034c FFF7FEBF 		b	UART_SendChar
 3178              	.LVL189:
 3179              	.L319:
 3180              		.align	2
 3181              	.L318:
 3182 0350 00000000 		.word	.LANCHOR1
 3183 0354 00000000 		.word	kinbuf
 3184 0358 00000140 		.word	1073807360
 3185              	.LBE467:
 3186              	.LBE471:
 3187              	.LBE475:
 3188              	.LBE481:
 3189              	.LBE486:
 3190              	.LBE494:
 3191              		.cfi_endproc
 3192              	.LFE44:
 3194              		.section	.text.puth6,"ax",%progbits
 3195              		.align	1
 3196              		.p2align 2,,3
 3197              		.global	puth6
 3198              		.syntax unified
 3199              		.thumb
 3200              		.thumb_func
 3201              		.fpu softvfp
 3203              	puth6:
 3204              	.LVL190:
 3205              	.LFB45:
 144:../USER/main.c **** void puth6(dt) long dt;{ int dh,dl; dh = dt >> 16; dl = dt & 0xffff; puth2(dh); puth4(dl); }
 3206              		.loc 1 144 24 is_stmt 1 view -0
 3207              		.cfi_startproc
 3208              		@ args = 0, pretend = 0, frame = 56
 3209              		@ frame_needed = 0, uses_anonymous_args = 0
 3210              		.loc 1 144 26 view .LVU912
 3211              		.loc 1 144 37 view .LVU913
 3212              		.loc 1 144 24 is_stmt 0 view .LVU914
 3213 0000 2DE9F04F 		push	{r4, r5, r6, r7, r8, r9, r10, fp, lr}
 3214              		.cfi_def_cfa_offset 36
 3215              		.cfi_offset 4, -36
 3216              		.cfi_offset 5, -32
 3217              		.cfi_offset 6, -28
 3218              		.cfi_offset 7, -24
 3219              		.cfi_offset 8, -20
 3220              		.cfi_offset 9, -16
 3221              		.cfi_offset 10, -12
 3222              		.cfi_offset 11, -8
 3223              		.cfi_offset 14, -4
 3224 0004 AE4F     		ldr	r7, .L507
 3225              	.LBB587:
 3226              	.LBB588:
 142:../USER/main.c **** void puth4(dt) int dt;{ puth2((dt >> 8) & 0xff); puth2(dt & 0xff); }
 3227              		.loc 1 142 25 view .LVU915
 3228 0006 C0F30351 		ubfx	r1, r0, #20, #4
 3229 000a 3B68     		ldr	r3, [r7]
 3230              	.LBB589:
 3231              	.LBB590:
 141:../USER/main.c **** void puth2(dt) int dt;{ puth((dt >> 4) & 0xf); puth(dt & 0xf); }
 3232              		.loc 1 141 26 view .LVU916
 3233 000c 0929     		cmp	r1, #9
 3234              	.LBE590:
 3235              	.LBE589:
 3236              	.LBE588:
 3237              	.LBE587:
 3238              		.loc 1 144 24 view .LVU917
 3239 000e 8FB0     		sub	sp, sp, #60
 3240              		.cfi_def_cfa_offset 96
 3241              		.loc 1 144 24 view .LVU918
 3242 0010 0546     		mov	r5, r0
 3243 0012 CAB2     		uxtb	r2, r1
 3244 0014 03F40053 		and	r3, r3, #8192
 3245              		.loc 1 144 40 view .LVU919
 3246 0018 4FEA2048 		asr	r8, r0, #16
 3247              	.LVL191:
 3248              		.loc 1 144 52 is_stmt 1 view .LVU920
 3249              		.loc 1 144 55 is_stmt 0 view .LVU921
 3250 001c 86B2     		uxth	r6, r0
 3251              	.LVL192:
 3252              		.loc 1 144 70 is_stmt 1 view .LVU922
 3253              	.LBB671:
 3254              	.LBI587:
 142:../USER/main.c **** void puth4(dt) int dt;{ puth2((dt >> 8) & 0xff); puth2(dt & 0xff); }
 3255              		.loc 1 142 6 view .LVU923
 3256              	.LBB667:
 142:../USER/main.c **** void puth4(dt) int dt;{ puth2((dt >> 8) & 0xff); puth2(dt & 0xff); }
 3257              		.loc 1 142 25 view .LVU924
 3258              	.LBB625:
 3259              	.LBI589:
 141:../USER/main.c **** void puth2(dt) int dt;{ puth((dt >> 4) & 0xf); puth(dt & 0xf); }
 3260              		.loc 1 141 6 view .LVU925
 3261              	.LBB623:
 141:../USER/main.c **** void puth2(dt) int dt;{ puth((dt >> 4) & 0xf); puth(dt & 0xf); }
 3262              		.loc 1 141 24 view .LVU926
 141:../USER/main.c **** void puth2(dt) int dt;{ puth((dt >> 4) & 0xf); puth(dt & 0xf); }
 3263              		.loc 1 141 26 is_stmt 0 view .LVU927
 3264 001e 2ADC     		bgt	.L321
 141:../USER/main.c **** void puth2(dt) int dt;{ puth((dt >> 4) & 0xf); puth(dt & 0xf); }
 3265              		.loc 1 141 34 is_stmt 1 view .LVU928
 141:../USER/main.c **** void puth2(dt) int dt;{ puth((dt >> 4) & 0xf); puth(dt & 0xf); }
 3266              		.loc 1 141 44 is_stmt 0 view .LVU929
 3267 0020 3032     		adds	r2, r2, #48
 3268 0022 0192     		str	r2, [sp, #4]
 3269              	.LVL193:
 3270              	.LBB591:
 3271              	.LBI591:
 127:../USER/main.c **** 	volatile uint32_t gpiord;
 3272              		.loc 1 127 6 is_stmt 1 view .LVU930
 3273              	.LBB592:
 128:../USER/main.c **** 	if((mdgpio & 0x2000)==0)
 3274              		.loc 1 128 2 view .LVU931
 129:../USER/main.c **** 		UART_SendChar(UART0,ch);
 3275              		.loc 1 129 2 view .LVU932
 129:../USER/main.c **** 		UART_SendChar(UART0,ch);
 3276              		.loc 1 129 4 is_stmt 0 view .LVU933
 3277 0024 002B     		cmp	r3, #0
 3278 0026 50D0     		beq	.L469
 3279              	.LVL194:
 3280              	.LBB593:
 3281              	.LBI593:
 127:../USER/main.c **** 	volatile uint32_t gpiord;
 3282              		.loc 1 127 6 is_stmt 1 view .LVU934
 3283              	.LBB594:
 132:../USER/main.c **** 		while((gpiord & 0x4000)!=0) {
 3284              		.loc 1 132 3 view .LVU935
 132:../USER/main.c **** 		while((gpiord & 0x4000)!=0) {
 3285              		.loc 1 132 10 is_stmt 0 view .LVU936
 3286 0028 4FF48043 		mov	r3, #16384
 3287 002c 0293     		str	r3, [sp, #8]
 133:../USER/main.c **** 			spi_read();
 3288              		.loc 1 133 3 is_stmt 1 view .LVU937
 133:../USER/main.c **** 			spi_read();
 3289              		.loc 1 133 17 is_stmt 0 view .LVU938
 3290 002e 029B     		ldr	r3, [sp, #8]
 133:../USER/main.c **** 			spi_read();
 3291              		.loc 1 133 8 view .LVU939
 3292 0030 5804     		lsls	r0, r3, #17
 3293              	.LVL195:
 133:../USER/main.c **** 			spi_read();
 3294              		.loc 1 133 8 view .LVU940
 3295 0032 40F16981 		bpl	.L336
 3296 0036 A34C     		ldr	r4, .L507+4
 3297              	.LBB595:
 3298              	.LBB596:
 114:../USER/main.c **** 	if(kinbwp>=256) kinbwp = 0;
 3299              		.loc 1 114 29 view .LVU941
 3300 0038 DFF890B2 		ldr	fp, .L507+12
 3301              	.LBE596:
 3302              	.LBE595:
 135:../USER/main.c **** 		}
 3303              		.loc 1 135 13 view .LVU942
 3304 003c DFF88892 		ldr	r9, .L507+8
 3305              	.LBB601:
 3306              	.LBB597:
 115:../USER/main.c **** }
 3307              		.loc 1 115 25 view .LVU943
 3308 0040 4FF0000A 		mov	r10, #0
 3309 0044 0CE0     		b	.L324
 3310              	.LVL196:
 3311              	.L495:
 115:../USER/main.c **** }
 3312              		.loc 1 115 25 view .LVU944
 3313 0046 2368     		ldr	r3, [r4]
 3314              	.L326:
 115:../USER/main.c **** }
 3315              		.loc 1 115 2 is_stmt 1 view .LVU945
 115:../USER/main.c **** }
 3316              		.loc 1 115 18 view .LVU946
 3317              	.LVL197:
 115:../USER/main.c **** }
 3318              		.loc 1 115 18 is_stmt 0 view .LVU947
 3319              	.LBE597:
 3320              	.LBE601:
 135:../USER/main.c **** 		}
 3321              		.loc 1 135 4 is_stmt 1 view .LVU948
 3322              	.LBB602:
 3323              	.LBB598:
 115:../USER/main.c **** }
 3324              		.loc 1 115 4 is_stmt 0 view .LVU949
 3325 0048 FF2B     		cmp	r3, #255
 3326              	.LBE598:
 3327              	.LBE602:
 135:../USER/main.c **** 		}
 3328              		.loc 1 135 13 view .LVU950
 3329 004a 4846     		mov	r0, r9
 3330              	.LBB603:
 3331              	.LBB599:
 115:../USER/main.c **** }
 3332              		.loc 1 115 25 view .LVU951
 3333 004c C8BF     		it	gt
 3334 004e C4F800A0 		strgt	r10, [r4]
 3335              	.LBE599:
 3336              	.LBE603:
 135:../USER/main.c **** 		}
 3337              		.loc 1 135 4 is_stmt 1 view .LVU952
 135:../USER/main.c **** 		}
 3338              		.loc 1 135 13 is_stmt 0 view .LVU953
 3339 0052 FFF7FEFF 		bl	GPIO_ReadBits
 3340              	.LVL198:
 135:../USER/main.c **** 		}
 3341              		.loc 1 135 11 view .LVU954
 3342 0056 0290     		str	r0, [sp, #8]
 133:../USER/main.c **** 			spi_read();
 3343              		.loc 1 133 17 view .LVU955
 3344 0058 029B     		ldr	r3, [sp, #8]
 133:../USER/main.c **** 			spi_read();
 3345              		.loc 1 133 8 view .LVU956
 3346 005a 5904     		lsls	r1, r3, #17
 3347 005c 40F15481 		bpl	.L336
 3348              	.L324:
 134:../USER/main.c **** 			gpiord = GPIO_ReadBits(GPIO0);
 3349              		.loc 1 134 4 is_stmt 1 view .LVU957
 3350              	.LBB604:
 3351              	.LBI595:
 111:../USER/main.c **** 	char ch;
 3352              		.loc 1 111 6 view .LVU958
 3353              	.LBB600:
 112:../USER/main.c **** 	ch = SPI_ReadData();
 3354              		.loc 1 112 2 view .LVU959
 113:../USER/main.c **** 	if(ch!=0) kinbuf[kinbwp++] = ch;
 3355              		.loc 1 113 2 view .LVU960
 113:../USER/main.c **** 	if(ch!=0) kinbuf[kinbwp++] = ch;
 3356              		.loc 1 113 7 is_stmt 0 view .LVU961
 3357 0060 FFF7FEFF 		bl	SPI_ReadData
 3358              	.LVL199:
 114:../USER/main.c **** 	if(kinbwp>=256) kinbwp = 0;
 3359              		.loc 1 114 12 is_stmt 1 view .LVU962
 113:../USER/main.c **** 	if(ch!=0) kinbuf[kinbwp++] = ch;
 3360              		.loc 1 113 5 is_stmt 0 view .LVU963
 3361 0064 40B2     		sxtb	r0, r0
 3362              	.LVL200:
 114:../USER/main.c **** 	if(kinbwp>=256) kinbwp = 0;
 3363              		.loc 1 114 2 is_stmt 1 view .LVU964
 114:../USER/main.c **** 	if(kinbwp>=256) kinbwp = 0;
 3364              		.loc 1 114 4 is_stmt 0 view .LVU965
 3365 0066 0028     		cmp	r0, #0
 3366 0068 EDD0     		beq	.L495
 114:../USER/main.c **** 	if(kinbwp>=256) kinbwp = 0;
 3367              		.loc 1 114 25 view .LVU966
 3368 006a 2268     		ldr	r2, [r4]
 3369 006c 531C     		adds	r3, r2, #1
 114:../USER/main.c **** 	if(kinbwp>=256) kinbwp = 0;
 3370              		.loc 1 114 29 view .LVU967
 3371 006e 0BF80200 		strb	r0, [fp, r2]
 114:../USER/main.c **** 	if(kinbwp>=256) kinbwp = 0;
 3372              		.loc 1 114 25 view .LVU968
 3373 0072 2360     		str	r3, [r4]
 3374 0074 E8E7     		b	.L326
 3375              	.LVL201:
 3376              	.L321:
 114:../USER/main.c **** 	if(kinbwp>=256) kinbwp = 0;
 3377              		.loc 1 114 25 view .LVU969
 3378              	.LBE600:
 3379              	.LBE604:
 3380              	.LBE594:
 3381              	.LBE593:
 3382              	.LBE592:
 3383              	.LBE591:
 141:../USER/main.c **** void puth2(dt) int dt;{ puth((dt >> 4) & 0xf); puth(dt & 0xf); }
 3384              		.loc 1 141 55 is_stmt 1 view .LVU970
 141:../USER/main.c **** void puth2(dt) int dt;{ puth((dt >> 4) & 0xf); puth(dt & 0xf); }
 3385              		.loc 1 141 65 is_stmt 0 view .LVU971
 3386 0076 3732     		adds	r2, r2, #55
 3387 0078 0192     		str	r2, [sp, #4]
 3388              	.LVL202:
 3389              	.LBB605:
 3390              	.LBI605:
 127:../USER/main.c **** 	volatile uint32_t gpiord;
 3391              		.loc 1 127 6 is_stmt 1 view .LVU972
 3392              	.LBB606:
 128:../USER/main.c **** 	if((mdgpio & 0x2000)==0)
 3393              		.loc 1 128 2 view .LVU973
 129:../USER/main.c **** 		UART_SendChar(UART0,ch);
 3394              		.loc 1 129 2 view .LVU974
 129:../USER/main.c **** 		UART_SendChar(UART0,ch);
 3395              		.loc 1 129 4 is_stmt 0 view .LVU975
 3396 007a 33B3     		cbz	r3, .L469
 3397              	.LVL203:
 3398              	.LBB607:
 3399              	.LBI607:
 127:../USER/main.c **** 	volatile uint32_t gpiord;
 3400              		.loc 1 127 6 is_stmt 1 view .LVU976
 3401              	.LBB608:
 132:../USER/main.c **** 		while((gpiord & 0x4000)!=0) {
 3402              		.loc 1 132 3 view .LVU977
 132:../USER/main.c **** 		while((gpiord & 0x4000)!=0) {
 3403              		.loc 1 132 10 is_stmt 0 view .LVU978
 3404 007c 4FF48043 		mov	r3, #16384
 3405 0080 0393     		str	r3, [sp, #12]
 133:../USER/main.c **** 			spi_read();
 3406              		.loc 1 133 3 is_stmt 1 view .LVU979
 133:../USER/main.c **** 			spi_read();
 3407              		.loc 1 133 17 is_stmt 0 view .LVU980
 3408 0082 039B     		ldr	r3, [sp, #12]
 133:../USER/main.c **** 			spi_read();
 3409              		.loc 1 133 8 view .LVU981
 3410 0084 5A04     		lsls	r2, r3, #17
 3411 0086 40F13F81 		bpl	.L336
 3412 008a 8E4C     		ldr	r4, .L507+4
 3413              	.LBB609:
 3414              	.LBB610:
 114:../USER/main.c **** 	if(kinbwp>=256) kinbwp = 0;
 3415              		.loc 1 114 29 view .LVU982
 3416 008c DFF83CB2 		ldr	fp, .L507+12
 3417              	.LBE610:
 3418              	.LBE609:
 135:../USER/main.c **** 		}
 3419              		.loc 1 135 13 view .LVU983
 3420 0090 DFF83492 		ldr	r9, .L507+8
 3421              	.LBB615:
 3422              	.LBB611:
 115:../USER/main.c **** }
 3423              		.loc 1 115 25 view .LVU984
 3424 0094 4FF0000A 		mov	r10, #0
 3425 0098 0CE0     		b	.L331
 3426              	.LVL204:
 3427              	.L496:
 115:../USER/main.c **** }
 3428              		.loc 1 115 25 view .LVU985
 3429 009a 2368     		ldr	r3, [r4]
 3430              	.L333:
 115:../USER/main.c **** }
 3431              		.loc 1 115 2 is_stmt 1 view .LVU986
 115:../USER/main.c **** }
 3432              		.loc 1 115 18 view .LVU987
 3433              	.LVL205:
 115:../USER/main.c **** }
 3434              		.loc 1 115 18 is_stmt 0 view .LVU988
 3435              	.LBE611:
 3436              	.LBE615:
 135:../USER/main.c **** 		}
 3437              		.loc 1 135 4 is_stmt 1 view .LVU989
 3438              	.LBB616:
 3439              	.LBB612:
 115:../USER/main.c **** }
 3440              		.loc 1 115 4 is_stmt 0 view .LVU990
 3441 009c FF2B     		cmp	r3, #255
 3442              	.LBE612:
 3443              	.LBE616:
 135:../USER/main.c **** 		}
 3444              		.loc 1 135 13 view .LVU991
 3445 009e 4846     		mov	r0, r9
 3446              	.LBB617:
 3447              	.LBB613:
 115:../USER/main.c **** }
 3448              		.loc 1 115 25 view .LVU992
 3449 00a0 C8BF     		it	gt
 3450 00a2 C4F800A0 		strgt	r10, [r4]
 3451              	.LBE613:
 3452              	.LBE617:
 135:../USER/main.c **** 		}
 3453              		.loc 1 135 4 is_stmt 1 view .LVU993
 135:../USER/main.c **** 		}
 3454              		.loc 1 135 13 is_stmt 0 view .LVU994
 3455 00a6 FFF7FEFF 		bl	GPIO_ReadBits
 3456              	.LVL206:
 135:../USER/main.c **** 		}
 3457              		.loc 1 135 11 view .LVU995
 3458 00aa 0390     		str	r0, [sp, #12]
 133:../USER/main.c **** 			spi_read();
 3459              		.loc 1 133 17 view .LVU996
 3460 00ac 039B     		ldr	r3, [sp, #12]
 133:../USER/main.c **** 			spi_read();
 3461              		.loc 1 133 8 view .LVU997
 3462 00ae 5B04     		lsls	r3, r3, #17
 3463 00b0 40F12A81 		bpl	.L336
 3464              	.L331:
 134:../USER/main.c **** 			gpiord = GPIO_ReadBits(GPIO0);
 3465              		.loc 1 134 4 is_stmt 1 view .LVU998
 3466              	.LBB618:
 3467              	.LBI609:
 111:../USER/main.c **** 	char ch;
 3468              		.loc 1 111 6 view .LVU999
 3469              	.LBB614:
 112:../USER/main.c **** 	ch = SPI_ReadData();
 3470              		.loc 1 112 2 view .LVU1000
 113:../USER/main.c **** 	if(ch!=0) kinbuf[kinbwp++] = ch;
 3471              		.loc 1 113 2 view .LVU1001
 113:../USER/main.c **** 	if(ch!=0) kinbuf[kinbwp++] = ch;
 3472              		.loc 1 113 7 is_stmt 0 view .LVU1002
 3473 00b4 FFF7FEFF 		bl	SPI_ReadData
 3474              	.LVL207:
 114:../USER/main.c **** 	if(kinbwp>=256) kinbwp = 0;
 3475              		.loc 1 114 12 is_stmt 1 view .LVU1003
 113:../USER/main.c **** 	if(ch!=0) kinbuf[kinbwp++] = ch;
 3476              		.loc 1 113 5 is_stmt 0 view .LVU1004
 3477 00b8 40B2     		sxtb	r0, r0
 3478              	.LVL208:
 114:../USER/main.c **** 	if(kinbwp>=256) kinbwp = 0;
 3479              		.loc 1 114 2 is_stmt 1 view .LVU1005
 114:../USER/main.c **** 	if(kinbwp>=256) kinbwp = 0;
 3480              		.loc 1 114 4 is_stmt 0 view .LVU1006
 3481 00ba 0028     		cmp	r0, #0
 3482 00bc EDD0     		beq	.L496
 114:../USER/main.c **** 	if(kinbwp>=256) kinbwp = 0;
 3483              		.loc 1 114 25 view .LVU1007
 3484 00be 2268     		ldr	r2, [r4]
 3485 00c0 531C     		adds	r3, r2, #1
 114:../USER/main.c **** 	if(kinbwp>=256) kinbwp = 0;
 3486              		.loc 1 114 29 view .LVU1008
 3487 00c2 0BF80200 		strb	r0, [fp, r2]
 114:../USER/main.c **** 	if(kinbwp>=256) kinbwp = 0;
 3488              		.loc 1 114 25 view .LVU1009
 3489 00c6 2360     		str	r3, [r4]
 3490 00c8 E8E7     		b	.L333
 3491              	.LVL209:
 3492              	.L469:
 114:../USER/main.c **** 	if(kinbwp>=256) kinbwp = 0;
 3493              		.loc 1 114 25 view .LVU1010
 3494              	.LBE614:
 3495              	.LBE618:
 3496              	.LBE608:
 3497              	.LBE607:
 130:../USER/main.c **** 	else {
 3498              		.loc 1 130 3 is_stmt 1 view .LVU1011
 3499 00ca 1146     		mov	r1, r2
 3500              	.LVL210:
 130:../USER/main.c **** 	else {
 3501              		.loc 1 130 3 is_stmt 0 view .LVU1012
 3502 00cc 4FF04020 		mov	r0, #1073758208
 3503              	.LVL211:
 130:../USER/main.c **** 	else {
 3504              		.loc 1 130 3 view .LVU1013
 3505 00d0 FFF7FEFF 		bl	UART_SendChar
 3506              	.LVL212:
 3507              	.L323:
 130:../USER/main.c **** 	else {
 3508              		.loc 1 130 3 view .LVU1014
 3509              	.LBE606:
 3510              	.LBE605:
 3511              	.LBE623:
 3512              	.LBE625:
 142:../USER/main.c **** void puth4(dt) int dt;{ puth2((dt >> 8) & 0xff); puth2(dt & 0xff); }
 3513              		.loc 1 142 48 is_stmt 1 view .LVU1015
 3514 00d4 08F00F08 		and	r8, r8, #15
 3515              	.LVL213:
 3516              	.LBB626:
 3517              	.LBI626:
 141:../USER/main.c **** void puth2(dt) int dt;{ puth((dt >> 4) & 0xf); puth(dt & 0xf); }
 3518              		.loc 1 141 6 view .LVU1016
 3519              	.LBB627:
 141:../USER/main.c **** void puth2(dt) int dt;{ puth((dt >> 4) & 0xf); puth(dt & 0xf); }
 3520              		.loc 1 141 24 view .LVU1017
 3521 00d8 3B68     		ldr	r3, [r7]
 141:../USER/main.c **** void puth2(dt) int dt;{ puth((dt >> 4) & 0xf); puth(dt & 0xf); }
 3522              		.loc 1 141 26 is_stmt 0 view .LVU1018
 3523 00da B8F1090F 		cmp	r8, #9
 3524 00de 5FFA88F2 		uxtb	r2, r8
 3525 00e2 03F40053 		and	r3, r3, #8192
 3526 00e6 00F33A81 		bgt	.L337
 141:../USER/main.c **** void puth2(dt) int dt;{ puth((dt >> 4) & 0xf); puth(dt & 0xf); }
 3527              		.loc 1 141 34 is_stmt 1 view .LVU1019
 141:../USER/main.c **** void puth2(dt) int dt;{ puth((dt >> 4) & 0xf); puth(dt & 0xf); }
 3528              		.loc 1 141 44 is_stmt 0 view .LVU1020
 3529 00ea 02F13008 		add	r8, r2, #48
 3530              	.LVL214:
 3531              	.LBB628:
 3532              	.LBI628:
 127:../USER/main.c **** 	volatile uint32_t gpiord;
 3533              		.loc 1 127 6 is_stmt 1 view .LVU1021
 3534              	.LBB629:
 128:../USER/main.c **** 	if((mdgpio & 0x2000)==0)
 3535              		.loc 1 128 2 view .LVU1022
 129:../USER/main.c **** 		UART_SendChar(UART0,ch);
 3536              		.loc 1 129 2 view .LVU1023
 129:../USER/main.c **** 		UART_SendChar(UART0,ch);
 3537              		.loc 1 129 4 is_stmt 0 view .LVU1024
 3538 00ee 002B     		cmp	r3, #0
 3539 00f0 00F0F681 		beq	.L474
 3540              	.LVL215:
 3541              	.LBB630:
 3542              	.LBI630:
 127:../USER/main.c **** 	volatile uint32_t gpiord;
 3543              		.loc 1 127 6 is_stmt 1 view .LVU1025
 3544              	.LBB631:
 132:../USER/main.c **** 		while((gpiord & 0x4000)!=0) {
 3545              		.loc 1 132 3 view .LVU1026
 132:../USER/main.c **** 		while((gpiord & 0x4000)!=0) {
 3546              		.loc 1 132 10 is_stmt 0 view .LVU1027
 3547 00f4 4FF48043 		mov	r3, #16384
 3548 00f8 0493     		str	r3, [sp, #16]
 133:../USER/main.c **** 			spi_read();
 3549              		.loc 1 133 3 is_stmt 1 view .LVU1028
 133:../USER/main.c **** 			spi_read();
 3550              		.loc 1 133 17 is_stmt 0 view .LVU1029
 3551 00fa 049B     		ldr	r3, [sp, #16]
 133:../USER/main.c **** 			spi_read();
 3552              		.loc 1 133 8 view .LVU1030
 3553 00fc 5804     		lsls	r0, r3, #17
 3554 00fe 1ED5     		bpl	.L352
 3555 0100 704C     		ldr	r4, .L507+4
 3556              	.LBB632:
 3557              	.LBB633:
 114:../USER/main.c **** 	if(kinbwp>=256) kinbwp = 0;
 3558              		.loc 1 114 29 view .LVU1031
 3559 0102 DFF8C8B1 		ldr	fp, .L507+12
 3560              	.LBE633:
 3561              	.LBE632:
 135:../USER/main.c **** 		}
 3562              		.loc 1 135 13 view .LVU1032
 3563 0106 DFF8C091 		ldr	r9, .L507+8
 3564              	.LBB638:
 3565              	.LBB634:
 115:../USER/main.c **** }
 3566              		.loc 1 115 25 view .LVU1033
 3567 010a 4FF0000A 		mov	r10, #0
 3568 010e 0BE0     		b	.L340
 3569              	.LVL216:
 3570              	.L497:
 115:../USER/main.c **** }
 3571              		.loc 1 115 25 view .LVU1034
 3572 0110 2368     		ldr	r3, [r4]
 3573              	.L342:
 115:../USER/main.c **** }
 3574              		.loc 1 115 2 is_stmt 1 view .LVU1035
 115:../USER/main.c **** }
 3575              		.loc 1 115 18 view .LVU1036
 3576              	.LVL217:
 115:../USER/main.c **** }
 3577              		.loc 1 115 18 is_stmt 0 view .LVU1037
 3578              	.LBE634:
 3579              	.LBE638:
 135:../USER/main.c **** 		}
 3580              		.loc 1 135 4 is_stmt 1 view .LVU1038
 3581              	.LBB639:
 3582              	.LBB635:
 115:../USER/main.c **** }
 3583              		.loc 1 115 4 is_stmt 0 view .LVU1039
 3584 0112 FF2B     		cmp	r3, #255
 3585              	.LBE635:
 3586              	.LBE639:
 135:../USER/main.c **** 		}
 3587              		.loc 1 135 13 view .LVU1040
 3588 0114 4846     		mov	r0, r9
 3589              	.LBB640:
 3590              	.LBB636:
 115:../USER/main.c **** }
 3591              		.loc 1 115 25 view .LVU1041
 3592 0116 C8BF     		it	gt
 3593 0118 C4F800A0 		strgt	r10, [r4]
 3594              	.LBE636:
 3595              	.LBE640:
 135:../USER/main.c **** 		}
 3596              		.loc 1 135 4 is_stmt 1 view .LVU1042
 135:../USER/main.c **** 		}
 3597              		.loc 1 135 13 is_stmt 0 view .LVU1043
 3598 011c FFF7FEFF 		bl	GPIO_ReadBits
 3599              	.LVL218:
 135:../USER/main.c **** 		}
 3600              		.loc 1 135 11 view .LVU1044
 3601 0120 0490     		str	r0, [sp, #16]
 133:../USER/main.c **** 			spi_read();
 3602              		.loc 1 133 17 view .LVU1045
 3603 0122 049B     		ldr	r3, [sp, #16]
 133:../USER/main.c **** 			spi_read();
 3604              		.loc 1 133 8 view .LVU1046
 3605 0124 5904     		lsls	r1, r3, #17
 3606 0126 0AD5     		bpl	.L352
 3607              	.L340:
 134:../USER/main.c **** 			gpiord = GPIO_ReadBits(GPIO0);
 3608              		.loc 1 134 4 is_stmt 1 view .LVU1047
 3609              	.LBB641:
 3610              	.LBI632:
 111:../USER/main.c **** 	char ch;
 3611              		.loc 1 111 6 view .LVU1048
 3612              	.LBB637:
 112:../USER/main.c **** 	ch = SPI_ReadData();
 3613              		.loc 1 112 2 view .LVU1049
 113:../USER/main.c **** 	if(ch!=0) kinbuf[kinbwp++] = ch;
 3614              		.loc 1 113 2 view .LVU1050
 113:../USER/main.c **** 	if(ch!=0) kinbuf[kinbwp++] = ch;
 3615              		.loc 1 113 7 is_stmt 0 view .LVU1051
 3616 0128 FFF7FEFF 		bl	SPI_ReadData
 3617              	.LVL219:
 114:../USER/main.c **** 	if(kinbwp>=256) kinbwp = 0;
 3618              		.loc 1 114 12 is_stmt 1 view .LVU1052
 113:../USER/main.c **** 	if(ch!=0) kinbuf[kinbwp++] = ch;
 3619              		.loc 1 113 5 is_stmt 0 view .LVU1053
 3620 012c 40B2     		sxtb	r0, r0
 3621              	.LVL220:
 114:../USER/main.c **** 	if(kinbwp>=256) kinbwp = 0;
 3622              		.loc 1 114 2 is_stmt 1 view .LVU1054
 114:../USER/main.c **** 	if(kinbwp>=256) kinbwp = 0;
 3623              		.loc 1 114 4 is_stmt 0 view .LVU1055
 3624 012e 0028     		cmp	r0, #0
 3625 0130 EED0     		beq	.L497
 114:../USER/main.c **** 	if(kinbwp>=256) kinbwp = 0;
 3626              		.loc 1 114 25 view .LVU1056
 3627 0132 2268     		ldr	r2, [r4]
 3628 0134 531C     		adds	r3, r2, #1
 114:../USER/main.c **** 	if(kinbwp>=256) kinbwp = 0;
 3629              		.loc 1 114 29 view .LVU1057
 3630 0136 0BF80200 		strb	r0, [fp, r2]
 114:../USER/main.c **** 	if(kinbwp>=256) kinbwp = 0;
 3631              		.loc 1 114 25 view .LVU1058
 3632 013a 2360     		str	r3, [r4]
 3633 013c E9E7     		b	.L342
 3634              	.LVL221:
 3635              	.L352:
 114:../USER/main.c **** 	if(kinbwp>=256) kinbwp = 0;
 3636              		.loc 1 114 25 view .LVU1059
 3637              	.LBE637:
 3638              	.LBE641:
 3639              	.LBE631:
 3640              	.LBE630:
 3641              	.LBE629:
 3642              	.LBE628:
 3643              	.LBB642:
 3644              	.LBB643:
 3645              	.LBB644:
 3646              	.LBB645:
 137:../USER/main.c **** 	}
 3647              		.loc 1 137 3 is_stmt 1 view .LVU1060
 3648 013e 4046     		mov	r0, r8
 3649 0140 FFF7FEFF 		bl	SPI_WriteData
 3650              	.LVL222:
 3651              	.L339:
 137:../USER/main.c **** 	}
 3652              		.loc 1 137 3 is_stmt 0 view .LVU1061
 3653              	.LBE645:
 3654              	.LBE644:
 3655              	.LBE643:
 3656              	.LBE642:
 3657              	.LBE627:
 3658              	.LBE626:
 3659              	.LBE667:
 3660              	.LBE671:
 3661              		.loc 1 144 81 is_stmt 1 view .LVU1062
 3662              	.LBB672:
 3663              	.LBI672:
 143:../USER/main.c **** void puth6(dt) long dt;{ int dh,dl; dh = dt >> 16; dl = dt & 0xffff; puth2(dh); puth4(dl); }
 3664              		.loc 1 143 6 view .LVU1063
 3665              	.LBB673:
 143:../USER/main.c **** void puth6(dt) long dt;{ int dh,dl; dh = dt >> 16; dl = dt & 0xffff; puth2(dh); puth4(dl); }
 3666              		.loc 1 143 25 view .LVU1064
 3667              	.LBB674:
 3668              	.LBB675:
 142:../USER/main.c **** void puth4(dt) int dt;{ puth2((dt >> 8) & 0xff); puth2(dt & 0xff); }
 3669              		.loc 1 142 34 is_stmt 0 view .LVU1065
 3670 0144 3213     		asrs	r2, r6, #12
 3671 0146 3B68     		ldr	r3, [r7]
 3672              	.LBB676:
 3673              	.LBB677:
 141:../USER/main.c **** void puth2(dt) int dt;{ puth((dt >> 4) & 0xf); puth(dt & 0xf); }
 3674              		.loc 1 141 26 view .LVU1066
 3675 0148 092A     		cmp	r2, #9
 3676 014a 03F40053 		and	r3, r3, #8192
 3677              	.LBE677:
 3678              	.LBE676:
 3679              	.LBE675:
 3680              	.LBE674:
 143:../USER/main.c **** void puth6(dt) long dt;{ int dh,dl; dh = dt >> 16; dl = dt & 0xffff; puth2(dh); puth4(dl); }
 3681              		.loc 1 143 35 view .LVU1067
 3682 014e 4FEA2626 		asr	r6, r6, #8
 3683              	.LVL223:
 3684              	.LBB762:
 3685              	.LBI674:
 142:../USER/main.c **** void puth4(dt) int dt;{ puth2((dt >> 8) & 0xff); puth2(dt & 0xff); }
 3686              		.loc 1 142 6 is_stmt 1 view .LVU1068
 3687              	.LBB758:
 142:../USER/main.c **** void puth4(dt) int dt;{ puth2((dt >> 8) & 0xff); puth2(dt & 0xff); }
 3688              		.loc 1 142 25 view .LVU1069
 3689              	.LBB715:
 3690              	.LBI676:
 141:../USER/main.c **** void puth2(dt) int dt;{ puth((dt >> 4) & 0xf); puth(dt & 0xf); }
 3691              		.loc 1 141 6 view .LVU1070
 3692              	.LBB712:
 141:../USER/main.c **** void puth2(dt) int dt;{ puth((dt >> 4) & 0xf); puth(dt & 0xf); }
 3693              		.loc 1 141 24 view .LVU1071
 3694 0152 5FFA82F8 		uxtb	r8, r2
 141:../USER/main.c **** void puth2(dt) int dt;{ puth((dt >> 4) & 0xf); puth(dt & 0xf); }
 3695              		.loc 1 141 26 is_stmt 0 view .LVU1072
 3696 0156 00F32E81 		bgt	.L353
 141:../USER/main.c **** void puth2(dt) int dt;{ puth((dt >> 4) & 0xf); puth(dt & 0xf); }
 3697              		.loc 1 141 34 is_stmt 1 view .LVU1073
 141:../USER/main.c **** void puth2(dt) int dt;{ puth((dt >> 4) & 0xf); puth(dt & 0xf); }
 3698              		.loc 1 141 44 is_stmt 0 view .LVU1074
 3699 015a 08F13008 		add	r8, r8, #48
 3700              	.LVL224:
 3701              	.LBB678:
 3702              	.LBI678:
 127:../USER/main.c **** 	volatile uint32_t gpiord;
 3703              		.loc 1 127 6 is_stmt 1 view .LVU1075
 3704              	.LBB679:
 128:../USER/main.c **** 	if((mdgpio & 0x2000)==0)
 3705              		.loc 1 128 2 view .LVU1076
 129:../USER/main.c **** 		UART_SendChar(UART0,ch);
 3706              		.loc 1 129 2 view .LVU1077
 129:../USER/main.c **** 		UART_SendChar(UART0,ch);
 3707              		.loc 1 129 4 is_stmt 0 view .LVU1078
 3708 015e 002B     		cmp	r3, #0
 3709 0160 00F0AA81 		beq	.L479
 3710              	.LVL225:
 3711              	.LBB680:
 3712              	.LBI680:
 127:../USER/main.c **** 	volatile uint32_t gpiord;
 3713              		.loc 1 127 6 is_stmt 1 view .LVU1079
 3714              	.LBB681:
 132:../USER/main.c **** 		while((gpiord & 0x4000)!=0) {
 3715              		.loc 1 132 3 view .LVU1080
 132:../USER/main.c **** 		while((gpiord & 0x4000)!=0) {
 3716              		.loc 1 132 10 is_stmt 0 view .LVU1081
 3717 0164 4FF48043 		mov	r3, #16384
 3718 0168 0693     		str	r3, [sp, #24]
 133:../USER/main.c **** 			spi_read();
 3719              		.loc 1 133 3 is_stmt 1 view .LVU1082
 133:../USER/main.c **** 			spi_read();
 3720              		.loc 1 133 17 is_stmt 0 view .LVU1083
 3721 016a 069B     		ldr	r3, [sp, #24]
 133:../USER/main.c **** 			spi_read();
 3722              		.loc 1 133 8 view .LVU1084
 3723 016c 5804     		lsls	r0, r3, #17
 3724 016e 1ED5     		bpl	.L368
 3725 0170 544C     		ldr	r4, .L507+4
 3726              	.LBB682:
 3727              	.LBB683:
 114:../USER/main.c **** 	if(kinbwp>=256) kinbwp = 0;
 3728              		.loc 1 114 29 view .LVU1085
 3729 0172 DFF858B1 		ldr	fp, .L507+12
 3730              	.LBE683:
 3731              	.LBE682:
 135:../USER/main.c **** 		}
 3732              		.loc 1 135 13 view .LVU1086
 3733 0176 DFF85091 		ldr	r9, .L507+8
 3734              	.LBB688:
 3735              	.LBB684:
 115:../USER/main.c **** }
 3736              		.loc 1 115 25 view .LVU1087
 3737 017a 4FF0000A 		mov	r10, #0
 3738 017e 0BE0     		b	.L356
 3739              	.LVL226:
 3740              	.L498:
 115:../USER/main.c **** }
 3741              		.loc 1 115 25 view .LVU1088
 3742 0180 2368     		ldr	r3, [r4]
 3743              	.L358:
 115:../USER/main.c **** }
 3744              		.loc 1 115 2 is_stmt 1 view .LVU1089
 115:../USER/main.c **** }
 3745              		.loc 1 115 18 view .LVU1090
 3746              	.LVL227:
 115:../USER/main.c **** }
 3747              		.loc 1 115 18 is_stmt 0 view .LVU1091
 3748              	.LBE684:
 3749              	.LBE688:
 135:../USER/main.c **** 		}
 3750              		.loc 1 135 4 is_stmt 1 view .LVU1092
 3751              	.LBB689:
 3752              	.LBB685:
 115:../USER/main.c **** }
 3753              		.loc 1 115 4 is_stmt 0 view .LVU1093
 3754 0182 FF2B     		cmp	r3, #255
 3755              	.LBE685:
 3756              	.LBE689:
 135:../USER/main.c **** 		}
 3757              		.loc 1 135 13 view .LVU1094
 3758 0184 4846     		mov	r0, r9
 3759              	.LBB690:
 3760              	.LBB686:
 115:../USER/main.c **** }
 3761              		.loc 1 115 25 view .LVU1095
 3762 0186 C8BF     		it	gt
 3763 0188 C4F800A0 		strgt	r10, [r4]
 3764              	.LBE686:
 3765              	.LBE690:
 135:../USER/main.c **** 		}
 3766              		.loc 1 135 4 is_stmt 1 view .LVU1096
 135:../USER/main.c **** 		}
 3767              		.loc 1 135 13 is_stmt 0 view .LVU1097
 3768 018c FFF7FEFF 		bl	GPIO_ReadBits
 3769              	.LVL228:
 135:../USER/main.c **** 		}
 3770              		.loc 1 135 11 view .LVU1098
 3771 0190 0690     		str	r0, [sp, #24]
 133:../USER/main.c **** 			spi_read();
 3772              		.loc 1 133 17 view .LVU1099
 3773 0192 069B     		ldr	r3, [sp, #24]
 133:../USER/main.c **** 			spi_read();
 3774              		.loc 1 133 8 view .LVU1100
 3775 0194 5904     		lsls	r1, r3, #17
 3776 0196 0AD5     		bpl	.L368
 3777              	.L356:
 134:../USER/main.c **** 			gpiord = GPIO_ReadBits(GPIO0);
 3778              		.loc 1 134 4 is_stmt 1 view .LVU1101
 3779              	.LBB691:
 3780              	.LBI682:
 111:../USER/main.c **** 	char ch;
 3781              		.loc 1 111 6 view .LVU1102
 3782              	.LBB687:
 112:../USER/main.c **** 	ch = SPI_ReadData();
 3783              		.loc 1 112 2 view .LVU1103
 113:../USER/main.c **** 	if(ch!=0) kinbuf[kinbwp++] = ch;
 3784              		.loc 1 113 2 view .LVU1104
 113:../USER/main.c **** 	if(ch!=0) kinbuf[kinbwp++] = ch;
 3785              		.loc 1 113 7 is_stmt 0 view .LVU1105
 3786 0198 FFF7FEFF 		bl	SPI_ReadData
 3787              	.LVL229:
 114:../USER/main.c **** 	if(kinbwp>=256) kinbwp = 0;
 3788              		.loc 1 114 12 is_stmt 1 view .LVU1106
 113:../USER/main.c **** 	if(ch!=0) kinbuf[kinbwp++] = ch;
 3789              		.loc 1 113 5 is_stmt 0 view .LVU1107
 3790 019c 40B2     		sxtb	r0, r0
 3791              	.LVL230:
 114:../USER/main.c **** 	if(kinbwp>=256) kinbwp = 0;
 3792              		.loc 1 114 2 is_stmt 1 view .LVU1108
 114:../USER/main.c **** 	if(kinbwp>=256) kinbwp = 0;
 3793              		.loc 1 114 4 is_stmt 0 view .LVU1109
 3794 019e 0028     		cmp	r0, #0
 3795 01a0 EED0     		beq	.L498
 114:../USER/main.c **** 	if(kinbwp>=256) kinbwp = 0;
 3796              		.loc 1 114 25 view .LVU1110
 3797 01a2 2268     		ldr	r2, [r4]
 3798 01a4 531C     		adds	r3, r2, #1
 114:../USER/main.c **** 	if(kinbwp>=256) kinbwp = 0;
 3799              		.loc 1 114 29 view .LVU1111
 3800 01a6 0BF80200 		strb	r0, [fp, r2]
 114:../USER/main.c **** 	if(kinbwp>=256) kinbwp = 0;
 3801              		.loc 1 114 25 view .LVU1112
 3802 01aa 2360     		str	r3, [r4]
 3803 01ac E9E7     		b	.L358
 3804              	.LVL231:
 3805              	.L368:
 114:../USER/main.c **** 	if(kinbwp>=256) kinbwp = 0;
 3806              		.loc 1 114 25 view .LVU1113
 3807              	.LBE687:
 3808              	.LBE691:
 3809              	.LBE681:
 3810              	.LBE680:
 3811              	.LBE679:
 3812              	.LBE678:
 3813              	.LBB692:
 3814              	.LBB693:
 3815              	.LBB694:
 3816              	.LBB695:
 137:../USER/main.c **** 	}
 3817              		.loc 1 137 3 is_stmt 1 view .LVU1114
 3818 01ae 4046     		mov	r0, r8
 3819 01b0 FFF7FEFF 		bl	SPI_WriteData
 3820              	.LVL232:
 3821              	.L355:
 137:../USER/main.c **** 	}
 3822              		.loc 1 137 3 is_stmt 0 view .LVU1115
 3823              	.LBE695:
 3824              	.LBE694:
 3825              	.LBE693:
 3826              	.LBE692:
 3827              	.LBE712:
 3828              	.LBE715:
 142:../USER/main.c **** void puth4(dt) int dt;{ puth2((dt >> 8) & 0xff); puth2(dt & 0xff); }
 3829              		.loc 1 142 48 is_stmt 1 view .LVU1116
 3830 01b4 06F00F06 		and	r6, r6, #15
 3831              	.LVL233:
 3832              	.LBB716:
 3833              	.LBI716:
 141:../USER/main.c **** void puth2(dt) int dt;{ puth((dt >> 4) & 0xf); puth(dt & 0xf); }
 3834              		.loc 1 141 6 view .LVU1117
 3835              	.LBB717:
 141:../USER/main.c **** void puth2(dt) int dt;{ puth((dt >> 4) & 0xf); puth(dt & 0xf); }
 3836              		.loc 1 141 24 view .LVU1118
 3837 01b8 3B68     		ldr	r3, [r7]
 141:../USER/main.c **** void puth2(dt) int dt;{ puth((dt >> 4) & 0xf); puth(dt & 0xf); }
 3838              		.loc 1 141 26 is_stmt 0 view .LVU1119
 3839 01ba 092E     		cmp	r6, #9
 3840 01bc F0B2     		uxtb	r0, r6
 3841 01be 03F40053 		and	r3, r3, #8192
 3842 01c2 00F34E81 		bgt	.L369
 141:../USER/main.c **** void puth2(dt) int dt;{ puth((dt >> 4) & 0xf); puth(dt & 0xf); }
 3843              		.loc 1 141 34 is_stmt 1 view .LVU1120
 141:../USER/main.c **** void puth2(dt) int dt;{ puth((dt >> 4) & 0xf); puth(dt & 0xf); }
 3844              		.loc 1 141 44 is_stmt 0 view .LVU1121
 3845 01c6 00F13006 		add	r6, r0, #48
 3846              	.LVL234:
 3847              	.LBB718:
 3848              	.LBI718:
 127:../USER/main.c **** 	volatile uint32_t gpiord;
 3849              		.loc 1 127 6 is_stmt 1 view .LVU1122
 3850              	.LBB719:
 128:../USER/main.c **** 	if((mdgpio & 0x2000)==0)
 3851              		.loc 1 128 2 view .LVU1123
 129:../USER/main.c **** 		UART_SendChar(UART0,ch);
 3852              		.loc 1 129 2 view .LVU1124
 129:../USER/main.c **** 		UART_SendChar(UART0,ch);
 3853              		.loc 1 129 4 is_stmt 0 view .LVU1125
 3854 01ca 002B     		cmp	r3, #0
 3855 01cc 00F08E81 		beq	.L484
 3856              	.LVL235:
 3857              	.LBB720:
 3858              	.LBI720:
 127:../USER/main.c **** 	volatile uint32_t gpiord;
 3859              		.loc 1 127 6 is_stmt 1 view .LVU1126
 3860              	.LBB721:
 132:../USER/main.c **** 		while((gpiord & 0x4000)!=0) {
 3861              		.loc 1 132 3 view .LVU1127
 132:../USER/main.c **** 		while((gpiord & 0x4000)!=0) {
 3862              		.loc 1 132 10 is_stmt 0 view .LVU1128
 3863 01d0 4FF48043 		mov	r3, #16384
 3864 01d4 0893     		str	r3, [sp, #32]
 133:../USER/main.c **** 			spi_read();
 3865              		.loc 1 133 3 is_stmt 1 view .LVU1129
 133:../USER/main.c **** 			spi_read();
 3866              		.loc 1 133 17 is_stmt 0 view .LVU1130
 3867 01d6 089B     		ldr	r3, [sp, #32]
 133:../USER/main.c **** 			spi_read();
 3868              		.loc 1 133 8 view .LVU1131
 3869 01d8 5804     		lsls	r0, r3, #17
 3870 01da 1ED5     		bpl	.L384
 3871 01dc 394C     		ldr	r4, .L507+4
 3872              	.LBB722:
 3873              	.LBB723:
 114:../USER/main.c **** 	if(kinbwp>=256) kinbwp = 0;
 3874              		.loc 1 114 29 view .LVU1132
 3875 01de DFF8ECA0 		ldr	r10, .L507+12
 3876              	.LBE723:
 3877              	.LBE722:
 135:../USER/main.c **** 		}
 3878              		.loc 1 135 13 view .LVU1133
 3879 01e2 DFF8E480 		ldr	r8, .L507+8
 3880              	.LBB728:
 3881              	.LBB724:
 115:../USER/main.c **** }
 3882              		.loc 1 115 25 view .LVU1134
 3883 01e6 4FF00009 		mov	r9, #0
 3884 01ea 0BE0     		b	.L372
 3885              	.LVL236:
 3886              	.L499:
 115:../USER/main.c **** }
 3887              		.loc 1 115 25 view .LVU1135
 3888 01ec 2368     		ldr	r3, [r4]
 3889              	.L374:
 115:../USER/main.c **** }
 3890              		.loc 1 115 2 is_stmt 1 view .LVU1136
 115:../USER/main.c **** }
 3891              		.loc 1 115 18 view .LVU1137
 3892              	.LVL237:
 115:../USER/main.c **** }
 3893              		.loc 1 115 18 is_stmt 0 view .LVU1138
 3894              	.LBE724:
 3895              	.LBE728:
 135:../USER/main.c **** 		}
 3896              		.loc 1 135 4 is_stmt 1 view .LVU1139
 3897              	.LBB729:
 3898              	.LBB725:
 115:../USER/main.c **** }
 3899              		.loc 1 115 4 is_stmt 0 view .LVU1140
 3900 01ee FF2B     		cmp	r3, #255
 3901              	.LBE725:
 3902              	.LBE729:
 135:../USER/main.c **** 		}
 3903              		.loc 1 135 13 view .LVU1141
 3904 01f0 4046     		mov	r0, r8
 3905              	.LBB730:
 3906              	.LBB726:
 115:../USER/main.c **** }
 3907              		.loc 1 115 25 view .LVU1142
 3908 01f2 C8BF     		it	gt
 3909 01f4 C4F80090 		strgt	r9, [r4]
 3910              	.LBE726:
 3911              	.LBE730:
 135:../USER/main.c **** 		}
 3912              		.loc 1 135 4 is_stmt 1 view .LVU1143
 135:../USER/main.c **** 		}
 3913              		.loc 1 135 13 is_stmt 0 view .LVU1144
 3914 01f8 FFF7FEFF 		bl	GPIO_ReadBits
 3915              	.LVL238:
 135:../USER/main.c **** 		}
 3916              		.loc 1 135 11 view .LVU1145
 3917 01fc 0890     		str	r0, [sp, #32]
 133:../USER/main.c **** 			spi_read();
 3918              		.loc 1 133 17 view .LVU1146
 3919 01fe 089B     		ldr	r3, [sp, #32]
 133:../USER/main.c **** 			spi_read();
 3920              		.loc 1 133 8 view .LVU1147
 3921 0200 5904     		lsls	r1, r3, #17
 3922 0202 0AD5     		bpl	.L384
 3923              	.L372:
 134:../USER/main.c **** 			gpiord = GPIO_ReadBits(GPIO0);
 3924              		.loc 1 134 4 is_stmt 1 view .LVU1148
 3925              	.LBB731:
 3926              	.LBI722:
 111:../USER/main.c **** 	char ch;
 3927              		.loc 1 111 6 view .LVU1149
 3928              	.LBB727:
 112:../USER/main.c **** 	ch = SPI_ReadData();
 3929              		.loc 1 112 2 view .LVU1150
 113:../USER/main.c **** 	if(ch!=0) kinbuf[kinbwp++] = ch;
 3930              		.loc 1 113 2 view .LVU1151
 113:../USER/main.c **** 	if(ch!=0) kinbuf[kinbwp++] = ch;
 3931              		.loc 1 113 7 is_stmt 0 view .LVU1152
 3932 0204 FFF7FEFF 		bl	SPI_ReadData
 3933              	.LVL239:
 114:../USER/main.c **** 	if(kinbwp>=256) kinbwp = 0;
 3934              		.loc 1 114 12 is_stmt 1 view .LVU1153
 113:../USER/main.c **** 	if(ch!=0) kinbuf[kinbwp++] = ch;
 3935              		.loc 1 113 5 is_stmt 0 view .LVU1154
 3936 0208 40B2     		sxtb	r0, r0
 3937              	.LVL240:
 114:../USER/main.c **** 	if(kinbwp>=256) kinbwp = 0;
 3938              		.loc 1 114 2 is_stmt 1 view .LVU1155
 114:../USER/main.c **** 	if(kinbwp>=256) kinbwp = 0;
 3939              		.loc 1 114 4 is_stmt 0 view .LVU1156
 3940 020a 0028     		cmp	r0, #0
 3941 020c EED0     		beq	.L499
 114:../USER/main.c **** 	if(kinbwp>=256) kinbwp = 0;
 3942              		.loc 1 114 25 view .LVU1157
 3943 020e 2268     		ldr	r2, [r4]
 3944 0210 531C     		adds	r3, r2, #1
 114:../USER/main.c **** 	if(kinbwp>=256) kinbwp = 0;
 3945              		.loc 1 114 29 view .LVU1158
 3946 0212 0AF80200 		strb	r0, [r10, r2]
 114:../USER/main.c **** 	if(kinbwp>=256) kinbwp = 0;
 3947              		.loc 1 114 25 view .LVU1159
 3948 0216 2360     		str	r3, [r4]
 3949 0218 E9E7     		b	.L374
 3950              	.LVL241:
 3951              	.L384:
 114:../USER/main.c **** 	if(kinbwp>=256) kinbwp = 0;
 3952              		.loc 1 114 25 view .LVU1160
 3953              	.LBE727:
 3954              	.LBE731:
 3955              	.LBE721:
 3956              	.LBE720:
 3957              	.LBE719:
 3958              	.LBE718:
 3959              	.LBB732:
 3960              	.LBB733:
 3961              	.LBB734:
 3962              	.LBB735:
 137:../USER/main.c **** 	}
 3963              		.loc 1 137 3 is_stmt 1 view .LVU1161
 3964 021a 3046     		mov	r0, r6
 3965 021c FFF7FEFF 		bl	SPI_WriteData
 3966              	.LVL242:
 3967              	.L371:
 137:../USER/main.c **** 	}
 3968              		.loc 1 137 3 is_stmt 0 view .LVU1162
 3969              	.LBE735:
 3970              	.LBE734:
 3971              	.LBE733:
 3972              	.LBE732:
 3973              	.LBE717:
 3974              	.LBE716:
 3975              	.LBE758:
 3976              	.LBE762:
 143:../USER/main.c **** void puth6(dt) long dt;{ int dh,dl; dh = dt >> 16; dl = dt & 0xffff; puth2(dh); puth4(dl); }
 3977              		.loc 1 143 50 is_stmt 1 view .LVU1163
 3978              	.LBB763:
 3979              	.LBI763:
 142:../USER/main.c **** void puth4(dt) int dt;{ puth2((dt >> 8) & 0xff); puth2(dt & 0xff); }
 3980              		.loc 1 142 6 view .LVU1164
 3981              	.LBB764:
 142:../USER/main.c **** void puth4(dt) int dt;{ puth2((dt >> 8) & 0xff); puth2(dt & 0xff); }
 3982              		.loc 1 142 25 view .LVU1165
 142:../USER/main.c **** void puth4(dt) int dt;{ puth2((dt >> 8) & 0xff); puth2(dt & 0xff); }
 3983              		.loc 1 142 34 is_stmt 0 view .LVU1166
 3984 0220 C5F30313 		ubfx	r3, r5, #4, #4
 3985              	.LBB765:
 3986              	.LBI765:
 141:../USER/main.c **** void puth2(dt) int dt;{ puth((dt >> 4) & 0xf); puth(dt & 0xf); }
 3987              		.loc 1 141 6 is_stmt 1 view .LVU1167
 3988              	.LBB766:
 141:../USER/main.c **** void puth2(dt) int dt;{ puth((dt >> 4) & 0xf); puth(dt & 0xf); }
 3989              		.loc 1 141 24 view .LVU1168
 3990 0224 3A68     		ldr	r2, [r7]
 141:../USER/main.c **** void puth2(dt) int dt;{ puth((dt >> 4) & 0xf); puth(dt & 0xf); }
 3991              		.loc 1 141 26 is_stmt 0 view .LVU1169
 3992 0226 092B     		cmp	r3, #9
 3993 0228 02F40052 		and	r2, r2, #8192
 3994 022c D8B2     		uxtb	r0, r3
 3995 022e 00F3ED80 		bgt	.L385
 141:../USER/main.c **** void puth2(dt) int dt;{ puth((dt >> 4) & 0xf); puth(dt & 0xf); }
 3996              		.loc 1 141 34 is_stmt 1 view .LVU1170
 141:../USER/main.c **** void puth2(dt) int dt;{ puth((dt >> 4) & 0xf); puth(dt & 0xf); }
 3997              		.loc 1 141 44 is_stmt 0 view .LVU1171
 3998 0232 00F13006 		add	r6, r0, #48
 3999              	.LVL243:
 4000              	.LBB767:
 4001              	.LBI767:
 127:../USER/main.c **** 	volatile uint32_t gpiord;
 4002              		.loc 1 127 6 is_stmt 1 view .LVU1172
 4003              	.LBB768:
 128:../USER/main.c **** 	if((mdgpio & 0x2000)==0)
 4004              		.loc 1 128 2 view .LVU1173
 129:../USER/main.c **** 		UART_SendChar(UART0,ch);
 4005              		.loc 1 129 2 view .LVU1174
 129:../USER/main.c **** 		UART_SendChar(UART0,ch);
 4006              		.loc 1 129 4 is_stmt 0 view .LVU1175
 4007 0236 002A     		cmp	r2, #0
 4008 0238 00F04481 		beq	.L489
 4009              	.LVL244:
 4010              	.LBB769:
 4011              	.LBI769:
 127:../USER/main.c **** 	volatile uint32_t gpiord;
 4012              		.loc 1 127 6 is_stmt 1 view .LVU1176
 4013              	.LBB770:
 132:../USER/main.c **** 		while((gpiord & 0x4000)!=0) {
 4014              		.loc 1 132 3 view .LVU1177
 132:../USER/main.c **** 		while((gpiord & 0x4000)!=0) {
 4015              		.loc 1 132 10 is_stmt 0 view .LVU1178
 4016 023c 4FF48043 		mov	r3, #16384
 4017 0240 0A93     		str	r3, [sp, #40]
 133:../USER/main.c **** 			spi_read();
 4018              		.loc 1 133 3 is_stmt 1 view .LVU1179
 133:../USER/main.c **** 			spi_read();
 4019              		.loc 1 133 17 is_stmt 0 view .LVU1180
 4020 0242 0A9B     		ldr	r3, [sp, #40]
 133:../USER/main.c **** 			spi_read();
 4021              		.loc 1 133 8 view .LVU1181
 4022 0244 5804     		lsls	r0, r3, #17
 4023 0246 1ED5     		bpl	.L400
 4024 0248 1E4C     		ldr	r4, .L507+4
 4025              	.LBB771:
 4026              	.LBB772:
 114:../USER/main.c **** 	if(kinbwp>=256) kinbwp = 0;
 4027              		.loc 1 114 29 view .LVU1182
 4028 024a DFF880A0 		ldr	r10, .L507+12
 4029              	.LBE772:
 4030              	.LBE771:
 135:../USER/main.c **** 		}
 4031              		.loc 1 135 13 view .LVU1183
 4032 024e DFF87880 		ldr	r8, .L507+8
 4033              	.LBB777:
 4034              	.LBB773:
 115:../USER/main.c **** }
 4035              		.loc 1 115 25 view .LVU1184
 4036 0252 4FF00009 		mov	r9, #0
 4037 0256 0BE0     		b	.L388
 4038              	.LVL245:
 4039              	.L500:
 115:../USER/main.c **** }
 4040              		.loc 1 115 25 view .LVU1185
 4041 0258 2368     		ldr	r3, [r4]
 4042              	.L390:
 115:../USER/main.c **** }
 4043              		.loc 1 115 2 is_stmt 1 view .LVU1186
 115:../USER/main.c **** }
 4044              		.loc 1 115 18 view .LVU1187
 4045              	.LVL246:
 115:../USER/main.c **** }
 4046              		.loc 1 115 18 is_stmt 0 view .LVU1188
 4047              	.LBE773:
 4048              	.LBE777:
 135:../USER/main.c **** 		}
 4049              		.loc 1 135 4 is_stmt 1 view .LVU1189
 4050              	.LBB778:
 4051              	.LBB774:
 115:../USER/main.c **** }
 4052              		.loc 1 115 4 is_stmt 0 view .LVU1190
 4053 025a FF2B     		cmp	r3, #255
 4054              	.LBE774:
 4055              	.LBE778:
 135:../USER/main.c **** 		}
 4056              		.loc 1 135 13 view .LVU1191
 4057 025c 4046     		mov	r0, r8
 4058              	.LBB779:
 4059              	.LBB775:
 115:../USER/main.c **** }
 4060              		.loc 1 115 25 view .LVU1192
 4061 025e C8BF     		it	gt
 4062 0260 C4F80090 		strgt	r9, [r4]
 4063              	.LBE775:
 4064              	.LBE779:
 135:../USER/main.c **** 		}
 4065              		.loc 1 135 4 is_stmt 1 view .LVU1193
 135:../USER/main.c **** 		}
 4066              		.loc 1 135 13 is_stmt 0 view .LVU1194
 4067 0264 FFF7FEFF 		bl	GPIO_ReadBits
 4068              	.LVL247:
 135:../USER/main.c **** 		}
 4069              		.loc 1 135 11 view .LVU1195
 4070 0268 0A90     		str	r0, [sp, #40]
 133:../USER/main.c **** 			spi_read();
 4071              		.loc 1 133 17 view .LVU1196
 4072 026a 0A9B     		ldr	r3, [sp, #40]
 133:../USER/main.c **** 			spi_read();
 4073              		.loc 1 133 8 view .LVU1197
 4074 026c 5904     		lsls	r1, r3, #17
 4075 026e 0AD5     		bpl	.L400
 4076              	.L388:
 134:../USER/main.c **** 			gpiord = GPIO_ReadBits(GPIO0);
 4077              		.loc 1 134 4 is_stmt 1 view .LVU1198
 4078              	.LBB780:
 4079              	.LBI771:
 111:../USER/main.c **** 	char ch;
 4080              		.loc 1 111 6 view .LVU1199
 4081              	.LBB776:
 112:../USER/main.c **** 	ch = SPI_ReadData();
 4082              		.loc 1 112 2 view .LVU1200
 113:../USER/main.c **** 	if(ch!=0) kinbuf[kinbwp++] = ch;
 4083              		.loc 1 113 2 view .LVU1201
 113:../USER/main.c **** 	if(ch!=0) kinbuf[kinbwp++] = ch;
 4084              		.loc 1 113 7 is_stmt 0 view .LVU1202
 4085 0270 FFF7FEFF 		bl	SPI_ReadData
 4086              	.LVL248:
 114:../USER/main.c **** 	if(kinbwp>=256) kinbwp = 0;
 4087              		.loc 1 114 12 is_stmt 1 view .LVU1203
 113:../USER/main.c **** 	if(ch!=0) kinbuf[kinbwp++] = ch;
 4088              		.loc 1 113 5 is_stmt 0 view .LVU1204
 4089 0274 40B2     		sxtb	r0, r0
 4090              	.LVL249:
 114:../USER/main.c **** 	if(kinbwp>=256) kinbwp = 0;
 4091              		.loc 1 114 2 is_stmt 1 view .LVU1205
 114:../USER/main.c **** 	if(kinbwp>=256) kinbwp = 0;
 4092              		.loc 1 114 4 is_stmt 0 view .LVU1206
 4093 0276 0028     		cmp	r0, #0
 4094 0278 EED0     		beq	.L500
 114:../USER/main.c **** 	if(kinbwp>=256) kinbwp = 0;
 4095              		.loc 1 114 25 view .LVU1207
 4096 027a 2268     		ldr	r2, [r4]
 4097 027c 531C     		adds	r3, r2, #1
 114:../USER/main.c **** 	if(kinbwp>=256) kinbwp = 0;
 4098              		.loc 1 114 29 view .LVU1208
 4099 027e 0AF80200 		strb	r0, [r10, r2]
 114:../USER/main.c **** 	if(kinbwp>=256) kinbwp = 0;
 4100              		.loc 1 114 25 view .LVU1209
 4101 0282 2360     		str	r3, [r4]
 4102 0284 E9E7     		b	.L390
 4103              	.LVL250:
 4104              	.L400:
 114:../USER/main.c **** 	if(kinbwp>=256) kinbwp = 0;
 4105              		.loc 1 114 25 view .LVU1210
 4106              	.LBE776:
 4107              	.LBE780:
 4108              	.LBE770:
 4109              	.LBE769:
 4110              	.LBE768:
 4111              	.LBE767:
 4112              	.LBB781:
 4113              	.LBB782:
 4114              	.LBB783:
 4115              	.LBB784:
 137:../USER/main.c **** 	}
 4116              		.loc 1 137 3 is_stmt 1 view .LVU1211
 4117 0286 3046     		mov	r0, r6
 4118 0288 FFF7FEFF 		bl	SPI_WriteData
 4119              	.LVL251:
 4120              	.L387:
 4121              	.LBE784:
 4122              	.LBE783:
 4123              	.LBE782:
 4124              	.LBE781:
 4125              	.LBE766:
 4126              	.LBE765:
 142:../USER/main.c **** void puth4(dt) int dt;{ puth2((dt >> 8) & 0xff); puth2(dt & 0xff); }
 4127              		.loc 1 142 48 view .LVU1212
 4128 028c 05F00F05 		and	r5, r5, #15
 4129              	.LVL252:
 4130              	.LBB803:
 4131              	.LBI803:
 141:../USER/main.c **** void puth2(dt) int dt;{ puth((dt >> 4) & 0xf); puth(dt & 0xf); }
 4132              		.loc 1 141 6 view .LVU1213
 4133              	.LBB804:
 141:../USER/main.c **** void puth2(dt) int dt;{ puth((dt >> 4) & 0xf); puth(dt & 0xf); }
 4134              		.loc 1 141 24 view .LVU1214
 4135 0290 3B68     		ldr	r3, [r7]
 141:../USER/main.c **** void puth2(dt) int dt;{ puth((dt >> 4) & 0xf); puth(dt & 0xf); }
 4136              		.loc 1 141 26 is_stmt 0 view .LVU1215
 4137 0292 092D     		cmp	r5, #9
 4138 0294 03F40053 		and	r3, r3, #8192
 4139 0298 E8B2     		uxtb	r0, r5
 4140 029a 39DC     		bgt	.L401
 141:../USER/main.c **** void puth2(dt) int dt;{ puth((dt >> 4) & 0xf); puth(dt & 0xf); }
 4141              		.loc 1 141 34 is_stmt 1 view .LVU1216
 141:../USER/main.c **** void puth2(dt) int dt;{ puth((dt >> 4) & 0xf); puth(dt & 0xf); }
 4142              		.loc 1 141 44 is_stmt 0 view .LVU1217
 4143 029c 00F13005 		add	r5, r0, #48
 4144              	.LVL253:
 4145              	.LBB805:
 4146              	.LBI805:
 127:../USER/main.c **** 	volatile uint32_t gpiord;
 4147              		.loc 1 127 6 is_stmt 1 view .LVU1218
 4148              	.LBB806:
 128:../USER/main.c **** 	if((mdgpio & 0x2000)==0)
 4149              		.loc 1 128 2 view .LVU1219
 129:../USER/main.c **** 		UART_SendChar(UART0,ch);
 4150              		.loc 1 129 2 view .LVU1220
 129:../USER/main.c **** 		UART_SendChar(UART0,ch);
 4151              		.loc 1 129 4 is_stmt 0 view .LVU1221
 4152 02a0 002B     		cmp	r3, #0
 4153 02a2 00F01581 		beq	.L494
 4154              	.LVL254:
 4155              	.LBB807:
 4156              	.LBI807:
 127:../USER/main.c **** 	volatile uint32_t gpiord;
 4157              		.loc 1 127 6 is_stmt 1 view .LVU1222
 4158              	.LBB808:
 132:../USER/main.c **** 		while((gpiord & 0x4000)!=0) {
 4159              		.loc 1 132 3 view .LVU1223
 132:../USER/main.c **** 		while((gpiord & 0x4000)!=0) {
 4160              		.loc 1 132 10 is_stmt 0 view .LVU1224
 4161 02a6 4FF48043 		mov	r3, #16384
 4162 02aa 0C93     		str	r3, [sp, #48]
 133:../USER/main.c **** 			spi_read();
 4163              		.loc 1 133 3 is_stmt 1 view .LVU1225
 133:../USER/main.c **** 			spi_read();
 4164              		.loc 1 133 17 is_stmt 0 view .LVU1226
 4165 02ac 0C9B     		ldr	r3, [sp, #48]
 133:../USER/main.c **** 			spi_read();
 4166              		.loc 1 133 8 view .LVU1227
 4167 02ae 5804     		lsls	r0, r3, #17
 4168 02b0 24D5     		bpl	.L415
 4169 02b2 044C     		ldr	r4, .L507+4
 4170              	.LBB809:
 4171              	.LBB810:
 114:../USER/main.c **** 	if(kinbwp>=256) kinbwp = 0;
 4172              		.loc 1 114 29 view .LVU1228
 4173 02b4 DFF81480 		ldr	r8, .L507+12
 4174              	.LBE810:
 4175              	.LBE809:
 135:../USER/main.c **** 		}
 4176              		.loc 1 135 13 view .LVU1229
 4177 02b8 034E     		ldr	r6, .L507+8
 4178              	.LBB815:
 4179              	.LBB811:
 115:../USER/main.c **** }
 4180              		.loc 1 115 25 view .LVU1230
 4181 02ba 0027     		movs	r7, #0
 4182 02bc 13E0     		b	.L403
 4183              	.L508:
 4184 02be 00BF     		.align	2
 4185              	.L507:
 4186 02c0 00000000 		.word	mdgpio
 4187 02c4 00000000 		.word	.LANCHOR1
 4188 02c8 00000140 		.word	1073807360
 4189 02cc 00000000 		.word	kinbuf
 4190              	.LVL255:
 4191              	.L501:
 115:../USER/main.c **** }
 4192              		.loc 1 115 25 view .LVU1231
 4193 02d0 2368     		ldr	r3, [r4]
 4194              	.L405:
 115:../USER/main.c **** }
 4195              		.loc 1 115 2 is_stmt 1 view .LVU1232
 115:../USER/main.c **** }
 4196              		.loc 1 115 18 view .LVU1233
 4197              	.LVL256:
 115:../USER/main.c **** }
 4198              		.loc 1 115 18 is_stmt 0 view .LVU1234
 4199              	.LBE811:
 4200              	.LBE815:
 135:../USER/main.c **** 		}
 4201              		.loc 1 135 4 is_stmt 1 view .LVU1235
 4202              	.LBB816:
 4203              	.LBB812:
 115:../USER/main.c **** }
 4204              		.loc 1 115 4 is_stmt 0 view .LVU1236
 4205 02d2 FF2B     		cmp	r3, #255
 4206              	.LBE812:
 4207              	.LBE816:
 135:../USER/main.c **** 		}
 4208              		.loc 1 135 13 view .LVU1237
 4209 02d4 3046     		mov	r0, r6
 4210              	.LBB817:
 4211              	.LBB813:
 115:../USER/main.c **** }
 4212              		.loc 1 115 25 view .LVU1238
 4213 02d6 C8BF     		it	gt
 4214 02d8 2760     		strgt	r7, [r4]
 4215              	.LBE813:
 4216              	.LBE817:
 135:../USER/main.c **** 		}
 4217              		.loc 1 135 4 is_stmt 1 view .LVU1239
 135:../USER/main.c **** 		}
 4218              		.loc 1 135 13 is_stmt 0 view .LVU1240
 4219 02da FFF7FEFF 		bl	GPIO_ReadBits
 4220              	.LVL257:
 135:../USER/main.c **** 		}
 4221              		.loc 1 135 11 view .LVU1241
 4222 02de 0C90     		str	r0, [sp, #48]
 133:../USER/main.c **** 			spi_read();
 4223              		.loc 1 133 17 view .LVU1242
 4224 02e0 0C9B     		ldr	r3, [sp, #48]
 133:../USER/main.c **** 			spi_read();
 4225              		.loc 1 133 8 view .LVU1243
 4226 02e2 5904     		lsls	r1, r3, #17
 4227 02e4 0AD5     		bpl	.L415
 4228              	.L403:
 134:../USER/main.c **** 			gpiord = GPIO_ReadBits(GPIO0);
 4229              		.loc 1 134 4 is_stmt 1 view .LVU1244
 4230              	.LBB818:
 4231              	.LBI809:
 111:../USER/main.c **** 	char ch;
 4232              		.loc 1 111 6 view .LVU1245
 4233              	.LBB814:
 112:../USER/main.c **** 	ch = SPI_ReadData();
 4234              		.loc 1 112 2 view .LVU1246
 113:../USER/main.c **** 	if(ch!=0) kinbuf[kinbwp++] = ch;
 4235              		.loc 1 113 2 view .LVU1247
 113:../USER/main.c **** 	if(ch!=0) kinbuf[kinbwp++] = ch;
 4236              		.loc 1 113 7 is_stmt 0 view .LVU1248
 4237 02e6 FFF7FEFF 		bl	SPI_ReadData
 4238              	.LVL258:
 114:../USER/main.c **** 	if(kinbwp>=256) kinbwp = 0;
 4239              		.loc 1 114 12 is_stmt 1 view .LVU1249
 113:../USER/main.c **** 	if(ch!=0) kinbuf[kinbwp++] = ch;
 4240              		.loc 1 113 5 is_stmt 0 view .LVU1250
 4241 02ea 40B2     		sxtb	r0, r0
 4242              	.LVL259:
 114:../USER/main.c **** 	if(kinbwp>=256) kinbwp = 0;
 4243              		.loc 1 114 2 is_stmt 1 view .LVU1251
 114:../USER/main.c **** 	if(kinbwp>=256) kinbwp = 0;
 4244              		.loc 1 114 4 is_stmt 0 view .LVU1252
 4245 02ec 0028     		cmp	r0, #0
 4246 02ee EFD0     		beq	.L501
 114:../USER/main.c **** 	if(kinbwp>=256) kinbwp = 0;
 4247              		.loc 1 114 25 view .LVU1253
 4248 02f0 2268     		ldr	r2, [r4]
 4249 02f2 531C     		adds	r3, r2, #1
 114:../USER/main.c **** 	if(kinbwp>=256) kinbwp = 0;
 4250              		.loc 1 114 29 view .LVU1254
 4251 02f4 08F80200 		strb	r0, [r8, r2]
 114:../USER/main.c **** 	if(kinbwp>=256) kinbwp = 0;
 4252              		.loc 1 114 25 view .LVU1255
 4253 02f8 2360     		str	r3, [r4]
 4254 02fa EAE7     		b	.L405
 4255              	.LVL260:
 4256              	.L415:
 114:../USER/main.c **** 	if(kinbwp>=256) kinbwp = 0;
 4257              		.loc 1 114 25 view .LVU1256
 4258              	.LBE814:
 4259              	.LBE818:
 4260              	.LBE808:
 4261              	.LBE807:
 4262              	.LBE806:
 4263              	.LBE805:
 4264              	.LBB819:
 4265              	.LBB820:
 4266              	.LBB821:
 4267              	.LBB822:
 137:../USER/main.c **** 	}
 4268              		.loc 1 137 3 is_stmt 1 view .LVU1257
 4269 02fc 2846     		mov	r0, r5
 4270              	.LBE822:
 4271              	.LBE821:
 4272              	.LBE820:
 4273              	.LBE819:
 4274              	.LBE804:
 4275              	.LBE803:
 4276              	.LBE764:
 4277              	.LBE763:
 4278              	.LBE673:
 4279              	.LBE672:
 4280              		.loc 1 144 1 is_stmt 0 view .LVU1258
 4281 02fe 0FB0     		add	sp, sp, #60
 4282              		.cfi_remember_state
 4283              		.cfi_def_cfa_offset 36
 4284              		@ sp needed
 4285 0300 BDE8F04F 		pop	{r4, r5, r6, r7, r8, r9, r10, fp, lr}
 4286              		.cfi_restore 14
 4287              		.cfi_restore 11
 4288              		.cfi_restore 10
 4289              		.cfi_restore 9
 4290              		.cfi_restore 8
 4291              		.cfi_restore 7
 4292              		.cfi_restore 6
 4293              		.cfi_restore 5
 4294              		.cfi_restore 4
 4295              		.cfi_def_cfa_offset 0
 4296              	.LBB873:
 4297              	.LBB868:
 4298              	.LBB860:
 4299              	.LBB855:
 4300              	.LBB849:
 4301              	.LBB845:
 4302              	.LBB841:
 4303              	.LBB837:
 4304              	.LBB835:
 4305              	.LBB833:
 137:../USER/main.c **** 	}
 4306              		.loc 1 137 3 view .LVU1259
 4307 0304 FFF7FEBF 		b	SPI_WriteData
 4308              	.LVL261:
 4309              	.L336:
 4310              		.cfi_restore_state
 137:../USER/main.c **** 	}
 4311              		.loc 1 137 3 view .LVU1260
 4312              	.LBE833:
 4313              	.LBE835:
 4314              	.LBE837:
 4315              	.LBE841:
 4316              	.LBE845:
 4317              	.LBE849:
 4318              	.LBE855:
 4319              	.LBE860:
 4320              	.LBE868:
 4321              	.LBE873:
 4322              	.LBB874:
 4323              	.LBB668:
 4324              	.LBB664:
 4325              	.LBB624:
 4326              	.LBB622:
 4327              	.LBB621:
 4328              	.LBB620:
 4329              	.LBB619:
 137:../USER/main.c **** 	}
 4330              		.loc 1 137 3 is_stmt 1 view .LVU1261
 4331 0308 0198     		ldr	r0, [sp, #4]
 4332 030a FFF7FEFF 		bl	SPI_WriteData
 4333              	.LVL262:
 4334 030e E1E6     		b	.L323
 4335              	.LVL263:
 4336              	.L401:
 137:../USER/main.c **** 	}
 4337              		.loc 1 137 3 is_stmt 0 view .LVU1262
 4338              	.LBE619:
 4339              	.LBE620:
 4340              	.LBE621:
 4341              	.LBE622:
 4342              	.LBE624:
 4343              	.LBE664:
 4344              	.LBE668:
 4345              	.LBE874:
 4346              	.LBB875:
 4347              	.LBB869:
 4348              	.LBB861:
 4349              	.LBB856:
 4350              	.LBB850:
 4351              	.LBB846:
 141:../USER/main.c **** void puth2(dt) int dt;{ puth((dt >> 4) & 0xf); puth(dt & 0xf); }
 4352              		.loc 1 141 55 is_stmt 1 view .LVU1263
 141:../USER/main.c **** void puth2(dt) int dt;{ puth((dt >> 4) & 0xf); puth(dt & 0xf); }
 4353              		.loc 1 141 65 is_stmt 0 view .LVU1264
 4354 0310 00F13705 		add	r5, r0, #55
 4355              	.LVL264:
 4356              	.LBB842:
 4357              	.LBI819:
 127:../USER/main.c **** 	volatile uint32_t gpiord;
 4358              		.loc 1 127 6 is_stmt 1 view .LVU1265
 4359              	.LBB838:
 128:../USER/main.c **** 	if((mdgpio & 0x2000)==0)
 4360              		.loc 1 128 2 view .LVU1266
 129:../USER/main.c **** 		UART_SendChar(UART0,ch);
 4361              		.loc 1 129 2 view .LVU1267
 129:../USER/main.c **** 		UART_SendChar(UART0,ch);
 4362              		.loc 1 129 4 is_stmt 0 view .LVU1268
 4363 0314 002B     		cmp	r3, #0
 4364 0316 00F0DB80 		beq	.L494
 4365              	.LVL265:
 4366              	.LBB836:
 4367              	.LBI821:
 127:../USER/main.c **** 	volatile uint32_t gpiord;
 4368              		.loc 1 127 6 is_stmt 1 view .LVU1269
 4369              	.LBB834:
 132:../USER/main.c **** 		while((gpiord & 0x4000)!=0) {
 4370              		.loc 1 132 3 view .LVU1270
 132:../USER/main.c **** 		while((gpiord & 0x4000)!=0) {
 4371              		.loc 1 132 10 is_stmt 0 view .LVU1271
 4372 031a 4FF48043 		mov	r3, #16384
 4373 031e 0D93     		str	r3, [sp, #52]
 133:../USER/main.c **** 			spi_read();
 4374              		.loc 1 133 3 is_stmt 1 view .LVU1272
 133:../USER/main.c **** 			spi_read();
 4375              		.loc 1 133 17 is_stmt 0 view .LVU1273
 4376 0320 0D9B     		ldr	r3, [sp, #52]
 133:../USER/main.c **** 			spi_read();
 4377              		.loc 1 133 8 view .LVU1274
 4378 0322 5A04     		lsls	r2, r3, #17
 4379 0324 EAD5     		bpl	.L415
 4380 0326 744C     		ldr	r4, .L509
 4381              	.LBB823:
 4382              	.LBB824:
 114:../USER/main.c **** 	if(kinbwp>=256) kinbwp = 0;
 4383              		.loc 1 114 29 view .LVU1275
 4384 0328 DFF8D481 		ldr	r8, .L509+8
 4385              	.LBE824:
 4386              	.LBE823:
 135:../USER/main.c **** 		}
 4387              		.loc 1 135 13 view .LVU1276
 4388 032c 734E     		ldr	r6, .L509+4
 4389              	.LBB829:
 4390              	.LBB825:
 115:../USER/main.c **** }
 4391              		.loc 1 115 25 view .LVU1277
 4392 032e 0027     		movs	r7, #0
 4393 0330 0AE0     		b	.L410
 4394              	.LVL266:
 4395              	.L502:
 115:../USER/main.c **** }
 4396              		.loc 1 115 25 view .LVU1278
 4397 0332 2368     		ldr	r3, [r4]
 4398              	.L412:
 115:../USER/main.c **** }
 4399              		.loc 1 115 2 is_stmt 1 view .LVU1279
 115:../USER/main.c **** }
 4400              		.loc 1 115 18 view .LVU1280
 4401              	.LVL267:
 115:../USER/main.c **** }
 4402              		.loc 1 115 18 is_stmt 0 view .LVU1281
 4403              	.LBE825:
 4404              	.LBE829:
 135:../USER/main.c **** 		}
 4405              		.loc 1 135 4 is_stmt 1 view .LVU1282
 4406              	.LBB830:
 4407              	.LBB826:
 115:../USER/main.c **** }
 4408              		.loc 1 115 4 is_stmt 0 view .LVU1283
 4409 0334 FF2B     		cmp	r3, #255
 4410              	.LBE826:
 4411              	.LBE830:
 135:../USER/main.c **** 		}
 4412              		.loc 1 135 13 view .LVU1284
 4413 0336 3046     		mov	r0, r6
 4414              	.LBB831:
 4415              	.LBB827:
 115:../USER/main.c **** }
 4416              		.loc 1 115 25 view .LVU1285
 4417 0338 C8BF     		it	gt
 4418 033a 2760     		strgt	r7, [r4]
 4419              	.LBE827:
 4420              	.LBE831:
 135:../USER/main.c **** 		}
 4421              		.loc 1 135 4 is_stmt 1 view .LVU1286
 135:../USER/main.c **** 		}
 4422              		.loc 1 135 13 is_stmt 0 view .LVU1287
 4423 033c FFF7FEFF 		bl	GPIO_ReadBits
 4424              	.LVL268:
 135:../USER/main.c **** 		}
 4425              		.loc 1 135 11 view .LVU1288
 4426 0340 0D90     		str	r0, [sp, #52]
 133:../USER/main.c **** 			spi_read();
 4427              		.loc 1 133 17 view .LVU1289
 4428 0342 0D9B     		ldr	r3, [sp, #52]
 133:../USER/main.c **** 			spi_read();
 4429              		.loc 1 133 8 view .LVU1290
 4430 0344 5B04     		lsls	r3, r3, #17
 4431 0346 D9D5     		bpl	.L415
 4432              	.L410:
 134:../USER/main.c **** 			gpiord = GPIO_ReadBits(GPIO0);
 4433              		.loc 1 134 4 is_stmt 1 view .LVU1291
 4434              	.LBB832:
 4435              	.LBI823:
 111:../USER/main.c **** 	char ch;
 4436              		.loc 1 111 6 view .LVU1292
 4437              	.LBB828:
 112:../USER/main.c **** 	ch = SPI_ReadData();
 4438              		.loc 1 112 2 view .LVU1293
 113:../USER/main.c **** 	if(ch!=0) kinbuf[kinbwp++] = ch;
 4439              		.loc 1 113 2 view .LVU1294
 113:../USER/main.c **** 	if(ch!=0) kinbuf[kinbwp++] = ch;
 4440              		.loc 1 113 7 is_stmt 0 view .LVU1295
 4441 0348 FFF7FEFF 		bl	SPI_ReadData
 4442              	.LVL269:
 114:../USER/main.c **** 	if(kinbwp>=256) kinbwp = 0;
 4443              		.loc 1 114 12 is_stmt 1 view .LVU1296
 113:../USER/main.c **** 	if(ch!=0) kinbuf[kinbwp++] = ch;
 4444              		.loc 1 113 5 is_stmt 0 view .LVU1297
 4445 034c 40B2     		sxtb	r0, r0
 4446              	.LVL270:
 114:../USER/main.c **** 	if(kinbwp>=256) kinbwp = 0;
 4447              		.loc 1 114 2 is_stmt 1 view .LVU1298
 114:../USER/main.c **** 	if(kinbwp>=256) kinbwp = 0;
 4448              		.loc 1 114 4 is_stmt 0 view .LVU1299
 4449 034e 0028     		cmp	r0, #0
 4450 0350 EFD0     		beq	.L502
 114:../USER/main.c **** 	if(kinbwp>=256) kinbwp = 0;
 4451              		.loc 1 114 25 view .LVU1300
 4452 0352 2268     		ldr	r2, [r4]
 4453 0354 531C     		adds	r3, r2, #1
 114:../USER/main.c **** 	if(kinbwp>=256) kinbwp = 0;
 4454              		.loc 1 114 29 view .LVU1301
 4455 0356 08F80200 		strb	r0, [r8, r2]
 114:../USER/main.c **** 	if(kinbwp>=256) kinbwp = 0;
 4456              		.loc 1 114 25 view .LVU1302
 4457 035a 2360     		str	r3, [r4]
 4458 035c EAE7     		b	.L412
 4459              	.LVL271:
 4460              	.L337:
 114:../USER/main.c **** 	if(kinbwp>=256) kinbwp = 0;
 4461              		.loc 1 114 25 view .LVU1303
 4462              	.LBE828:
 4463              	.LBE832:
 4464              	.LBE834:
 4465              	.LBE836:
 4466              	.LBE838:
 4467              	.LBE842:
 4468              	.LBE846:
 4469              	.LBE850:
 4470              	.LBE856:
 4471              	.LBE861:
 4472              	.LBE869:
 4473              	.LBE875:
 4474              	.LBB876:
 4475              	.LBB669:
 4476              	.LBB665:
 4477              	.LBB662:
 141:../USER/main.c **** void puth2(dt) int dt;{ puth((dt >> 4) & 0xf); puth(dt & 0xf); }
 4478              		.loc 1 141 55 is_stmt 1 view .LVU1304
 141:../USER/main.c **** void puth2(dt) int dt;{ puth((dt >> 4) & 0xf); puth(dt & 0xf); }
 4479              		.loc 1 141 65 is_stmt 0 view .LVU1305
 4480 035e 02F13708 		add	r8, r2, #55
 4481              	.LVL272:
 4482              	.LBB660:
 4483              	.LBI642:
 127:../USER/main.c **** 	volatile uint32_t gpiord;
 4484              		.loc 1 127 6 is_stmt 1 view .LVU1306
 4485              	.LBB658:
 128:../USER/main.c **** 	if((mdgpio & 0x2000)==0)
 4486              		.loc 1 128 2 view .LVU1307
 129:../USER/main.c **** 		UART_SendChar(UART0,ch);
 4487              		.loc 1 129 2 view .LVU1308
 129:../USER/main.c **** 		UART_SendChar(UART0,ch);
 4488              		.loc 1 129 4 is_stmt 0 view .LVU1309
 4489 0362 002B     		cmp	r3, #0
 4490 0364 00F0BC80 		beq	.L474
 4491              	.LVL273:
 4492              	.LBB657:
 4493              	.LBI644:
 127:../USER/main.c **** 	volatile uint32_t gpiord;
 4494              		.loc 1 127 6 is_stmt 1 view .LVU1310
 4495              	.LBB656:
 132:../USER/main.c **** 		while((gpiord & 0x4000)!=0) {
 4496              		.loc 1 132 3 view .LVU1311
 132:../USER/main.c **** 		while((gpiord & 0x4000)!=0) {
 4497              		.loc 1 132 10 is_stmt 0 view .LVU1312
 4498 0368 4FF48043 		mov	r3, #16384
 4499 036c 0593     		str	r3, [sp, #20]
 133:../USER/main.c **** 			spi_read();
 4500              		.loc 1 133 3 is_stmt 1 view .LVU1313
 133:../USER/main.c **** 			spi_read();
 4501              		.loc 1 133 17 is_stmt 0 view .LVU1314
 4502 036e 059B     		ldr	r3, [sp, #20]
 133:../USER/main.c **** 			spi_read();
 4503              		.loc 1 133 8 view .LVU1315
 4504 0370 5A04     		lsls	r2, r3, #17
 4505 0372 7FF5E4AE 		bpl	.L352
 4506 0376 604C     		ldr	r4, .L509
 4507              	.LBB646:
 4508              	.LBB647:
 114:../USER/main.c **** 	if(kinbwp>=256) kinbwp = 0;
 4509              		.loc 1 114 29 view .LVU1316
 4510 0378 DFF884B1 		ldr	fp, .L509+8
 4511              	.LBE647:
 4512              	.LBE646:
 135:../USER/main.c **** 		}
 4513              		.loc 1 135 13 view .LVU1317
 4514 037c DFF87C91 		ldr	r9, .L509+4
 4515              	.LBB652:
 4516              	.LBB648:
 115:../USER/main.c **** }
 4517              		.loc 1 115 25 view .LVU1318
 4518 0380 4FF0000A 		mov	r10, #0
 4519 0384 0CE0     		b	.L347
 4520              	.LVL274:
 4521              	.L503:
 115:../USER/main.c **** }
 4522              		.loc 1 115 25 view .LVU1319
 4523 0386 2368     		ldr	r3, [r4]
 4524              	.L349:
 115:../USER/main.c **** }
 4525              		.loc 1 115 2 is_stmt 1 view .LVU1320
 115:../USER/main.c **** }
 4526              		.loc 1 115 18 view .LVU1321
 4527              	.LVL275:
 115:../USER/main.c **** }
 4528              		.loc 1 115 18 is_stmt 0 view .LVU1322
 4529              	.LBE648:
 4530              	.LBE652:
 135:../USER/main.c **** 		}
 4531              		.loc 1 135 4 is_stmt 1 view .LVU1323
 4532              	.LBB653:
 4533              	.LBB649:
 115:../USER/main.c **** }
 4534              		.loc 1 115 4 is_stmt 0 view .LVU1324
 4535 0388 FF2B     		cmp	r3, #255
 4536              	.LBE649:
 4537              	.LBE653:
 135:../USER/main.c **** 		}
 4538              		.loc 1 135 13 view .LVU1325
 4539 038a 4846     		mov	r0, r9
 4540              	.LBB654:
 4541              	.LBB650:
 115:../USER/main.c **** }
 4542              		.loc 1 115 25 view .LVU1326
 4543 038c C8BF     		it	gt
 4544 038e C4F800A0 		strgt	r10, [r4]
 4545              	.LBE650:
 4546              	.LBE654:
 135:../USER/main.c **** 		}
 4547              		.loc 1 135 4 is_stmt 1 view .LVU1327
 135:../USER/main.c **** 		}
 4548              		.loc 1 135 13 is_stmt 0 view .LVU1328
 4549 0392 FFF7FEFF 		bl	GPIO_ReadBits
 4550              	.LVL276:
 135:../USER/main.c **** 		}
 4551              		.loc 1 135 11 view .LVU1329
 4552 0396 0590     		str	r0, [sp, #20]
 133:../USER/main.c **** 			spi_read();
 4553              		.loc 1 133 17 view .LVU1330
 4554 0398 059B     		ldr	r3, [sp, #20]
 133:../USER/main.c **** 			spi_read();
 4555              		.loc 1 133 8 view .LVU1331
 4556 039a 5B04     		lsls	r3, r3, #17
 4557 039c 7FF5CFAE 		bpl	.L352
 4558              	.L347:
 134:../USER/main.c **** 			gpiord = GPIO_ReadBits(GPIO0);
 4559              		.loc 1 134 4 is_stmt 1 view .LVU1332
 4560              	.LBB655:
 4561              	.LBI646:
 111:../USER/main.c **** 	char ch;
 4562              		.loc 1 111 6 view .LVU1333
 4563              	.LBB651:
 112:../USER/main.c **** 	ch = SPI_ReadData();
 4564              		.loc 1 112 2 view .LVU1334
 113:../USER/main.c **** 	if(ch!=0) kinbuf[kinbwp++] = ch;
 4565              		.loc 1 113 2 view .LVU1335
 113:../USER/main.c **** 	if(ch!=0) kinbuf[kinbwp++] = ch;
 4566              		.loc 1 113 7 is_stmt 0 view .LVU1336
 4567 03a0 FFF7FEFF 		bl	SPI_ReadData
 4568              	.LVL277:
 114:../USER/main.c **** 	if(kinbwp>=256) kinbwp = 0;
 4569              		.loc 1 114 12 is_stmt 1 view .LVU1337
 113:../USER/main.c **** 	if(ch!=0) kinbuf[kinbwp++] = ch;
 4570              		.loc 1 113 5 is_stmt 0 view .LVU1338
 4571 03a4 40B2     		sxtb	r0, r0
 4572              	.LVL278:
 114:../USER/main.c **** 	if(kinbwp>=256) kinbwp = 0;
 4573              		.loc 1 114 2 is_stmt 1 view .LVU1339
 114:../USER/main.c **** 	if(kinbwp>=256) kinbwp = 0;
 4574              		.loc 1 114 4 is_stmt 0 view .LVU1340
 4575 03a6 0028     		cmp	r0, #0
 4576 03a8 EDD0     		beq	.L503
 114:../USER/main.c **** 	if(kinbwp>=256) kinbwp = 0;
 4577              		.loc 1 114 25 view .LVU1341
 4578 03aa 2268     		ldr	r2, [r4]
 4579 03ac 531C     		adds	r3, r2, #1
 114:../USER/main.c **** 	if(kinbwp>=256) kinbwp = 0;
 4580              		.loc 1 114 29 view .LVU1342
 4581 03ae 0BF80200 		strb	r0, [fp, r2]
 114:../USER/main.c **** 	if(kinbwp>=256) kinbwp = 0;
 4582              		.loc 1 114 25 view .LVU1343
 4583 03b2 2360     		str	r3, [r4]
 4584 03b4 E8E7     		b	.L349
 4585              	.LVL279:
 4586              	.L353:
 114:../USER/main.c **** 	if(kinbwp>=256) kinbwp = 0;
 4587              		.loc 1 114 25 view .LVU1344
 4588              	.LBE651:
 4589              	.LBE655:
 4590              	.LBE656:
 4591              	.LBE657:
 4592              	.LBE658:
 4593              	.LBE660:
 4594              	.LBE662:
 4595              	.LBE665:
 4596              	.LBE669:
 4597              	.LBE876:
 4598              	.LBB877:
 4599              	.LBB870:
 4600              	.LBB862:
 4601              	.LBB759:
 4602              	.LBB754:
 4603              	.LBB713:
 141:../USER/main.c **** void puth2(dt) int dt;{ puth((dt >> 4) & 0xf); puth(dt & 0xf); }
 4604              		.loc 1 141 55 is_stmt 1 view .LVU1345
 141:../USER/main.c **** void puth2(dt) int dt;{ puth((dt >> 4) & 0xf); puth(dt & 0xf); }
 4605              		.loc 1 141 65 is_stmt 0 view .LVU1346
 4606 03b6 08F13708 		add	r8, r8, #55
 4607              	.LVL280:
 4608              	.LBB710:
 4609              	.LBI692:
 127:../USER/main.c **** 	volatile uint32_t gpiord;
 4610              		.loc 1 127 6 is_stmt 1 view .LVU1347
 4611              	.LBB708:
 128:../USER/main.c **** 	if((mdgpio & 0x2000)==0)
 4612              		.loc 1 128 2 view .LVU1348
 129:../USER/main.c **** 		UART_SendChar(UART0,ch);
 4613              		.loc 1 129 2 view .LVU1349
 129:../USER/main.c **** 		UART_SendChar(UART0,ch);
 4614              		.loc 1 129 4 is_stmt 0 view .LVU1350
 4615 03ba 002B     		cmp	r3, #0
 4616 03bc 7CD0     		beq	.L479
 4617              	.LVL281:
 4618              	.LBB707:
 4619              	.LBI694:
 127:../USER/main.c **** 	volatile uint32_t gpiord;
 4620              		.loc 1 127 6 is_stmt 1 view .LVU1351
 4621              	.LBB706:
 132:../USER/main.c **** 		while((gpiord & 0x4000)!=0) {
 4622              		.loc 1 132 3 view .LVU1352
 132:../USER/main.c **** 		while((gpiord & 0x4000)!=0) {
 4623              		.loc 1 132 10 is_stmt 0 view .LVU1353
 4624 03be 4FF48043 		mov	r3, #16384
 4625 03c2 0793     		str	r3, [sp, #28]
 133:../USER/main.c **** 			spi_read();
 4626              		.loc 1 133 3 is_stmt 1 view .LVU1354
 133:../USER/main.c **** 			spi_read();
 4627              		.loc 1 133 17 is_stmt 0 view .LVU1355
 4628 03c4 079B     		ldr	r3, [sp, #28]
 133:../USER/main.c **** 			spi_read();
 4629              		.loc 1 133 8 view .LVU1356
 4630 03c6 5A04     		lsls	r2, r3, #17
 4631              	.LVL282:
 133:../USER/main.c **** 			spi_read();
 4632              		.loc 1 133 8 view .LVU1357
 4633 03c8 7FF5F1AE 		bpl	.L368
 4634 03cc 4A4C     		ldr	r4, .L509
 4635              	.LBB696:
 4636              	.LBB697:
 114:../USER/main.c **** 	if(kinbwp>=256) kinbwp = 0;
 4637              		.loc 1 114 29 view .LVU1358
 4638 03ce DFF830B1 		ldr	fp, .L509+8
 4639              	.LBE697:
 4640              	.LBE696:
 135:../USER/main.c **** 		}
 4641              		.loc 1 135 13 view .LVU1359
 4642 03d2 DFF82891 		ldr	r9, .L509+4
 4643              	.LBB702:
 4644              	.LBB698:
 115:../USER/main.c **** }
 4645              		.loc 1 115 25 view .LVU1360
 4646 03d6 4FF0000A 		mov	r10, #0
 4647 03da 0CE0     		b	.L363
 4648              	.LVL283:
 4649              	.L504:
 115:../USER/main.c **** }
 4650              		.loc 1 115 25 view .LVU1361
 4651 03dc 2368     		ldr	r3, [r4]
 4652              	.L365:
 115:../USER/main.c **** }
 4653              		.loc 1 115 2 is_stmt 1 view .LVU1362
 115:../USER/main.c **** }
 4654              		.loc 1 115 18 view .LVU1363
 4655              	.LVL284:
 115:../USER/main.c **** }
 4656              		.loc 1 115 18 is_stmt 0 view .LVU1364
 4657              	.LBE698:
 4658              	.LBE702:
 135:../USER/main.c **** 		}
 4659              		.loc 1 135 4 is_stmt 1 view .LVU1365
 4660              	.LBB703:
 4661              	.LBB699:
 115:../USER/main.c **** }
 4662              		.loc 1 115 4 is_stmt 0 view .LVU1366
 4663 03de FF2B     		cmp	r3, #255
 4664              	.LBE699:
 4665              	.LBE703:
 135:../USER/main.c **** 		}
 4666              		.loc 1 135 13 view .LVU1367
 4667 03e0 4846     		mov	r0, r9
 4668              	.LBB704:
 4669              	.LBB700:
 115:../USER/main.c **** }
 4670              		.loc 1 115 25 view .LVU1368
 4671 03e2 C8BF     		it	gt
 4672 03e4 C4F800A0 		strgt	r10, [r4]
 4673              	.LBE700:
 4674              	.LBE704:
 135:../USER/main.c **** 		}
 4675              		.loc 1 135 4 is_stmt 1 view .LVU1369
 135:../USER/main.c **** 		}
 4676              		.loc 1 135 13 is_stmt 0 view .LVU1370
 4677 03e8 FFF7FEFF 		bl	GPIO_ReadBits
 4678              	.LVL285:
 135:../USER/main.c **** 		}
 4679              		.loc 1 135 11 view .LVU1371
 4680 03ec 0790     		str	r0, [sp, #28]
 133:../USER/main.c **** 			spi_read();
 4681              		.loc 1 133 17 view .LVU1372
 4682 03ee 079B     		ldr	r3, [sp, #28]
 133:../USER/main.c **** 			spi_read();
 4683              		.loc 1 133 8 view .LVU1373
 4684 03f0 5B04     		lsls	r3, r3, #17
 4685 03f2 7FF5DCAE 		bpl	.L368
 4686              	.L363:
 134:../USER/main.c **** 			gpiord = GPIO_ReadBits(GPIO0);
 4687              		.loc 1 134 4 is_stmt 1 view .LVU1374
 4688              	.LBB705:
 4689              	.LBI696:
 111:../USER/main.c **** 	char ch;
 4690              		.loc 1 111 6 view .LVU1375
 4691              	.LBB701:
 112:../USER/main.c **** 	ch = SPI_ReadData();
 4692              		.loc 1 112 2 view .LVU1376
 113:../USER/main.c **** 	if(ch!=0) kinbuf[kinbwp++] = ch;
 4693              		.loc 1 113 2 view .LVU1377
 113:../USER/main.c **** 	if(ch!=0) kinbuf[kinbwp++] = ch;
 4694              		.loc 1 113 7 is_stmt 0 view .LVU1378
 4695 03f6 FFF7FEFF 		bl	SPI_ReadData
 4696              	.LVL286:
 114:../USER/main.c **** 	if(kinbwp>=256) kinbwp = 0;
 4697              		.loc 1 114 12 is_stmt 1 view .LVU1379
 113:../USER/main.c **** 	if(ch!=0) kinbuf[kinbwp++] = ch;
 4698              		.loc 1 113 5 is_stmt 0 view .LVU1380
 4699 03fa 40B2     		sxtb	r0, r0
 4700              	.LVL287:
 114:../USER/main.c **** 	if(kinbwp>=256) kinbwp = 0;
 4701              		.loc 1 114 2 is_stmt 1 view .LVU1381
 114:../USER/main.c **** 	if(kinbwp>=256) kinbwp = 0;
 4702              		.loc 1 114 4 is_stmt 0 view .LVU1382
 4703 03fc 0028     		cmp	r0, #0
 4704 03fe EDD0     		beq	.L504
 114:../USER/main.c **** 	if(kinbwp>=256) kinbwp = 0;
 4705              		.loc 1 114 25 view .LVU1383
 4706 0400 2268     		ldr	r2, [r4]
 4707 0402 531C     		adds	r3, r2, #1
 114:../USER/main.c **** 	if(kinbwp>=256) kinbwp = 0;
 4708              		.loc 1 114 29 view .LVU1384
 4709 0404 0BF80200 		strb	r0, [fp, r2]
 114:../USER/main.c **** 	if(kinbwp>=256) kinbwp = 0;
 4710              		.loc 1 114 25 view .LVU1385
 4711 0408 2360     		str	r3, [r4]
 4712 040a E8E7     		b	.L365
 4713              	.LVL288:
 4714              	.L385:
 114:../USER/main.c **** 	if(kinbwp>=256) kinbwp = 0;
 4715              		.loc 1 114 25 view .LVU1386
 4716              	.LBE701:
 4717              	.LBE705:
 4718              	.LBE706:
 4719              	.LBE707:
 4720              	.LBE708:
 4721              	.LBE710:
 4722              	.LBE713:
 4723              	.LBE754:
 4724              	.LBE759:
 4725              	.LBE862:
 4726              	.LBB863:
 4727              	.LBB857:
 4728              	.LBB851:
 4729              	.LBB801:
 141:../USER/main.c **** void puth2(dt) int dt;{ puth((dt >> 4) & 0xf); puth(dt & 0xf); }
 4730              		.loc 1 141 55 is_stmt 1 view .LVU1387
 141:../USER/main.c **** void puth2(dt) int dt;{ puth((dt >> 4) & 0xf); puth(dt & 0xf); }
 4731              		.loc 1 141 65 is_stmt 0 view .LVU1388
 4732 040c 00F13706 		add	r6, r0, #55
 4733              	.LVL289:
 4734              	.LBB799:
 4735              	.LBI781:
 127:../USER/main.c **** 	volatile uint32_t gpiord;
 4736              		.loc 1 127 6 is_stmt 1 view .LVU1389
 4737              	.LBB797:
 128:../USER/main.c **** 	if((mdgpio & 0x2000)==0)
 4738              		.loc 1 128 2 view .LVU1390
 129:../USER/main.c **** 		UART_SendChar(UART0,ch);
 4739              		.loc 1 129 2 view .LVU1391
 129:../USER/main.c **** 		UART_SendChar(UART0,ch);
 4740              		.loc 1 129 4 is_stmt 0 view .LVU1392
 4741 0410 002A     		cmp	r2, #0
 4742 0412 57D0     		beq	.L489
 4743              	.LVL290:
 4744              	.LBB796:
 4745              	.LBI783:
 127:../USER/main.c **** 	volatile uint32_t gpiord;
 4746              		.loc 1 127 6 is_stmt 1 view .LVU1393
 4747              	.LBB795:
 132:../USER/main.c **** 		while((gpiord & 0x4000)!=0) {
 4748              		.loc 1 132 3 view .LVU1394
 132:../USER/main.c **** 		while((gpiord & 0x4000)!=0) {
 4749              		.loc 1 132 10 is_stmt 0 view .LVU1395
 4750 0414 4FF48043 		mov	r3, #16384
 4751 0418 0B93     		str	r3, [sp, #44]
 133:../USER/main.c **** 			spi_read();
 4752              		.loc 1 133 3 is_stmt 1 view .LVU1396
 133:../USER/main.c **** 			spi_read();
 4753              		.loc 1 133 17 is_stmt 0 view .LVU1397
 4754 041a 0B9B     		ldr	r3, [sp, #44]
 133:../USER/main.c **** 			spi_read();
 4755              		.loc 1 133 8 view .LVU1398
 4756 041c 5A04     		lsls	r2, r3, #17
 4757 041e 7FF532AF 		bpl	.L400
 4758 0422 354C     		ldr	r4, .L509
 4759              	.LBB785:
 4760              	.LBB786:
 114:../USER/main.c **** 	if(kinbwp>=256) kinbwp = 0;
 4761              		.loc 1 114 29 view .LVU1399
 4762 0424 DFF8D8A0 		ldr	r10, .L509+8
 4763              	.LBE786:
 4764              	.LBE785:
 135:../USER/main.c **** 		}
 4765              		.loc 1 135 13 view .LVU1400
 4766 0428 DFF8D080 		ldr	r8, .L509+4
 4767              	.LBB791:
 4768              	.LBB787:
 115:../USER/main.c **** }
 4769              		.loc 1 115 25 view .LVU1401
 4770 042c 4FF00009 		mov	r9, #0
 4771 0430 0CE0     		b	.L395
 4772              	.LVL291:
 4773              	.L505:
 115:../USER/main.c **** }
 4774              		.loc 1 115 25 view .LVU1402
 4775 0432 2368     		ldr	r3, [r4]
 4776              	.L397:
 115:../USER/main.c **** }
 4777              		.loc 1 115 2 is_stmt 1 view .LVU1403
 115:../USER/main.c **** }
 4778              		.loc 1 115 18 view .LVU1404
 4779              	.LVL292:
 115:../USER/main.c **** }
 4780              		.loc 1 115 18 is_stmt 0 view .LVU1405
 4781              	.LBE787:
 4782              	.LBE791:
 135:../USER/main.c **** 		}
 4783              		.loc 1 135 4 is_stmt 1 view .LVU1406
 4784              	.LBB792:
 4785              	.LBB788:
 115:../USER/main.c **** }
 4786              		.loc 1 115 4 is_stmt 0 view .LVU1407
 4787 0434 FF2B     		cmp	r3, #255
 4788              	.LBE788:
 4789              	.LBE792:
 135:../USER/main.c **** 		}
 4790              		.loc 1 135 13 view .LVU1408
 4791 0436 4046     		mov	r0, r8
 4792              	.LBB793:
 4793              	.LBB789:
 115:../USER/main.c **** }
 4794              		.loc 1 115 25 view .LVU1409
 4795 0438 C8BF     		it	gt
 4796 043a C4F80090 		strgt	r9, [r4]
 4797              	.LBE789:
 4798              	.LBE793:
 135:../USER/main.c **** 		}
 4799              		.loc 1 135 4 is_stmt 1 view .LVU1410
 135:../USER/main.c **** 		}
 4800              		.loc 1 135 13 is_stmt 0 view .LVU1411
 4801 043e FFF7FEFF 		bl	GPIO_ReadBits
 4802              	.LVL293:
 135:../USER/main.c **** 		}
 4803              		.loc 1 135 11 view .LVU1412
 4804 0442 0B90     		str	r0, [sp, #44]
 133:../USER/main.c **** 			spi_read();
 4805              		.loc 1 133 17 view .LVU1413
 4806 0444 0B9B     		ldr	r3, [sp, #44]
 133:../USER/main.c **** 			spi_read();
 4807              		.loc 1 133 8 view .LVU1414
 4808 0446 5B04     		lsls	r3, r3, #17
 4809 0448 7FF51DAF 		bpl	.L400
 4810              	.L395:
 134:../USER/main.c **** 			gpiord = GPIO_ReadBits(GPIO0);
 4811              		.loc 1 134 4 is_stmt 1 view .LVU1415
