   1              		.cpu cortex-m3
   2              		.eabi_attribute 20, 1
   3              		.eabi_attribute 21, 1
   4              		.eabi_attribute 23, 3
   5              		.eabi_attribute 24, 1
   6              		.eabi_attribute 25, 1
   7              		.eabi_attribute 26, 1
   8              		.eabi_attribute 30, 2
   9              		.eabi_attribute 34, 1
  10              		.eabi_attribute 18, 4
  11              		.file	"vramdisp.c"
  12              		.text
  13              	.Ltext0:
  14              		.cfi_sections	.debug_frame
  15              		.section	.text.set_vramdata_f6.constprop.1,"ax",%progbits
  16              		.align	1
  17              		.p2align 2,,3
  18              		.arch armv7-m
  19              		.syntax unified
  20              		.thumb
  21              		.thumb_func
  22              		.fpu softvfp
  24              	set_vramdata_f6.constprop.1:
  25              	.LFB52:
  26              		.file 1 "../USER/vramdisp.c"
   1:../USER/vramdisp.c **** #include "gw1ns4c.h"
   2:../USER/vramdisp.c **** const unsigned char FONT_8x8[];
   3:../USER/vramdisp.c **** 
   4:../USER/vramdisp.c **** extern void putchuart();
   5:../USER/vramdisp.c **** extern void puth2();
   6:../USER/vramdisp.c **** 
   7:../USER/vramdisp.c **** volatile unsigned char pd;
   8:../USER/vramdisp.c **** short aryex[512];
   9:../USER/vramdisp.c **** //unsigned char wddt[37];
  10:../USER/vramdisp.c **** union wddt_t {
  11:../USER/vramdisp.c **** 	unsigned char b[37];
  12:../USER/vramdisp.c **** 	short         s[18];
  13:../USER/vramdisp.c **** 	unsigned int  i[9];
  14:../USER/vramdisp.c **** } wddt;
  15:../USER/vramdisp.c **** #define u16 unsigned short
  16:../USER/vramdisp.c **** 
  17:../USER/vramdisp.c **** void set_vramadr(int adry, int adrx){
  18:../USER/vramdisp.c **** 	int adr;
  19:../USER/vramdisp.c **** 	adr = ((adry)*40+adrx)*32;
  20:../USER/vramdisp.c **** 	GPIO_WriteBits(GPIO0,0x0000);	// dir=in clk = Lo
  21:../USER/vramdisp.c **** 	do{pd = GPIO_ReadBits(GPIO0);}  while((pd & 1)!=0);		// Wait Busy
  22:../USER/vramdisp.c **** 	wddt.i[0] = adr;
  23:../USER/vramdisp.c **** }
  24:../USER/vramdisp.c **** void get_vramdata(int dl){
  25:../USER/vramdisp.c **** 	unsigned char i,dt;
  26:../USER/vramdisp.c **** 	GPIO_WriteBits(GPIO0,0x0000);	// dir=in clk = Lo
  27:../USER/vramdisp.c **** 	do{pd = GPIO_ReadBits(GPIO0);}  while((pd & 1)!=0);		// Wait Busy
  28:../USER/vramdisp.c **** 	for(i=0;i<dl; i++){
  29:../USER/vramdisp.c **** 		GPIO_WriteBits(GPIO0,0x100);
  30:../USER/vramdisp.c **** 		wddt.b[i+4] = GPIO_ReadBits(GPIO0);
  31:../USER/vramdisp.c **** 		GPIO_WriteBits(GPIO0,0x000);
  32:../USER/vramdisp.c **** 	}
  33:../USER/vramdisp.c **** 	GPIO_WriteBits(GPIO0,0x0000);	// dir=in clk = Lo
  34:../USER/vramdisp.c **** 
  35:../USER/vramdisp.c **** }
  36:../USER/vramdisp.c **** void get_vram(int adry, int adrx){
  37:../USER/vramdisp.c **** 	unsigned char i,dt;
  38:../USER/vramdisp.c **** 	if(adry==-1) { adry=0; adrx=0;}
  39:../USER/vramdisp.c **** 	set_vramadr(adry, adrx);
  40:../USER/vramdisp.c **** 	GPIO_WriteBits(GPIO0,0x200);	// dir=out clk=Lo
  41:../USER/vramdisp.c **** 	for(i=0;i<4;i++){	// send addr
  42:../USER/vramdisp.c **** 		dt = wddt.b[i];
  43:../USER/vramdisp.c **** 		GPIO_WriteBits(GPIO0,0x200+dt);
  44:../USER/vramdisp.c **** 		GPIO_WriteBits(GPIO0,0x300+dt);
  45:../USER/vramdisp.c **** 	}
  46:../USER/vramdisp.c **** 	get_vramdata(32);
  47:../USER/vramdisp.c **** }
  48:../USER/vramdisp.c **** 
  49:../USER/vramdisp.c **** void set_vramdata(int dl){
  50:../USER/vramdisp.c **** 	unsigned char i, dt;
  51:../USER/vramdisp.c **** 	GPIO_WriteBits(GPIO0,0x0000);	// dir=in clk = Lo
  52:../USER/vramdisp.c **** 	do{pd = GPIO_ReadBits(GPIO0);}  while((pd & 1)!=0);		// Wait Busy
  53:../USER/vramdisp.c **** 	GPIO_WriteBits(GPIO0,0x200);	// dir=out clk=Lo
  54:../USER/vramdisp.c **** 	for(i=0;i<dl;i++){
  55:../USER/vramdisp.c **** 		dt = wddt.b[i];
  56:../USER/vramdisp.c **** 		GPIO_WriteBits(GPIO0,0x300+dt);
  57:../USER/vramdisp.c **** 		GPIO_WriteBits(GPIO0,0x200+dt);
  58:../USER/vramdisp.c **** 	}
  59:../USER/vramdisp.c **** 	GPIO_WriteBits(GPIO0,0x0000);	// dir=in clk = Lo
  60:../USER/vramdisp.c **** }
  61:../USER/vramdisp.c **** 
  62:../USER/vramdisp.c **** void set_vramdata_f6(int dl){	// Fast(oney 6byte)
  27              		.loc 1 62 6 view -0
  28              		.cfi_startproc
  29              		@ args = 0, pretend = 0, frame = 0
  30              		@ frame_needed = 0, uses_anonymous_args = 0
  31              	.LVL0:
  63:../USER/vramdisp.c **** 	unsigned char i, dt;
  32              		.loc 1 63 2 view .LVU1
  64:../USER/vramdisp.c **** 	GPIO_WriteBits(GPIO0,0x200);	// dir=out clk=Lo
  33              		.loc 1 64 2 view .LVU2
  62:../USER/vramdisp.c **** 	unsigned char i, dt;
  34              		.loc 1 62 6 is_stmt 0 view .LVU3
  35 0000 70B5     		push	{r4, r5, r6, lr}
  36              		.cfi_def_cfa_offset 16
  37              		.cfi_offset 4, -16
  38              		.cfi_offset 5, -12
  39              		.cfi_offset 6, -8
  40              		.cfi_offset 14, -4
  41              		.loc 1 64 2 view .LVU4
  42 0002 274C     		ldr	r4, .L4
  65:../USER/vramdisp.c **** 	dt = wddt.b[0]; GPIO_WriteBits(GPIO0,0x300+dt); GPIO_WriteBits(GPIO0,0x200+dt);
  43              		.loc 1 65 5 view .LVU5
  44 0004 274D     		ldr	r5, .L4+4
  64:../USER/vramdisp.c **** 	GPIO_WriteBits(GPIO0,0x200);	// dir=out clk=Lo
  45              		.loc 1 64 2 view .LVU6
  46 0006 2046     		mov	r0, r4
  47 0008 4FF40071 		mov	r1, #512
  48 000c FFF7FEFF 		bl	GPIO_WriteBits
  49              	.LVL1:
  50              		.loc 1 65 2 is_stmt 1 view .LVU7
  51              		.loc 1 65 18 view .LVU8
  52              		.loc 1 65 44 is_stmt 0 view .LVU9
  53 0010 2E78     		ldrb	r6, [r5]	@ zero_extendqisi2
  54              		.loc 1 65 18 view .LVU10
  55 0012 2046     		mov	r0, r4
  56 0014 06F54071 		add	r1, r6, #768
  57 0018 FFF7FEFF 		bl	GPIO_WriteBits
  58              	.LVL2:
  59              		.loc 1 65 50 is_stmt 1 view .LVU11
  60 001c 06F50071 		add	r1, r6, #512
  61 0020 2046     		mov	r0, r4
  62 0022 FFF7FEFF 		bl	GPIO_WriteBits
  63              	.LVL3:
  66:../USER/vramdisp.c **** 	dt = wddt.b[1]; GPIO_WriteBits(GPIO0,0x300+dt); GPIO_WriteBits(GPIO0,0x200+dt);
  64              		.loc 1 66 2 view .LVU12
  65              		.loc 1 66 18 view .LVU13
  66              		.loc 1 66 44 is_stmt 0 view .LVU14
  67 0026 6E78     		ldrb	r6, [r5, #1]	@ zero_extendqisi2
  68              		.loc 1 66 18 view .LVU15
  69 0028 2046     		mov	r0, r4
  70 002a 06F54071 		add	r1, r6, #768
  71 002e FFF7FEFF 		bl	GPIO_WriteBits
  72              	.LVL4:
  73              		.loc 1 66 50 is_stmt 1 view .LVU16
  74 0032 06F50071 		add	r1, r6, #512
  75 0036 2046     		mov	r0, r4
  76 0038 FFF7FEFF 		bl	GPIO_WriteBits
  77              	.LVL5:
  67:../USER/vramdisp.c **** 	dt = wddt.b[2]; GPIO_WriteBits(GPIO0,0x300+dt); GPIO_WriteBits(GPIO0,0x200+dt);
  78              		.loc 1 67 2 view .LVU17
  79              		.loc 1 67 18 view .LVU18
  80              		.loc 1 67 44 is_stmt 0 view .LVU19
  81 003c AE78     		ldrb	r6, [r5, #2]	@ zero_extendqisi2
  82              		.loc 1 67 18 view .LVU20
  83 003e 2046     		mov	r0, r4
  84 0040 06F54071 		add	r1, r6, #768
  85 0044 FFF7FEFF 		bl	GPIO_WriteBits
  86              	.LVL6:
  87              		.loc 1 67 50 is_stmt 1 view .LVU21
  88 0048 06F50071 		add	r1, r6, #512
  89 004c 2046     		mov	r0, r4
  90 004e FFF7FEFF 		bl	GPIO_WriteBits
  91              	.LVL7:
  68:../USER/vramdisp.c **** 	dt = wddt.b[3]; GPIO_WriteBits(GPIO0,0x300+dt); GPIO_WriteBits(GPIO0,0x200+dt);
  92              		.loc 1 68 2 view .LVU22
  93              		.loc 1 68 18 view .LVU23
  94              		.loc 1 68 44 is_stmt 0 view .LVU24
  95 0052 EE78     		ldrb	r6, [r5, #3]	@ zero_extendqisi2
  96              		.loc 1 68 18 view .LVU25
  97 0054 2046     		mov	r0, r4
  98 0056 06F54071 		add	r1, r6, #768
  99 005a FFF7FEFF 		bl	GPIO_WriteBits
 100              	.LVL8:
 101              		.loc 1 68 50 is_stmt 1 view .LVU26
 102 005e 06F50071 		add	r1, r6, #512
 103 0062 2046     		mov	r0, r4
 104 0064 FFF7FEFF 		bl	GPIO_WriteBits
 105              	.LVL9:
  69:../USER/vramdisp.c **** 	dt = wddt.b[4]; GPIO_WriteBits(GPIO0,0x300+dt); GPIO_WriteBits(GPIO0,0x200+dt);
 106              		.loc 1 69 2 view .LVU27
 107              		.loc 1 69 18 view .LVU28
 108              		.loc 1 69 44 is_stmt 0 view .LVU29
 109 0068 2E79     		ldrb	r6, [r5, #4]	@ zero_extendqisi2
 110              		.loc 1 69 18 view .LVU30
 111 006a 2046     		mov	r0, r4
 112 006c 06F54071 		add	r1, r6, #768
 113 0070 FFF7FEFF 		bl	GPIO_WriteBits
 114              	.LVL10:
 115              		.loc 1 69 50 is_stmt 1 view .LVU31
 116 0074 06F50071 		add	r1, r6, #512
 117 0078 2046     		mov	r0, r4
 118 007a FFF7FEFF 		bl	GPIO_WriteBits
 119              	.LVL11:
  70:../USER/vramdisp.c **** 	dt = wddt.b[5]; GPIO_WriteBits(GPIO0,0x300+dt); GPIO_WriteBits(GPIO0,0x200+dt);
 120              		.loc 1 70 2 view .LVU32
 121              		.loc 1 70 18 view .LVU33
 122              		.loc 1 70 44 is_stmt 0 view .LVU34
 123 007e 6D79     		ldrb	r5, [r5, #5]	@ zero_extendqisi2
 124              		.loc 1 70 18 view .LVU35
 125 0080 2046     		mov	r0, r4
 126 0082 05F54071 		add	r1, r5, #768
 127 0086 FFF7FEFF 		bl	GPIO_WriteBits
 128              	.LVL12:
 129              		.loc 1 70 50 is_stmt 1 view .LVU36
 130 008a 05F50071 		add	r1, r5, #512
 131 008e 2046     		mov	r0, r4
 132 0090 FFF7FEFF 		bl	GPIO_WriteBits
 133              	.LVL13:
  71:../USER/vramdisp.c **** 	GPIO_WriteBits(GPIO0,0x0000);	// dir=in clk = Lo
 134              		.loc 1 71 2 view .LVU37
 135 0094 2046     		mov	r0, r4
  72:../USER/vramdisp.c **** }
 136              		.loc 1 72 1 is_stmt 0 view .LVU38
 137 0096 BDE87040 		pop	{r4, r5, r6, lr}
 138              		.cfi_restore 14
 139              		.cfi_restore 6
 140              		.cfi_restore 5
 141              		.cfi_restore 4
 142              		.cfi_def_cfa_offset 0
 143              	.LVL14:
  71:../USER/vramdisp.c **** 	GPIO_WriteBits(GPIO0,0x0000);	// dir=in clk = Lo
 144              		.loc 1 71 2 view .LVU39
 145 009a 0021     		movs	r1, #0
 146 009c FFF7FEBF 		b	GPIO_WriteBits
 147              	.LVL15:
 148              	.L5:
 149              		.align	2
 150              	.L4:
 151 00a0 00000140 		.word	1073807360
 152 00a4 00000000 		.word	wddt
 153              		.cfi_endproc
 154              	.LFE52:
 156              		.section	.text.set_vramadr,"ax",%progbits
 157              		.align	1
 158              		.p2align 2,,3
 159              		.global	set_vramadr
 160              		.syntax unified
 161              		.thumb
 162              		.thumb_func
 163              		.fpu softvfp
 165              	set_vramadr:
 166              	.LVL16:
 167              	.LFB29:
  17:../USER/vramdisp.c **** 	int adr;
 168              		.loc 1 17 37 is_stmt 1 view -0
 169              		.cfi_startproc
 170              		@ args = 0, pretend = 0, frame = 0
 171              		@ frame_needed = 0, uses_anonymous_args = 0
  18:../USER/vramdisp.c **** 	adr = ((adry)*40+adrx)*32;
 172              		.loc 1 18 2 view .LVU41
  19:../USER/vramdisp.c **** 	GPIO_WriteBits(GPIO0,0x0000);	// dir=in clk = Lo
 173              		.loc 1 19 2 view .LVU42
  19:../USER/vramdisp.c **** 	GPIO_WriteBits(GPIO0,0x0000);	// dir=in clk = Lo
 174              		.loc 1 19 15 is_stmt 0 view .LVU43
 175 0000 00EB8000 		add	r0, r0, r0, lsl #2
 176              	.LVL17:
  17:../USER/vramdisp.c **** 	int adr;
 177              		.loc 1 17 37 view .LVU44
 178 0004 70B5     		push	{r4, r5, r6, lr}
 179              		.cfi_def_cfa_offset 16
 180              		.cfi_offset 4, -16
 181              		.cfi_offset 5, -12
 182              		.cfi_offset 6, -8
 183              		.cfi_offset 14, -4
  19:../USER/vramdisp.c **** 	GPIO_WriteBits(GPIO0,0x0000);	// dir=in clk = Lo
 184              		.loc 1 19 18 view .LVU45
 185 0006 01EBC006 		add	r6, r1, r0, lsl #3
  20:../USER/vramdisp.c **** 	do{pd = GPIO_ReadBits(GPIO0);}  while((pd & 1)!=0);		// Wait Busy
 186              		.loc 1 20 2 view .LVU46
 187 000a 0948     		ldr	r0, .L10
 188 000c 0021     		movs	r1, #0
 189              	.LVL18:
  20:../USER/vramdisp.c **** 	do{pd = GPIO_ReadBits(GPIO0);}  while((pd & 1)!=0);		// Wait Busy
 190              		.loc 1 20 2 view .LVU47
 191 000e FFF7FEFF 		bl	GPIO_WriteBits
 192              	.LVL19:
 193 0012 084C     		ldr	r4, .L10+4
  21:../USER/vramdisp.c **** 	wddt.i[0] = adr;
 194              		.loc 1 21 10 view .LVU48
 195 0014 064D     		ldr	r5, .L10
  19:../USER/vramdisp.c **** 	GPIO_WriteBits(GPIO0,0x0000);	// dir=in clk = Lo
 196              		.loc 1 19 6 view .LVU49
 197 0016 7601     		lsls	r6, r6, #5
 198              	.LVL20:
  20:../USER/vramdisp.c **** 	do{pd = GPIO_ReadBits(GPIO0);}  while((pd & 1)!=0);		// Wait Busy
 199              		.loc 1 20 2 is_stmt 1 view .LVU50
 200              	.L7:
  21:../USER/vramdisp.c **** 	wddt.i[0] = adr;
 201              		.loc 1 21 2 discriminator 1 view .LVU51
  21:../USER/vramdisp.c **** 	wddt.i[0] = adr;
 202              		.loc 1 21 5 discriminator 1 view .LVU52
  21:../USER/vramdisp.c **** 	wddt.i[0] = adr;
 203              		.loc 1 21 10 is_stmt 0 discriminator 1 view .LVU53
 204 0018 2846     		mov	r0, r5
 205 001a FFF7FEFF 		bl	GPIO_ReadBits
 206              	.LVL21:
  21:../USER/vramdisp.c **** 	wddt.i[0] = adr;
 207              		.loc 1 21 8 discriminator 1 view .LVU54
 208 001e C0B2     		uxtb	r0, r0
 209 0020 2070     		strb	r0, [r4]
  21:../USER/vramdisp.c **** 	wddt.i[0] = adr;
 210              		.loc 1 21 44 discriminator 1 view .LVU55
 211 0022 2378     		ldrb	r3, [r4]	@ zero_extendqisi2
  21:../USER/vramdisp.c **** 	wddt.i[0] = adr;
 212              		.loc 1 21 2 discriminator 1 view .LVU56
 213 0024 DB07     		lsls	r3, r3, #31
 214 0026 F7D4     		bmi	.L7
  22:../USER/vramdisp.c **** }
 215              		.loc 1 22 2 is_stmt 1 view .LVU57
  22:../USER/vramdisp.c **** }
 216              		.loc 1 22 12 is_stmt 0 view .LVU58
 217 0028 034B     		ldr	r3, .L10+8
 218 002a 1E60     		str	r6, [r3]
  23:../USER/vramdisp.c **** void get_vramdata(int dl){
 219              		.loc 1 23 1 view .LVU59
 220 002c 70BD     		pop	{r4, r5, r6, pc}
 221              	.LVL22:
 222              	.L11:
  23:../USER/vramdisp.c **** void get_vramdata(int dl){
 223              		.loc 1 23 1 view .LVU60
 224 002e 00BF     		.align	2
 225              	.L10:
 226 0030 00000140 		.word	1073807360
 227 0034 00000000 		.word	pd
 228 0038 00000000 		.word	wddt
 229              		.cfi_endproc
 230              	.LFE29:
 232              		.section	.text.get_vramdata,"ax",%progbits
 233              		.align	1
 234              		.p2align 2,,3
 235              		.global	get_vramdata
 236              		.syntax unified
 237              		.thumb
 238              		.thumb_func
 239              		.fpu softvfp
 241              	get_vramdata:
 242              	.LVL23:
 243              	.LFB30:
  24:../USER/vramdisp.c **** 	unsigned char i,dt;
 244              		.loc 1 24 26 is_stmt 1 view -0
 245              		.cfi_startproc
 246              		@ args = 0, pretend = 0, frame = 0
 247              		@ frame_needed = 0, uses_anonymous_args = 0
  25:../USER/vramdisp.c **** 	GPIO_WriteBits(GPIO0,0x0000);	// dir=in clk = Lo
 248              		.loc 1 25 2 view .LVU62
  26:../USER/vramdisp.c **** 	do{pd = GPIO_ReadBits(GPIO0);}  while((pd & 1)!=0);		// Wait Busy
 249              		.loc 1 26 2 view .LVU63
  24:../USER/vramdisp.c **** 	unsigned char i,dt;
 250              		.loc 1 24 26 is_stmt 0 view .LVU64
 251 0000 F8B5     		push	{r3, r4, r5, r6, r7, lr}
 252              		.cfi_def_cfa_offset 24
 253              		.cfi_offset 3, -24
 254              		.cfi_offset 4, -20
 255              		.cfi_offset 5, -16
 256              		.cfi_offset 6, -12
 257              		.cfi_offset 7, -8
 258              		.cfi_offset 14, -4
  26:../USER/vramdisp.c **** 	do{pd = GPIO_ReadBits(GPIO0);}  while((pd & 1)!=0);		// Wait Busy
 259              		.loc 1 26 2 view .LVU65
 260 0002 0021     		movs	r1, #0
  24:../USER/vramdisp.c **** 	unsigned char i,dt;
 261              		.loc 1 24 26 view .LVU66
 262 0004 0646     		mov	r6, r0
  26:../USER/vramdisp.c **** 	do{pd = GPIO_ReadBits(GPIO0);}  while((pd & 1)!=0);		// Wait Busy
 263              		.loc 1 26 2 view .LVU67
 264 0006 1548     		ldr	r0, .L19
 265              	.LVL24:
  26:../USER/vramdisp.c **** 	do{pd = GPIO_ReadBits(GPIO0);}  while((pd & 1)!=0);		// Wait Busy
 266              		.loc 1 26 2 view .LVU68
 267 0008 FFF7FEFF 		bl	GPIO_WriteBits
 268              	.LVL25:
 269 000c 144D     		ldr	r5, .L19+4
  27:../USER/vramdisp.c **** 	for(i=0;i<dl; i++){
 270              		.loc 1 27 10 view .LVU69
 271 000e 134F     		ldr	r7, .L19
 272              	.L13:
  27:../USER/vramdisp.c **** 	for(i=0;i<dl; i++){
 273              		.loc 1 27 2 is_stmt 1 discriminator 1 view .LVU70
  27:../USER/vramdisp.c **** 	for(i=0;i<dl; i++){
 274              		.loc 1 27 5 discriminator 1 view .LVU71
  27:../USER/vramdisp.c **** 	for(i=0;i<dl; i++){
 275              		.loc 1 27 10 is_stmt 0 discriminator 1 view .LVU72
 276 0010 3846     		mov	r0, r7
 277 0012 FFF7FEFF 		bl	GPIO_ReadBits
 278              	.LVL26:
  27:../USER/vramdisp.c **** 	for(i=0;i<dl; i++){
 279              		.loc 1 27 8 discriminator 1 view .LVU73
 280 0016 C0B2     		uxtb	r0, r0
 281 0018 2870     		strb	r0, [r5]
  27:../USER/vramdisp.c **** 	for(i=0;i<dl; i++){
 282              		.loc 1 27 44 discriminator 1 view .LVU74
 283 001a 2C78     		ldrb	r4, [r5]	@ zero_extendqisi2
  27:../USER/vramdisp.c **** 	for(i=0;i<dl; i++){
 284              		.loc 1 27 2 discriminator 1 view .LVU75
 285 001c 14F00104 		ands	r4, r4, #1
 286 0020 F6D1     		bne	.L13
 287              	.LVL27:
  28:../USER/vramdisp.c **** 		GPIO_WriteBits(GPIO0,0x100);
 288              		.loc 1 28 2 view .LVU76
 289 0022 002E     		cmp	r6, #0
 290 0024 13DD     		ble	.L14
 291 0026 0F4F     		ldr	r7, .L19+8
  29:../USER/vramdisp.c **** 		wddt.b[i+4] = GPIO_ReadBits(GPIO0);
 292              		.loc 1 29 3 view .LVU77
 293 0028 0C4D     		ldr	r5, .L19
 294              	.LVL28:
 295              	.L15:
  29:../USER/vramdisp.c **** 		wddt.b[i+4] = GPIO_ReadBits(GPIO0);
 296              		.loc 1 29 3 is_stmt 1 discriminator 3 view .LVU78
 297 002a 4FF48071 		mov	r1, #256
 298 002e 2846     		mov	r0, r5
 299 0030 FFF7FEFF 		bl	GPIO_WriteBits
 300              	.LVL29:
  30:../USER/vramdisp.c **** 		GPIO_WriteBits(GPIO0,0x000);
 301              		.loc 1 30 3 discriminator 3 view .LVU79
  30:../USER/vramdisp.c **** 		GPIO_WriteBits(GPIO0,0x000);
 302              		.loc 1 30 17 is_stmt 0 discriminator 3 view .LVU80
 303 0034 2846     		mov	r0, r5
 304 0036 FFF7FEFF 		bl	GPIO_ReadBits
 305              	.LVL30:
  30:../USER/vramdisp.c **** 		GPIO_WriteBits(GPIO0,0x000);
 306              		.loc 1 30 15 discriminator 3 view .LVU81
 307 003a 3B19     		adds	r3, r7, r4
  28:../USER/vramdisp.c **** 		GPIO_WriteBits(GPIO0,0x100);
 308              		.loc 1 28 17 discriminator 3 view .LVU82
 309 003c 0134     		adds	r4, r4, #1
 310              	.LVL31:
  30:../USER/vramdisp.c **** 		GPIO_WriteBits(GPIO0,0x000);
 311              		.loc 1 30 15 discriminator 3 view .LVU83
 312 003e 1871     		strb	r0, [r3, #4]
  31:../USER/vramdisp.c **** 	}
 313              		.loc 1 31 3 is_stmt 1 discriminator 3 view .LVU84
 314 0040 0021     		movs	r1, #0
 315 0042 2846     		mov	r0, r5
  28:../USER/vramdisp.c **** 		GPIO_WriteBits(GPIO0,0x100);
 316              		.loc 1 28 17 is_stmt 0 discriminator 3 view .LVU85
 317 0044 E4B2     		uxtb	r4, r4
  31:../USER/vramdisp.c **** 	}
 318              		.loc 1 31 3 discriminator 3 view .LVU86
 319 0046 FFF7FEFF 		bl	GPIO_WriteBits
 320              	.LVL32:
  28:../USER/vramdisp.c **** 		GPIO_WriteBits(GPIO0,0x100);
 321              		.loc 1 28 2 discriminator 3 view .LVU87
 322 004a B442     		cmp	r4, r6
 323 004c EDDB     		blt	.L15
 324              	.LVL33:
 325              	.L14:
  33:../USER/vramdisp.c **** 
 326              		.loc 1 33 2 is_stmt 1 view .LVU88
  35:../USER/vramdisp.c **** void get_vram(int adry, int adrx){
 327              		.loc 1 35 1 is_stmt 0 view .LVU89
 328 004e BDE8F840 		pop	{r3, r4, r5, r6, r7, lr}
 329              		.cfi_restore 14
 330              		.cfi_restore 7
 331              		.cfi_restore 6
 332              		.cfi_restore 5
 333              		.cfi_restore 4
 334              		.cfi_restore 3
 335              		.cfi_def_cfa_offset 0
 336              	.LVL34:
  33:../USER/vramdisp.c **** 
 337              		.loc 1 33 2 view .LVU90
 338 0052 0021     		movs	r1, #0
 339 0054 0148     		ldr	r0, .L19
 340 0056 FFF7FEBF 		b	GPIO_WriteBits
 341              	.LVL35:
 342              	.L20:
 343 005a 00BF     		.align	2
 344              	.L19:
 345 005c 00000140 		.word	1073807360
 346 0060 00000000 		.word	pd
 347 0064 00000000 		.word	wddt
 348              		.cfi_endproc
 349              	.LFE30:
 351              		.section	.text.get_vram,"ax",%progbits
 352              		.align	1
 353              		.p2align 2,,3
 354              		.global	get_vram
 355              		.syntax unified
 356              		.thumb
 357              		.thumb_func
 358              		.fpu softvfp
 360              	get_vram:
 361              	.LVL36:
 362              	.LFB31:
  36:../USER/vramdisp.c **** 	unsigned char i,dt;
 363              		.loc 1 36 34 is_stmt 1 view -0
 364              		.cfi_startproc
 365              		@ args = 0, pretend = 0, frame = 0
 366              		@ frame_needed = 0, uses_anonymous_args = 0
  37:../USER/vramdisp.c **** 	if(adry==-1) { adry=0; adrx=0;}
 367              		.loc 1 37 2 view .LVU92
  38:../USER/vramdisp.c **** 	set_vramadr(adry, adrx);
 368              		.loc 1 38 2 view .LVU93
  36:../USER/vramdisp.c **** 	unsigned char i,dt;
 369              		.loc 1 36 34 is_stmt 0 view .LVU94
 370 0000 2DE9F041 		push	{r4, r5, r6, r7, r8, lr}
 371              		.cfi_def_cfa_offset 24
 372              		.cfi_offset 4, -24
 373              		.cfi_offset 5, -20
 374              		.cfi_offset 6, -16
 375              		.cfi_offset 7, -12
 376              		.cfi_offset 8, -8
 377              		.cfi_offset 14, -4
  38:../USER/vramdisp.c **** 	set_vramadr(adry, adrx);
 378              		.loc 1 38 4 view .LVU95
 379 0004 441C     		adds	r4, r0, #1
 380 0006 1EBF     		ittt	ne
 381 0008 00EB8000 		addne	r0, r0, r0, lsl #2
 382              	.LVL37:
  38:../USER/vramdisp.c **** 	set_vramadr(adry, adrx);
 383              		.loc 1 38 4 view .LVU96
 384 000c 01EBC001 		addne	r1, r1, r0, lsl #3
 385              	.LVL38:
  38:../USER/vramdisp.c **** 	set_vramadr(adry, adrx);
 386              		.loc 1 38 4 view .LVU97
 387 0010 4E01     		lslne	r6, r1, #5
 388              	.LBB32:
 389              	.LBB33:
  20:../USER/vramdisp.c **** 	do{pd = GPIO_ReadBits(GPIO0);}  while((pd & 1)!=0);		// Wait Busy
 390              		.loc 1 20 2 view .LVU98
 391 0012 2848     		ldr	r0, .L33
 392 0014 4FF00001 		mov	r1, #0
 393              	.LBE33:
 394              	.LBE32:
 395 0018 08BF     		it	eq
 396 001a 0026     		moveq	r6, #0
 397              	.LVL39:
  39:../USER/vramdisp.c **** 	GPIO_WriteBits(GPIO0,0x200);	// dir=out clk=Lo
 398              		.loc 1 39 2 is_stmt 1 view .LVU99
 399              	.LBB37:
 400              	.LBI32:
  17:../USER/vramdisp.c **** 	int adr;
 401              		.loc 1 17 6 view .LVU100
 402              	.LBB34:
  18:../USER/vramdisp.c **** 	adr = ((adry)*40+adrx)*32;
 403              		.loc 1 18 2 view .LVU101
  19:../USER/vramdisp.c **** 	GPIO_WriteBits(GPIO0,0x0000);	// dir=in clk = Lo
 404              		.loc 1 19 2 view .LVU102
  20:../USER/vramdisp.c **** 	do{pd = GPIO_ReadBits(GPIO0);}  while((pd & 1)!=0);		// Wait Busy
 405              		.loc 1 20 2 view .LVU103
 406 001c FFF7FEFF 		bl	GPIO_WriteBits
 407              	.LVL40:
 408 0020 254C     		ldr	r4, .L33+4
  21:../USER/vramdisp.c **** 	wddt.i[0] = adr;
 409              		.loc 1 21 10 is_stmt 0 view .LVU104
 410 0022 244D     		ldr	r5, .L33
 411              	.L23:
  21:../USER/vramdisp.c **** 	wddt.i[0] = adr;
 412              		.loc 1 21 2 is_stmt 1 view .LVU105
  21:../USER/vramdisp.c **** 	wddt.i[0] = adr;
 413              		.loc 1 21 5 view .LVU106
  21:../USER/vramdisp.c **** 	wddt.i[0] = adr;
 414              		.loc 1 21 10 is_stmt 0 view .LVU107
 415 0024 2846     		mov	r0, r5
 416 0026 FFF7FEFF 		bl	GPIO_ReadBits
 417              	.LVL41:
  21:../USER/vramdisp.c **** 	wddt.i[0] = adr;
 418              		.loc 1 21 8 view .LVU108
 419 002a C0B2     		uxtb	r0, r0
 420 002c 2070     		strb	r0, [r4]
  21:../USER/vramdisp.c **** 	wddt.i[0] = adr;
 421              		.loc 1 21 44 view .LVU109
 422 002e 2378     		ldrb	r3, [r4]	@ zero_extendqisi2
  21:../USER/vramdisp.c **** 	wddt.i[0] = adr;
 423              		.loc 1 21 2 view .LVU110
 424 0030 DA07     		lsls	r2, r3, #31
 425 0032 F7D4     		bmi	.L23
  22:../USER/vramdisp.c **** }
 426              		.loc 1 22 2 is_stmt 1 view .LVU111
  22:../USER/vramdisp.c **** }
 427              		.loc 1 22 12 is_stmt 0 view .LVU112
 428 0034 214D     		ldr	r5, .L33+8
 429              	.LBE34:
 430              	.LBE37:
  40:../USER/vramdisp.c **** 	for(i=0;i<4;i++){	// send addr
 431              		.loc 1 40 2 view .LVU113
 432 0036 4FF40071 		mov	r1, #512
 433              	.LBB38:
 434              	.LBB35:
  22:../USER/vramdisp.c **** }
 435              		.loc 1 22 12 view .LVU114
 436 003a A846     		mov	r8, r5
 437              	.LBE35:
 438              	.LBE38:
  40:../USER/vramdisp.c **** 	for(i=0;i<4;i++){	// send addr
 439              		.loc 1 40 2 view .LVU115
 440 003c 1D48     		ldr	r0, .L33
 441              	.LBB39:
 442              	.LBB36:
  22:../USER/vramdisp.c **** }
 443              		.loc 1 22 12 view .LVU116
 444 003e 48F8046B 		str	r6, [r8], #4
  22:../USER/vramdisp.c **** }
 445              		.loc 1 22 12 view .LVU117
 446              	.LBE36:
 447              	.LBE39:
  40:../USER/vramdisp.c **** 	for(i=0;i<4;i++){	// send addr
 448              		.loc 1 40 2 is_stmt 1 view .LVU118
 449 0042 FFF7FEFF 		bl	GPIO_WriteBits
 450              	.LVL42:
  41:../USER/vramdisp.c **** 		dt = wddt.b[i];
 451              		.loc 1 41 2 view .LVU119
  43:../USER/vramdisp.c **** 		GPIO_WriteBits(GPIO0,0x300+dt);
 452              		.loc 1 43 3 is_stmt 0 view .LVU120
 453 0046 1B4F     		ldr	r7, .L33
 454              	.LVL43:
 455              	.L24:
  42:../USER/vramdisp.c **** 		GPIO_WriteBits(GPIO0,0x200+dt);
 456              		.loc 1 42 3 is_stmt 1 discriminator 3 view .LVU121
  42:../USER/vramdisp.c **** 		GPIO_WriteBits(GPIO0,0x200+dt);
 457              		.loc 1 42 6 is_stmt 0 discriminator 3 view .LVU122
 458 0048 15F8016B 		ldrb	r6, [r5], #1	@ zero_extendqisi2
 459              	.LVL44:
  43:../USER/vramdisp.c **** 		GPIO_WriteBits(GPIO0,0x300+dt);
 460              		.loc 1 43 3 is_stmt 1 discriminator 3 view .LVU123
 461 004c 3846     		mov	r0, r7
 462 004e 06F50071 		add	r1, r6, #512
 463 0052 FFF7FEFF 		bl	GPIO_WriteBits
 464              	.LVL45:
  44:../USER/vramdisp.c **** 	}
 465              		.loc 1 44 3 discriminator 3 view .LVU124
 466 0056 06F54071 		add	r1, r6, #768
 467 005a 3846     		mov	r0, r7
 468 005c FFF7FEFF 		bl	GPIO_WriteBits
 469              	.LVL46:
  41:../USER/vramdisp.c **** 		dt = wddt.b[i];
 470              		.loc 1 41 2 is_stmt 0 discriminator 3 view .LVU125
 471 0060 4545     		cmp	r5, r8
 472 0062 F1D1     		bne	.L24
  46:../USER/vramdisp.c **** }
 473              		.loc 1 46 2 is_stmt 1 view .LVU126
 474              	.LVL47:
 475              	.LBB40:
 476              	.LBI40:
  24:../USER/vramdisp.c **** 	unsigned char i,dt;
 477              		.loc 1 24 6 view .LVU127
 478              	.LBB41:
  25:../USER/vramdisp.c **** 	GPIO_WriteBits(GPIO0,0x0000);	// dir=in clk = Lo
 479              		.loc 1 25 2 view .LVU128
  26:../USER/vramdisp.c **** 	do{pd = GPIO_ReadBits(GPIO0);}  while((pd & 1)!=0);		// Wait Busy
 480              		.loc 1 26 2 view .LVU129
 481 0064 0021     		movs	r1, #0
 482 0066 1348     		ldr	r0, .L33
 483 0068 FFF7FEFF 		bl	GPIO_WriteBits
 484              	.LVL48:
  27:../USER/vramdisp.c **** 	for(i=0;i<dl; i++){
 485              		.loc 1 27 10 is_stmt 0 view .LVU130
 486 006c 114D     		ldr	r5, .L33
 487              	.LVL49:
 488              	.L25:
  27:../USER/vramdisp.c **** 	for(i=0;i<dl; i++){
 489              		.loc 1 27 2 is_stmt 1 view .LVU131
  27:../USER/vramdisp.c **** 	for(i=0;i<dl; i++){
 490              		.loc 1 27 5 view .LVU132
  27:../USER/vramdisp.c **** 	for(i=0;i<dl; i++){
 491              		.loc 1 27 10 is_stmt 0 view .LVU133
 492 006e 2846     		mov	r0, r5
 493 0070 FFF7FEFF 		bl	GPIO_ReadBits
 494              	.LVL50:
  27:../USER/vramdisp.c **** 	for(i=0;i<dl; i++){
 495              		.loc 1 27 8 view .LVU134
 496 0074 C0B2     		uxtb	r0, r0
 497 0076 2070     		strb	r0, [r4]
  27:../USER/vramdisp.c **** 	for(i=0;i<dl; i++){
 498              		.loc 1 27 44 view .LVU135
 499 0078 2378     		ldrb	r3, [r4]	@ zero_extendqisi2
  27:../USER/vramdisp.c **** 	for(i=0;i<dl; i++){
 500              		.loc 1 27 2 view .LVU136
 501 007a DB07     		lsls	r3, r3, #31
 502 007c F7D4     		bmi	.L25
 503 007e 104C     		ldr	r4, .L33+12
  29:../USER/vramdisp.c **** 		wddt.b[i+4] = GPIO_ReadBits(GPIO0);
 504              		.loc 1 29 3 view .LVU137
 505 0080 0C4D     		ldr	r5, .L33
 506 0082 04F12006 		add	r6, r4, #32
 507              	.LVL51:
 508              	.L26:
  29:../USER/vramdisp.c **** 		wddt.b[i+4] = GPIO_ReadBits(GPIO0);
 509              		.loc 1 29 3 is_stmt 1 view .LVU138
 510 0086 4FF48071 		mov	r1, #256
 511 008a 2846     		mov	r0, r5
 512 008c FFF7FEFF 		bl	GPIO_WriteBits
 513              	.LVL52:
  30:../USER/vramdisp.c **** 		GPIO_WriteBits(GPIO0,0x000);
 514              		.loc 1 30 3 view .LVU139
  30:../USER/vramdisp.c **** 		GPIO_WriteBits(GPIO0,0x000);
 515              		.loc 1 30 17 is_stmt 0 view .LVU140
 516 0090 2846     		mov	r0, r5
 517 0092 FFF7FEFF 		bl	GPIO_ReadBits
 518              	.LVL53:
  31:../USER/vramdisp.c **** 	}
 519              		.loc 1 31 3 view .LVU141
 520 0096 0021     		movs	r1, #0
  30:../USER/vramdisp.c **** 		GPIO_WriteBits(GPIO0,0x000);
 521              		.loc 1 30 15 view .LVU142
 522 0098 04F8010F 		strb	r0, [r4, #1]!
 523              	.LVL54:
  31:../USER/vramdisp.c **** 	}
 524              		.loc 1 31 3 is_stmt 1 view .LVU143
 525 009c 2846     		mov	r0, r5
 526 009e FFF7FEFF 		bl	GPIO_WriteBits
 527              	.LVL55:
  28:../USER/vramdisp.c **** 		GPIO_WriteBits(GPIO0,0x100);
 528              		.loc 1 28 2 is_stmt 0 view .LVU144
 529 00a2 A642     		cmp	r6, r4
 530 00a4 EFD1     		bne	.L26
  33:../USER/vramdisp.c **** 
 531              		.loc 1 33 2 is_stmt 1 view .LVU145
 532              	.LBE41:
 533              	.LBE40:
  47:../USER/vramdisp.c **** 
 534              		.loc 1 47 1 is_stmt 0 view .LVU146
 535 00a6 BDE8F041 		pop	{r4, r5, r6, r7, r8, lr}
 536              		.cfi_restore 14
 537              		.cfi_restore 8
 538              		.cfi_restore 7
 539              		.cfi_restore 6
 540              		.cfi_restore 5
 541              		.cfi_restore 4
 542              		.cfi_def_cfa_offset 0
 543              	.LVL56:
 544              	.LBB43:
 545              	.LBB42:
  33:../USER/vramdisp.c **** 
 546              		.loc 1 33 2 view .LVU147
 547 00aa 0021     		movs	r1, #0
 548 00ac 0148     		ldr	r0, .L33
 549 00ae FFF7FEBF 		b	GPIO_WriteBits
 550              	.LVL57:
 551              	.L34:
 552 00b2 00BF     		.align	2
 553              	.L33:
 554 00b4 00000140 		.word	1073807360
 555 00b8 00000000 		.word	pd
 556 00bc 00000000 		.word	wddt
 557 00c0 03000000 		.word	wddt+3
 558              	.LBE42:
 559              	.LBE43:
 560              		.cfi_endproc
 561              	.LFE31:
 563              		.section	.text.set_vramdata,"ax",%progbits
 564              		.align	1
 565              		.p2align 2,,3
 566              		.global	set_vramdata
 567              		.syntax unified
 568              		.thumb
 569              		.thumb_func
 570              		.fpu softvfp
 572              	set_vramdata:
 573              	.LVL58:
 574              	.LFB32:
  49:../USER/vramdisp.c **** 	unsigned char i, dt;
 575              		.loc 1 49 26 is_stmt 1 view -0
 576              		.cfi_startproc
 577              		@ args = 0, pretend = 0, frame = 0
 578              		@ frame_needed = 0, uses_anonymous_args = 0
  50:../USER/vramdisp.c **** 	GPIO_WriteBits(GPIO0,0x0000);	// dir=in clk = Lo
 579              		.loc 1 50 2 view .LVU149
  51:../USER/vramdisp.c **** 	do{pd = GPIO_ReadBits(GPIO0);}  while((pd & 1)!=0);		// Wait Busy
 580              		.loc 1 51 2 view .LVU150
  49:../USER/vramdisp.c **** 	unsigned char i, dt;
 581              		.loc 1 49 26 is_stmt 0 view .LVU151
 582 0000 2DE9F041 		push	{r4, r5, r6, r7, r8, lr}
 583              		.cfi_def_cfa_offset 24
 584              		.cfi_offset 4, -24
 585              		.cfi_offset 5, -20
 586              		.cfi_offset 6, -16
 587              		.cfi_offset 7, -12
 588              		.cfi_offset 8, -8
 589              		.cfi_offset 14, -4
  51:../USER/vramdisp.c **** 	do{pd = GPIO_ReadBits(GPIO0);}  while((pd & 1)!=0);		// Wait Busy
 590              		.loc 1 51 2 view .LVU152
 591 0004 0021     		movs	r1, #0
  49:../USER/vramdisp.c **** 	unsigned char i, dt;
 592              		.loc 1 49 26 view .LVU153
 593 0006 0746     		mov	r7, r0
  51:../USER/vramdisp.c **** 	do{pd = GPIO_ReadBits(GPIO0);}  while((pd & 1)!=0);		// Wait Busy
 594              		.loc 1 51 2 view .LVU154
 595 0008 1648     		ldr	r0, .L42
 596              	.LVL59:
  51:../USER/vramdisp.c **** 	do{pd = GPIO_ReadBits(GPIO0);}  while((pd & 1)!=0);		// Wait Busy
 597              		.loc 1 51 2 view .LVU155
 598 000a FFF7FEFF 		bl	GPIO_WriteBits
 599              	.LVL60:
 600 000e 164D     		ldr	r5, .L42+4
  52:../USER/vramdisp.c **** 	GPIO_WriteBits(GPIO0,0x200);	// dir=out clk=Lo
 601              		.loc 1 52 10 view .LVU156
 602 0010 144E     		ldr	r6, .L42
 603              	.L36:
  52:../USER/vramdisp.c **** 	GPIO_WriteBits(GPIO0,0x200);	// dir=out clk=Lo
 604              		.loc 1 52 2 is_stmt 1 discriminator 1 view .LVU157
  52:../USER/vramdisp.c **** 	GPIO_WriteBits(GPIO0,0x200);	// dir=out clk=Lo
 605              		.loc 1 52 5 discriminator 1 view .LVU158
  52:../USER/vramdisp.c **** 	GPIO_WriteBits(GPIO0,0x200);	// dir=out clk=Lo
 606              		.loc 1 52 10 is_stmt 0 discriminator 1 view .LVU159
 607 0012 3046     		mov	r0, r6
 608 0014 FFF7FEFF 		bl	GPIO_ReadBits
 609              	.LVL61:
  52:../USER/vramdisp.c **** 	GPIO_WriteBits(GPIO0,0x200);	// dir=out clk=Lo
 610              		.loc 1 52 8 discriminator 1 view .LVU160
 611 0018 C0B2     		uxtb	r0, r0
 612 001a 2870     		strb	r0, [r5]
  52:../USER/vramdisp.c **** 	GPIO_WriteBits(GPIO0,0x200);	// dir=out clk=Lo
 613              		.loc 1 52 44 discriminator 1 view .LVU161
 614 001c 2C78     		ldrb	r4, [r5]	@ zero_extendqisi2
  52:../USER/vramdisp.c **** 	GPIO_WriteBits(GPIO0,0x200);	// dir=out clk=Lo
 615              		.loc 1 52 2 discriminator 1 view .LVU162
 616 001e 14F00104 		ands	r4, r4, #1
 617 0022 F6D1     		bne	.L36
  53:../USER/vramdisp.c **** 	for(i=0;i<dl;i++){
 618              		.loc 1 53 2 is_stmt 1 view .LVU163
 619 0024 4FF40071 		mov	r1, #512
 620 0028 0E48     		ldr	r0, .L42
 621 002a FFF7FEFF 		bl	GPIO_WriteBits
 622              	.LVL62:
  54:../USER/vramdisp.c **** 		dt = wddt.b[i];
 623              		.loc 1 54 2 view .LVU164
  54:../USER/vramdisp.c **** 		dt = wddt.b[i];
 624              		.loc 1 54 2 is_stmt 0 view .LVU165
 625 002e 002F     		cmp	r7, #0
 626 0030 12DD     		ble	.L37
 627 0032 DFF83880 		ldr	r8, .L42+8
  56:../USER/vramdisp.c **** 		GPIO_WriteBits(GPIO0,0x200+dt);
 628              		.loc 1 56 3 view .LVU166
 629 0036 0B4E     		ldr	r6, .L42
 630              	.LVL63:
 631              	.L38:
  55:../USER/vramdisp.c **** 		GPIO_WriteBits(GPIO0,0x300+dt);
 632              		.loc 1 55 3 is_stmt 1 discriminator 3 view .LVU167
  56:../USER/vramdisp.c **** 		GPIO_WriteBits(GPIO0,0x200+dt);
 633              		.loc 1 56 3 discriminator 3 view .LVU168
  56:../USER/vramdisp.c **** 		GPIO_WriteBits(GPIO0,0x200+dt);
 634              		.loc 1 56 29 is_stmt 0 discriminator 3 view .LVU169
 635 0038 18F80450 		ldrb	r5, [r8, r4]	@ zero_extendqisi2
  56:../USER/vramdisp.c **** 		GPIO_WriteBits(GPIO0,0x200+dt);
 636              		.loc 1 56 3 discriminator 3 view .LVU170
 637 003c 3046     		mov	r0, r6
 638 003e 05F54071 		add	r1, r5, #768
  54:../USER/vramdisp.c **** 		dt = wddt.b[i];
 639              		.loc 1 54 16 discriminator 3 view .LVU171
 640 0042 0134     		adds	r4, r4, #1
 641              	.LVL64:
  56:../USER/vramdisp.c **** 		GPIO_WriteBits(GPIO0,0x200+dt);
 642              		.loc 1 56 3 discriminator 3 view .LVU172
 643 0044 FFF7FEFF 		bl	GPIO_WriteBits
 644              	.LVL65:
  57:../USER/vramdisp.c **** 	}
 645              		.loc 1 57 3 is_stmt 1 discriminator 3 view .LVU173
  54:../USER/vramdisp.c **** 		dt = wddt.b[i];
 646              		.loc 1 54 16 is_stmt 0 discriminator 3 view .LVU174
 647 0048 E4B2     		uxtb	r4, r4
  57:../USER/vramdisp.c **** 	}
 648              		.loc 1 57 3 discriminator 3 view .LVU175
 649 004a 05F50071 		add	r1, r5, #512
 650 004e 3046     		mov	r0, r6
 651 0050 FFF7FEFF 		bl	GPIO_WriteBits
 652              	.LVL66:
  54:../USER/vramdisp.c **** 		dt = wddt.b[i];
 653              		.loc 1 54 2 discriminator 3 view .LVU176
 654 0054 BC42     		cmp	r4, r7
 655 0056 EFDB     		blt	.L38
 656              	.LVL67:
 657              	.L37:
  59:../USER/vramdisp.c **** }
 658              		.loc 1 59 2 is_stmt 1 view .LVU177
  60:../USER/vramdisp.c **** 
 659              		.loc 1 60 1 is_stmt 0 view .LVU178
 660 0058 BDE8F041 		pop	{r4, r5, r6, r7, r8, lr}
 661              		.cfi_restore 14
 662              		.cfi_restore 8
 663              		.cfi_restore 7
 664              		.cfi_restore 6
 665              		.cfi_restore 5
 666              		.cfi_restore 4
 667              		.cfi_def_cfa_offset 0
 668              	.LVL68:
  59:../USER/vramdisp.c **** }
 669              		.loc 1 59 2 view .LVU179
 670 005c 0021     		movs	r1, #0
 671 005e 0148     		ldr	r0, .L42
 672 0060 FFF7FEBF 		b	GPIO_WriteBits
 673              	.LVL69:
 674              	.L43:
 675              		.align	2
 676              	.L42:
 677 0064 00000140 		.word	1073807360
 678 0068 00000000 		.word	pd
 679 006c 00000000 		.word	wddt
 680              		.cfi_endproc
 681              	.LFE32:
 683              		.section	.text.set_vramdata_f6,"ax",%progbits
 684              		.align	1
 685              		.p2align 2,,3
 686              		.global	set_vramdata_f6
 687              		.syntax unified
 688              		.thumb
 689              		.thumb_func
 690              		.fpu softvfp
 692              	set_vramdata_f6:
 693              	.LVL70:
 694              	.LFB33:
  62:../USER/vramdisp.c **** 	unsigned char i, dt;
 695              		.loc 1 62 29 is_stmt 1 view -0
 696              		.cfi_startproc
 697              		@ args = 0, pretend = 0, frame = 0
 698              		@ frame_needed = 0, uses_anonymous_args = 0
  63:../USER/vramdisp.c **** 	GPIO_WriteBits(GPIO0,0x200);	// dir=out clk=Lo
 699              		.loc 1 63 2 view .LVU181
  64:../USER/vramdisp.c **** 	dt = wddt.b[0]; GPIO_WriteBits(GPIO0,0x300+dt); GPIO_WriteBits(GPIO0,0x200+dt);
 700              		.loc 1 64 2 view .LVU182
  62:../USER/vramdisp.c **** 	unsigned char i, dt;
 701              		.loc 1 62 29 is_stmt 0 view .LVU183
 702 0000 70B5     		push	{r4, r5, r6, lr}
 703              		.cfi_def_cfa_offset 16
 704              		.cfi_offset 4, -16
 705              		.cfi_offset 5, -12
 706              		.cfi_offset 6, -8
 707              		.cfi_offset 14, -4
  64:../USER/vramdisp.c **** 	dt = wddt.b[0]; GPIO_WriteBits(GPIO0,0x300+dt); GPIO_WriteBits(GPIO0,0x200+dt);
 708              		.loc 1 64 2 view .LVU184
 709 0002 274C     		ldr	r4, .L46
  65:../USER/vramdisp.c **** 	dt = wddt.b[1]; GPIO_WriteBits(GPIO0,0x300+dt); GPIO_WriteBits(GPIO0,0x200+dt);
 710              		.loc 1 65 5 view .LVU185
 711 0004 274D     		ldr	r5, .L46+4
  64:../USER/vramdisp.c **** 	dt = wddt.b[0]; GPIO_WriteBits(GPIO0,0x300+dt); GPIO_WriteBits(GPIO0,0x200+dt);
 712              		.loc 1 64 2 view .LVU186
 713 0006 2046     		mov	r0, r4
 714              	.LVL71:
  64:../USER/vramdisp.c **** 	dt = wddt.b[0]; GPIO_WriteBits(GPIO0,0x300+dt); GPIO_WriteBits(GPIO0,0x200+dt);
 715              		.loc 1 64 2 view .LVU187
 716 0008 4FF40071 		mov	r1, #512
 717 000c FFF7FEFF 		bl	GPIO_WriteBits
 718              	.LVL72:
  65:../USER/vramdisp.c **** 	dt = wddt.b[1]; GPIO_WriteBits(GPIO0,0x300+dt); GPIO_WriteBits(GPIO0,0x200+dt);
 719              		.loc 1 65 2 is_stmt 1 view .LVU188
  65:../USER/vramdisp.c **** 	dt = wddt.b[1]; GPIO_WriteBits(GPIO0,0x300+dt); GPIO_WriteBits(GPIO0,0x200+dt);
 720              		.loc 1 65 18 view .LVU189
  65:../USER/vramdisp.c **** 	dt = wddt.b[1]; GPIO_WriteBits(GPIO0,0x300+dt); GPIO_WriteBits(GPIO0,0x200+dt);
 721              		.loc 1 65 44 is_stmt 0 view .LVU190
 722 0010 2E78     		ldrb	r6, [r5]	@ zero_extendqisi2
  65:../USER/vramdisp.c **** 	dt = wddt.b[1]; GPIO_WriteBits(GPIO0,0x300+dt); GPIO_WriteBits(GPIO0,0x200+dt);
 723              		.loc 1 65 18 view .LVU191
 724 0012 2046     		mov	r0, r4
 725 0014 06F54071 		add	r1, r6, #768
 726 0018 FFF7FEFF 		bl	GPIO_WriteBits
 727              	.LVL73:
  65:../USER/vramdisp.c **** 	dt = wddt.b[1]; GPIO_WriteBits(GPIO0,0x300+dt); GPIO_WriteBits(GPIO0,0x200+dt);
 728              		.loc 1 65 50 is_stmt 1 view .LVU192
 729 001c 06F50071 		add	r1, r6, #512
 730 0020 2046     		mov	r0, r4
 731 0022 FFF7FEFF 		bl	GPIO_WriteBits
 732              	.LVL74:
  66:../USER/vramdisp.c **** 	dt = wddt.b[2]; GPIO_WriteBits(GPIO0,0x300+dt); GPIO_WriteBits(GPIO0,0x200+dt);
 733              		.loc 1 66 2 view .LVU193
  66:../USER/vramdisp.c **** 	dt = wddt.b[2]; GPIO_WriteBits(GPIO0,0x300+dt); GPIO_WriteBits(GPIO0,0x200+dt);
 734              		.loc 1 66 18 view .LVU194
  66:../USER/vramdisp.c **** 	dt = wddt.b[2]; GPIO_WriteBits(GPIO0,0x300+dt); GPIO_WriteBits(GPIO0,0x200+dt);
 735              		.loc 1 66 44 is_stmt 0 view .LVU195
 736 0026 6E78     		ldrb	r6, [r5, #1]	@ zero_extendqisi2
  66:../USER/vramdisp.c **** 	dt = wddt.b[2]; GPIO_WriteBits(GPIO0,0x300+dt); GPIO_WriteBits(GPIO0,0x200+dt);
 737              		.loc 1 66 18 view .LVU196
 738 0028 2046     		mov	r0, r4
 739 002a 06F54071 		add	r1, r6, #768
 740 002e FFF7FEFF 		bl	GPIO_WriteBits
 741              	.LVL75:
  66:../USER/vramdisp.c **** 	dt = wddt.b[2]; GPIO_WriteBits(GPIO0,0x300+dt); GPIO_WriteBits(GPIO0,0x200+dt);
 742              		.loc 1 66 50 is_stmt 1 view .LVU197
 743 0032 06F50071 		add	r1, r6, #512
 744 0036 2046     		mov	r0, r4
 745 0038 FFF7FEFF 		bl	GPIO_WriteBits
 746              	.LVL76:
  67:../USER/vramdisp.c **** 	dt = wddt.b[3]; GPIO_WriteBits(GPIO0,0x300+dt); GPIO_WriteBits(GPIO0,0x200+dt);
 747              		.loc 1 67 2 view .LVU198
  67:../USER/vramdisp.c **** 	dt = wddt.b[3]; GPIO_WriteBits(GPIO0,0x300+dt); GPIO_WriteBits(GPIO0,0x200+dt);
 748              		.loc 1 67 18 view .LVU199
  67:../USER/vramdisp.c **** 	dt = wddt.b[3]; GPIO_WriteBits(GPIO0,0x300+dt); GPIO_WriteBits(GPIO0,0x200+dt);
 749              		.loc 1 67 44 is_stmt 0 view .LVU200
 750 003c AE78     		ldrb	r6, [r5, #2]	@ zero_extendqisi2
  67:../USER/vramdisp.c **** 	dt = wddt.b[3]; GPIO_WriteBits(GPIO0,0x300+dt); GPIO_WriteBits(GPIO0,0x200+dt);
 751              		.loc 1 67 18 view .LVU201
 752 003e 2046     		mov	r0, r4
 753 0040 06F54071 		add	r1, r6, #768
 754 0044 FFF7FEFF 		bl	GPIO_WriteBits
 755              	.LVL77:
  67:../USER/vramdisp.c **** 	dt = wddt.b[3]; GPIO_WriteBits(GPIO0,0x300+dt); GPIO_WriteBits(GPIO0,0x200+dt);
 756              		.loc 1 67 50 is_stmt 1 view .LVU202
 757 0048 06F50071 		add	r1, r6, #512
 758 004c 2046     		mov	r0, r4
 759 004e FFF7FEFF 		bl	GPIO_WriteBits
 760              	.LVL78:
  68:../USER/vramdisp.c **** 	dt = wddt.b[4]; GPIO_WriteBits(GPIO0,0x300+dt); GPIO_WriteBits(GPIO0,0x200+dt);
 761              		.loc 1 68 2 view .LVU203
  68:../USER/vramdisp.c **** 	dt = wddt.b[4]; GPIO_WriteBits(GPIO0,0x300+dt); GPIO_WriteBits(GPIO0,0x200+dt);
 762              		.loc 1 68 18 view .LVU204
  68:../USER/vramdisp.c **** 	dt = wddt.b[4]; GPIO_WriteBits(GPIO0,0x300+dt); GPIO_WriteBits(GPIO0,0x200+dt);
 763              		.loc 1 68 44 is_stmt 0 view .LVU205
 764 0052 EE78     		ldrb	r6, [r5, #3]	@ zero_extendqisi2
  68:../USER/vramdisp.c **** 	dt = wddt.b[4]; GPIO_WriteBits(GPIO0,0x300+dt); GPIO_WriteBits(GPIO0,0x200+dt);
 765              		.loc 1 68 18 view .LVU206
 766 0054 2046     		mov	r0, r4
 767 0056 06F54071 		add	r1, r6, #768
 768 005a FFF7FEFF 		bl	GPIO_WriteBits
 769              	.LVL79:
  68:../USER/vramdisp.c **** 	dt = wddt.b[4]; GPIO_WriteBits(GPIO0,0x300+dt); GPIO_WriteBits(GPIO0,0x200+dt);
 770              		.loc 1 68 50 is_stmt 1 view .LVU207
 771 005e 06F50071 		add	r1, r6, #512
 772 0062 2046     		mov	r0, r4
 773 0064 FFF7FEFF 		bl	GPIO_WriteBits
 774              	.LVL80:
  69:../USER/vramdisp.c **** 	dt = wddt.b[5]; GPIO_WriteBits(GPIO0,0x300+dt); GPIO_WriteBits(GPIO0,0x200+dt);
 775              		.loc 1 69 2 view .LVU208
  69:../USER/vramdisp.c **** 	dt = wddt.b[5]; GPIO_WriteBits(GPIO0,0x300+dt); GPIO_WriteBits(GPIO0,0x200+dt);
 776              		.loc 1 69 18 view .LVU209
  69:../USER/vramdisp.c **** 	dt = wddt.b[5]; GPIO_WriteBits(GPIO0,0x300+dt); GPIO_WriteBits(GPIO0,0x200+dt);
 777              		.loc 1 69 44 is_stmt 0 view .LVU210
 778 0068 2E79     		ldrb	r6, [r5, #4]	@ zero_extendqisi2
  69:../USER/vramdisp.c **** 	dt = wddt.b[5]; GPIO_WriteBits(GPIO0,0x300+dt); GPIO_WriteBits(GPIO0,0x200+dt);
 779              		.loc 1 69 18 view .LVU211
 780 006a 2046     		mov	r0, r4
 781 006c 06F54071 		add	r1, r6, #768
 782 0070 FFF7FEFF 		bl	GPIO_WriteBits
 783              	.LVL81:
  69:../USER/vramdisp.c **** 	dt = wddt.b[5]; GPIO_WriteBits(GPIO0,0x300+dt); GPIO_WriteBits(GPIO0,0x200+dt);
 784              		.loc 1 69 50 is_stmt 1 view .LVU212
 785 0074 06F50071 		add	r1, r6, #512
 786 0078 2046     		mov	r0, r4
 787 007a FFF7FEFF 		bl	GPIO_WriteBits
 788              	.LVL82:
  70:../USER/vramdisp.c **** 	GPIO_WriteBits(GPIO0,0x0000);	// dir=in clk = Lo
 789              		.loc 1 70 2 view .LVU213
  70:../USER/vramdisp.c **** 	GPIO_WriteBits(GPIO0,0x0000);	// dir=in clk = Lo
 790              		.loc 1 70 18 view .LVU214
  70:../USER/vramdisp.c **** 	GPIO_WriteBits(GPIO0,0x0000);	// dir=in clk = Lo
 791              		.loc 1 70 44 is_stmt 0 view .LVU215
 792 007e 6D79     		ldrb	r5, [r5, #5]	@ zero_extendqisi2
  70:../USER/vramdisp.c **** 	GPIO_WriteBits(GPIO0,0x0000);	// dir=in clk = Lo
 793              		.loc 1 70 18 view .LVU216
 794 0080 2046     		mov	r0, r4
 795 0082 05F54071 		add	r1, r5, #768
 796 0086 FFF7FEFF 		bl	GPIO_WriteBits
 797              	.LVL83:
  70:../USER/vramdisp.c **** 	GPIO_WriteBits(GPIO0,0x0000);	// dir=in clk = Lo
 798              		.loc 1 70 50 is_stmt 1 view .LVU217
 799 008a 05F50071 		add	r1, r5, #512
 800 008e 2046     		mov	r0, r4
 801 0090 FFF7FEFF 		bl	GPIO_WriteBits
 802              	.LVL84:
  71:../USER/vramdisp.c **** }
 803              		.loc 1 71 2 view .LVU218
 804 0094 2046     		mov	r0, r4
 805              		.loc 1 72 1 is_stmt 0 view .LVU219
 806 0096 BDE87040 		pop	{r4, r5, r6, lr}
 807              		.cfi_restore 14
 808              		.cfi_restore 6
 809              		.cfi_restore 5
 810              		.cfi_restore 4
 811              		.cfi_def_cfa_offset 0
 812              	.LVL85:
  71:../USER/vramdisp.c **** }
 813              		.loc 1 71 2 view .LVU220
 814 009a 0021     		movs	r1, #0
 815 009c FFF7FEBF 		b	GPIO_WriteBits
 816              	.LVL86:
 817              	.L47:
 818              		.align	2
 819              	.L46:
 820 00a0 00000140 		.word	1073807360
 821 00a4 00000000 		.word	wddt
 822              		.cfi_endproc
 823              	.LFE33:
 825              		.section	.text.set_vram,"ax",%progbits
 826              		.align	1
 827              		.p2align 2,,3
 828              		.global	set_vram
 829              		.syntax unified
 830              		.thumb
 831              		.thumb_func
 832              		.fpu softvfp
 834              	set_vram:
 835              	.LVL87:
 836              	.LFB34:
  73:../USER/vramdisp.c **** 
  74:../USER/vramdisp.c **** void set_vram(int adry, int adrx){
 837              		.loc 1 74 34 is_stmt 1 view -0
 838              		.cfi_startproc
 839              		@ args = 0, pretend = 0, frame = 0
 840              		@ frame_needed = 0, uses_anonymous_args = 0
  75:../USER/vramdisp.c **** 	set_vramadr(adry, adrx);
 841              		.loc 1 75 2 view .LVU222
 842              	.LBB48:
 843              	.LBI48:
  17:../USER/vramdisp.c **** 	int adr;
 844              		.loc 1 17 6 view .LVU223
 845              	.LBB49:
  18:../USER/vramdisp.c **** 	adr = ((adry)*40+adrx)*32;
 846              		.loc 1 18 2 view .LVU224
  19:../USER/vramdisp.c **** 	GPIO_WriteBits(GPIO0,0x0000);	// dir=in clk = Lo
 847              		.loc 1 19 2 view .LVU225
  19:../USER/vramdisp.c **** 	GPIO_WriteBits(GPIO0,0x0000);	// dir=in clk = Lo
 848              		.loc 1 19 15 is_stmt 0 view .LVU226
 849 0000 00EB8000 		add	r0, r0, r0, lsl #2
 850              	.LVL88:
  19:../USER/vramdisp.c **** 	GPIO_WriteBits(GPIO0,0x0000);	// dir=in clk = Lo
 851              		.loc 1 19 15 view .LVU227
 852              	.LBE49:
 853              	.LBE48:
  74:../USER/vramdisp.c **** 	set_vramadr(adry, adrx);
 854              		.loc 1 74 34 view .LVU228
 855 0004 F8B5     		push	{r3, r4, r5, r6, r7, lr}
 856              		.cfi_def_cfa_offset 24
 857              		.cfi_offset 3, -24
 858              		.cfi_offset 4, -20
 859              		.cfi_offset 5, -16
 860              		.cfi_offset 6, -12
 861              		.cfi_offset 7, -8
 862              		.cfi_offset 14, -4
 863              	.LBB52:
 864              	.LBB50:
  19:../USER/vramdisp.c **** 	GPIO_WriteBits(GPIO0,0x0000);	// dir=in clk = Lo
 865              		.loc 1 19 18 view .LVU229
 866 0006 01EBC004 		add	r4, r1, r0, lsl #3
  20:../USER/vramdisp.c **** 	do{pd = GPIO_ReadBits(GPIO0);}  while((pd & 1)!=0);		// Wait Busy
 867              		.loc 1 20 2 view .LVU230
 868 000a 1D48     		ldr	r0, .L56
 869 000c 0021     		movs	r1, #0
 870              	.LVL89:
  20:../USER/vramdisp.c **** 	do{pd = GPIO_ReadBits(GPIO0);}  while((pd & 1)!=0);		// Wait Busy
 871              		.loc 1 20 2 view .LVU231
 872 000e FFF7FEFF 		bl	GPIO_WriteBits
 873              	.LVL90:
 874 0012 1C4D     		ldr	r5, .L56+4
  21:../USER/vramdisp.c **** 	wddt.i[0] = adr;
 875              		.loc 1 21 10 view .LVU232
 876 0014 1A4E     		ldr	r6, .L56
  19:../USER/vramdisp.c **** 	GPIO_WriteBits(GPIO0,0x0000);	// dir=in clk = Lo
 877              		.loc 1 19 6 view .LVU233
 878 0016 6401     		lsls	r4, r4, #5
 879              	.LVL91:
  20:../USER/vramdisp.c **** 	do{pd = GPIO_ReadBits(GPIO0);}  while((pd & 1)!=0);		// Wait Busy
 880              		.loc 1 20 2 is_stmt 1 view .LVU234
 881              	.L49:
  21:../USER/vramdisp.c **** 	wddt.i[0] = adr;
 882              		.loc 1 21 2 view .LVU235
  21:../USER/vramdisp.c **** 	wddt.i[0] = adr;
 883              		.loc 1 21 5 view .LVU236
  21:../USER/vramdisp.c **** 	wddt.i[0] = adr;
 884              		.loc 1 21 10 is_stmt 0 view .LVU237
 885 0018 3046     		mov	r0, r6
 886 001a FFF7FEFF 		bl	GPIO_ReadBits
 887              	.LVL92:
  21:../USER/vramdisp.c **** 	wddt.i[0] = adr;
 888              		.loc 1 21 8 view .LVU238
 889 001e C0B2     		uxtb	r0, r0
 890 0020 2870     		strb	r0, [r5]
  21:../USER/vramdisp.c **** 	wddt.i[0] = adr;
 891              		.loc 1 21 44 view .LVU239
 892 0022 2978     		ldrb	r1, [r5]	@ zero_extendqisi2
  21:../USER/vramdisp.c **** 	wddt.i[0] = adr;
 893              		.loc 1 21 2 view .LVU240
 894 0024 11F00101 		ands	r1, r1, #1
 895 0028 F6D1     		bne	.L49
  22:../USER/vramdisp.c **** }
 896              		.loc 1 22 2 is_stmt 1 view .LVU241
  22:../USER/vramdisp.c **** }
 897              		.loc 1 22 12 is_stmt 0 view .LVU242
 898 002a 174B     		ldr	r3, .L56+8
 899              	.LBE50:
 900              	.LBE52:
 901              	.LBB53:
 902              	.LBB54:
  51:../USER/vramdisp.c **** 	do{pd = GPIO_ReadBits(GPIO0);}  while((pd & 1)!=0);		// Wait Busy
 903              		.loc 1 51 2 view .LVU243
 904 002c 1448     		ldr	r0, .L56
 905              	.LBE54:
 906              	.LBE53:
 907              	.LBB57:
 908              	.LBB51:
  22:../USER/vramdisp.c **** }
 909              		.loc 1 22 12 view .LVU244
 910 002e 1C60     		str	r4, [r3]
 911              	.LVL93:
  22:../USER/vramdisp.c **** }
 912              		.loc 1 22 12 view .LVU245
 913              	.LBE51:
 914              	.LBE57:
  76:../USER/vramdisp.c **** 	set_vramdata(37);
 915              		.loc 1 76 2 is_stmt 1 view .LVU246
 916              	.LBB58:
 917              	.LBI53:
  49:../USER/vramdisp.c **** 	unsigned char i, dt;
 918              		.loc 1 49 6 view .LVU247
 919              	.LBB55:
  50:../USER/vramdisp.c **** 	GPIO_WriteBits(GPIO0,0x0000);	// dir=in clk = Lo
 920              		.loc 1 50 2 view .LVU248
  51:../USER/vramdisp.c **** 	do{pd = GPIO_ReadBits(GPIO0);}  while((pd & 1)!=0);		// Wait Busy
 921              		.loc 1 51 2 view .LVU249
 922 0030 FFF7FEFF 		bl	GPIO_WriteBits
 923              	.LVL94:
  52:../USER/vramdisp.c **** 	GPIO_WriteBits(GPIO0,0x200);	// dir=out clk=Lo
 924              		.loc 1 52 10 is_stmt 0 view .LVU250
 925 0034 124C     		ldr	r4, .L56
 926              	.L50:
  52:../USER/vramdisp.c **** 	GPIO_WriteBits(GPIO0,0x200);	// dir=out clk=Lo
 927              		.loc 1 52 2 is_stmt 1 view .LVU251
  52:../USER/vramdisp.c **** 	GPIO_WriteBits(GPIO0,0x200);	// dir=out clk=Lo
 928              		.loc 1 52 5 view .LVU252
  52:../USER/vramdisp.c **** 	GPIO_WriteBits(GPIO0,0x200);	// dir=out clk=Lo
 929              		.loc 1 52 10 is_stmt 0 view .LVU253
 930 0036 2046     		mov	r0, r4
 931 0038 FFF7FEFF 		bl	GPIO_ReadBits
 932              	.LVL95:
  52:../USER/vramdisp.c **** 	GPIO_WriteBits(GPIO0,0x200);	// dir=out clk=Lo
 933              		.loc 1 52 8 view .LVU254
 934 003c C0B2     		uxtb	r0, r0
 935 003e 2870     		strb	r0, [r5]
  52:../USER/vramdisp.c **** 	GPIO_WriteBits(GPIO0,0x200);	// dir=out clk=Lo
 936              		.loc 1 52 44 view .LVU255
 937 0040 2B78     		ldrb	r3, [r5]	@ zero_extendqisi2
  52:../USER/vramdisp.c **** 	GPIO_WriteBits(GPIO0,0x200);	// dir=out clk=Lo
 938              		.loc 1 52 2 view .LVU256
 939 0042 DB07     		lsls	r3, r3, #31
 940 0044 F7D4     		bmi	.L50
  53:../USER/vramdisp.c **** 	for(i=0;i<dl;i++){
 941              		.loc 1 53 2 is_stmt 1 view .LVU257
 942 0046 4FF40071 		mov	r1, #512
 943 004a 0D48     		ldr	r0, .L56
 944 004c FFF7FEFF 		bl	GPIO_WriteBits
 945              	.LVL96:
  54:../USER/vramdisp.c **** 		dt = wddt.b[i];
 946              		.loc 1 54 2 view .LVU258
  54:../USER/vramdisp.c **** 		dt = wddt.b[i];
 947              		.loc 1 54 2 is_stmt 0 view .LVU259
 948 0050 0E4C     		ldr	r4, .L56+12
  56:../USER/vramdisp.c **** 		GPIO_WriteBits(GPIO0,0x200+dt);
 949              		.loc 1 56 3 view .LVU260
 950 0052 0B4D     		ldr	r5, .L56
 951 0054 04F12507 		add	r7, r4, #37
 952              	.LVL97:
 953              	.L51:
  55:../USER/vramdisp.c **** 		GPIO_WriteBits(GPIO0,0x300+dt);
 954              		.loc 1 55 3 is_stmt 1 view .LVU261
  56:../USER/vramdisp.c **** 		GPIO_WriteBits(GPIO0,0x200+dt);
 955              		.loc 1 56 3 view .LVU262
  56:../USER/vramdisp.c **** 		GPIO_WriteBits(GPIO0,0x200+dt);
 956              		.loc 1 56 29 is_stmt 0 view .LVU263
 957 0058 14F8016F 		ldrb	r6, [r4, #1]!	@ zero_extendqisi2
 958              	.LVL98:
  56:../USER/vramdisp.c **** 		GPIO_WriteBits(GPIO0,0x200+dt);
 959              		.loc 1 56 3 view .LVU264
 960 005c 2846     		mov	r0, r5
 961 005e 06F54071 		add	r1, r6, #768
 962 0062 FFF7FEFF 		bl	GPIO_WriteBits
 963              	.LVL99:
  57:../USER/vramdisp.c **** 	}
 964              		.loc 1 57 3 is_stmt 1 view .LVU265
 965 0066 06F50071 		add	r1, r6, #512
 966 006a 2846     		mov	r0, r5
 967 006c FFF7FEFF 		bl	GPIO_WriteBits
 968              	.LVL100:
  54:../USER/vramdisp.c **** 		dt = wddt.b[i];
 969              		.loc 1 54 2 is_stmt 0 view .LVU266
 970 0070 A742     		cmp	r7, r4
 971 0072 F1D1     		bne	.L51
  59:../USER/vramdisp.c **** }
 972              		.loc 1 59 2 is_stmt 1 view .LVU267
 973              	.LBE55:
 974              	.LBE58:
  77:../USER/vramdisp.c **** }
 975              		.loc 1 77 1 is_stmt 0 view .LVU268
 976 0074 BDE8F840 		pop	{r3, r4, r5, r6, r7, lr}
 977              		.cfi_restore 14
 978              		.cfi_restore 7
 979              		.cfi_restore 6
 980              		.cfi_restore 5
 981              		.cfi_restore 4
 982              		.cfi_restore 3
 983              		.cfi_def_cfa_offset 0
 984              	.LVL101:
 985              	.LBB59:
 986              	.LBB56:
  59:../USER/vramdisp.c **** }
 987              		.loc 1 59 2 view .LVU269
 988 0078 0021     		movs	r1, #0
 989 007a 0148     		ldr	r0, .L56
 990 007c FFF7FEBF 		b	GPIO_WriteBits
 991              	.LVL102:
 992              	.L57:
 993              		.align	2
 994              	.L56:
 995 0080 00000140 		.word	1073807360
 996 0084 00000000 		.word	pd
 997 0088 00000000 		.word	wddt
 998 008c FFFFFFFF 		.word	wddt-1
 999              	.LBE56:
 1000              	.LBE59:
 1001              		.cfi_endproc
 1002              	.LFE34:
 1004              		.section	.text.move_vram,"ax",%progbits
 1005              		.align	1
 1006              		.p2align 2,,3
 1007              		.global	move_vram
 1008              		.syntax unified
 1009              		.thumb
 1010              		.thumb_func
 1011              		.fpu softvfp
 1013              	move_vram:
 1014              	.LVL103:
 1015              	.LFB35:
  78:../USER/vramdisp.c **** 
  79:../USER/vramdisp.c **** void move_vram(int dadr, int dlen, int sadr, int mode){
 1016              		.loc 1 79 55 is_stmt 1 view -0
 1017              		.cfi_startproc
 1018              		@ args = 0, pretend = 0, frame = 0
 1019              		@ frame_needed = 0, uses_anonymous_args = 0
  80:../USER/vramdisp.c **** 	unsigned char i, dt;
 1020              		.loc 1 80 2 view .LVU271
  81:../USER/vramdisp.c **** 	if(dadr==-1) {
 1021              		.loc 1 81 2 view .LVU272
  79:../USER/vramdisp.c **** 	unsigned char i, dt;
 1022              		.loc 1 79 55 is_stmt 0 view .LVU273
 1023 0000 2DE9F041 		push	{r4, r5, r6, r7, r8, lr}
 1024              		.cfi_def_cfa_offset 24
 1025              		.cfi_offset 4, -24
 1026              		.cfi_offset 5, -20
 1027              		.cfi_offset 6, -16
 1028              		.cfi_offset 7, -12
 1029              		.cfi_offset 8, -8
 1030              		.cfi_offset 14, -4
  79:../USER/vramdisp.c **** 	unsigned char i, dt;
 1031              		.loc 1 79 55 view .LVU274
 1032 0004 1E46     		mov	r6, r3
 1033              		.loc 1 81 4 view .LVU275
 1034 0006 431C     		adds	r3, r0, #1
 1035              	.LVL104:
 1036              		.loc 1 81 4 view .LVU276
 1037 0008 32D0     		beq	.L59
 1038 000a 0B46     		mov	r3, r1
 1039              	.LVL105:
 1040              	.L60:
  82:../USER/vramdisp.c **** 		if(mode==10){ dadr=0; dlen=640*2*(360); sadr=0x001f; }		// Fill
  83:../USER/vramdisp.c **** 		if(mode==12){ dadr=0; dlen=640*2*(360-10); sadr=640*2*8; }	// Move
  84:../USER/vramdisp.c **** 	}
  85:../USER/vramdisp.c **** 	wddt.i[0] = dadr; wddt.i[1] = dlen; wddt.i[2] = sadr;
 1041              		.loc 1 85 2 is_stmt 1 view .LVU277
 1042              		.loc 1 85 12 is_stmt 0 view .LVU278
 1043 000c 214D     		ldr	r5, .L70
 1044              	.LBB62:
 1045              	.LBB63:
  51:../USER/vramdisp.c **** 	do{pd = GPIO_ReadBits(GPIO0);}  while((pd & 1)!=0);		// Wait Busy
 1046              		.loc 1 51 2 view .LVU279
 1047 000e 0021     		movs	r1, #0
 1048              	.LBE63:
 1049              	.LBE62:
 1050              		.loc 1 85 12 view .LVU280
 1051 0010 2860     		str	r0, [r5]
 1052              		.loc 1 85 20 is_stmt 1 view .LVU281
 1053              	.LBB67:
 1054              	.LBB64:
  51:../USER/vramdisp.c **** 	do{pd = GPIO_ReadBits(GPIO0);}  while((pd & 1)!=0);		// Wait Busy
 1055              		.loc 1 51 2 is_stmt 0 view .LVU282
 1056 0012 2148     		ldr	r0, .L70+4
 1057              	.LBE64:
 1058              	.LBE67:
 1059              		.loc 1 85 48 view .LVU283
 1060 0014 C5E90132 		strd	r3, r2, [r5, #4]
  86:../USER/vramdisp.c **** 	set_vramdata(mode);
 1061              		.loc 1 86 2 is_stmt 1 view .LVU284
 1062              	.LVL106:
 1063              	.LBB68:
 1064              	.LBI62:
  49:../USER/vramdisp.c **** 	unsigned char i, dt;
 1065              		.loc 1 49 6 view .LVU285
 1066              	.LBB65:
  50:../USER/vramdisp.c **** 	GPIO_WriteBits(GPIO0,0x0000);	// dir=in clk = Lo
 1067              		.loc 1 50 2 view .LVU286
  51:../USER/vramdisp.c **** 	do{pd = GPIO_ReadBits(GPIO0);}  while((pd & 1)!=0);		// Wait Busy
 1068              		.loc 1 51 2 view .LVU287
 1069 0018 FFF7FEFF 		bl	GPIO_WriteBits
 1070              	.LVL107:
 1071 001c 1F4F     		ldr	r7, .L70+8
  52:../USER/vramdisp.c **** 	GPIO_WriteBits(GPIO0,0x200);	// dir=out clk=Lo
 1072              		.loc 1 52 10 is_stmt 0 view .LVU288
 1073 001e DFF87880 		ldr	r8, .L70+4
 1074              	.L61:
  52:../USER/vramdisp.c **** 	GPIO_WriteBits(GPIO0,0x200);	// dir=out clk=Lo
 1075              		.loc 1 52 2 is_stmt 1 view .LVU289
  52:../USER/vramdisp.c **** 	GPIO_WriteBits(GPIO0,0x200);	// dir=out clk=Lo
 1076              		.loc 1 52 5 view .LVU290
  52:../USER/vramdisp.c **** 	GPIO_WriteBits(GPIO0,0x200);	// dir=out clk=Lo
 1077              		.loc 1 52 10 is_stmt 0 view .LVU291
 1078 0022 4046     		mov	r0, r8
 1079 0024 FFF7FEFF 		bl	GPIO_ReadBits
 1080              	.LVL108:
  52:../USER/vramdisp.c **** 	GPIO_WriteBits(GPIO0,0x200);	// dir=out clk=Lo
 1081              		.loc 1 52 8 view .LVU292
 1082 0028 C0B2     		uxtb	r0, r0
 1083 002a 3870     		strb	r0, [r7]
  52:../USER/vramdisp.c **** 	GPIO_WriteBits(GPIO0,0x200);	// dir=out clk=Lo
 1084              		.loc 1 52 44 view .LVU293
 1085 002c 3C78     		ldrb	r4, [r7]	@ zero_extendqisi2
  52:../USER/vramdisp.c **** 	GPIO_WriteBits(GPIO0,0x200);	// dir=out clk=Lo
 1086              		.loc 1 52 2 view .LVU294
 1087 002e 14F00104 		ands	r4, r4, #1
 1088 0032 F6D1     		bne	.L61
  53:../USER/vramdisp.c **** 	for(i=0;i<dl;i++){
 1089              		.loc 1 53 2 is_stmt 1 view .LVU295
 1090 0034 4FF40071 		mov	r1, #512
 1091 0038 1748     		ldr	r0, .L70+4
 1092 003a FFF7FEFF 		bl	GPIO_WriteBits
 1093              	.LVL109:
  54:../USER/vramdisp.c **** 		dt = wddt.b[i];
 1094              		.loc 1 54 2 view .LVU296
  54:../USER/vramdisp.c **** 		dt = wddt.b[i];
 1095              		.loc 1 54 2 is_stmt 0 view .LVU297
 1096 003e 002E     		cmp	r6, #0
 1097 0040 10DD     		ble	.L63
  56:../USER/vramdisp.c **** 		GPIO_WriteBits(GPIO0,0x200+dt);
 1098              		.loc 1 56 3 view .LVU298
 1099 0042 DFF85480 		ldr	r8, .L70+4
 1100              	.LVL110:
 1101              	.L62:
  55:../USER/vramdisp.c **** 		GPIO_WriteBits(GPIO0,0x300+dt);
 1102              		.loc 1 55 3 is_stmt 1 view .LVU299
  56:../USER/vramdisp.c **** 		GPIO_WriteBits(GPIO0,0x200+dt);
 1103              		.loc 1 56 3 view .LVU300
  56:../USER/vramdisp.c **** 		GPIO_WriteBits(GPIO0,0x200+dt);
 1104              		.loc 1 56 29 is_stmt 0 view .LVU301
 1105 0046 2F5D     		ldrb	r7, [r5, r4]	@ zero_extendqisi2
  56:../USER/vramdisp.c **** 		GPIO_WriteBits(GPIO0,0x200+dt);
 1106              		.loc 1 56 3 view .LVU302
 1107 0048 4046     		mov	r0, r8
 1108 004a 07F54071 		add	r1, r7, #768
  54:../USER/vramdisp.c **** 		dt = wddt.b[i];
 1109              		.loc 1 54 16 view .LVU303
 1110 004e 0134     		adds	r4, r4, #1
 1111              	.LVL111:
  56:../USER/vramdisp.c **** 		GPIO_WriteBits(GPIO0,0x200+dt);
 1112              		.loc 1 56 3 view .LVU304
 1113 0050 FFF7FEFF 		bl	GPIO_WriteBits
 1114              	.LVL112:
  57:../USER/vramdisp.c **** 	}
 1115              		.loc 1 57 3 is_stmt 1 view .LVU305
  54:../USER/vramdisp.c **** 		dt = wddt.b[i];
 1116              		.loc 1 54 16 is_stmt 0 view .LVU306
 1117 0054 E4B2     		uxtb	r4, r4
  57:../USER/vramdisp.c **** 	}
 1118              		.loc 1 57 3 view .LVU307
 1119 0056 07F50071 		add	r1, r7, #512
 1120 005a 4046     		mov	r0, r8
 1121 005c FFF7FEFF 		bl	GPIO_WriteBits
 1122              	.LVL113:
  54:../USER/vramdisp.c **** 		dt = wddt.b[i];
 1123              		.loc 1 54 2 view .LVU308
 1124 0060 A642     		cmp	r6, r4
 1125 0062 F0DC     		bgt	.L62
 1126              	.LVL114:
 1127              	.L63:
  59:../USER/vramdisp.c **** }
 1128              		.loc 1 59 2 is_stmt 1 view .LVU309
 1129              	.LBE65:
 1130              	.LBE68:
  87:../USER/vramdisp.c **** }
 1131              		.loc 1 87 1 is_stmt 0 view .LVU310
 1132 0064 BDE8F041 		pop	{r4, r5, r6, r7, r8, lr}
 1133              		.cfi_remember_state
 1134              		.cfi_restore 14
 1135              		.cfi_restore 8
 1136              		.cfi_restore 7
 1137              		.cfi_restore 6
 1138              		.cfi_restore 5
 1139              		.cfi_restore 4
 1140              		.cfi_def_cfa_offset 0
 1141              	.LVL115:
 1142              	.LBB69:
 1143              	.LBB66:
  59:../USER/vramdisp.c **** }
 1144              		.loc 1 59 2 view .LVU311
 1145 0068 0021     		movs	r1, #0
 1146 006a 0B48     		ldr	r0, .L70+4
 1147 006c FFF7FEBF 		b	GPIO_WriteBits
 1148              	.LVL116:
 1149              	.L59:
 1150              		.cfi_restore_state
  59:../USER/vramdisp.c **** }
 1151              		.loc 1 59 2 view .LVU312
 1152              	.LBE66:
 1153              	.LBE69:
  82:../USER/vramdisp.c **** 		if(mode==12){ dadr=0; dlen=640*2*(360-10); sadr=640*2*8; }	// Move
 1154              		.loc 1 82 3 is_stmt 1 view .LVU313
  82:../USER/vramdisp.c **** 		if(mode==12){ dadr=0; dlen=640*2*(360-10); sadr=640*2*8; }	// Move
 1155              		.loc 1 82 5 is_stmt 0 view .LVU314
 1156 0070 0A2E     		cmp	r6, #10
 1157 0072 09D0     		beq	.L64
 1158              	.LVL117:
  83:../USER/vramdisp.c **** 	}
 1159              		.loc 1 83 3 is_stmt 1 view .LVU315
 1160 0074 0C2E     		cmp	r6, #12
 1161 0076 0A4B     		ldr	r3, .L70+12
 1162 0078 0BBF     		itete	eq
 1163 007a 4FF42052 		moveq	r2, #10240
 1164              	.LVL118:
  83:../USER/vramdisp.c **** 	}
 1165              		.loc 1 83 3 is_stmt 0 view .LVU316
 1166 007e 0B46     		movne	r3, r1
 1167 0080 0020     		moveq	r0, #0
 1168 0082 4FF0FF30 		movne	r0, #-1
 1169 0086 C1E7     		b	.L60
 1170              	.LVL119:
 1171              	.L64:
  83:../USER/vramdisp.c **** 	}
 1172              		.loc 1 83 3 view .LVU317
 1173 0088 1F22     		movs	r2, #31
 1174              	.LVL120:
  83:../USER/vramdisp.c **** 	}
 1175              		.loc 1 83 3 view .LVU318
 1176 008a 4FF4E123 		mov	r3, #460800
 1177 008e 0020     		movs	r0, #0
 1178              	.LVL121:
  83:../USER/vramdisp.c **** 	}
 1179              		.loc 1 83 3 view .LVU319
 1180 0090 BCE7     		b	.L60
 1181              	.L71:
 1182 0092 00BF     		.align	2
 1183              	.L70:
 1184 0094 00000000 		.word	wddt
 1185 0098 00000140 		.word	1073807360
 1186 009c 00000000 		.word	pd
 1187 00a0 00D60600 		.word	448000
 1188              		.cfi_endproc
 1189              	.LFE35:
 1191              		.section	.text.set_vramm,"ax",%progbits
 1192              		.align	1
 1193              		.p2align 2,,3
 1194              		.global	set_vramm
 1195              		.syntax unified
 1196              		.thumb
 1197              		.thumb_func
 1198              		.fpu softvfp
 1200              	set_vramm:
 1201              	.LVL122:
 1202              	.LFB36:
  88:../USER/vramdisp.c **** void set_vramm(int adry, int adrx, int ptn, int mask, int loopy, int loopx){
 1203              		.loc 1 88 76 is_stmt 1 view -0
 1204              		.cfi_startproc
 1205              		@ args = 8, pretend = 0, frame = 8
 1206              		@ frame_needed = 0, uses_anonymous_args = 0
  89:../USER/vramdisp.c **** 	int adr, x,y;
 1207              		.loc 1 89 2 view .LVU321
  90:../USER/vramdisp.c **** 	unsigned char i, ph, pl, dt;
 1208              		.loc 1 90 2 view .LVU322
  91:../USER/vramdisp.c **** 	if(loopy == -1) loopy = 1;
 1209              		.loc 1 91 2 view .LVU323
  88:../USER/vramdisp.c **** 	int adr, x,y;
 1210              		.loc 1 88 76 is_stmt 0 view .LVU324
 1211 0000 2DE9F04F 		push	{r4, r5, r6, r7, r8, r9, r10, fp, lr}
 1212              		.cfi_def_cfa_offset 36
 1213              		.cfi_offset 4, -36
 1214              		.cfi_offset 5, -32
 1215              		.cfi_offset 6, -28
 1216              		.cfi_offset 7, -24
 1217              		.cfi_offset 8, -20
 1218              		.cfi_offset 9, -16
 1219              		.cfi_offset 10, -12
 1220              		.cfi_offset 11, -8
 1221              		.cfi_offset 14, -4
 1222 0004 83B0     		sub	sp, sp, #12
 1223              		.cfi_def_cfa_offset 48
 1224              		.loc 1 91 24 view .LVU325
 1225 0006 0C9D     		ldr	r5, [sp, #48]
 1226 0008 0024     		movs	r4, #0
 1227 000a 6F1C     		adds	r7, r5, #1
 1228 000c 08BF     		it	eq
 1229 000e 0125     		moveq	r5, #1
  92:../USER/vramdisp.c **** 	if(loopx == -1) loopx = 1;
  93:../USER/vramdisp.c **** 	ph = ptn >> 8; pl = ptn & 0xff;
 1230              		.loc 1 93 20 view .LVU326
 1231 0010 D6B2     		uxtb	r6, r2
  94:../USER/vramdisp.c **** 	for(i=0;i<32;i=i+2){ wddt.b[4+i] = pl; wddt.b[5+i] = ph;}
 1232              		.loc 1 94 35 view .LVU327
 1233 0012 DFF8EC80 		ldr	r8, .L86+8
  91:../USER/vramdisp.c **** 	if(loopx == -1) loopx = 1;
 1234              		.loc 1 91 24 view .LVU328
 1235 0016 0C95     		str	r5, [sp, #48]
 1236              	.LVL123:
  92:../USER/vramdisp.c **** 	if(loopx == -1) loopx = 1;
 1237              		.loc 1 92 2 is_stmt 1 view .LVU329
 1238 0018 66F30704 		bfi	r4, r6, #0, #8
  93:../USER/vramdisp.c **** 	for(i=0;i<32;i=i+2){ wddt.b[4+i] = pl; wddt.b[5+i] = ph;}
 1239              		.loc 1 93 5 is_stmt 0 view .LVU330
 1240 001c C2F30725 		ubfx	r5, r2, #8, #8
 1241              	.LVL124:
  93:../USER/vramdisp.c **** 	for(i=0;i<32;i=i+2){ wddt.b[4+i] = pl; wddt.b[5+i] = ph;}
 1242              		.loc 1 93 5 view .LVU331
 1243 0020 65F30F24 		bfi	r4, r5, #8, #8
  88:../USER/vramdisp.c **** 	int adr, x,y;
 1244              		.loc 1 88 76 view .LVU332
 1245 0024 0D9A     		ldr	r2, [sp, #52]
 1246              	.LVL125:
  88:../USER/vramdisp.c **** 	int adr, x,y;
 1247              		.loc 1 88 76 view .LVU333
 1248 0026 66F31744 		bfi	r4, r6, #16, #8
  95:../USER/vramdisp.c **** 	wddt.b[36] = mask;
 1249              		.loc 1 95 13 view .LVU334
 1250 002a 88F82430 		strb	r3, [r8, #36]
  96:../USER/vramdisp.c **** 	for(y=0; y<loopy; y++)
 1251              		.loc 1 96 2 view .LVU335
 1252 002e 0C9B     		ldr	r3, [sp, #48]
 1253              	.LVL126:
 1254              		.loc 1 96 2 view .LVU336
 1255 0030 65F31F64 		bfi	r4, r5, #24, #8
  92:../USER/vramdisp.c **** 	ph = ptn >> 8; pl = ptn & 0xff;
 1256              		.loc 1 92 24 view .LVU337
 1257 0034 551C     		adds	r5, r2, #1
 1258 0036 08BF     		it	eq
 1259 0038 0122     		moveq	r2, #1
 1260              	.LVL127:
  93:../USER/vramdisp.c **** 	for(i=0;i<32;i=i+2){ wddt.b[4+i] = pl; wddt.b[5+i] = ph;}
 1261              		.loc 1 93 2 is_stmt 1 view .LVU338
  93:../USER/vramdisp.c **** 	for(i=0;i<32;i=i+2){ wddt.b[4+i] = pl; wddt.b[5+i] = ph;}
 1262              		.loc 1 93 17 view .LVU339
  94:../USER/vramdisp.c **** 	wddt.b[36] = mask;
 1263              		.loc 1 94 2 view .LVU340
  94:../USER/vramdisp.c **** 	wddt.b[36] = mask;
 1264              		.loc 1 94 23 view .LVU341
  94:../USER/vramdisp.c **** 	wddt.b[36] = mask;
 1265              		.loc 1 94 41 view .LVU342
  94:../USER/vramdisp.c **** 	wddt.b[36] = mask;
 1266              		.loc 1 94 23 view .LVU343
  94:../USER/vramdisp.c **** 	wddt.b[36] = mask;
 1267              		.loc 1 94 41 view .LVU344
  94:../USER/vramdisp.c **** 	wddt.b[36] = mask;
 1268              		.loc 1 94 23 view .LVU345
  94:../USER/vramdisp.c **** 	wddt.b[36] = mask;
 1269              		.loc 1 94 41 view .LVU346
  94:../USER/vramdisp.c **** 	wddt.b[36] = mask;
 1270              		.loc 1 94 23 view .LVU347
  94:../USER/vramdisp.c **** 	wddt.b[36] = mask;
 1271              		.loc 1 94 41 view .LVU348
  94:../USER/vramdisp.c **** 	wddt.b[36] = mask;
 1272              		.loc 1 94 23 view .LVU349
  94:../USER/vramdisp.c **** 	wddt.b[36] = mask;
 1273              		.loc 1 94 41 view .LVU350
  94:../USER/vramdisp.c **** 	wddt.b[36] = mask;
 1274              		.loc 1 94 23 view .LVU351
  94:../USER/vramdisp.c **** 	wddt.b[36] = mask;
 1275              		.loc 1 94 41 view .LVU352
  94:../USER/vramdisp.c **** 	wddt.b[36] = mask;
 1276              		.loc 1 94 23 view .LVU353
  94:../USER/vramdisp.c **** 	wddt.b[36] = mask;
 1277              		.loc 1 94 41 view .LVU354
  94:../USER/vramdisp.c **** 	wddt.b[36] = mask;
 1278              		.loc 1 94 23 view .LVU355
  94:../USER/vramdisp.c **** 	wddt.b[36] = mask;
 1279              		.loc 1 94 41 view .LVU356
  95:../USER/vramdisp.c **** 	for(y=0; y<loopy; y++)
 1280              		.loc 1 95 2 view .LVU357
 1281              		.loc 1 96 2 view .LVU358
 1282              		.loc 1 96 2 is_stmt 0 view .LVU359
 1283 003a 002B     		cmp	r3, #0
  94:../USER/vramdisp.c **** 	wddt.b[36] = mask;
 1284              		.loc 1 94 35 view .LVU360
 1285 003c C8E90144 		strd	r4, r4, [r8, #4]
 1286 0040 C8E90344 		strd	r4, r4, [r8, #12]
 1287 0044 C8E90544 		strd	r4, r4, [r8, #20]
 1288 0048 C8E90744 		strd	r4, r4, [r8, #28]
 1289              		.loc 1 96 2 view .LVU361
 1290 004c 51DD     		ble	.L72
 1291 004e 002A     		cmp	r2, #0
 1292 0050 4FDD     		ble	.L72
 1293 0052 00EB8000 		add	r0, r0, r0, lsl #2
 1294              	.LVL128:
 1295              		.loc 1 96 2 view .LVU362
 1296 0056 01EBC001 		add	r1, r1, r0, lsl #3
 1297              	.LVL129:
 1298              		.loc 1 96 2 view .LVU363
 1299 005a 8F18     		adds	r7, r1, r2
 1300 005c C2EBC262 		rsb	r2, r2, r2, lsl #27
 1301              	.LVL130:
 1302              		.loc 1 96 2 view .LVU364
 1303 0060 5301     		lsls	r3, r2, #5
 1304 0062 0193     		str	r3, [sp, #4]
 1305              		.loc 1 96 7 view .LVU365
 1306 0064 0023     		movs	r3, #0
 1307 0066 244D     		ldr	r5, .L86
 1308              	.LBB76:
 1309              	.LBB77:
 1310              	.LBB78:
  20:../USER/vramdisp.c **** 	do{pd = GPIO_ReadBits(GPIO0);}  while((pd & 1)!=0);		// Wait Busy
 1311              		.loc 1 20 2 view .LVU366
 1312 0068 244C     		ldr	r4, .L86+4
 1313 006a 7F01     		lsls	r7, r7, #5
 1314              	.LBE78:
 1315              	.LBE77:
 1316              	.LBE76:
 1317              		.loc 1 96 7 view .LVU367
 1318 006c 0093     		str	r3, [sp]
 1319 006e 08F12409 		add	r9, r8, #36
 1320              	.LVL131:
 1321              	.L76:
 1322              		.loc 1 96 7 view .LVU368
 1323 0072 019B     		ldr	r3, [sp, #4]
 1324 0074 FE18     		adds	r6, r7, r3
 1325              	.LVL132:
 1326              	.L80:
  97:../USER/vramdisp.c **** 		for(x=0; x<loopx; x++) { set_vram(adry+y, adrx+x); }
 1327              		.loc 1 97 28 is_stmt 1 discriminator 3 view .LVU369
 1328              	.LBB87:
 1329              	.LBI76:
  74:../USER/vramdisp.c **** 	set_vramadr(adry, adrx);
 1330              		.loc 1 74 6 discriminator 3 view .LVU370
 1331              	.LBE87:
  75:../USER/vramdisp.c **** 	set_vramdata(37);
 1332              		.loc 1 75 2 discriminator 3 view .LVU371
 1333              	.LBB88:
 1334              	.LBB81:
 1335              	.LBI77:
  17:../USER/vramdisp.c **** 	int adr;
 1336              		.loc 1 17 6 discriminator 3 view .LVU372
 1337              	.LBB79:
  18:../USER/vramdisp.c **** 	adr = ((adry)*40+adrx)*32;
 1338              		.loc 1 18 2 discriminator 3 view .LVU373
  19:../USER/vramdisp.c **** 	GPIO_WriteBits(GPIO0,0x0000);	// dir=in clk = Lo
 1339              		.loc 1 19 2 discriminator 3 view .LVU374
  20:../USER/vramdisp.c **** 	do{pd = GPIO_ReadBits(GPIO0);}  while((pd & 1)!=0);		// Wait Busy
 1340              		.loc 1 20 2 discriminator 3 view .LVU375
 1341 0076 0021     		movs	r1, #0
 1342 0078 2046     		mov	r0, r4
 1343 007a FFF7FEFF 		bl	GPIO_WriteBits
 1344              	.LVL133:
 1345              	.L77:
  21:../USER/vramdisp.c **** 	wddt.i[0] = adr;
 1346              		.loc 1 21 2 view .LVU376
  21:../USER/vramdisp.c **** 	wddt.i[0] = adr;
 1347              		.loc 1 21 5 view .LVU377
  21:../USER/vramdisp.c **** 	wddt.i[0] = adr;
 1348              		.loc 1 21 10 is_stmt 0 view .LVU378
 1349 007e 2046     		mov	r0, r4
 1350 0080 FFF7FEFF 		bl	GPIO_ReadBits
 1351              	.LVL134:
  21:../USER/vramdisp.c **** 	wddt.i[0] = adr;
 1352              		.loc 1 21 8 view .LVU379
 1353 0084 C0B2     		uxtb	r0, r0
 1354 0086 2870     		strb	r0, [r5]
  21:../USER/vramdisp.c **** 	wddt.i[0] = adr;
 1355              		.loc 1 21 44 view .LVU380
 1356 0088 2978     		ldrb	r1, [r5]	@ zero_extendqisi2
  21:../USER/vramdisp.c **** 	wddt.i[0] = adr;
 1357              		.loc 1 21 2 view .LVU381
 1358 008a 11F00101 		ands	r1, r1, #1
 1359 008e F6D1     		bne	.L77
  22:../USER/vramdisp.c **** }
 1360              		.loc 1 22 2 is_stmt 1 view .LVU382
 1361              	.LBE79:
 1362              	.LBE81:
 1363              	.LBB82:
 1364              	.LBB83:
  51:../USER/vramdisp.c **** 	do{pd = GPIO_ReadBits(GPIO0);}  while((pd & 1)!=0);		// Wait Busy
 1365              		.loc 1 51 2 is_stmt 0 view .LVU383
 1366 0090 2046     		mov	r0, r4
 1367              	.LBE83:
 1368              	.LBE82:
 1369              	.LBB85:
 1370              	.LBB80:
  22:../USER/vramdisp.c **** }
 1371              		.loc 1 22 12 view .LVU384
 1372 0092 C8F80060 		str	r6, [r8]
 1373              	.LVL135:
  22:../USER/vramdisp.c **** }
 1374              		.loc 1 22 12 view .LVU385
 1375              	.LBE80:
 1376              	.LBE85:
 1377              	.LBE88:
  76:../USER/vramdisp.c **** }
 1378              		.loc 1 76 2 is_stmt 1 view .LVU386
 1379              	.LBB89:
 1380              	.LBB86:
 1381              	.LBI82:
  49:../USER/vramdisp.c **** 	unsigned char i, dt;
 1382              		.loc 1 49 6 view .LVU387
 1383              	.LBB84:
  50:../USER/vramdisp.c **** 	GPIO_WriteBits(GPIO0,0x0000);	// dir=in clk = Lo
 1384              		.loc 1 50 2 view .LVU388
  51:../USER/vramdisp.c **** 	do{pd = GPIO_ReadBits(GPIO0);}  while((pd & 1)!=0);		// Wait Busy
 1385              		.loc 1 51 2 view .LVU389
 1386 0096 FFF7FEFF 		bl	GPIO_WriteBits
 1387              	.LVL136:
 1388              	.L78:
  52:../USER/vramdisp.c **** 	GPIO_WriteBits(GPIO0,0x200);	// dir=out clk=Lo
 1389              		.loc 1 52 2 view .LVU390
  52:../USER/vramdisp.c **** 	GPIO_WriteBits(GPIO0,0x200);	// dir=out clk=Lo
 1390              		.loc 1 52 5 view .LVU391
  52:../USER/vramdisp.c **** 	GPIO_WriteBits(GPIO0,0x200);	// dir=out clk=Lo
 1391              		.loc 1 52 10 is_stmt 0 view .LVU392
 1392 009a 2046     		mov	r0, r4
 1393 009c FFF7FEFF 		bl	GPIO_ReadBits
 1394              	.LVL137:
  52:../USER/vramdisp.c **** 	GPIO_WriteBits(GPIO0,0x200);	// dir=out clk=Lo
 1395              		.loc 1 52 8 view .LVU393
 1396 00a0 C0B2     		uxtb	r0, r0
 1397 00a2 2870     		strb	r0, [r5]
  52:../USER/vramdisp.c **** 	GPIO_WriteBits(GPIO0,0x200);	// dir=out clk=Lo
 1398              		.loc 1 52 44 view .LVU394
 1399 00a4 2B78     		ldrb	r3, [r5]	@ zero_extendqisi2
  52:../USER/vramdisp.c **** 	GPIO_WriteBits(GPIO0,0x200);	// dir=out clk=Lo
 1400              		.loc 1 52 2 view .LVU395
 1401 00a6 DB07     		lsls	r3, r3, #31
 1402 00a8 F7D4     		bmi	.L78
  53:../USER/vramdisp.c **** 	for(i=0;i<dl;i++){
 1403              		.loc 1 53 2 is_stmt 1 view .LVU396
 1404 00aa 4FF40071 		mov	r1, #512
 1405 00ae 2046     		mov	r0, r4
 1406 00b0 FFF7FEFF 		bl	GPIO_WriteBits
 1407              	.LVL138:
  54:../USER/vramdisp.c **** 		dt = wddt.b[i];
 1408              		.loc 1 54 2 view .LVU397
  54:../USER/vramdisp.c **** 		dt = wddt.b[i];
 1409              		.loc 1 54 2 is_stmt 0 view .LVU398
 1410 00b4 DFF84CA0 		ldr	r10, .L86+12
 1411              	.LVL139:
 1412              	.L79:
  55:../USER/vramdisp.c **** 		GPIO_WriteBits(GPIO0,0x300+dt);
 1413              		.loc 1 55 3 is_stmt 1 view .LVU399
  56:../USER/vramdisp.c **** 		GPIO_WriteBits(GPIO0,0x200+dt);
 1414              		.loc 1 56 3 view .LVU400
  56:../USER/vramdisp.c **** 		GPIO_WriteBits(GPIO0,0x200+dt);
 1415              		.loc 1 56 29 is_stmt 0 view .LVU401
 1416 00b8 1AF801BF 		ldrb	fp, [r10, #1]!	@ zero_extendqisi2
 1417              	.LVL140:
  56:../USER/vramdisp.c **** 		GPIO_WriteBits(GPIO0,0x200+dt);
 1418              		.loc 1 56 3 view .LVU402
 1419 00bc 2046     		mov	r0, r4
 1420 00be 0BF54071 		add	r1, fp, #768
 1421 00c2 FFF7FEFF 		bl	GPIO_WriteBits
 1422              	.LVL141:
  57:../USER/vramdisp.c **** 	}
 1423              		.loc 1 57 3 is_stmt 1 view .LVU403
 1424 00c6 0BF50071 		add	r1, fp, #512
 1425 00ca 2046     		mov	r0, r4
 1426 00cc FFF7FEFF 		bl	GPIO_WriteBits
 1427              	.LVL142:
  54:../USER/vramdisp.c **** 		dt = wddt.b[i];
 1428              		.loc 1 54 2 is_stmt 0 view .LVU404
 1429 00d0 CA45     		cmp	r10, r9
 1430 00d2 F1D1     		bne	.L79
  59:../USER/vramdisp.c **** }
 1431              		.loc 1 59 2 is_stmt 1 view .LVU405
 1432 00d4 2036     		adds	r6, r6, #32
 1433 00d6 0021     		movs	r1, #0
 1434 00d8 2046     		mov	r0, r4
 1435 00da FFF7FEFF 		bl	GPIO_WriteBits
 1436              	.LVL143:
  59:../USER/vramdisp.c **** }
 1437              		.loc 1 59 2 is_stmt 0 view .LVU406
 1438              	.LBE84:
 1439              	.LBE86:
 1440              	.LBE89:
 1441              		.loc 1 97 3 view .LVU407
 1442 00de B742     		cmp	r7, r6
 1443 00e0 C9D1     		bne	.L80
  96:../USER/vramdisp.c **** 		for(x=0; x<loopx; x++) { set_vram(adry+y, adrx+x); }
 1444              		.loc 1 96 21 view .LVU408
 1445 00e2 009B     		ldr	r3, [sp]
  96:../USER/vramdisp.c **** 		for(x=0; x<loopx; x++) { set_vram(adry+y, adrx+x); }
 1446              		.loc 1 96 2 view .LVU409
 1447 00e4 0C9A     		ldr	r2, [sp, #48]
  96:../USER/vramdisp.c **** 		for(x=0; x<loopx; x++) { set_vram(adry+y, adrx+x); }
 1448              		.loc 1 96 21 view .LVU410
 1449 00e6 0133     		adds	r3, r3, #1
  96:../USER/vramdisp.c **** 		for(x=0; x<loopx; x++) { set_vram(adry+y, adrx+x); }
 1450              		.loc 1 96 2 view .LVU411
 1451 00e8 9A42     		cmp	r2, r3
  96:../USER/vramdisp.c **** 		for(x=0; x<loopx; x++) { set_vram(adry+y, adrx+x); }
 1452              		.loc 1 96 21 view .LVU412
 1453 00ea 0093     		str	r3, [sp]
 1454              	.LVL144:
  96:../USER/vramdisp.c **** 		for(x=0; x<loopx; x++) { set_vram(adry+y, adrx+x); }
 1455              		.loc 1 96 21 view .LVU413
 1456 00ec 07F5A067 		add	r7, r7, #1280
  96:../USER/vramdisp.c **** 		for(x=0; x<loopx; x++) { set_vram(adry+y, adrx+x); }
 1457              		.loc 1 96 2 view .LVU414
 1458 00f0 BFD1     		bne	.L76
 1459              	.LVL145:
 1460              	.L72:
  98:../USER/vramdisp.c ****  }
 1461              		.loc 1 98 2 view .LVU415
 1462 00f2 03B0     		add	sp, sp, #12
 1463              		.cfi_def_cfa_offset 36
 1464              		@ sp needed
 1465 00f4 BDE8F08F 		pop	{r4, r5, r6, r7, r8, r9, r10, fp, pc}
 1466              	.LVL146:
 1467              	.L87:
 1468              		.loc 1 98 2 view .LVU416
 1469              		.align	2
 1470              	.L86:
 1471 00f8 00000000 		.word	pd
 1472 00fc 00000140 		.word	1073807360
 1473 0100 00000000 		.word	wddt
 1474 0104 FFFFFFFF 		.word	wddt-1
 1475              		.cfi_endproc
 1476              	.LFE36:
 1478              		.section	.text.dispscroll,"ax",%progbits
 1479              		.align	1
 1480              		.p2align 2,,3
 1481              		.global	dispscroll
 1482              		.syntax unified
 1483              		.thumb
 1484              		.thumb_func
 1485              		.fpu softvfp
 1487              	dispscroll:
 1488              	.LVL147:
 1489              	.LFB37:
  99:../USER/vramdisp.c **** 
 100:../USER/vramdisp.c **** void dispscroll(int adry, int adrx){
 1490              		.loc 1 100 36 is_stmt 1 view -0
 1491              		.cfi_startproc
 1492              		@ args = 0, pretend = 0, frame = 8
 1493              		@ frame_needed = 0, uses_anonymous_args = 0
 101:../USER/vramdisp.c **** 	int sbeg=8, send=16, stop=0, xlen=1;
 1494              		.loc 1 101 2 view .LVU418
 102:../USER/vramdisp.c **** 	int x,y;
 1495              		.loc 1 102 2 view .LVU419
 103:../USER/vramdisp.c **** 
 104:../USER/vramdisp.c **** 	for(y=0; y<adry; y++){ //puth2(y); fflush(2);
 1496              		.loc 1 104 2 view .LVU420
 1497              		.loc 1 104 2 is_stmt 0 view .LVU421
 1498 0000 0028     		cmp	r0, #0
 1499              		.loc 1 104 2 view .LVU422
 1500 0002 40F3A880 		ble	.L108
 1501 0006 0029     		cmp	r1, #0
 1502 0008 40F3A580 		ble	.L108
 100:../USER/vramdisp.c **** 	int sbeg=8, send=16, stop=0, xlen=1;
 1503              		.loc 1 100 36 view .LVU423
 1504 000c 2DE9F04F 		push	{r4, r5, r6, r7, r8, r9, r10, fp, lr}
 1505              		.cfi_def_cfa_offset 36
 1506              		.cfi_offset 4, -36
 1507              		.cfi_offset 5, -32
 1508              		.cfi_offset 6, -28
 1509              		.cfi_offset 7, -24
 1510              		.cfi_offset 8, -20
 1511              		.cfi_offset 9, -16
 1512              		.cfi_offset 10, -12
 1513              		.cfi_offset 11, -8
 1514              		.cfi_offset 14, -4
 1515 0010 00EB8000 		add	r0, r0, r0, lsl #2
 1516              	.LVL148:
 100:../USER/vramdisp.c **** 	int sbeg=8, send=16, stop=0, xlen=1;
 1517              		.loc 1 100 36 view .LVU424
 1518 0014 C300     		lsls	r3, r0, #3
 1519 0016 83B0     		sub	sp, sp, #12
 1520              		.cfi_def_cfa_offset 48
 1521 0018 03F5A073 		add	r3, r3, #320
 1522 001c DFF84091 		ldr	r9, .L111+8
 1523 0020 0193     		str	r3, [sp, #4]
 1524              		.loc 1 104 2 view .LVU425
 1525 0022 4FF4A073 		mov	r3, #320
 1526              	.LBB102:
 1527              	.LBB103:
  40:../USER/vramdisp.c **** 	for(i=0;i<4;i++){	// send addr
 1528              		.loc 1 40 2 view .LVU426
 1529 0026 C846     		mov	r8, r9
 1530 0028 4B4D     		ldr	r5, .L111
 1531              	.LBB104:
 1532              	.LBB105:
  20:../USER/vramdisp.c **** 	do{pd = GPIO_ReadBits(GPIO0);}  while((pd & 1)!=0);		// Wait Busy
 1533              		.loc 1 20 2 view .LVU427
 1534 002a 4C4C     		ldr	r4, .L111+4
 1535 002c 4FEA411A 		lsl	r10, r1, #5
 1536              	.LBE105:
 1537              	.LBE104:
 1538              	.LBE103:
 1539              	.LBE102:
 1540              		.loc 1 104 2 view .LVU428
 1541 0030 0093     		str	r3, [sp]
 1542              	.LVL149:
 1543              	.L90:
 1544              		.loc 1 104 2 view .LVU429
 1545 0032 009B     		ldr	r3, [sp]
 1546 0034 5E01     		lsls	r6, r3, #5
 1547 0036 A6F52056 		sub	r6, r6, #10240
 1548              	.LVL150:
 1549              	.L98:
 105:../USER/vramdisp.c **** 		for(x=0; x<adrx; x++){
 106:../USER/vramdisp.c **** 			get_vram(sbeg, x); wddt.b[36] = 0xff; // mask
 1550              		.loc 1 106 4 is_stmt 1 view .LVU430
 1551              	.LBB113:
 1552              	.LBI102:
  36:../USER/vramdisp.c **** 	unsigned char i,dt;
 1553              		.loc 1 36 6 view .LVU431
 1554              	.LBB112:
  37:../USER/vramdisp.c **** 	if(adry==-1) { adry=0; adrx=0;}
 1555              		.loc 1 37 2 view .LVU432
  38:../USER/vramdisp.c **** 	set_vramadr(adry, adrx);
 1556              		.loc 1 38 2 view .LVU433
  39:../USER/vramdisp.c **** 	GPIO_WriteBits(GPIO0,0x200);	// dir=out clk=Lo
 1557              		.loc 1 39 2 view .LVU434
 1558              	.LBB108:
 1559              	.LBI104:
  17:../USER/vramdisp.c **** 	int adr;
 1560              		.loc 1 17 6 view .LVU435
 1561              	.LBB106:
  18:../USER/vramdisp.c **** 	adr = ((adry)*40+adrx)*32;
 1562              		.loc 1 18 2 view .LVU436
  19:../USER/vramdisp.c **** 	GPIO_WriteBits(GPIO0,0x0000);	// dir=in clk = Lo
 1563              		.loc 1 19 2 view .LVU437
  20:../USER/vramdisp.c **** 	do{pd = GPIO_ReadBits(GPIO0);}  while((pd & 1)!=0);		// Wait Busy
 1564              		.loc 1 20 2 view .LVU438
 1565 003a 0021     		movs	r1, #0
 1566 003c 2046     		mov	r0, r4
 1567 003e FFF7FEFF 		bl	GPIO_WriteBits
 1568              	.LVL151:
 1569              	.L91:
  21:../USER/vramdisp.c **** 	wddt.i[0] = adr;
 1570              		.loc 1 21 2 view .LVU439
  21:../USER/vramdisp.c **** 	wddt.i[0] = adr;
 1571              		.loc 1 21 5 view .LVU440
  21:../USER/vramdisp.c **** 	wddt.i[0] = adr;
 1572              		.loc 1 21 10 is_stmt 0 view .LVU441
 1573 0042 2046     		mov	r0, r4
 1574 0044 FFF7FEFF 		bl	GPIO_ReadBits
 1575              	.LVL152:
  21:../USER/vramdisp.c **** 	wddt.i[0] = adr;
 1576              		.loc 1 21 8 view .LVU442
 1577 0048 C0B2     		uxtb	r0, r0
 1578 004a 2870     		strb	r0, [r5]
  21:../USER/vramdisp.c **** 	wddt.i[0] = adr;
 1579              		.loc 1 21 44 view .LVU443
 1580 004c 2B78     		ldrb	r3, [r5]	@ zero_extendqisi2
  21:../USER/vramdisp.c **** 	wddt.i[0] = adr;
 1581              		.loc 1 21 2 view .LVU444
 1582 004e D907     		lsls	r1, r3, #31
 1583 0050 F7D4     		bmi	.L91
  22:../USER/vramdisp.c **** }
 1584              		.loc 1 22 2 is_stmt 1 view .LVU445
  22:../USER/vramdisp.c **** }
 1585              		.loc 1 22 12 is_stmt 0 view .LVU446
 1586 0052 06F52053 		add	r3, r6, #10240
 1587              	.LBE106:
 1588              	.LBE108:
  40:../USER/vramdisp.c **** 	for(i=0;i<4;i++){	// send addr
 1589              		.loc 1 40 2 view .LVU447
 1590 0056 4FF40071 		mov	r1, #512
 1591 005a 2046     		mov	r0, r4
 1592              	.LBB109:
 1593              	.LBB107:
  22:../USER/vramdisp.c **** }
 1594              		.loc 1 22 12 view .LVU448
 1595 005c C9F80030 		str	r3, [r9]
 1596              	.LVL153:
  22:../USER/vramdisp.c **** }
 1597              		.loc 1 22 12 view .LVU449
 1598              	.LBE107:
 1599              	.LBE109:
  40:../USER/vramdisp.c **** 	for(i=0;i<4;i++){	// send addr
 1600              		.loc 1 40 2 is_stmt 1 view .LVU450
 1601 0060 FFF7FEFF 		bl	GPIO_WriteBits
 1602              	.LVL154:
  41:../USER/vramdisp.c **** 		dt = wddt.b[i];
 1603              		.loc 1 41 2 view .LVU451
  40:../USER/vramdisp.c **** 	for(i=0;i<4;i++){	// send addr
 1604              		.loc 1 40 2 is_stmt 0 view .LVU452
 1605 0064 C146     		mov	r9, r8
 1606 0066 3E4F     		ldr	r7, .L111+8
 1607              	.LVL155:
 1608              	.L92:
  42:../USER/vramdisp.c **** 		GPIO_WriteBits(GPIO0,0x200+dt);
 1609              		.loc 1 42 3 is_stmt 1 view .LVU453
  42:../USER/vramdisp.c **** 		GPIO_WriteBits(GPIO0,0x200+dt);
 1610              		.loc 1 42 6 is_stmt 0 view .LVU454
 1611 0068 17F801BB 		ldrb	fp, [r7], #1	@ zero_extendqisi2
 1612              	.LVL156:
  43:../USER/vramdisp.c **** 		GPIO_WriteBits(GPIO0,0x300+dt);
 1613              		.loc 1 43 3 is_stmt 1 view .LVU455
 1614 006c 2046     		mov	r0, r4
 1615 006e 0BF50071 		add	r1, fp, #512
 1616 0072 FFF7FEFF 		bl	GPIO_WriteBits
 1617              	.LVL157:
  44:../USER/vramdisp.c **** 	}
 1618              		.loc 1 44 3 view .LVU456
 1619 0076 0BF54071 		add	r1, fp, #768
 1620 007a 2046     		mov	r0, r4
 1621 007c FFF7FEFF 		bl	GPIO_WriteBits
 1622              	.LVL158:
  41:../USER/vramdisp.c **** 		dt = wddt.b[i];
 1623              		.loc 1 41 2 is_stmt 0 view .LVU457
 1624 0080 384B     		ldr	r3, .L111+12
 1625 0082 BB42     		cmp	r3, r7
 1626 0084 F0D1     		bne	.L92
  46:../USER/vramdisp.c **** }
 1627              		.loc 1 46 2 is_stmt 1 view .LVU458
 1628              	.LVL159:
 1629              	.LBB110:
 1630              	.LBI110:
  24:../USER/vramdisp.c **** 	unsigned char i,dt;
 1631              		.loc 1 24 6 view .LVU459
 1632              	.LBB111:
  25:../USER/vramdisp.c **** 	GPIO_WriteBits(GPIO0,0x0000);	// dir=in clk = Lo
 1633              		.loc 1 25 2 view .LVU460
  26:../USER/vramdisp.c **** 	do{pd = GPIO_ReadBits(GPIO0);}  while((pd & 1)!=0);		// Wait Busy
 1634              		.loc 1 26 2 view .LVU461
 1635 0086 0021     		movs	r1, #0
 1636 0088 2046     		mov	r0, r4
 1637 008a FFF7FEFF 		bl	GPIO_WriteBits
 1638              	.LVL160:
 1639              	.L93:
  27:../USER/vramdisp.c **** 	for(i=0;i<dl; i++){
 1640              		.loc 1 27 2 view .LVU462
  27:../USER/vramdisp.c **** 	for(i=0;i<dl; i++){
 1641              		.loc 1 27 5 view .LVU463
  27:../USER/vramdisp.c **** 	for(i=0;i<dl; i++){
 1642              		.loc 1 27 10 is_stmt 0 view .LVU464
 1643 008e 2046     		mov	r0, r4
 1644 0090 FFF7FEFF 		bl	GPIO_ReadBits
 1645              	.LVL161:
  27:../USER/vramdisp.c **** 	for(i=0;i<dl; i++){
 1646              		.loc 1 27 8 view .LVU465
 1647 0094 C0B2     		uxtb	r0, r0
 1648 0096 2870     		strb	r0, [r5]
  27:../USER/vramdisp.c **** 	for(i=0;i<dl; i++){
 1649              		.loc 1 27 44 view .LVU466
 1650 0098 2B78     		ldrb	r3, [r5]	@ zero_extendqisi2
  27:../USER/vramdisp.c **** 	for(i=0;i<dl; i++){
 1651              		.loc 1 27 2 view .LVU467
 1652 009a DA07     		lsls	r2, r3, #31
 1653 009c F7D4     		bmi	.L93
 1654 009e 324F     		ldr	r7, .L111+16
 1655              	.LVL162:
 1656              	.L94:
  29:../USER/vramdisp.c **** 		wddt.b[i+4] = GPIO_ReadBits(GPIO0);
 1657              		.loc 1 29 3 is_stmt 1 view .LVU468
 1658 00a0 4FF48071 		mov	r1, #256
 1659 00a4 2046     		mov	r0, r4
 1660 00a6 FFF7FEFF 		bl	GPIO_WriteBits
 1661              	.LVL163:
  30:../USER/vramdisp.c **** 		GPIO_WriteBits(GPIO0,0x000);
 1662              		.loc 1 30 3 view .LVU469
  30:../USER/vramdisp.c **** 		GPIO_WriteBits(GPIO0,0x000);
 1663              		.loc 1 30 17 is_stmt 0 view .LVU470
 1664 00aa 2046     		mov	r0, r4
 1665 00ac FFF7FEFF 		bl	GPIO_ReadBits
 1666              	.LVL164:
  31:../USER/vramdisp.c **** 	}
 1667              		.loc 1 31 3 view .LVU471
 1668 00b0 0021     		movs	r1, #0
  30:../USER/vramdisp.c **** 		GPIO_WriteBits(GPIO0,0x000);
 1669              		.loc 1 30 15 view .LVU472
 1670 00b2 07F8010F 		strb	r0, [r7, #1]!
 1671              	.LVL165:
  31:../USER/vramdisp.c **** 	}
 1672              		.loc 1 31 3 is_stmt 1 view .LVU473
 1673 00b6 2046     		mov	r0, r4
 1674 00b8 FFF7FEFF 		bl	GPIO_WriteBits
 1675              	.LVL166:
  28:../USER/vramdisp.c **** 		GPIO_WriteBits(GPIO0,0x100);
 1676              		.loc 1 28 2 is_stmt 0 view .LVU474
 1677 00bc 2B4B     		ldr	r3, .L111+20
 1678 00be BB42     		cmp	r3, r7
 1679 00c0 EED1     		bne	.L94
  33:../USER/vramdisp.c **** 
 1680              		.loc 1 33 2 is_stmt 1 view .LVU475
 1681 00c2 0021     		movs	r1, #0
 1682 00c4 2046     		mov	r0, r4
 1683 00c6 FFF7FEFF 		bl	GPIO_WriteBits
 1684              	.LVL167:
  33:../USER/vramdisp.c **** 
 1685              		.loc 1 33 2 is_stmt 0 view .LVU476
 1686              	.LBE111:
 1687              	.LBE110:
 1688              	.LBE112:
 1689              	.LBE113:
 1690              		.loc 1 106 23 is_stmt 1 view .LVU477
 1691              		.loc 1 106 34 is_stmt 0 view .LVU478
 1692 00ca FF23     		movs	r3, #255
 1693              	.LBB114:
 1694              	.LBB115:
 1695              	.LBB116:
  20:../USER/vramdisp.c **** 	do{pd = GPIO_ReadBits(GPIO0);}  while((pd & 1)!=0);		// Wait Busy
 1696              		.loc 1 20 2 view .LVU479
 1697 00cc 0021     		movs	r1, #0
 1698 00ce 2046     		mov	r0, r4
 1699              	.LBE116:
 1700              	.LBE115:
 1701              	.LBE114:
 1702              		.loc 1 106 34 view .LVU480
 1703 00d0 88F82430 		strb	r3, [r8, #36]
 107:../USER/vramdisp.c **** 			set_vram(stop, x);
 1704              		.loc 1 107 4 is_stmt 1 view .LVU481
 1705              	.LBB125:
 1706              	.LBI114:
  74:../USER/vramdisp.c **** 	set_vramadr(adry, adrx);
 1707              		.loc 1 74 6 view .LVU482
 1708              	.LBE125:
  75:../USER/vramdisp.c **** 	set_vramdata(37);
 1709              		.loc 1 75 2 view .LVU483
 1710              	.LBB126:
 1711              	.LBB119:
 1712              	.LBI115:
  17:../USER/vramdisp.c **** 	int adr;
 1713              		.loc 1 17 6 view .LVU484
 1714              	.LBB117:
  18:../USER/vramdisp.c **** 	adr = ((adry)*40+adrx)*32;
 1715              		.loc 1 18 2 view .LVU485
  19:../USER/vramdisp.c **** 	GPIO_WriteBits(GPIO0,0x0000);	// dir=in clk = Lo
 1716              		.loc 1 19 2 view .LVU486
 1717              	.LVL168:
  20:../USER/vramdisp.c **** 	do{pd = GPIO_ReadBits(GPIO0);}  while((pd & 1)!=0);		// Wait Busy
 1718              		.loc 1 20 2 view .LVU487
 1719 00d4 FFF7FEFF 		bl	GPIO_WriteBits
 1720              	.LVL169:
 1721              	.L95:
  21:../USER/vramdisp.c **** 	wddt.i[0] = adr;
 1722              		.loc 1 21 2 view .LVU488
  21:../USER/vramdisp.c **** 	wddt.i[0] = adr;
 1723              		.loc 1 21 5 view .LVU489
  21:../USER/vramdisp.c **** 	wddt.i[0] = adr;
 1724              		.loc 1 21 10 is_stmt 0 view .LVU490
 1725 00d8 2046     		mov	r0, r4
 1726 00da FFF7FEFF 		bl	GPIO_ReadBits
 1727              	.LVL170:
  21:../USER/vramdisp.c **** 	wddt.i[0] = adr;
 1728              		.loc 1 21 8 view .LVU491
 1729 00de C0B2     		uxtb	r0, r0
 1730 00e0 2870     		strb	r0, [r5]
  21:../USER/vramdisp.c **** 	wddt.i[0] = adr;
 1731              		.loc 1 21 44 view .LVU492
 1732 00e2 2978     		ldrb	r1, [r5]	@ zero_extendqisi2
  21:../USER/vramdisp.c **** 	wddt.i[0] = adr;
 1733              		.loc 1 21 2 view .LVU493
 1734 00e4 11F00101 		ands	r1, r1, #1
 1735 00e8 F6D1     		bne	.L95
  22:../USER/vramdisp.c **** }
 1736              		.loc 1 22 2 is_stmt 1 view .LVU494
 1737              	.LBE117:
 1738              	.LBE119:
 1739              	.LBB120:
 1740              	.LBB121:
  51:../USER/vramdisp.c **** 	do{pd = GPIO_ReadBits(GPIO0);}  while((pd & 1)!=0);		// Wait Busy
 1741              		.loc 1 51 2 is_stmt 0 view .LVU495
 1742 00ea 2046     		mov	r0, r4
 1743              	.LBE121:
 1744              	.LBE120:
 1745              	.LBB123:
 1746              	.LBB118:
  22:../USER/vramdisp.c **** }
 1747              		.loc 1 22 12 view .LVU496
 1748 00ec C8F80060 		str	r6, [r8]
 1749              	.LVL171:
  22:../USER/vramdisp.c **** }
 1750              		.loc 1 22 12 view .LVU497
 1751              	.LBE118:
 1752              	.LBE123:
 1753              	.LBE126:
  76:../USER/vramdisp.c **** }
 1754              		.loc 1 76 2 is_stmt 1 view .LVU498
 1755              	.LBB127:
 1756              	.LBB124:
 1757              	.LBI120:
  49:../USER/vramdisp.c **** 	unsigned char i, dt;
 1758              		.loc 1 49 6 view .LVU499
 1759              	.LBB122:
  50:../USER/vramdisp.c **** 	GPIO_WriteBits(GPIO0,0x0000);	// dir=in clk = Lo
 1760              		.loc 1 50 2 view .LVU500
  51:../USER/vramdisp.c **** 	do{pd = GPIO_ReadBits(GPIO0);}  while((pd & 1)!=0);		// Wait Busy
 1761              		.loc 1 51 2 view .LVU501
 1762 00f0 FFF7FEFF 		bl	GPIO_WriteBits
 1763              	.LVL172:
 1764              	.L96:
  52:../USER/vramdisp.c **** 	GPIO_WriteBits(GPIO0,0x200);	// dir=out clk=Lo
 1765              		.loc 1 52 2 view .LVU502
  52:../USER/vramdisp.c **** 	GPIO_WriteBits(GPIO0,0x200);	// dir=out clk=Lo
 1766              		.loc 1 52 5 view .LVU503
  52:../USER/vramdisp.c **** 	GPIO_WriteBits(GPIO0,0x200);	// dir=out clk=Lo
 1767              		.loc 1 52 10 is_stmt 0 view .LVU504
 1768 00f4 2046     		mov	r0, r4
 1769 00f6 FFF7FEFF 		bl	GPIO_ReadBits
 1770              	.LVL173:
  52:../USER/vramdisp.c **** 	GPIO_WriteBits(GPIO0,0x200);	// dir=out clk=Lo
 1771              		.loc 1 52 8 view .LVU505
 1772 00fa C0B2     		uxtb	r0, r0
 1773 00fc 2870     		strb	r0, [r5]
  52:../USER/vramdisp.c **** 	GPIO_WriteBits(GPIO0,0x200);	// dir=out clk=Lo
 1774              		.loc 1 52 44 view .LVU506
 1775 00fe 2B78     		ldrb	r3, [r5]	@ zero_extendqisi2
  52:../USER/vramdisp.c **** 	GPIO_WriteBits(GPIO0,0x200);	// dir=out clk=Lo
 1776              		.loc 1 52 2 view .LVU507
 1777 0100 DB07     		lsls	r3, r3, #31
 1778 0102 F7D4     		bmi	.L96
  53:../USER/vramdisp.c **** 	for(i=0;i<dl;i++){
 1779              		.loc 1 53 2 is_stmt 1 view .LVU508
 1780 0104 4FF40071 		mov	r1, #512
 1781 0108 2046     		mov	r0, r4
 1782 010a FFF7FEFF 		bl	GPIO_WriteBits
 1783              	.LVL174:
  54:../USER/vramdisp.c **** 		dt = wddt.b[i];
 1784              		.loc 1 54 2 view .LVU509
  54:../USER/vramdisp.c **** 		dt = wddt.b[i];
 1785              		.loc 1 54 2 is_stmt 0 view .LVU510
 1786 010e 184F     		ldr	r7, .L111+24
 1787              	.LVL175:
 1788              	.L97:
  55:../USER/vramdisp.c **** 		GPIO_WriteBits(GPIO0,0x300+dt);
 1789              		.loc 1 55 3 is_stmt 1 view .LVU511
  56:../USER/vramdisp.c **** 		GPIO_WriteBits(GPIO0,0x200+dt);
 1790              		.loc 1 56 3 view .LVU512
  56:../USER/vramdisp.c **** 		GPIO_WriteBits(GPIO0,0x200+dt);
 1791              		.loc 1 56 29 is_stmt 0 view .LVU513
 1792 0110 17F801BF 		ldrb	fp, [r7, #1]!	@ zero_extendqisi2
 1793              	.LVL176:
  56:../USER/vramdisp.c **** 		GPIO_WriteBits(GPIO0,0x200+dt);
 1794              		.loc 1 56 3 view .LVU514
 1795 0114 2046     		mov	r0, r4
 1796 0116 0BF54071 		add	r1, fp, #768
 1797 011a FFF7FEFF 		bl	GPIO_WriteBits
 1798              	.LVL177:
  57:../USER/vramdisp.c **** 	}
 1799              		.loc 1 57 3 is_stmt 1 view .LVU515
 1800 011e 0BF50071 		add	r1, fp, #512
 1801 0122 2046     		mov	r0, r4
 1802 0124 FFF7FEFF 		bl	GPIO_WriteBits
 1803              	.LVL178:
  54:../USER/vramdisp.c **** 		dt = wddt.b[i];
 1804              		.loc 1 54 2 is_stmt 0 view .LVU516
 1805 0128 124B     		ldr	r3, .L111+28
 1806 012a 9F42     		cmp	r7, r3
 1807 012c F0D1     		bne	.L97
  59:../USER/vramdisp.c **** }
 1808              		.loc 1 59 2 is_stmt 1 view .LVU517
 1809 012e 2036     		adds	r6, r6, #32
 1810 0130 0021     		movs	r1, #0
 1811 0132 2046     		mov	r0, r4
 1812 0134 FFF7FEFF 		bl	GPIO_WriteBits
 1813              	.LVL179:
  59:../USER/vramdisp.c **** }
 1814              		.loc 1 59 2 is_stmt 0 view .LVU518
 1815              	.LBE122:
 1816              	.LBE124:
 1817              	.LBE127:
 105:../USER/vramdisp.c **** 			get_vram(sbeg, x); wddt.b[36] = 0xff; // mask
 1818              		.loc 1 105 3 view .LVU519
 1819 0138 5645     		cmp	r6, r10
 1820 013a 7FF47EAF 		bne	.L98
 108:../USER/vramdisp.c **** 		}
 109:../USER/vramdisp.c **** 		sbeg++; stop++;
 1821              		.loc 1 109 3 is_stmt 1 view .LVU520
 1822              		.loc 1 109 11 view .LVU521
 1823              		.loc 1 109 11 is_stmt 0 view .LVU522
 1824 013e 009B     		ldr	r3, [sp]
 104:../USER/vramdisp.c **** 		for(x=0; x<adrx; x++){
 1825              		.loc 1 104 2 view .LVU523
 1826 0140 019A     		ldr	r2, [sp, #4]
 1827 0142 2833     		adds	r3, r3, #40
 1828 0144 9A42     		cmp	r2, r3
 1829 0146 0093     		str	r3, [sp]
 1830 0148 0AF5A06A 		add	r10, r10, #1280
 1831 014c 7FF471AF 		bne	.L90
 110:../USER/vramdisp.c **** 	}
 111:../USER/vramdisp.c **** }
 1832              		.loc 1 111 1 view .LVU524
 1833 0150 03B0     		add	sp, sp, #12
 1834              		.cfi_def_cfa_offset 36
 1835              		@ sp needed
 1836 0152 BDE8F08F 		pop	{r4, r5, r6, r7, r8, r9, r10, fp, pc}
 1837              	.LVL180:
 1838              	.L108:
 1839              		.cfi_def_cfa_offset 0
 1840              		.cfi_restore 4
 1841              		.cfi_restore 5
 1842              		.cfi_restore 6
 1843              		.cfi_restore 7
 1844              		.cfi_restore 8
 1845              		.cfi_restore 9
 1846              		.cfi_restore 10
 1847              		.cfi_restore 11
 1848              		.cfi_restore 14
 1849              		.loc 1 111 1 view .LVU525
 1850 0156 7047     		bx	lr
 1851              	.L112:
 1852              		.align	2
 1853              	.L111:
 1854 0158 00000000 		.word	pd
 1855 015c 00000140 		.word	1073807360
 1856 0160 00000000 		.word	wddt
 1857 0164 04000000 		.word	wddt+4
 1858 0168 03000000 		.word	wddt+3
 1859 016c 23000000 		.word	wddt+35
 1860 0170 FFFFFFFF 		.word	wddt-1
 1861 0174 24000000 		.word	wddt+36
 1862              		.cfi_endproc
 1863              	.LFE37:
 1865              		.section	.text.set_char,"ax",%progbits
 1866              		.align	1
 1867              		.p2align 2,,3
 1868              		.global	set_char
 1869              		.syntax unified
 1870              		.thumb
 1871              		.thumb_func
 1872              		.fpu softvfp
 1874              	set_char:
 1875              	.LVL181:
 1876              	.LFB38:
 112:../USER/vramdisp.c **** 
 113:../USER/vramdisp.c **** #define maxdy 360
 114:../USER/vramdisp.c **** #define chardh 10
 115:../USER/vramdisp.c **** void set_char(int adry, int adrx, int ptn, int ccd){
 1877              		.loc 1 115 52 is_stmt 1 view -0
 1878              		.cfi_startproc
 1879              		@ args = 0, pretend = 0, frame = 0
 1880              		@ frame_needed = 0, uses_anonymous_args = 0
 116:../USER/vramdisp.c **** 	int adr, bp;
 1881              		.loc 1 116 2 view .LVU527
 117:../USER/vramdisp.c **** 	unsigned char i, j, cgd, ph, pl;
 1882              		.loc 1 117 2 view .LVU528
 118:../USER/vramdisp.c **** 	ccd = ccd * 8; // font.ddr
 1883              		.loc 1 118 2 view .LVU529
 119:../USER/vramdisp.c **** 	ph = ptn >> 8; pl = ptn & 0xff;
 1884              		.loc 1 119 2 view .LVU530
 1885              		.loc 1 119 17 view .LVU531
 120:../USER/vramdisp.c **** 	if((adrx&1)==0) wddt.b[5] = 0xf0; else wddt.b[5] = 0x0f;
 1886              		.loc 1 120 2 view .LVU532
 1887 0000 4FF4C872 		mov	r2, #400
 1888              	.LVL182:
 1889              		.loc 1 120 28 is_stmt 0 view .LVU533
 1890 0004 11F0010F 		tst	r1, #1
 1891 0008 14BF     		ite	ne
 1892 000a 4FF00F0C 		movne	ip, #15
 1893 000e 4FF0F00C 		moveq	ip, #240
 1894 0012 02FB00F0 		mul	r0, r2, r0
 1895              	.LVL183:
 115:../USER/vramdisp.c **** 	int adr, bp;
 1896              		.loc 1 115 52 view .LVU534
 1897 0016 2DE9F047 		push	{r4, r5, r6, r7, r8, r9, r10, lr}
 1898              		.cfi_def_cfa_offset 32
 1899              		.cfi_offset 4, -32
 1900              		.cfi_offset 5, -28
 1901              		.cfi_offset 6, -24
 1902              		.cfi_offset 7, -20
 1903              		.cfi_offset 8, -16
 1904              		.cfi_offset 9, -12
 1905              		.cfi_offset 10, -8
 1906              		.cfi_offset 14, -4
 121:../USER/vramdisp.c **** 	for(j=0; j<8; j++) {
 122:../USER/vramdisp.c **** 		cgd = FONT_8x8[(ccd+j)& 0x7ff];
 123:../USER/vramdisp.c **** 		wddt.b[4] = cgd;
 124:../USER/vramdisp.c **** 		set_vramadr(adry*chardh+j, adrx/2);
 1907              		.loc 1 124 3 view .LVU535
 1908 001a 01EBD171 		add	r1, r1, r1, lsr #31
 1909              	.LVL184:
 1910              		.loc 1 124 3 view .LVU536
 1911 001e DFF85C80 		ldr	r8, .L121+8
 1912 0022 DC00     		lsls	r4, r3, #3
 1913              	.LVL185:
 1914              		.loc 1 124 3 view .LVU537
 1915 0024 00EB6100 		add	r0, r0, r1, asr #1
 1916 0028 DFF854A0 		ldr	r10, .L121+12
 1917 002c 114E     		ldr	r6, .L121
 1918              	.LBB130:
 1919              	.LBB131:
  20:../USER/vramdisp.c **** 	do{pd = GPIO_ReadBits(GPIO0);}  while((pd & 1)!=0);		// Wait Busy
 1920              		.loc 1 20 2 view .LVU538
 1921 002e 124F     		ldr	r7, .L121+4
 1922 0030 4501     		lsls	r5, r0, #5
 1923 0032 88F805C0 		strb	ip, [r8, #5]
 1924              	.LVL186:
  20:../USER/vramdisp.c **** 	do{pd = GPIO_ReadBits(GPIO0);}  while((pd & 1)!=0);		// Wait Busy
 1925              		.loc 1 20 2 view .LVU539
 1926 0036 04F10809 		add	r9, r4, #8
 1927              	.LVL187:
 1928              	.L116:
  20:../USER/vramdisp.c **** 	do{pd = GPIO_ReadBits(GPIO0);}  while((pd & 1)!=0);		// Wait Busy
 1929              		.loc 1 20 2 view .LVU540
 1930              	.LBE131:
 1931              	.LBE130:
 122:../USER/vramdisp.c **** 		wddt.b[4] = cgd;
 1932              		.loc 1 122 3 is_stmt 1 discriminator 3 view .LVU541
 123:../USER/vramdisp.c **** 		set_vramadr(adry*chardh+j, adrx/2);
 1933              		.loc 1 123 3 discriminator 3 view .LVU542
 122:../USER/vramdisp.c **** 		wddt.b[4] = cgd;
 1934              		.loc 1 122 25 is_stmt 0 discriminator 3 view .LVU543
 1935 003a C4F30A03 		ubfx	r3, r4, #0, #11
 123:../USER/vramdisp.c **** 		set_vramadr(adry*chardh+j, adrx/2);
 1936              		.loc 1 123 13 discriminator 3 view .LVU544
 1937 003e 1AF80330 		ldrb	r3, [r10, r3]	@ zero_extendqisi2
 1938              	.LBB134:
 1939              	.LBB132:
  20:../USER/vramdisp.c **** 	do{pd = GPIO_ReadBits(GPIO0);}  while((pd & 1)!=0);		// Wait Busy
 1940              		.loc 1 20 2 discriminator 3 view .LVU545
 1941 0042 0021     		movs	r1, #0
 1942 0044 3846     		mov	r0, r7
 1943              	.LBE132:
 1944              	.LBE134:
 123:../USER/vramdisp.c **** 		set_vramadr(adry*chardh+j, adrx/2);
 1945              		.loc 1 123 13 discriminator 3 view .LVU546
 1946 0046 88F80430 		strb	r3, [r8, #4]
 1947              		.loc 1 124 3 is_stmt 1 discriminator 3 view .LVU547
 1948              	.LVL188:
 1949              	.LBB135:
 1950              	.LBI130:
  17:../USER/vramdisp.c **** 	int adr;
 1951              		.loc 1 17 6 discriminator 3 view .LVU548
 1952              	.LBB133:
  18:../USER/vramdisp.c **** 	adr = ((adry)*40+adrx)*32;
 1953              		.loc 1 18 2 discriminator 3 view .LVU549
  19:../USER/vramdisp.c **** 	GPIO_WriteBits(GPIO0,0x0000);	// dir=in clk = Lo
 1954              		.loc 1 19 2 discriminator 3 view .LVU550
  20:../USER/vramdisp.c **** 	do{pd = GPIO_ReadBits(GPIO0);}  while((pd & 1)!=0);		// Wait Busy
 1955              		.loc 1 20 2 discriminator 3 view .LVU551
 1956 004a FFF7FEFF 		bl	GPIO_WriteBits
 1957              	.LVL189:
 1958              	.L115:
  21:../USER/vramdisp.c **** 	wddt.i[0] = adr;
 1959              		.loc 1 21 2 view .LVU552
  21:../USER/vramdisp.c **** 	wddt.i[0] = adr;
 1960              		.loc 1 21 5 view .LVU553
  21:../USER/vramdisp.c **** 	wddt.i[0] = adr;
 1961              		.loc 1 21 10 is_stmt 0 view .LVU554
 1962 004e 3846     		mov	r0, r7
 1963 0050 FFF7FEFF 		bl	GPIO_ReadBits
 1964              	.LVL190:
  21:../USER/vramdisp.c **** 	wddt.i[0] = adr;
 1965              		.loc 1 21 8 view .LVU555
 1966 0054 C0B2     		uxtb	r0, r0
 1967 0056 3070     		strb	r0, [r6]
  21:../USER/vramdisp.c **** 	wddt.i[0] = adr;
 1968              		.loc 1 21 44 view .LVU556
 1969 0058 3378     		ldrb	r3, [r6]	@ zero_extendqisi2
  21:../USER/vramdisp.c **** 	wddt.i[0] = adr;
 1970              		.loc 1 21 2 view .LVU557
 1971 005a DB07     		lsls	r3, r3, #31
 1972 005c F7D4     		bmi	.L115
  22:../USER/vramdisp.c **** }
 1973              		.loc 1 22 2 is_stmt 1 view .LVU558
 1974 005e 0134     		adds	r4, r4, #1
 1975              	.LVL191:
  22:../USER/vramdisp.c **** }
 1976              		.loc 1 22 12 is_stmt 0 view .LVU559
 1977 0060 C8F80050 		str	r5, [r8]
 1978              	.LVL192:
  22:../USER/vramdisp.c **** }
 1979              		.loc 1 22 12 view .LVU560
 1980              	.LBE133:
 1981              	.LBE135:
 125:../USER/vramdisp.c **** 		set_vramdata_f6(6);
 1982              		.loc 1 125 3 is_stmt 1 view .LVU561
 1983 0064 FFF7FEFF 		bl	set_vramdata_f6.constprop.1
 1984              	.LVL193:
 121:../USER/vramdisp.c **** 		cgd = FONT_8x8[(ccd+j)& 0x7ff];
 1985              		.loc 1 121 2 is_stmt 0 view .LVU562
 1986 0068 4C45     		cmp	r4, r9
 1987 006a 05F5A065 		add	r5, r5, #1280
 1988 006e E4D1     		bne	.L116
 126:../USER/vramdisp.c **** 	}
 127:../USER/vramdisp.c **** }
 1989              		.loc 1 127 1 view .LVU563
 1990 0070 BDE8F087 		pop	{r4, r5, r6, r7, r8, r9, r10, pc}
 1991              	.LVL194:
 1992              	.L122:
 1993              		.loc 1 127 1 view .LVU564
 1994              		.align	2
 1995              	.L121:
 1996 0074 00000000 		.word	pd
 1997 0078 00000140 		.word	1073807360
 1998 007c 00000000 		.word	wddt
 1999 0080 00000000 		.word	.LANCHOR0
 2000              		.cfi_endproc
 2001              	.LFE38:
 2003              		.section	.text.disp_vram,"ax",%progbits
 2004              		.align	1
 2005              		.p2align 2,,3
 2006              		.global	disp_vram
 2007              		.syntax unified
 2008              		.thumb
 2009              		.thumb_func
 2010              		.fpu softvfp
 2012              	disp_vram:
 2013              	.LVL195:
 2014              	.LFB39:
 128:../USER/vramdisp.c **** 
 129:../USER/vramdisp.c **** static int dispinitf = 0;
 130:../USER/vramdisp.c **** static int defptn = 0xffff;	// Not.Use
 131:../USER/vramdisp.c **** static int csrx=0,csry=0,csrmd=0;
 132:../USER/vramdisp.c **** int disp_vram(char chd){
 2015              		.loc 1 132 24 is_stmt 1 view -0
 2016              		.cfi_startproc
 2017              		@ args = 0, pretend = 0, frame = 8
 2018              		@ frame_needed = 0, uses_anonymous_args = 0
 133:../USER/vramdisp.c **** 	int i;
 2019              		.loc 1 133 2 view .LVU566
 134:../USER/vramdisp.c **** 	GPIO_WriteBits(GPIO0,0x0000); pd = GPIO_ReadBits(GPIO0);
 2020              		.loc 1 134 2 view .LVU567
 132:../USER/vramdisp.c **** 	int i;
 2021              		.loc 1 132 24 is_stmt 0 view .LVU568
 2022 0000 2DE9F04F 		push	{r4, r5, r6, r7, r8, r9, r10, fp, lr}
 2023              		.cfi_def_cfa_offset 36
 2024              		.cfi_offset 4, -36
 2025              		.cfi_offset 5, -32
 2026              		.cfi_offset 6, -28
 2027              		.cfi_offset 7, -24
 2028              		.cfi_offset 8, -20
 2029              		.cfi_offset 9, -16
 2030              		.cfi_offset 10, -12
 2031              		.cfi_offset 11, -8
 2032              		.cfi_offset 14, -4
 2033              		.loc 1 134 2 view .LVU569
 2034 0004 0021     		movs	r1, #0
 132:../USER/vramdisp.c **** 	int i;
 2035              		.loc 1 132 24 view .LVU570
 2036 0006 83B0     		sub	sp, sp, #12
 2037              		.cfi_def_cfa_offset 48
 132:../USER/vramdisp.c **** 	int i;
 2038              		.loc 1 132 24 view .LVU571
 2039 0008 8146     		mov	r9, r0
 2040              		.loc 1 134 2 view .LVU572
 2041 000a 9548     		ldr	r0, .L161
 2042              	.LVL196:
 2043              		.loc 1 134 2 view .LVU573
 2044 000c FFF7FEFF 		bl	GPIO_WriteBits
 2045              	.LVL197:
 2046              		.loc 1 134 32 is_stmt 1 view .LVU574
 2047              		.loc 1 134 37 is_stmt 0 view .LVU575
 2048 0010 9348     		ldr	r0, .L161
 2049 0012 FFF7FEFF 		bl	GPIO_ReadBits
 2050              	.LVL198:
 2051              		.loc 1 134 35 view .LVU576
 2052 0016 934D     		ldr	r5, .L161+4
 2053 0018 C0B2     		uxtb	r0, r0
 2054 001a 2870     		strb	r0, [r5]
 135:../USER/vramdisp.c **** 	if((pd & 1)!=0) return -1;	// Busy
 2055              		.loc 1 135 2 is_stmt 1 view .LVU577
 2056              		.loc 1 135 9 is_stmt 0 view .LVU578
 2057 001c 2B78     		ldrb	r3, [r5]	@ zero_extendqisi2
 2058              		.loc 1 135 4 view .LVU579
 2059 001e DC07     		lsls	r4, r3, #31
 2060 0020 00F11A81 		bmi	.L142
 136:../USER/vramdisp.c **** 	else {
 137:../USER/vramdisp.c **** 		if(dispinitf==0 || chd==0x0c){
 2061              		.loc 1 137 3 is_stmt 1 view .LVU580
 2062              		.loc 1 137 15 is_stmt 0 view .LVU581
 2063 0024 DFF85CA2 		ldr	r10, .L161+36
 2064              		.loc 1 137 5 view .LVU582
 2065 0028 DAF80030 		ldr	r3, [r10]
 2066 002c 03B3     		cbz	r3, .L125
 2067              		.loc 1 137 19 discriminator 1 view .LVU583
 2068 002e B9F10C0F 		cmp	r9, #12
 2069 0032 1DD0     		beq	.L125
 138:../USER/vramdisp.c **** 			move_vram( 0, 640*2*maxdy, 0, 10);	// Clear Vram
 139:../USER/vramdisp.c **** 			csrx = 0; csry = 0;	csrmd = 0; dispinitf = 1;
 140:../USER/vramdisp.c **** 		}
 141:../USER/vramdisp.c **** 		//
 142:../USER/vramdisp.c **** 		if(chd>=0x20) { set_char(csry, csrx, defptn, chd); csrx++; }
 2070              		.loc 1 142 3 is_stmt 1 view .LVU584
 2071 0034 8C4F     		ldr	r7, .L161+8
 2072              		.loc 1 142 5 is_stmt 0 view .LVU585
 2073 0036 B9F11F0F 		cmp	r9, #31
 2074 003a 3B68     		ldr	r3, [r7]
 2075              		.loc 1 142 19 view .LVU586
 2076 003c 8B4E     		ldr	r6, .L161+12
 2077              		.loc 1 142 5 view .LVU587
 2078 003e 61DC     		bgt	.L157
 2079              	.L130:
 143:../USER/vramdisp.c **** 		else if(chd==0x0d) { csrx = 0; csry++;}
 2080              		.loc 1 143 8 is_stmt 1 view .LVU588
 2081              		.loc 1 143 10 is_stmt 0 view .LVU589
 2082 0040 B9F10D0F 		cmp	r9, #13
 2083 0044 02D0     		beq	.L159
 2084 0046 3268     		ldr	r2, [r6]
 2085              	.L134:
 144:../USER/vramdisp.c **** 		if(csrx>=80) {csrx = 0; csry++;}
 2086              		.loc 1 144 3 is_stmt 1 view .LVU590
 2087              		.loc 1 144 5 is_stmt 0 view .LVU591
 2088 0048 4F2A     		cmp	r2, #79
 2089 004a 03DD     		ble	.L136
 2090              	.L159:
 2091              		.loc 1 144 17 is_stmt 1 discriminator 1 view .LVU592
 2092              		.loc 1 144 22 is_stmt 0 discriminator 1 view .LVU593
 2093 004c 0022     		movs	r2, #0
 2094              		.loc 1 144 31 discriminator 1 view .LVU594
 2095 004e 0133     		adds	r3, r3, #1
 2096 0050 3B60     		str	r3, [r7]
 2097              		.loc 1 144 22 discriminator 1 view .LVU595
 2098 0052 3260     		str	r2, [r6]
 2099              		.loc 1 144 27 is_stmt 1 discriminator 1 view .LVU596
 2100              	.L136:
 145:../USER/vramdisp.c **** 		if(csry>=(maxdy/chardh)) {
 2101              		.loc 1 145 3 view .LVU597
 2102              		.loc 1 145 5 is_stmt 0 view .LVU598
 2103 0054 232B     		cmp	r3, #35
 2104 0056 50DD     		ble	.L144
 146:../USER/vramdisp.c **** 			if(csrmd==0) {
 2105              		.loc 1 146 4 is_stmt 1 view .LVU599
 2106              		.loc 1 146 12 is_stmt 0 view .LVU600
 2107 0058 854B     		ldr	r3, .L161+16
 2108 005a 1C68     		ldr	r4, [r3]
 2109              		.loc 1 146 6 view .LVU601
 2110 005c 002C     		cmp	r4, #0
 2111 005e 00F08C80 		beq	.L160
 147:../USER/vramdisp.c **** 				move_vram( 0, 640*2*(maxdy-chardh), 640*2*(chardh), 12);	// Scrool
 148:../USER/vramdisp.c **** 				move_vram( 640*2*(maxdy-chardh),640*2*maxdy, 0, 10);	// Clear
 149:../USER/vramdisp.c **** 				csry = (maxdy/chardh-1); csrx = 0;
 150:../USER/vramdisp.c **** 			} else {
 151:../USER/vramdisp.c **** 				csry = 0; csrx = 0;
 2112              		.loc 1 151 5 is_stmt 1 view .LVU602
 2113              		.loc 1 151 10 is_stmt 0 view .LVU603
 2114 0062 0024     		movs	r4, #0
 152:../USER/vramdisp.c **** 			}
 153:../USER/vramdisp.c **** 		}
 154:../USER/vramdisp.c **** 		return 0;
 155:../USER/vramdisp.c **** 	}
 156:../USER/vramdisp.c **** }
 2115              		.loc 1 156 1 view .LVU604
 2116 0064 2046     		mov	r0, r4
 151:../USER/vramdisp.c **** 			}
 2117              		.loc 1 151 10 view .LVU605
 2118 0066 3C60     		str	r4, [r7]
 151:../USER/vramdisp.c **** 			}
 2119              		.loc 1 151 15 is_stmt 1 view .LVU606
 151:../USER/vramdisp.c **** 			}
 2120              		.loc 1 151 20 is_stmt 0 view .LVU607
 2121 0068 3460     		str	r4, [r6]
 2122              		.loc 1 156 1 view .LVU608
 2123 006a 03B0     		add	sp, sp, #12
 2124              		.cfi_remember_state
 2125              		.cfi_def_cfa_offset 36
 2126              		@ sp needed
 2127 006c BDE8F08F 		pop	{r4, r5, r6, r7, r8, r9, r10, fp, pc}
 2128              	.L125:
 2129              		.cfi_restore_state
 138:../USER/vramdisp.c **** 			csrx = 0; csry = 0;	csrmd = 0; dispinitf = 1;
 2130              		.loc 1 138 4 is_stmt 1 view .LVU609
 2131              	.LVL199:
 2132              	.LBB158:
 2133              	.LBI158:
  79:../USER/vramdisp.c **** 	unsigned char i, dt;
 2134              		.loc 1 79 6 view .LVU610
 2135              	.LBB159:
  80:../USER/vramdisp.c **** 	if(dadr==-1) {
 2136              		.loc 1 80 2 view .LVU611
  81:../USER/vramdisp.c **** 		if(mode==10){ dadr=0; dlen=640*2*(360); sadr=0x001f; }		// Fill
 2137              		.loc 1 81 2 view .LVU612
  85:../USER/vramdisp.c **** 	set_vramdata(mode);
 2138              		.loc 1 85 2 view .LVU613
  85:../USER/vramdisp.c **** 	set_vramdata(mode);
 2139              		.loc 1 85 12 is_stmt 0 view .LVU614
 2140 0070 0023     		movs	r3, #0
  85:../USER/vramdisp.c **** 	set_vramdata(mode);
 2141              		.loc 1 85 30 view .LVU615
 2142 0072 4FF4E122 		mov	r2, #460800
  85:../USER/vramdisp.c **** 	set_vramdata(mode);
 2143              		.loc 1 85 12 view .LVU616
 2144 0076 DFF8FC81 		ldr	r8, .L161+20
 2145              	.LBB160:
 2146              	.LBB161:
  51:../USER/vramdisp.c **** 	do{pd = GPIO_ReadBits(GPIO0);}  while((pd & 1)!=0);		// Wait Busy
 2147              		.loc 1 51 2 view .LVU617
 2148 007a 1946     		mov	r1, r3
 2149 007c 7848     		ldr	r0, .L161
 2150              	.LBE161:
 2151              	.LBE160:
  85:../USER/vramdisp.c **** 	set_vramdata(mode);
 2152              		.loc 1 85 12 view .LVU618
 2153 007e C8F80030 		str	r3, [r8]
  85:../USER/vramdisp.c **** 	set_vramdata(mode);
 2154              		.loc 1 85 20 is_stmt 1 view .LVU619
  85:../USER/vramdisp.c **** 	set_vramdata(mode);
 2155              		.loc 1 85 48 is_stmt 0 view .LVU620
 2156 0082 C8F80830 		str	r3, [r8, #8]
  85:../USER/vramdisp.c **** 	set_vramdata(mode);
 2157              		.loc 1 85 30 view .LVU621
 2158 0086 C8F80420 		str	r2, [r8, #4]
  85:../USER/vramdisp.c **** 	set_vramdata(mode);
 2159              		.loc 1 85 38 is_stmt 1 view .LVU622
  86:../USER/vramdisp.c **** }
 2160              		.loc 1 86 2 view .LVU623
 2161              	.LVL200:
 2162              	.LBB163:
 2163              	.LBI160:
  49:../USER/vramdisp.c **** 	unsigned char i, dt;
 2164              		.loc 1 49 6 view .LVU624
 2165              	.LBB162:
  50:../USER/vramdisp.c **** 	GPIO_WriteBits(GPIO0,0x0000);	// dir=in clk = Lo
 2166              		.loc 1 50 2 view .LVU625
  51:../USER/vramdisp.c **** 	do{pd = GPIO_ReadBits(GPIO0);}  while((pd & 1)!=0);		// Wait Busy
 2167              		.loc 1 51 2 view .LVU626
 2168 008a FFF7FEFF 		bl	GPIO_WriteBits
 2169              	.LVL201:
  52:../USER/vramdisp.c **** 	GPIO_WriteBits(GPIO0,0x200);	// dir=out clk=Lo
 2170              		.loc 1 52 10 is_stmt 0 view .LVU627
 2171 008e 744C     		ldr	r4, .L161
 2172              	.L127:
  52:../USER/vramdisp.c **** 	GPIO_WriteBits(GPIO0,0x200);	// dir=out clk=Lo
 2173              		.loc 1 52 2 is_stmt 1 view .LVU628
  52:../USER/vramdisp.c **** 	GPIO_WriteBits(GPIO0,0x200);	// dir=out clk=Lo
 2174              		.loc 1 52 5 view .LVU629
  52:../USER/vramdisp.c **** 	GPIO_WriteBits(GPIO0,0x200);	// dir=out clk=Lo
 2175              		.loc 1 52 10 is_stmt 0 view .LVU630
 2176 0090 2046     		mov	r0, r4
 2177 0092 FFF7FEFF 		bl	GPIO_ReadBits
 2178              	.LVL202:
  52:../USER/vramdisp.c **** 	GPIO_WriteBits(GPIO0,0x200);	// dir=out clk=Lo
 2179              		.loc 1 52 8 view .LVU631
 2180 0096 C0B2     		uxtb	r0, r0
 2181 0098 2870     		strb	r0, [r5]
  52:../USER/vramdisp.c **** 	GPIO_WriteBits(GPIO0,0x200);	// dir=out clk=Lo
 2182              		.loc 1 52 44 view .LVU632
 2183 009a 2B78     		ldrb	r3, [r5]	@ zero_extendqisi2
  52:../USER/vramdisp.c **** 	GPIO_WriteBits(GPIO0,0x200);	// dir=out clk=Lo
 2184              		.loc 1 52 2 view .LVU633
 2185 009c D807     		lsls	r0, r3, #31
 2186 009e F7D4     		bmi	.L127
  53:../USER/vramdisp.c **** 	for(i=0;i<dl;i++){
 2187              		.loc 1 53 2 is_stmt 1 view .LVU634
 2188 00a0 4FF40071 		mov	r1, #512
 2189 00a4 6E48     		ldr	r0, .L161
 2190 00a6 FFF7FEFF 		bl	GPIO_WriteBits
 2191              	.LVL203:
  54:../USER/vramdisp.c **** 		dt = wddt.b[i];
 2192              		.loc 1 54 2 view .LVU635
  54:../USER/vramdisp.c **** 		dt = wddt.b[i];
 2193              		.loc 1 54 2 is_stmt 0 view .LVU636
 2194 00aa 724C     		ldr	r4, .L161+20
  56:../USER/vramdisp.c **** 		GPIO_WriteBits(GPIO0,0x200+dt);
 2195              		.loc 1 56 3 view .LVU637
 2196 00ac 6C4F     		ldr	r7, .L161
 2197 00ae 04F10A0B 		add	fp, r4, #10
 2198              	.LVL204:
 2199              	.L128:
  55:../USER/vramdisp.c **** 		GPIO_WriteBits(GPIO0,0x300+dt);
 2200              		.loc 1 55 3 is_stmt 1 view .LVU638
  55:../USER/vramdisp.c **** 		GPIO_WriteBits(GPIO0,0x300+dt);
 2201              		.loc 1 55 6 is_stmt 0 view .LVU639
 2202 00b2 14F8016B 		ldrb	r6, [r4], #1	@ zero_extendqisi2
 2203              	.LVL205:
  56:../USER/vramdisp.c **** 		GPIO_WriteBits(GPIO0,0x200+dt);
 2204              		.loc 1 56 3 is_stmt 1 view .LVU640
 2205 00b6 3846     		mov	r0, r7
 2206 00b8 06F54071 		add	r1, r6, #768
 2207 00bc FFF7FEFF 		bl	GPIO_WriteBits
 2208              	.LVL206:
  57:../USER/vramdisp.c **** 	}
 2209              		.loc 1 57 3 view .LVU641
 2210 00c0 06F50071 		add	r1, r6, #512
 2211 00c4 3846     		mov	r0, r7
 2212 00c6 FFF7FEFF 		bl	GPIO_WriteBits
 2213              	.LVL207:
  54:../USER/vramdisp.c **** 		dt = wddt.b[i];
 2214              		.loc 1 54 2 is_stmt 0 view .LVU642
 2215 00ca A345     		cmp	fp, r4
 2216 00cc F1D1     		bne	.L128
  59:../USER/vramdisp.c **** }
 2217              		.loc 1 59 2 is_stmt 1 view .LVU643
 2218 00ce 0021     		movs	r1, #0
 2219 00d0 6348     		ldr	r0, .L161
 2220 00d2 FFF7FEFF 		bl	GPIO_WriteBits
 2221              	.LVL208:
  59:../USER/vramdisp.c **** }
 2222              		.loc 1 59 2 is_stmt 0 view .LVU644
 2223              	.LBE162:
 2224              	.LBE163:
 2225              	.LBE159:
 2226              	.LBE158:
 139:../USER/vramdisp.c **** 		}
 2227              		.loc 1 139 4 is_stmt 1 view .LVU645
 139:../USER/vramdisp.c **** 		}
 2228              		.loc 1 139 9 is_stmt 0 view .LVU646
 2229 00d6 0023     		movs	r3, #0
 139:../USER/vramdisp.c **** 		}
 2230              		.loc 1 139 45 view .LVU647
 2231 00d8 0122     		movs	r2, #1
 139:../USER/vramdisp.c **** 		}
 2232              		.loc 1 139 30 view .LVU648
 2233 00da 6549     		ldr	r1, .L161+16
 139:../USER/vramdisp.c **** 		}
 2234              		.loc 1 139 9 view .LVU649
 2235 00dc 634E     		ldr	r6, .L161+12
 139:../USER/vramdisp.c **** 		}
 2236              		.loc 1 139 19 view .LVU650
 2237 00de 624F     		ldr	r7, .L161+8
 142:../USER/vramdisp.c **** 		else if(chd==0x0d) { csrx = 0; csry++;}
 2238              		.loc 1 142 5 view .LVU651
 2239 00e0 B9F11F0F 		cmp	r9, #31
 139:../USER/vramdisp.c **** 		}
 2240              		.loc 1 139 30 view .LVU652
 2241 00e4 0B60     		str	r3, [r1]
 139:../USER/vramdisp.c **** 		}
 2242              		.loc 1 139 9 view .LVU653
 2243 00e6 3360     		str	r3, [r6]
 139:../USER/vramdisp.c **** 		}
 2244              		.loc 1 139 14 is_stmt 1 view .LVU654
 139:../USER/vramdisp.c **** 		}
 2245              		.loc 1 139 19 is_stmt 0 view .LVU655
 2246 00e8 3B60     		str	r3, [r7]
 139:../USER/vramdisp.c **** 		}
 2247              		.loc 1 139 24 is_stmt 1 view .LVU656
 139:../USER/vramdisp.c **** 		}
 2248              		.loc 1 139 35 view .LVU657
 139:../USER/vramdisp.c **** 		}
 2249              		.loc 1 139 45 is_stmt 0 view .LVU658
 2250 00ea CAF80020 		str	r2, [r10]
 142:../USER/vramdisp.c **** 		else if(chd==0x0d) { csrx = 0; csry++;}
 2251              		.loc 1 142 3 is_stmt 1 view .LVU659
 142:../USER/vramdisp.c **** 		else if(chd==0x0d) { csrx = 0; csry++;}
 2252              		.loc 1 142 5 is_stmt 0 view .LVU660
 2253 00ee A7DD     		ble	.L130
 142:../USER/vramdisp.c **** 		else if(chd==0x0d) { csrx = 0; csry++;}
 2254              		.loc 1 142 19 is_stmt 1 view .LVU661
 2255              	.LVL209:
 2256              	.LBB164:
 2257              	.LBI164:
 115:../USER/vramdisp.c **** 	int adr, bp;
 2258              		.loc 1 115 6 view .LVU662
 2259              	.LBB165:
 116:../USER/vramdisp.c **** 	unsigned char i, j, cgd, ph, pl;
 2260              		.loc 1 116 2 view .LVU663
 117:../USER/vramdisp.c **** 	ccd = ccd * 8; // font.ddr
 2261              		.loc 1 117 2 view .LVU664
 118:../USER/vramdisp.c **** 	ph = ptn >> 8; pl = ptn & 0xff;
 2262              		.loc 1 118 2 view .LVU665
 118:../USER/vramdisp.c **** 	ph = ptn >> 8; pl = ptn & 0xff;
 2263              		.loc 1 118 6 is_stmt 0 view .LVU666
 2264 00f0 4FEAC909 		lsl	r9, r9, #3
 2265              	.LVL210:
 119:../USER/vramdisp.c **** 	if((adrx&1)==0) wddt.b[5] = 0xf0; else wddt.b[5] = 0x0f;
 2266              		.loc 1 119 2 is_stmt 1 view .LVU667
 119:../USER/vramdisp.c **** 	if((adrx&1)==0) wddt.b[5] = 0xf0; else wddt.b[5] = 0x0f;
 2267              		.loc 1 119 17 view .LVU668
 120:../USER/vramdisp.c **** 	for(j=0; j<8; j++) {
 2268              		.loc 1 120 2 view .LVU669
 118:../USER/vramdisp.c **** 	ph = ptn >> 8; pl = ptn & 0xff;
 2269              		.loc 1 118 6 is_stmt 0 view .LVU670
 2270 00f4 1C46     		mov	r4, r3
 120:../USER/vramdisp.c **** 	for(j=0; j<8; j++) {
 2271              		.loc 1 120 28 view .LVU671
 2272 00f6 F021     		movs	r1, #240
 2273 00f8 14E0     		b	.L131
 2274              	.LVL211:
 2275              	.L144:
 120:../USER/vramdisp.c **** 	for(j=0; j<8; j++) {
 2276              		.loc 1 120 28 view .LVU672
 2277              	.LBE165:
 2278              	.LBE164:
 154:../USER/vramdisp.c **** 	}
 2279              		.loc 1 154 10 view .LVU673
 2280 00fa 0024     		movs	r4, #0
 2281              	.L123:
 2282              		.loc 1 156 1 view .LVU674
 2283 00fc 2046     		mov	r0, r4
 2284 00fe 03B0     		add	sp, sp, #12
 2285              		.cfi_remember_state
 2286              		.cfi_def_cfa_offset 36
 2287              		@ sp needed
 2288 0100 BDE8F08F 		pop	{r4, r5, r6, r7, r8, r9, r10, fp, pc}
 2289              	.L157:
 2290              		.cfi_restore_state
 142:../USER/vramdisp.c **** 		else if(chd==0x0d) { csrx = 0; csry++;}
 2291              		.loc 1 142 19 is_stmt 1 discriminator 1 view .LVU675
 2292 0104 3268     		ldr	r2, [r6]
 2293              	.LVL212:
 2294              	.LBB173:
 115:../USER/vramdisp.c **** 	int adr, bp;
 2295              		.loc 1 115 6 discriminator 1 view .LVU676
 2296              	.LBB172:
 116:../USER/vramdisp.c **** 	unsigned char i, j, cgd, ph, pl;
 2297              		.loc 1 116 2 discriminator 1 view .LVU677
 117:../USER/vramdisp.c **** 	ccd = ccd * 8; // font.ddr
 2298              		.loc 1 117 2 discriminator 1 view .LVU678
 118:../USER/vramdisp.c **** 	ph = ptn >> 8; pl = ptn & 0xff;
 2299              		.loc 1 118 2 discriminator 1 view .LVU679
 2300 0106 03EB8303 		add	r3, r3, r3, lsl #2
 120:../USER/vramdisp.c **** 	for(j=0; j<8; j++) {
 2301              		.loc 1 120 51 is_stmt 0 discriminator 1 view .LVU680
 2302 010a 12F0010F 		tst	r2, #1
 2303 010e 0CBF     		ite	eq
 2304 0110 F021     		moveq	r1, #240
 2305 0112 0F21     		movne	r1, #15
 2306 0114 02EBD272 		add	r2, r2, r2, lsr #31
 2307              	.LVL213:
 120:../USER/vramdisp.c **** 	for(j=0; j<8; j++) {
 2308              		.loc 1 120 51 discriminator 1 view .LVU681
 2309 0118 DFF85881 		ldr	r8, .L161+20
 2310 011c 5C00     		lsls	r4, r3, #1
 118:../USER/vramdisp.c **** 	ph = ptn >> 8; pl = ptn & 0xff;
 2311              		.loc 1 118 6 discriminator 1 view .LVU682
 2312 011e 4FEAC909 		lsl	r9, r9, #3
 2313              	.LVL214:
 119:../USER/vramdisp.c **** 	if((adrx&1)==0) wddt.b[5] = 0xf0; else wddt.b[5] = 0x0f;
 2314              		.loc 1 119 2 is_stmt 1 discriminator 1 view .LVU683
 119:../USER/vramdisp.c **** 	if((adrx&1)==0) wddt.b[5] = 0xf0; else wddt.b[5] = 0x0f;
 2315              		.loc 1 119 17 discriminator 1 view .LVU684
 120:../USER/vramdisp.c **** 	for(j=0; j<8; j++) {
 2316              		.loc 1 120 2 discriminator 1 view .LVU685
 2317 0122 5310     		asrs	r3, r2, #1
 2318              	.LVL215:
 2319              	.L131:
 120:../USER/vramdisp.c **** 	for(j=0; j<8; j++) {
 2320              		.loc 1 120 2 is_stmt 0 discriminator 1 view .LVU686
 2321 0124 544A     		ldr	r2, .L161+24
 2322 0126 04EB8404 		add	r4, r4, r4, lsl #2
 2323 012a 03EBC403 		add	r3, r3, r4, lsl #3
 2324 012e 02F1080B 		add	fp, r2, #8
 2325              	.LBB166:
 2326              	.LBB167:
  20:../USER/vramdisp.c **** 	do{pd = GPIO_ReadBits(GPIO0);}  while((pd & 1)!=0);		// Wait Busy
 2327              		.loc 1 20 2 view .LVU687
 2328 0132 DFF82CA1 		ldr	r10, .L161
 2329 0136 CB44     		add	fp, fp, r9
 2330 0138 5C01     		lsls	r4, r3, #5
 2331 013a 88F80510 		strb	r1, [r8, #5]
 2332              	.LVL216:
  20:../USER/vramdisp.c **** 	do{pd = GPIO_ReadBits(GPIO0);}  while((pd & 1)!=0);		// Wait Busy
 2333              		.loc 1 20 2 view .LVU688
 2334 013e 9144     		add	r9, r9, r2
 2335              	.LVL217:
 2336              	.L133:
  20:../USER/vramdisp.c **** 	do{pd = GPIO_ReadBits(GPIO0);}  while((pd & 1)!=0);		// Wait Busy
 2337              		.loc 1 20 2 view .LVU689
 2338              	.LBE167:
 2339              	.LBE166:
 122:../USER/vramdisp.c **** 		wddt.b[4] = cgd;
 2340              		.loc 1 122 3 is_stmt 1 view .LVU690
 122:../USER/vramdisp.c **** 		wddt.b[4] = cgd;
 2341              		.loc 1 122 7 is_stmt 0 view .LVU691
 2342 0140 19F8013B 		ldrb	r3, [r9], #1	@ zero_extendqisi2
 2343              	.LVL218:
 123:../USER/vramdisp.c **** 		set_vramadr(adry*chardh+j, adrx/2);
 2344              		.loc 1 123 3 is_stmt 1 view .LVU692
 2345              	.LBB170:
 2346              	.LBB168:
  20:../USER/vramdisp.c **** 	do{pd = GPIO_ReadBits(GPIO0);}  while((pd & 1)!=0);		// Wait Busy
 2347              		.loc 1 20 2 is_stmt 0 view .LVU693
 2348 0144 0021     		movs	r1, #0
 2349 0146 5046     		mov	r0, r10
 2350              	.LBE168:
 2351              	.LBE170:
 123:../USER/vramdisp.c **** 		set_vramadr(adry*chardh+j, adrx/2);
 2352              		.loc 1 123 13 view .LVU694
 2353 0148 88F80430 		strb	r3, [r8, #4]
 124:../USER/vramdisp.c **** 		set_vramdata_f6(6);
 2354              		.loc 1 124 3 is_stmt 1 view .LVU695
 2355              	.LVL219:
 2356              	.LBB171:
 2357              	.LBI166:
  17:../USER/vramdisp.c **** 	int adr;
 2358              		.loc 1 17 6 view .LVU696
 2359              	.LBB169:
  18:../USER/vramdisp.c **** 	adr = ((adry)*40+adrx)*32;
 2360              		.loc 1 18 2 view .LVU697
  19:../USER/vramdisp.c **** 	GPIO_WriteBits(GPIO0,0x0000);	// dir=in clk = Lo
 2361              		.loc 1 19 2 view .LVU698
  20:../USER/vramdisp.c **** 	do{pd = GPIO_ReadBits(GPIO0);}  while((pd & 1)!=0);		// Wait Busy
 2362              		.loc 1 20 2 view .LVU699
 2363 014c FFF7FEFF 		bl	GPIO_WriteBits
 2364              	.LVL220:
 2365              	.L132:
  21:../USER/vramdisp.c **** 	wddt.i[0] = adr;
 2366              		.loc 1 21 2 view .LVU700
  21:../USER/vramdisp.c **** 	wddt.i[0] = adr;
 2367              		.loc 1 21 5 view .LVU701
  21:../USER/vramdisp.c **** 	wddt.i[0] = adr;
 2368              		.loc 1 21 10 is_stmt 0 view .LVU702
 2369 0150 5046     		mov	r0, r10
 2370 0152 FFF7FEFF 		bl	GPIO_ReadBits
 2371              	.LVL221:
  21:../USER/vramdisp.c **** 	wddt.i[0] = adr;
 2372              		.loc 1 21 8 view .LVU703
 2373 0156 C0B2     		uxtb	r0, r0
 2374 0158 2870     		strb	r0, [r5]
  21:../USER/vramdisp.c **** 	wddt.i[0] = adr;
 2375              		.loc 1 21 44 view .LVU704
 2376 015a 2B78     		ldrb	r3, [r5]	@ zero_extendqisi2
  21:../USER/vramdisp.c **** 	wddt.i[0] = adr;
 2377              		.loc 1 21 2 view .LVU705
 2378 015c D907     		lsls	r1, r3, #31
 2379 015e F7D4     		bmi	.L132
  22:../USER/vramdisp.c **** }
 2380              		.loc 1 22 2 is_stmt 1 view .LVU706
  22:../USER/vramdisp.c **** }
 2381              		.loc 1 22 12 is_stmt 0 view .LVU707
 2382 0160 C8F80040 		str	r4, [r8]
 2383              	.LVL222:
  22:../USER/vramdisp.c **** }
 2384              		.loc 1 22 12 view .LVU708
 2385              	.LBE169:
 2386              	.LBE171:
 125:../USER/vramdisp.c **** 	}
 2387              		.loc 1 125 3 is_stmt 1 view .LVU709
 2388 0164 FFF7FEFF 		bl	set_vramdata_f6.constprop.1
 2389              	.LVL223:
 121:../USER/vramdisp.c **** 		cgd = FONT_8x8[(ccd+j)& 0x7ff];
 2390              		.loc 1 121 2 is_stmt 0 view .LVU710
 2391 0168 CB45     		cmp	fp, r9
 2392 016a 04F5A064 		add	r4, r4, #1280
 2393 016e E7D1     		bne	.L133
 2394              	.LVL224:
 121:../USER/vramdisp.c **** 		cgd = FONT_8x8[(ccd+j)& 0x7ff];
 2395              		.loc 1 121 2 view .LVU711
 2396              	.LBE172:
 2397              	.LBE173:
 142:../USER/vramdisp.c **** 		else if(chd==0x0d) { csrx = 0; csry++;}
 2398              		.loc 1 142 54 is_stmt 1 discriminator 1 view .LVU712
 142:../USER/vramdisp.c **** 		else if(chd==0x0d) { csrx = 0; csry++;}
 2399              		.loc 1 142 58 is_stmt 0 discriminator 1 view .LVU713
 2400 0170 3268     		ldr	r2, [r6]
 2401 0172 3B68     		ldr	r3, [r7]
 2402 0174 0132     		adds	r2, r2, #1
 2403 0176 3260     		str	r2, [r6]
 2404 0178 66E7     		b	.L134
 2405              	.L160:
 147:../USER/vramdisp.c **** 				move_vram( 640*2*(maxdy-chardh),640*2*maxdy, 0, 10);	// Clear
 2406              		.loc 1 147 5 is_stmt 1 view .LVU714
 2407              	.LVL225:
 2408              	.LBB174:
 2409              	.LBI174:
  79:../USER/vramdisp.c **** 	unsigned char i, dt;
 2410              		.loc 1 79 6 view .LVU715
 2411              	.LBB175:
  80:../USER/vramdisp.c **** 	if(dadr==-1) {
 2412              		.loc 1 80 2 view .LVU716
  81:../USER/vramdisp.c **** 		if(mode==10){ dadr=0; dlen=640*2*(360); sadr=0x001f; }		// Fill
 2413              		.loc 1 81 2 view .LVU717
  85:../USER/vramdisp.c **** 	set_vramdata(mode);
 2414              		.loc 1 85 2 view .LVU718
  85:../USER/vramdisp.c **** 	set_vramdata(mode);
 2415              		.loc 1 85 48 is_stmt 0 view .LVU719
 2416 017a 4FF44852 		mov	r2, #12800
  85:../USER/vramdisp.c **** 	set_vramdata(mode);
 2417              		.loc 1 85 12 view .LVU720
 2418 017e DFF8F480 		ldr	r8, .L161+20
  85:../USER/vramdisp.c **** 	set_vramdata(mode);
 2419              		.loc 1 85 30 view .LVU721
 2420 0182 3E4B     		ldr	r3, .L161+28
 2421              	.LBB176:
 2422              	.LBB177:
  51:../USER/vramdisp.c **** 	do{pd = GPIO_ReadBits(GPIO0);}  while((pd & 1)!=0);		// Wait Busy
 2423              		.loc 1 51 2 view .LVU722
 2424 0184 2146     		mov	r1, r4
 2425 0186 3648     		ldr	r0, .L161
 2426              	.LBE177:
 2427              	.LBE176:
  85:../USER/vramdisp.c **** 	set_vramdata(mode);
 2428              		.loc 1 85 48 view .LVU723
 2429 0188 C8F80820 		str	r2, [r8, #8]
  85:../USER/vramdisp.c **** 	set_vramdata(mode);
 2430              		.loc 1 85 30 view .LVU724
 2431 018c C8E90043 		strd	r4, r3, [r8]
  85:../USER/vramdisp.c **** 	set_vramdata(mode);
 2432              		.loc 1 85 38 is_stmt 1 view .LVU725
  86:../USER/vramdisp.c **** }
 2433              		.loc 1 86 2 view .LVU726
 2434              	.LVL226:
 2435              	.LBB179:
 2436              	.LBI176:
  49:../USER/vramdisp.c **** 	unsigned char i, dt;
 2437              		.loc 1 49 6 view .LVU727
 2438              	.LBB178:
  50:../USER/vramdisp.c **** 	GPIO_WriteBits(GPIO0,0x0000);	// dir=in clk = Lo
 2439              		.loc 1 50 2 view .LVU728
  51:../USER/vramdisp.c **** 	do{pd = GPIO_ReadBits(GPIO0);}  while((pd & 1)!=0);		// Wait Busy
 2440              		.loc 1 51 2 view .LVU729
 2441 0190 FFF7FEFF 		bl	GPIO_WriteBits
 2442              	.LVL227:
  52:../USER/vramdisp.c **** 	GPIO_WriteBits(GPIO0,0x200);	// dir=out clk=Lo
 2443              		.loc 1 52 10 is_stmt 0 view .LVU730
 2444 0194 DFF8C880 		ldr	r8, .L161
 2445              	.L138:
  52:../USER/vramdisp.c **** 	GPIO_WriteBits(GPIO0,0x200);	// dir=out clk=Lo
 2446              		.loc 1 52 2 is_stmt 1 view .LVU731
  52:../USER/vramdisp.c **** 	GPIO_WriteBits(GPIO0,0x200);	// dir=out clk=Lo
 2447              		.loc 1 52 5 view .LVU732
  52:../USER/vramdisp.c **** 	GPIO_WriteBits(GPIO0,0x200);	// dir=out clk=Lo
 2448              		.loc 1 52 10 is_stmt 0 view .LVU733
 2449 0198 4046     		mov	r0, r8
 2450 019a FFF7FEFF 		bl	GPIO_ReadBits
 2451              	.LVL228:
  52:../USER/vramdisp.c **** 	GPIO_WriteBits(GPIO0,0x200);	// dir=out clk=Lo
 2452              		.loc 1 52 8 view .LVU734
 2453 019e C0B2     		uxtb	r0, r0
 2454 01a0 2870     		strb	r0, [r5]
  52:../USER/vramdisp.c **** 	GPIO_WriteBits(GPIO0,0x200);	// dir=out clk=Lo
 2455              		.loc 1 52 44 view .LVU735
 2456 01a2 2B78     		ldrb	r3, [r5]	@ zero_extendqisi2
  52:../USER/vramdisp.c **** 	GPIO_WriteBits(GPIO0,0x200);	// dir=out clk=Lo
 2457              		.loc 1 52 2 view .LVU736
 2458 01a4 DA07     		lsls	r2, r3, #31
 2459 01a6 F7D4     		bmi	.L138
  53:../USER/vramdisp.c **** 	for(i=0;i<dl;i++){
 2460              		.loc 1 53 2 is_stmt 1 view .LVU737
 2461 01a8 DFF8C890 		ldr	r9, .L161+20
 2462 01ac 4FF40071 		mov	r1, #512
 2463 01b0 2B48     		ldr	r0, .L161
 2464 01b2 C846     		mov	r8, r9
 2465 01b4 CB46     		mov	fp, r9
 2466 01b6 FFF7FEFF 		bl	GPIO_WriteBits
 2467              	.LVL229:
  54:../USER/vramdisp.c **** 		dt = wddt.b[i];
 2468              		.loc 1 54 2 view .LVU738
  56:../USER/vramdisp.c **** 		GPIO_WriteBits(GPIO0,0x200+dt);
 2469              		.loc 1 56 3 is_stmt 0 view .LVU739
 2470 01ba DFF8A4A0 		ldr	r10, .L161
 2471              	.LVL230:
 2472              	.L139:
  55:../USER/vramdisp.c **** 		GPIO_WriteBits(GPIO0,0x300+dt);
 2473              		.loc 1 55 3 is_stmt 1 view .LVU740
  55:../USER/vramdisp.c **** 		GPIO_WriteBits(GPIO0,0x300+dt);
 2474              		.loc 1 55 6 is_stmt 0 view .LVU741
 2475 01be 1BF8012B 		ldrb	r2, [fp], #1	@ zero_extendqisi2
 2476              	.LVL231:
  56:../USER/vramdisp.c **** 		GPIO_WriteBits(GPIO0,0x200+dt);
 2477              		.loc 1 56 3 is_stmt 1 view .LVU742
 2478 01c2 5046     		mov	r0, r10
 2479 01c4 02F54071 		add	r1, r2, #768
 2480 01c8 0192     		str	r2, [sp, #4]
 2481 01ca FFF7FEFF 		bl	GPIO_WriteBits
 2482              	.LVL232:
  57:../USER/vramdisp.c **** 	}
 2483              		.loc 1 57 3 view .LVU743
 2484 01ce 019A     		ldr	r2, [sp, #4]
 2485 01d0 5046     		mov	r0, r10
 2486 01d2 02F50071 		add	r1, r2, #512
 2487 01d6 FFF7FEFF 		bl	GPIO_WriteBits
 2488              	.LVL233:
  54:../USER/vramdisp.c **** 		dt = wddt.b[i];
 2489              		.loc 1 54 2 is_stmt 0 view .LVU744
 2490 01da 294B     		ldr	r3, .L161+32
 2491 01dc 5B45     		cmp	r3, fp
 2492 01de EED1     		bne	.L139
  59:../USER/vramdisp.c **** }
 2493              		.loc 1 59 2 is_stmt 1 view .LVU745
 2494 01e0 0021     		movs	r1, #0
 2495 01e2 1F48     		ldr	r0, .L161
 2496 01e4 FFF7FEFF 		bl	GPIO_WriteBits
 2497              	.LVL234:
  59:../USER/vramdisp.c **** }
 2498              		.loc 1 59 2 is_stmt 0 view .LVU746
 2499              	.LBE178:
 2500              	.LBE179:
 2501              	.LBE175:
 2502              	.LBE174:
 148:../USER/vramdisp.c **** 				csry = (maxdy/chardh-1); csrx = 0;
 2503              		.loc 1 148 5 is_stmt 1 view .LVU747
 2504              	.LBB180:
 2505              	.LBI180:
  79:../USER/vramdisp.c **** 	unsigned char i, dt;
 2506              		.loc 1 79 6 view .LVU748
 2507              	.LBB181:
  80:../USER/vramdisp.c **** 	if(dadr==-1) {
 2508              		.loc 1 80 2 view .LVU749
  81:../USER/vramdisp.c **** 		if(mode==10){ dadr=0; dlen=640*2*(360); sadr=0x001f; }		// Fill
 2509              		.loc 1 81 2 view .LVU750
  85:../USER/vramdisp.c **** 	set_vramdata(mode);
 2510              		.loc 1 85 2 view .LVU751
  85:../USER/vramdisp.c **** 	set_vramdata(mode);
 2511              		.loc 1 85 48 is_stmt 0 view .LVU752
 2512 01e8 0021     		movs	r1, #0
  85:../USER/vramdisp.c **** 	set_vramdata(mode);
 2513              		.loc 1 85 30 view .LVU753
 2514 01ea 4FF4E122 		mov	r2, #460800
  85:../USER/vramdisp.c **** 	set_vramdata(mode);
 2515              		.loc 1 85 12 view .LVU754
 2516 01ee 234B     		ldr	r3, .L161+28
 2517              	.LBB182:
 2518              	.LBB183:
  51:../USER/vramdisp.c **** 	do{pd = GPIO_ReadBits(GPIO0);}  while((pd & 1)!=0);		// Wait Busy
 2519              		.loc 1 51 2 view .LVU755
 2520 01f0 1B48     		ldr	r0, .L161
 2521              	.LBE183:
 2522              	.LBE182:
  85:../USER/vramdisp.c **** 	set_vramdata(mode);
 2523              		.loc 1 85 30 view .LVU756
 2524 01f2 C8E90121 		strd	r2, r1, [r8, #4]
  85:../USER/vramdisp.c **** 	set_vramdata(mode);
 2525              		.loc 1 85 12 view .LVU757
 2526 01f6 C8F80030 		str	r3, [r8]
  85:../USER/vramdisp.c **** 	set_vramdata(mode);
 2527              		.loc 1 85 20 is_stmt 1 view .LVU758
  85:../USER/vramdisp.c **** 	set_vramdata(mode);
 2528              		.loc 1 85 38 view .LVU759
  86:../USER/vramdisp.c **** }
 2529              		.loc 1 86 2 view .LVU760
 2530              	.LVL235:
 2531              	.LBB185:
 2532              	.LBI182:
  49:../USER/vramdisp.c **** 	unsigned char i, dt;
 2533              		.loc 1 49 6 view .LVU761
 2534              	.LBB184:
  50:../USER/vramdisp.c **** 	GPIO_WriteBits(GPIO0,0x0000);	// dir=in clk = Lo
 2535              		.loc 1 50 2 view .LVU762
  51:../USER/vramdisp.c **** 	do{pd = GPIO_ReadBits(GPIO0);}  while((pd & 1)!=0);		// Wait Busy
 2536              		.loc 1 51 2 view .LVU763
 2537 01fa FFF7FEFF 		bl	GPIO_WriteBits
 2538              	.LVL236:
  52:../USER/vramdisp.c **** 	GPIO_WriteBits(GPIO0,0x200);	// dir=out clk=Lo
 2539              		.loc 1 52 10 is_stmt 0 view .LVU764
 2540 01fe DFF86080 		ldr	r8, .L161
 2541              	.L140:
  52:../USER/vramdisp.c **** 	GPIO_WriteBits(GPIO0,0x200);	// dir=out clk=Lo
 2542              		.loc 1 52 2 is_stmt 1 view .LVU765
  52:../USER/vramdisp.c **** 	GPIO_WriteBits(GPIO0,0x200);	// dir=out clk=Lo
 2543              		.loc 1 52 5 view .LVU766
  52:../USER/vramdisp.c **** 	GPIO_WriteBits(GPIO0,0x200);	// dir=out clk=Lo
 2544              		.loc 1 52 10 is_stmt 0 view .LVU767
 2545 0202 4046     		mov	r0, r8
 2546 0204 FFF7FEFF 		bl	GPIO_ReadBits
 2547              	.LVL237:
  52:../USER/vramdisp.c **** 	GPIO_WriteBits(GPIO0,0x200);	// dir=out clk=Lo
 2548              		.loc 1 52 8 view .LVU768
 2549 0208 C0B2     		uxtb	r0, r0
 2550 020a 2870     		strb	r0, [r5]
  52:../USER/vramdisp.c **** 	GPIO_WriteBits(GPIO0,0x200);	// dir=out clk=Lo
 2551              		.loc 1 52 44 view .LVU769
 2552 020c 2B78     		ldrb	r3, [r5]	@ zero_extendqisi2
  52:../USER/vramdisp.c **** 	GPIO_WriteBits(GPIO0,0x200);	// dir=out clk=Lo
 2553              		.loc 1 52 2 view .LVU770
 2554 020e DB07     		lsls	r3, r3, #31
 2555 0210 F7D4     		bmi	.L140
  53:../USER/vramdisp.c **** 	for(i=0;i<dl;i++){
 2556              		.loc 1 53 2 is_stmt 1 view .LVU771
 2557 0212 4FF40071 		mov	r1, #512
 2558 0216 1248     		ldr	r0, .L161
 2559 0218 FFF7FEFF 		bl	GPIO_WriteBits
 2560              	.LVL238:
  54:../USER/vramdisp.c **** 		dt = wddt.b[i];
 2561              		.loc 1 54 2 view .LVU772
  54:../USER/vramdisp.c **** 		dt = wddt.b[i];
 2562              		.loc 1 54 2 is_stmt 0 view .LVU773
 2563 021c DFF868A0 		ldr	r10, .L161+40
  56:../USER/vramdisp.c **** 		GPIO_WriteBits(GPIO0,0x200+dt);
 2564              		.loc 1 56 3 view .LVU774
 2565 0220 DFF83C80 		ldr	r8, .L161
 2566              	.LVL239:
 2567              	.L141:
  55:../USER/vramdisp.c **** 		GPIO_WriteBits(GPIO0,0x300+dt);
 2568              		.loc 1 55 3 is_stmt 1 view .LVU775
  55:../USER/vramdisp.c **** 		GPIO_WriteBits(GPIO0,0x300+dt);
 2569              		.loc 1 55 6 is_stmt 0 view .LVU776
 2570 0224 19F8015B 		ldrb	r5, [r9], #1	@ zero_extendqisi2
 2571              	.LVL240:
  56:../USER/vramdisp.c **** 		GPIO_WriteBits(GPIO0,0x200+dt);
 2572              		.loc 1 56 3 is_stmt 1 view .LVU777
 2573 0228 4046     		mov	r0, r8
 2574 022a 05F54071 		add	r1, r5, #768
 2575 022e FFF7FEFF 		bl	GPIO_WriteBits
 2576              	.LVL241:
  57:../USER/vramdisp.c **** 	}
 2577              		.loc 1 57 3 view .LVU778
 2578 0232 05F50071 		add	r1, r5, #512
 2579 0236 4046     		mov	r0, r8
 2580 0238 FFF7FEFF 		bl	GPIO_WriteBits
 2581              	.LVL242:
  54:../USER/vramdisp.c **** 		dt = wddt.b[i];
 2582              		.loc 1 54 2 is_stmt 0 view .LVU779
 2583 023c CA45     		cmp	r10, r9
 2584 023e F1D1     		bne	.L141
  59:../USER/vramdisp.c **** }
 2585              		.loc 1 59 2 is_stmt 1 view .LVU780
 2586 0240 0021     		movs	r1, #0
 2587 0242 0748     		ldr	r0, .L161
 2588 0244 FFF7FEFF 		bl	GPIO_WriteBits
 2589              	.LVL243:
  59:../USER/vramdisp.c **** }
 2590              		.loc 1 59 2 is_stmt 0 view .LVU781
 2591              	.LBE184:
 2592              	.LBE185:
 2593              	.LBE181:
 2594              	.LBE180:
 149:../USER/vramdisp.c **** 			} else {
 2595              		.loc 1 149 5 is_stmt 1 view .LVU782
 149:../USER/vramdisp.c **** 			} else {
 2596              		.loc 1 149 10 is_stmt 0 view .LVU783
 2597 0248 2322     		movs	r2, #35
 149:../USER/vramdisp.c **** 			} else {
 2598              		.loc 1 149 35 view .LVU784
 2599 024a 0023     		movs	r3, #0
 2600              		.loc 1 156 1 view .LVU785
 2601 024c 2046     		mov	r0, r4
 149:../USER/vramdisp.c **** 			} else {
 2602              		.loc 1 149 10 view .LVU786
 2603 024e 3A60     		str	r2, [r7]
 149:../USER/vramdisp.c **** 			} else {
 2604              		.loc 1 149 30 is_stmt 1 view .LVU787
 149:../USER/vramdisp.c **** 			} else {
 2605              		.loc 1 149 35 is_stmt 0 view .LVU788
 2606 0250 3360     		str	r3, [r6]
 2607              		.loc 1 156 1 view .LVU789
 2608 0252 03B0     		add	sp, sp, #12
 2609              		.cfi_remember_state
 2610              		.cfi_def_cfa_offset 36
 2611              		@ sp needed
 2612 0254 BDE8F08F 		pop	{r4, r5, r6, r7, r8, r9, r10, fp, pc}
 2613              	.L142:
 2614              		.cfi_restore_state
 135:../USER/vramdisp.c **** 	else {
 2615              		.loc 1 135 25 view .LVU790
 2616 0258 4FF0FF34 		mov	r4, #-1
 2617 025c 4EE7     		b	.L123
 2618              	.L162:
 2619 025e 00BF     		.align	2
 2620              	.L161:
 2621 0260 00000140 		.word	1073807360
 2622 0264 00000000 		.word	pd
 2623 0268 00000000 		.word	.LANCHOR3
 2624 026c 00000000 		.word	.LANCHOR2
 2625 0270 00000000 		.word	.LANCHOR4
 2626 0274 00000000 		.word	wddt
 2627 0278 00000000 		.word	.LANCHOR0
 2628 027c 00D60600 		.word	448000
 2629 0280 0C000000 		.word	wddt+12
 2630 0284 00000000 		.word	.LANCHOR1
 2631 0288 0A000000 		.word	wddt+10
 2632              		.cfi_endproc
 2633              	.LFE39:
 2635              		.section	.text.disp_vramw,"ax",%progbits
 2636              		.align	1
 2637              		.p2align 2,,3
 2638              		.global	disp_vramw
 2639              		.syntax unified
 2640              		.thumb
 2641              		.thumb_func
 2642              		.fpu softvfp
 2644              	disp_vramw:
 2645              	.LVL244:
 2646              	.LFB40:
 157:../USER/vramdisp.c **** void disp_vramw(char ch) { int rc; do{ rc = disp_vram(ch);} while(rc!=0); }
 2647              		.loc 1 157 26 is_stmt 1 view -0
 2648              		.cfi_startproc
 2649              		@ args = 0, pretend = 0, frame = 0
 2650              		@ frame_needed = 0, uses_anonymous_args = 0
 2651              		.loc 1 157 26 is_stmt 0 view .LVU792
 2652 0000 10B5     		push	{r4, lr}
 2653              		.cfi_def_cfa_offset 8
 2654              		.cfi_offset 4, -8
 2655              		.cfi_offset 14, -4
 2656 0002 0446     		mov	r4, r0
 2657              	.LVL245:
 2658              	.L164:
 2659              		.loc 1 157 28 is_stmt 1 discriminator 1 view .LVU793
 2660              		.loc 1 157 36 discriminator 1 view .LVU794
 2661              		.loc 1 157 40 discriminator 1 view .LVU795
 2662              		.loc 1 157 45 is_stmt 0 discriminator 1 view .LVU796
 2663 0004 2046     		mov	r0, r4
 2664 0006 FFF7FEFF 		bl	disp_vram
 2665              	.LVL246:
 2666              		.loc 1 157 1 discriminator 1 view .LVU797
 2667 000a 0028     		cmp	r0, #0
 2668 000c FAD1     		bne	.L164
 2669              		.loc 1 157 1 view .LVU798
 2670 000e 10BD     		pop	{r4, pc}
 2671              		.cfi_endproc
 2672              	.LFE40:
 2674              		.section	.text.gotoxy,"ax",%progbits
 2675              		.align	1
 2676              		.p2align 2,,3
 2677              		.global	gotoxy
 2678              		.syntax unified
 2679              		.thumb
 2680              		.thumb_func
 2681              		.fpu softvfp
 2683              	gotoxy:
 2684              	.LVL247:
 2685              	.LFB41:
 158:../USER/vramdisp.c **** 
 159:../USER/vramdisp.c **** void gotoxy(u16 yp, u16 xp, u16 fc, u16 bc){
 2686              		.loc 1 159 44 is_stmt 1 view -0
 2687              		.cfi_startproc
 2688              		@ args = 0, pretend = 0, frame = 8
 2689              		@ frame_needed = 0, uses_anonymous_args = 0
 160:../USER/vramdisp.c **** 
 161:../USER/vramdisp.c **** 	if(yp==0xffff) {
 2690              		.loc 1 161 2 view .LVU800
 159:../USER/vramdisp.c **** 
 2691              		.loc 1 159 44 is_stmt 0 view .LVU801
 2692 0000 2DE9F04F 		push	{r4, r5, r6, r7, r8, r9, r10, fp, lr}
 2693              		.cfi_def_cfa_offset 36
 2694              		.cfi_offset 4, -36
 2695              		.cfi_offset 5, -32
 2696              		.cfi_offset 6, -28
 2697              		.cfi_offset 7, -24
 2698              		.cfi_offset 8, -20
 2699              		.cfi_offset 9, -16
 2700              		.cfi_offset 10, -12
 2701              		.cfi_offset 11, -8
 2702              		.cfi_offset 14, -4
 2703              		.loc 1 161 4 view .LVU802
 2704 0004 4FF6FF74 		movw	r4, #65535
 2705 0008 A042     		cmp	r0, r4
 159:../USER/vramdisp.c **** 
 2706              		.loc 1 159 44 view .LVU803
 2707 000a 83B0     		sub	sp, sp, #12
 2708              		.cfi_def_cfa_offset 48
 159:../USER/vramdisp.c **** 
 2709              		.loc 1 159 44 view .LVU804
 2710 000c 9046     		mov	r8, r2
 2711 000e 1F46     		mov	r7, r3
 2712              		.loc 1 161 4 view .LVU805
 2713 0010 39D0     		beq	.L194
 162:../USER/vramdisp.c **** 		if(xp==0xffff) { dispinitf = 0; disp_vramw(0);}
 163:../USER/vramdisp.c **** 		else           csrmd = xp;
 164:../USER/vramdisp.c **** 	}
 165:../USER/vramdisp.c **** 	else { csry=yp; csrx=xp; }
 2714              		.loc 1 165 9 is_stmt 1 view .LVU806
 2715              		.loc 1 165 13 is_stmt 0 view .LVU807
 2716 0012 864A     		ldr	r2, .L199
 2717              	.LVL248:
 2718              		.loc 1 165 22 view .LVU808
 2719 0014 864B     		ldr	r3, .L199+4
 2720              	.LVL249:
 2721              		.loc 1 165 13 view .LVU809
 2722 0016 1060     		str	r0, [r2]
 2723              		.loc 1 165 18 is_stmt 1 view .LVU810
 2724              		.loc 1 165 22 is_stmt 0 view .LVU811
 2725 0018 1960     		str	r1, [r3]
 2726              	.LVL250:
 2727              	.L174:
 166:../USER/vramdisp.c **** 	//
 167:../USER/vramdisp.c **** 	if(fc!=0 || bc!=0) { wddt.s[2] = fc;  wddt.s[3] = bc; set_vramdata(8); }
 2728              		.loc 1 167 2 is_stmt 1 view .LVU812
 2729              		.loc 1 167 4 is_stmt 0 view .LVU813
 2730 001a 58EA0703 		orrs	r3, r8, r7
 2731 001e 02D1     		bne	.L195
 168:../USER/vramdisp.c **** }
 2732              		.loc 1 168 1 view .LVU814
 2733 0020 03B0     		add	sp, sp, #12
 2734              		.cfi_remember_state
 2735              		.cfi_def_cfa_offset 36
 2736              		@ sp needed
 2737 0022 BDE8F08F 		pop	{r4, r5, r6, r7, r8, r9, r10, fp, pc}
 2738              	.L195:
 2739              		.cfi_restore_state
 167:../USER/vramdisp.c **** }
 2740              		.loc 1 167 23 is_stmt 1 discriminator 3 view .LVU815
 167:../USER/vramdisp.c **** }
 2741              		.loc 1 167 33 is_stmt 0 discriminator 3 view .LVU816
 2742 0026 834B     		ldr	r3, .L199+8
 2743              	.LBB208:
 2744              	.LBB209:
  51:../USER/vramdisp.c **** 	do{pd = GPIO_ReadBits(GPIO0);}  while((pd & 1)!=0);		// Wait Busy
 2745              		.loc 1 51 2 discriminator 3 view .LVU817
 2746 0028 0021     		movs	r1, #0
 2747 002a 8348     		ldr	r0, .L199+12
 2748              	.LBE209:
 2749              	.LBE208:
 167:../USER/vramdisp.c **** }
 2750              		.loc 1 167 33 discriminator 3 view .LVU818
 2751 002c A3F80480 		strh	r8, [r3, #4]	@ movhi
 167:../USER/vramdisp.c **** }
 2752              		.loc 1 167 40 is_stmt 1 discriminator 3 view .LVU819
 167:../USER/vramdisp.c **** }
 2753              		.loc 1 167 50 is_stmt 0 discriminator 3 view .LVU820
 2754 0030 DF80     		strh	r7, [r3, #6]	@ movhi
 167:../USER/vramdisp.c **** }
 2755              		.loc 1 167 56 is_stmt 1 discriminator 3 view .LVU821
 2756              	.LVL251:
 2757              	.LBB212:
 2758              	.LBI208:
  49:../USER/vramdisp.c **** 	unsigned char i, dt;
 2759              		.loc 1 49 6 discriminator 3 view .LVU822
 2760              	.LBB210:
  50:../USER/vramdisp.c **** 	GPIO_WriteBits(GPIO0,0x0000);	// dir=in clk = Lo
 2761              		.loc 1 50 2 discriminator 3 view .LVU823
  51:../USER/vramdisp.c **** 	do{pd = GPIO_ReadBits(GPIO0);}  while((pd & 1)!=0);		// Wait Busy
 2762              		.loc 1 51 2 discriminator 3 view .LVU824
 2763 0032 FFF7FEFF 		bl	GPIO_WriteBits
 2764              	.LVL252:
 2765 0036 814C     		ldr	r4, .L199+16
  52:../USER/vramdisp.c **** 	GPIO_WriteBits(GPIO0,0x200);	// dir=out clk=Lo
 2766              		.loc 1 52 10 is_stmt 0 discriminator 3 view .LVU825
 2767 0038 7F4D     		ldr	r5, .L199+12
 2768              	.L182:
  52:../USER/vramdisp.c **** 	GPIO_WriteBits(GPIO0,0x200);	// dir=out clk=Lo
 2769              		.loc 1 52 2 is_stmt 1 view .LVU826
  52:../USER/vramdisp.c **** 	GPIO_WriteBits(GPIO0,0x200);	// dir=out clk=Lo
 2770              		.loc 1 52 5 view .LVU827
  52:../USER/vramdisp.c **** 	GPIO_WriteBits(GPIO0,0x200);	// dir=out clk=Lo
 2771              		.loc 1 52 10 is_stmt 0 view .LVU828
 2772 003a 2846     		mov	r0, r5
 2773 003c FFF7FEFF 		bl	GPIO_ReadBits
 2774              	.LVL253:
  52:../USER/vramdisp.c **** 	GPIO_WriteBits(GPIO0,0x200);	// dir=out clk=Lo
 2775              		.loc 1 52 8 view .LVU829
 2776 0040 C0B2     		uxtb	r0, r0
 2777 0042 2070     		strb	r0, [r4]
  52:../USER/vramdisp.c **** 	GPIO_WriteBits(GPIO0,0x200);	// dir=out clk=Lo
 2778              		.loc 1 52 44 view .LVU830
 2779 0044 2378     		ldrb	r3, [r4]	@ zero_extendqisi2
  52:../USER/vramdisp.c **** 	GPIO_WriteBits(GPIO0,0x200);	// dir=out clk=Lo
 2780              		.loc 1 52 2 view .LVU831
 2781 0046 DB07     		lsls	r3, r3, #31
 2782 0048 F7D4     		bmi	.L182
  53:../USER/vramdisp.c **** 	for(i=0;i<dl;i++){
 2783              		.loc 1 53 2 is_stmt 1 view .LVU832
 2784 004a 4FF40071 		mov	r1, #512
 2785 004e 7A48     		ldr	r0, .L199+12
 2786 0050 FFF7FEFF 		bl	GPIO_WriteBits
 2787              	.LVL254:
  54:../USER/vramdisp.c **** 		dt = wddt.b[i];
 2788              		.loc 1 54 2 view .LVU833
  54:../USER/vramdisp.c **** 		dt = wddt.b[i];
 2789              		.loc 1 54 2 is_stmt 0 view .LVU834
 2790 0054 7A4C     		ldr	r4, .L199+20
  56:../USER/vramdisp.c **** 		GPIO_WriteBits(GPIO0,0x200+dt);
 2791              		.loc 1 56 3 view .LVU835
 2792 0056 784E     		ldr	r6, .L199+12
 2793 0058 04F10807 		add	r7, r4, #8
 2794              	.LVL255:
 2795              	.L183:
  55:../USER/vramdisp.c **** 		GPIO_WriteBits(GPIO0,0x300+dt);
 2796              		.loc 1 55 3 is_stmt 1 view .LVU836
  56:../USER/vramdisp.c **** 		GPIO_WriteBits(GPIO0,0x200+dt);
 2797              		.loc 1 56 3 view .LVU837
  56:../USER/vramdisp.c **** 		GPIO_WriteBits(GPIO0,0x200+dt);
 2798              		.loc 1 56 29 is_stmt 0 view .LVU838
 2799 005c 14F8015F 		ldrb	r5, [r4, #1]!	@ zero_extendqisi2
 2800              	.LVL256:
  56:../USER/vramdisp.c **** 		GPIO_WriteBits(GPIO0,0x200+dt);
 2801              		.loc 1 56 3 view .LVU839
 2802 0060 3046     		mov	r0, r6
 2803 0062 05F54071 		add	r1, r5, #768
 2804 0066 FFF7FEFF 		bl	GPIO_WriteBits
 2805              	.LVL257:
  57:../USER/vramdisp.c **** 	}
 2806              		.loc 1 57 3 is_stmt 1 view .LVU840
 2807 006a 05F50071 		add	r1, r5, #512
 2808 006e 3046     		mov	r0, r6
 2809 0070 FFF7FEFF 		bl	GPIO_WriteBits
 2810              	.LVL258:
  54:../USER/vramdisp.c **** 		dt = wddt.b[i];
 2811              		.loc 1 54 2 is_stmt 0 view .LVU841
 2812 0074 A742     		cmp	r7, r4
 2813 0076 F1D1     		bne	.L183
  59:../USER/vramdisp.c **** }
 2814              		.loc 1 59 2 is_stmt 1 view .LVU842
 2815 0078 0021     		movs	r1, #0
 2816 007a 6F48     		ldr	r0, .L199+12
 2817              	.LBE210:
 2818              	.LBE212:
 2819              		.loc 1 168 1 is_stmt 0 view .LVU843
 2820 007c 03B0     		add	sp, sp, #12
 2821              		.cfi_remember_state
 2822              		.cfi_def_cfa_offset 36
 2823              		@ sp needed
 2824 007e BDE8F04F 		pop	{r4, r5, r6, r7, r8, r9, r10, fp, lr}
 2825              		.cfi_restore 14
 2826              		.cfi_restore 11
 2827              		.cfi_restore 10
 2828              		.cfi_restore 9
 2829              		.cfi_restore 8
 2830              		.cfi_restore 7
 2831              		.cfi_restore 6
 2832              		.cfi_restore 5
 2833              		.cfi_restore 4
 2834              		.cfi_def_cfa_offset 0
 2835              	.LVL259:
 2836              	.LBB213:
 2837              	.LBB211:
  59:../USER/vramdisp.c **** }
 2838              		.loc 1 59 2 view .LVU844
 2839 0082 FFF7FEBF 		b	GPIO_WriteBits
 2840              	.LVL260:
 2841              	.L194:
 2842              		.cfi_restore_state
  59:../USER/vramdisp.c **** }
 2843              		.loc 1 59 2 view .LVU845
 2844              	.LBE211:
 2845              	.LBE213:
 162:../USER/vramdisp.c **** 		else           csrmd = xp;
 2846              		.loc 1 162 3 is_stmt 1 view .LVU846
 162:../USER/vramdisp.c **** 		else           csrmd = xp;
 2847              		.loc 1 162 5 is_stmt 0 view .LVU847
 2848 0086 8142     		cmp	r1, r0
 2849 0088 02D0     		beq	.L196
 163:../USER/vramdisp.c **** 	}
 2850              		.loc 1 163 18 is_stmt 1 view .LVU848
 163:../USER/vramdisp.c **** 	}
 2851              		.loc 1 163 24 is_stmt 0 view .LVU849
 2852 008a 6E4B     		ldr	r3, .L199+24
 2853              	.LVL261:
 163:../USER/vramdisp.c **** 	}
 2854              		.loc 1 163 24 view .LVU850
 2855 008c 1960     		str	r1, [r3]
 2856 008e C4E7     		b	.L174
 2857              	.LVL262:
 2858              	.L196:
 162:../USER/vramdisp.c **** 		else           csrmd = xp;
 2859              		.loc 1 162 20 is_stmt 1 discriminator 1 view .LVU851
 162:../USER/vramdisp.c **** 		else           csrmd = xp;
 2860              		.loc 1 162 30 is_stmt 0 discriminator 1 view .LVU852
 2861 0090 0023     		movs	r3, #0
 2862              	.LVL263:
 162:../USER/vramdisp.c **** 		else           csrmd = xp;
 2863              		.loc 1 162 30 discriminator 1 view .LVU853
 2864 0092 6D4D     		ldr	r5, .L199+28
 2865 0094 694C     		ldr	r4, .L199+16
 2866              	.LBB214:
 2867              	.LBB215:
 2868              	.LBB216:
 2869              	.LBB217:
 134:../USER/vramdisp.c **** 	if((pd & 1)!=0) return -1;	// Busy
 2870              		.loc 1 134 2 discriminator 1 view .LVU854
 2871 0096 684E     		ldr	r6, .L199+12
 2872              	.LBE217:
 2873              	.LBE216:
 2874              	.LBE215:
 2875              	.LBE214:
 162:../USER/vramdisp.c **** 		else           csrmd = xp;
 2876              		.loc 1 162 30 discriminator 1 view .LVU855
 2877 0098 2B60     		str	r3, [r5]
 162:../USER/vramdisp.c **** 		else           csrmd = xp;
 2878              		.loc 1 162 35 is_stmt 1 discriminator 1 view .LVU856
 2879              	.LVL264:
 2880              	.LBB239:
 2881              	.LBI214:
 157:../USER/vramdisp.c **** 
 2882              		.loc 1 157 6 discriminator 1 view .LVU857
 2883              	.L170:
 2884              	.LBB238:
 157:../USER/vramdisp.c **** 
 2885              		.loc 1 157 28 view .LVU858
 157:../USER/vramdisp.c **** 
 2886              		.loc 1 157 36 view .LVU859
 157:../USER/vramdisp.c **** 
 2887              		.loc 1 157 40 view .LVU860
 2888              	.LBB237:
 2889              	.LBI216:
 132:../USER/vramdisp.c **** 	int i;
 2890              		.loc 1 132 5 view .LVU861
 2891              	.LBB236:
 133:../USER/vramdisp.c **** 	GPIO_WriteBits(GPIO0,0x0000); pd = GPIO_ReadBits(GPIO0);
 2892              		.loc 1 133 2 view .LVU862
 134:../USER/vramdisp.c **** 	if((pd & 1)!=0) return -1;	// Busy
 2893              		.loc 1 134 2 view .LVU863
 2894 009a 0021     		movs	r1, #0
 2895 009c 3046     		mov	r0, r6
 2896 009e FFF7FEFF 		bl	GPIO_WriteBits
 2897              	.LVL265:
 134:../USER/vramdisp.c **** 	if((pd & 1)!=0) return -1;	// Busy
 2898              		.loc 1 134 32 view .LVU864
 134:../USER/vramdisp.c **** 	if((pd & 1)!=0) return -1;	// Busy
 2899              		.loc 1 134 37 is_stmt 0 view .LVU865
 2900 00a2 3046     		mov	r0, r6
 2901 00a4 FFF7FEFF 		bl	GPIO_ReadBits
 2902              	.LVL266:
 134:../USER/vramdisp.c **** 	if((pd & 1)!=0) return -1;	// Busy
 2903              		.loc 1 134 35 view .LVU866
 2904 00a8 C0B2     		uxtb	r0, r0
 2905 00aa 2070     		strb	r0, [r4]
 135:../USER/vramdisp.c **** 	else {
 2906              		.loc 1 135 2 is_stmt 1 view .LVU867
 135:../USER/vramdisp.c **** 	else {
 2907              		.loc 1 135 9 is_stmt 0 view .LVU868
 2908 00ac 2378     		ldrb	r3, [r4]	@ zero_extendqisi2
 135:../USER/vramdisp.c **** 	else {
 2909              		.loc 1 135 4 view .LVU869
 2910 00ae 13F00103 		ands	r3, r3, #1
 2911 00b2 F2D1     		bne	.L170
 137:../USER/vramdisp.c **** 			move_vram( 0, 640*2*maxdy, 0, 10);	// Clear Vram
 2912              		.loc 1 137 3 is_stmt 1 view .LVU870
 137:../USER/vramdisp.c **** 			move_vram( 0, 640*2*maxdy, 0, 10);	// Clear Vram
 2913              		.loc 1 137 5 is_stmt 0 view .LVU871
 2914 00b4 2A68     		ldr	r2, [r5]
 2915 00b6 D2B1     		cbz	r2, .L197
 142:../USER/vramdisp.c **** 		else if(chd==0x0d) { csrx = 0; csry++;}
 2916              		.loc 1 142 3 is_stmt 1 view .LVU872
 143:../USER/vramdisp.c **** 		if(csrx>=80) {csrx = 0; csry++;}
 2917              		.loc 1 143 8 view .LVU873
 144:../USER/vramdisp.c **** 		if(csry>=(maxdy/chardh)) {
 2918              		.loc 1 144 3 view .LVU874
 144:../USER/vramdisp.c **** 		if(csry>=(maxdy/chardh)) {
 2919              		.loc 1 144 10 is_stmt 0 view .LVU875
 2920 00b8 DFF87491 		ldr	r9, .L199+4
 2921 00bc DFF86CA1 		ldr	r10, .L199
 144:../USER/vramdisp.c **** 		if(csry>=(maxdy/chardh)) {
 2922              		.loc 1 144 5 view .LVU876
 2923 00c0 D9F80010 		ldr	r1, [r9]
 2924 00c4 DAF80020 		ldr	r2, [r10]
 2925 00c8 4F29     		cmp	r1, #79
 2926 00ca 04DD     		ble	.L175
 144:../USER/vramdisp.c **** 		if(csry>=(maxdy/chardh)) {
 2927              		.loc 1 144 17 is_stmt 1 view .LVU877
 144:../USER/vramdisp.c **** 		if(csry>=(maxdy/chardh)) {
 2928              		.loc 1 144 31 is_stmt 0 view .LVU878
 2929 00cc 0132     		adds	r2, r2, #1
 2930 00ce CAF80020 		str	r2, [r10]
 144:../USER/vramdisp.c **** 		if(csry>=(maxdy/chardh)) {
 2931              		.loc 1 144 22 view .LVU879
 2932 00d2 C9F80030 		str	r3, [r9]
 144:../USER/vramdisp.c **** 		if(csry>=(maxdy/chardh)) {
 2933              		.loc 1 144 27 is_stmt 1 view .LVU880
 2934              	.L175:
 145:../USER/vramdisp.c **** 			if(csrmd==0) {
 2935              		.loc 1 145 3 view .LVU881
 145:../USER/vramdisp.c **** 			if(csrmd==0) {
 2936              		.loc 1 145 5 is_stmt 0 view .LVU882
 2937 00d6 232A     		cmp	r2, #35
 2938 00d8 9FDD     		ble	.L174
 146:../USER/vramdisp.c **** 				move_vram( 0, 640*2*(maxdy-chardh), 640*2*(chardh), 12);	// Scrool
 2939              		.loc 1 146 4 is_stmt 1 view .LVU883
 146:../USER/vramdisp.c **** 				move_vram( 0, 640*2*(maxdy-chardh), 640*2*(chardh), 12);	// Scrool
 2940              		.loc 1 146 12 is_stmt 0 view .LVU884
 2941 00da 5A4B     		ldr	r3, .L199+24
 146:../USER/vramdisp.c **** 				move_vram( 0, 640*2*(maxdy-chardh), 640*2*(chardh), 12);	// Scrool
 2942              		.loc 1 146 6 view .LVU885
 2943 00dc 1B68     		ldr	r3, [r3]
 2944 00de 002B     		cmp	r3, #0
 2945 00e0 3ED0     		beq	.L198
 151:../USER/vramdisp.c **** 			}
 2946              		.loc 1 151 5 is_stmt 1 view .LVU886
 151:../USER/vramdisp.c **** 			}
 2947              		.loc 1 151 10 is_stmt 0 view .LVU887
 2948 00e2 0023     		movs	r3, #0
 2949 00e4 CAF80030 		str	r3, [r10]
 151:../USER/vramdisp.c **** 			}
 2950              		.loc 1 151 15 is_stmt 1 view .LVU888
 151:../USER/vramdisp.c **** 			}
 2951              		.loc 1 151 20 is_stmt 0 view .LVU889
 2952 00e8 C9F80030 		str	r3, [r9]
 2953              	.LVL267:
 151:../USER/vramdisp.c **** 			}
 2954              		.loc 1 151 20 view .LVU890
 2955 00ec 95E7     		b	.L174
 2956              	.LVL268:
 2957              	.L197:
 138:../USER/vramdisp.c **** 			csrx = 0; csry = 0;	csrmd = 0; dispinitf = 1;
 2958              		.loc 1 138 4 is_stmt 1 view .LVU891
 2959              	.LBB218:
 2960              	.LBI218:
  79:../USER/vramdisp.c **** 	unsigned char i, dt;
 2961              		.loc 1 79 6 view .LVU892
 2962              	.LBB219:
  80:../USER/vramdisp.c **** 	if(dadr==-1) {
 2963              		.loc 1 80 2 view .LVU893
  81:../USER/vramdisp.c **** 		if(mode==10){ dadr=0; dlen=640*2*(360); sadr=0x001f; }		// Fill
 2964              		.loc 1 81 2 view .LVU894
  85:../USER/vramdisp.c **** 	set_vramdata(mode);
 2965              		.loc 1 85 2 view .LVU895
  85:../USER/vramdisp.c **** 	set_vramdata(mode);
 2966              		.loc 1 85 30 is_stmt 0 view .LVU896
 2967 00ee 4FF4E123 		mov	r3, #460800
  85:../USER/vramdisp.c **** 	set_vramdata(mode);
 2968              		.loc 1 85 12 view .LVU897
 2969 00f2 504E     		ldr	r6, .L199+8
 2970              	.LBB220:
 2971              	.LBB221:
  51:../USER/vramdisp.c **** 	do{pd = GPIO_ReadBits(GPIO0);}  while((pd & 1)!=0);		// Wait Busy
 2972              		.loc 1 51 2 view .LVU898
 2973 00f4 1146     		mov	r1, r2
 2974 00f6 5048     		ldr	r0, .L199+12
 2975              	.LBE221:
 2976              	.LBE220:
  85:../USER/vramdisp.c **** 	set_vramdata(mode);
 2977              		.loc 1 85 30 view .LVU899
 2978 00f8 7360     		str	r3, [r6, #4]
  85:../USER/vramdisp.c **** 	set_vramdata(mode);
 2979              		.loc 1 85 12 view .LVU900
 2980 00fa 3260     		str	r2, [r6]
  85:../USER/vramdisp.c **** 	set_vramdata(mode);
 2981              		.loc 1 85 20 is_stmt 1 view .LVU901
  85:../USER/vramdisp.c **** 	set_vramdata(mode);
 2982              		.loc 1 85 38 view .LVU902
  85:../USER/vramdisp.c **** 	set_vramdata(mode);
 2983              		.loc 1 85 48 is_stmt 0 view .LVU903
 2984 00fc B260     		str	r2, [r6, #8]
  86:../USER/vramdisp.c **** }
 2985              		.loc 1 86 2 is_stmt 1 view .LVU904
 2986              	.LVL269:
 2987              	.LBB223:
 2988              	.LBI220:
  49:../USER/vramdisp.c **** 	unsigned char i, dt;
 2989              		.loc 1 49 6 view .LVU905
 2990              	.LBB222:
  50:../USER/vramdisp.c **** 	GPIO_WriteBits(GPIO0,0x0000);	// dir=in clk = Lo
 2991              		.loc 1 50 2 view .LVU906
  51:../USER/vramdisp.c **** 	do{pd = GPIO_ReadBits(GPIO0);}  while((pd & 1)!=0);		// Wait Busy
 2992              		.loc 1 51 2 view .LVU907
 2993 00fe FFF7FEFF 		bl	GPIO_WriteBits
 2994              	.LVL270:
  52:../USER/vramdisp.c **** 	GPIO_WriteBits(GPIO0,0x200);	// dir=out clk=Lo
 2995              		.loc 1 52 10 is_stmt 0 view .LVU908
 2996 0102 4D4E     		ldr	r6, .L199+12
 2997              	.L172:
  52:../USER/vramdisp.c **** 	GPIO_WriteBits(GPIO0,0x200);	// dir=out clk=Lo
 2998              		.loc 1 52 2 is_stmt 1 view .LVU909
  52:../USER/vramdisp.c **** 	GPIO_WriteBits(GPIO0,0x200);	// dir=out clk=Lo
 2999              		.loc 1 52 5 view .LVU910
  52:../USER/vramdisp.c **** 	GPIO_WriteBits(GPIO0,0x200);	// dir=out clk=Lo
 3000              		.loc 1 52 10 is_stmt 0 view .LVU911
 3001 0104 3046     		mov	r0, r6
 3002 0106 FFF7FEFF 		bl	GPIO_ReadBits
 3003              	.LVL271:
  52:../USER/vramdisp.c **** 	GPIO_WriteBits(GPIO0,0x200);	// dir=out clk=Lo
 3004              		.loc 1 52 8 view .LVU912
 3005 010a C0B2     		uxtb	r0, r0
 3006 010c 2070     		strb	r0, [r4]
  52:../USER/vramdisp.c **** 	GPIO_WriteBits(GPIO0,0x200);	// dir=out clk=Lo
 3007              		.loc 1 52 44 view .LVU913
 3008 010e 2378     		ldrb	r3, [r4]	@ zero_extendqisi2
  52:../USER/vramdisp.c **** 	GPIO_WriteBits(GPIO0,0x200);	// dir=out clk=Lo
 3009              		.loc 1 52 2 view .LVU914
 3010 0110 D807     		lsls	r0, r3, #31
 3011 0112 F7D4     		bmi	.L172
  53:../USER/vramdisp.c **** 	for(i=0;i<dl;i++){
 3012              		.loc 1 53 2 is_stmt 1 view .LVU915
 3013 0114 4FF40071 		mov	r1, #512
 3014 0118 4748     		ldr	r0, .L199+12
 3015 011a FFF7FEFF 		bl	GPIO_WriteBits
 3016              	.LVL272:
  54:../USER/vramdisp.c **** 		dt = wddt.b[i];
 3017              		.loc 1 54 2 view .LVU916
  54:../USER/vramdisp.c **** 		dt = wddt.b[i];
 3018              		.loc 1 54 2 is_stmt 0 view .LVU917
 3019 011e 454C     		ldr	r4, .L199+8
  56:../USER/vramdisp.c **** 		GPIO_WriteBits(GPIO0,0x200+dt);
 3020              		.loc 1 56 3 view .LVU918
 3021 0120 DFF81491 		ldr	r9, .L199+12
 3022 0124 04F10A0A 		add	r10, r4, #10
 3023              	.LVL273:
 3024              	.L173:
  55:../USER/vramdisp.c **** 		GPIO_WriteBits(GPIO0,0x300+dt);
 3025              		.loc 1 55 3 is_stmt 1 view .LVU919
  55:../USER/vramdisp.c **** 		GPIO_WriteBits(GPIO0,0x300+dt);
 3026              		.loc 1 55 6 is_stmt 0 view .LVU920
 3027 0128 14F8016B 		ldrb	r6, [r4], #1	@ zero_extendqisi2
 3028              	.LVL274:
  56:../USER/vramdisp.c **** 		GPIO_WriteBits(GPIO0,0x200+dt);
 3029              		.loc 1 56 3 is_stmt 1 view .LVU921
 3030 012c 4846     		mov	r0, r9
 3031 012e 06F54071 		add	r1, r6, #768
 3032 0132 FFF7FEFF 		bl	GPIO_WriteBits
 3033              	.LVL275:
  57:../USER/vramdisp.c **** 	}
 3034              		.loc 1 57 3 view .LVU922
 3035 0136 06F50071 		add	r1, r6, #512
 3036 013a 4846     		mov	r0, r9
 3037 013c FFF7FEFF 		bl	GPIO_WriteBits
 3038              	.LVL276:
  54:../USER/vramdisp.c **** 		dt = wddt.b[i];
 3039              		.loc 1 54 2 is_stmt 0 view .LVU923
 3040 0140 A245     		cmp	r10, r4
 3041 0142 F1D1     		bne	.L173
  59:../USER/vramdisp.c **** }
 3042              		.loc 1 59 2 is_stmt 1 view .LVU924
 3043 0144 0021     		movs	r1, #0
 3044 0146 3C48     		ldr	r0, .L199+12
 3045 0148 FFF7FEFF 		bl	GPIO_WriteBits
 3046              	.LVL277:
  59:../USER/vramdisp.c **** }
 3047              		.loc 1 59 2 is_stmt 0 view .LVU925
 3048              	.LBE222:
 3049              	.LBE223:
 3050              	.LBE219:
 3051              	.LBE218:
 139:../USER/vramdisp.c **** 		}
 3052              		.loc 1 139 4 is_stmt 1 view .LVU926
 139:../USER/vramdisp.c **** 		}
 3053              		.loc 1 139 45 is_stmt 0 view .LVU927
 3054 014c 0122     		movs	r2, #1
 139:../USER/vramdisp.c **** 		}
 3055              		.loc 1 139 9 view .LVU928
 3056 014e 0023     		movs	r3, #0
 3057 0150 3748     		ldr	r0, .L199+4
 139:../USER/vramdisp.c **** 		}
 3058              		.loc 1 139 45 view .LVU929
 3059 0152 2A60     		str	r2, [r5]
 139:../USER/vramdisp.c **** 		}
 3060              		.loc 1 139 19 view .LVU930
 3061 0154 3549     		ldr	r1, .L199
 139:../USER/vramdisp.c **** 		}
 3062              		.loc 1 139 30 view .LVU931
 3063 0156 3B4A     		ldr	r2, .L199+24
 139:../USER/vramdisp.c **** 		}
 3064              		.loc 1 139 9 view .LVU932
 3065 0158 0360     		str	r3, [r0]
 139:../USER/vramdisp.c **** 		}
 3066              		.loc 1 139 14 is_stmt 1 view .LVU933
 139:../USER/vramdisp.c **** 		}
 3067              		.loc 1 139 19 is_stmt 0 view .LVU934
 3068 015a 0B60     		str	r3, [r1]
 139:../USER/vramdisp.c **** 		}
 3069              		.loc 1 139 24 is_stmt 1 view .LVU935
 139:../USER/vramdisp.c **** 		}
 3070              		.loc 1 139 30 is_stmt 0 view .LVU936
 3071 015c 1360     		str	r3, [r2]
 139:../USER/vramdisp.c **** 		}
 3072              		.loc 1 139 35 is_stmt 1 view .LVU937
 142:../USER/vramdisp.c **** 		else if(chd==0x0d) { csrx = 0; csry++;}
 3073              		.loc 1 142 3 view .LVU938
 143:../USER/vramdisp.c **** 		if(csrx>=80) {csrx = 0; csry++;}
 3074              		.loc 1 143 8 view .LVU939
 144:../USER/vramdisp.c **** 		if(csry>=(maxdy/chardh)) {
 3075              		.loc 1 144 3 view .LVU940
 145:../USER/vramdisp.c **** 			if(csrmd==0) {
 3076              		.loc 1 145 3 view .LVU941
 3077 015e 5CE7     		b	.L174
 3078              	.L198:
 147:../USER/vramdisp.c **** 				move_vram( 640*2*(maxdy-chardh),640*2*maxdy, 0, 10);	// Clear
 3079              		.loc 1 147 5 view .LVU942
 3080              	.LVL278:
 3081              	.LBB224:
 3082              	.LBI224:
  79:../USER/vramdisp.c **** 	unsigned char i, dt;
 3083              		.loc 1 79 6 view .LVU943
 3084              	.LBB225:
  80:../USER/vramdisp.c **** 	if(dadr==-1) {
 3085              		.loc 1 80 2 view .LVU944
  81:../USER/vramdisp.c **** 		if(mode==10){ dadr=0; dlen=640*2*(360); sadr=0x001f; }		// Fill
 3086              		.loc 1 81 2 view .LVU945
  85:../USER/vramdisp.c **** 	set_vramdata(mode);
 3087              		.loc 1 85 2 view .LVU946
  85:../USER/vramdisp.c **** 	set_vramdata(mode);
 3088              		.loc 1 85 48 is_stmt 0 view .LVU947
 3089 0160 4FF44851 		mov	r1, #12800
  85:../USER/vramdisp.c **** 	set_vramdata(mode);
 3090              		.loc 1 85 12 view .LVU948
 3091 0164 334E     		ldr	r6, .L199+8
  85:../USER/vramdisp.c **** 	set_vramdata(mode);
 3092              		.loc 1 85 30 view .LVU949
 3093 0166 394A     		ldr	r2, .L199+32
  85:../USER/vramdisp.c **** 	set_vramdata(mode);
 3094              		.loc 1 85 48 view .LVU950
 3095 0168 B160     		str	r1, [r6, #8]
 3096              	.LBB226:
 3097              	.LBB227:
  51:../USER/vramdisp.c **** 	do{pd = GPIO_ReadBits(GPIO0);}  while((pd & 1)!=0);		// Wait Busy
 3098              		.loc 1 51 2 view .LVU951
 3099 016a 3348     		ldr	r0, .L199+12
 3100 016c 1946     		mov	r1, r3
 3101              	.LBE227:
 3102              	.LBE226:
  85:../USER/vramdisp.c **** 	set_vramdata(mode);
 3103              		.loc 1 85 12 view .LVU952
 3104 016e 3360     		str	r3, [r6]
  85:../USER/vramdisp.c **** 	set_vramdata(mode);
 3105              		.loc 1 85 20 is_stmt 1 view .LVU953
  85:../USER/vramdisp.c **** 	set_vramdata(mode);
 3106              		.loc 1 85 30 is_stmt 0 view .LVU954
 3107 0170 7260     		str	r2, [r6, #4]
  85:../USER/vramdisp.c **** 	set_vramdata(mode);
 3108              		.loc 1 85 38 is_stmt 1 view .LVU955
  86:../USER/vramdisp.c **** }
 3109              		.loc 1 86 2 view .LVU956
 3110              	.LVL279:
 3111              	.LBB229:
 3112              	.LBI226:
  49:../USER/vramdisp.c **** 	unsigned char i, dt;
 3113              		.loc 1 49 6 view .LVU957
 3114              	.LBB228:
  50:../USER/vramdisp.c **** 	GPIO_WriteBits(GPIO0,0x0000);	// dir=in clk = Lo
 3115              		.loc 1 50 2 view .LVU958
  51:../USER/vramdisp.c **** 	do{pd = GPIO_ReadBits(GPIO0);}  while((pd & 1)!=0);		// Wait Busy
 3116              		.loc 1 51 2 view .LVU959
 3117 0172 FFF7FEFF 		bl	GPIO_WriteBits
 3118              	.LVL280:
  52:../USER/vramdisp.c **** 	GPIO_WriteBits(GPIO0,0x200);	// dir=out clk=Lo
 3119              		.loc 1 52 10 is_stmt 0 view .LVU960
 3120 0176 304D     		ldr	r5, .L199+12
 3121              	.L177:
  52:../USER/vramdisp.c **** 	GPIO_WriteBits(GPIO0,0x200);	// dir=out clk=Lo
 3122              		.loc 1 52 2 is_stmt 1 view .LVU961
  52:../USER/vramdisp.c **** 	GPIO_WriteBits(GPIO0,0x200);	// dir=out clk=Lo
 3123              		.loc 1 52 5 view .LVU962
  52:../USER/vramdisp.c **** 	GPIO_WriteBits(GPIO0,0x200);	// dir=out clk=Lo
 3124              		.loc 1 52 10 is_stmt 0 view .LVU963
 3125 0178 2846     		mov	r0, r5
 3126 017a FFF7FEFF 		bl	GPIO_ReadBits
 3127              	.LVL281:
  52:../USER/vramdisp.c **** 	GPIO_WriteBits(GPIO0,0x200);	// dir=out clk=Lo
 3128              		.loc 1 52 8 view .LVU964
 3129 017e C0B2     		uxtb	r0, r0
 3130 0180 2070     		strb	r0, [r4]
  52:../USER/vramdisp.c **** 	GPIO_WriteBits(GPIO0,0x200);	// dir=out clk=Lo
 3131              		.loc 1 52 44 view .LVU965
 3132 0182 2378     		ldrb	r3, [r4]	@ zero_extendqisi2
  52:../USER/vramdisp.c **** 	GPIO_WriteBits(GPIO0,0x200);	// dir=out clk=Lo
 3133              		.loc 1 52 2 view .LVU966
 3134 0184 D907     		lsls	r1, r3, #31
 3135 0186 F7D4     		bmi	.L177
  53:../USER/vramdisp.c **** 	for(i=0;i<dl;i++){
 3136              		.loc 1 53 2 is_stmt 1 view .LVU967
 3137 0188 2A4D     		ldr	r5, .L199+8
 3138 018a 4FF40071 		mov	r1, #512
 3139 018e 2E46     		mov	r6, r5
 3140 0190 AB46     		mov	fp, r5
 3141 0192 2948     		ldr	r0, .L199+12
 3142 0194 FFF7FEFF 		bl	GPIO_WriteBits
 3143              	.LVL282:
  54:../USER/vramdisp.c **** 		dt = wddt.b[i];
 3144              		.loc 1 54 2 view .LVU968
  54:../USER/vramdisp.c **** 		dt = wddt.b[i];
 3145              		.loc 1 54 2 is_stmt 0 view .LVU969
 3146 0198 0194     		str	r4, [sp, #4]
 3147              	.LVL283:
 3148              	.L178:
  55:../USER/vramdisp.c **** 		GPIO_WriteBits(GPIO0,0x300+dt);
 3149              		.loc 1 55 3 is_stmt 1 view .LVU970
  55:../USER/vramdisp.c **** 		GPIO_WriteBits(GPIO0,0x300+dt);
 3150              		.loc 1 55 6 is_stmt 0 view .LVU971
 3151 019a 1BF8014B 		ldrb	r4, [fp], #1	@ zero_extendqisi2
 3152              	.LVL284:
  56:../USER/vramdisp.c **** 		GPIO_WriteBits(GPIO0,0x200+dt);
 3153              		.loc 1 56 3 is_stmt 1 view .LVU972
 3154 019e 2648     		ldr	r0, .L199+12
 3155 01a0 04F54071 		add	r1, r4, #768
 3156 01a4 FFF7FEFF 		bl	GPIO_WriteBits
 3157              	.LVL285:
  57:../USER/vramdisp.c **** 	}
 3158              		.loc 1 57 3 view .LVU973
 3159 01a8 04F50071 		add	r1, r4, #512
 3160 01ac 2248     		ldr	r0, .L199+12
 3161 01ae FFF7FEFF 		bl	GPIO_WriteBits
 3162              	.LVL286:
  54:../USER/vramdisp.c **** 		dt = wddt.b[i];
 3163              		.loc 1 54 2 is_stmt 0 view .LVU974
 3164 01b2 274B     		ldr	r3, .L199+36
 3165 01b4 5B45     		cmp	r3, fp
 3166 01b6 F0D1     		bne	.L178
  59:../USER/vramdisp.c **** }
 3167              		.loc 1 59 2 view .LVU975
 3168 01b8 0021     		movs	r1, #0
 3169 01ba 1F48     		ldr	r0, .L199+12
 3170 01bc 019C     		ldr	r4, [sp, #4]
 3171              	.LVL287:
  59:../USER/vramdisp.c **** }
 3172              		.loc 1 59 2 is_stmt 1 view .LVU976
 3173 01be FFF7FEFF 		bl	GPIO_WriteBits
 3174              	.LVL288:
  59:../USER/vramdisp.c **** }
 3175              		.loc 1 59 2 is_stmt 0 view .LVU977
 3176              	.LBE228:
 3177              	.LBE229:
 3178              	.LBE225:
 3179              	.LBE224:
 148:../USER/vramdisp.c **** 				csry = (maxdy/chardh-1); csrx = 0;
 3180              		.loc 1 148 5 is_stmt 1 view .LVU978
 3181              	.LBB230:
 3182              	.LBI230:
  79:../USER/vramdisp.c **** 	unsigned char i, dt;
 3183              		.loc 1 79 6 view .LVU979
 3184              	.LBB231:
  80:../USER/vramdisp.c **** 	if(dadr==-1) {
 3185              		.loc 1 80 2 view .LVU980
  81:../USER/vramdisp.c **** 		if(mode==10){ dadr=0; dlen=640*2*(360); sadr=0x001f; }		// Fill
 3186              		.loc 1 81 2 view .LVU981
  85:../USER/vramdisp.c **** 	set_vramdata(mode);
 3187              		.loc 1 85 2 view .LVU982
  85:../USER/vramdisp.c **** 	set_vramdata(mode);
 3188              		.loc 1 85 48 is_stmt 0 view .LVU983
 3189 01c2 0021     		movs	r1, #0
  85:../USER/vramdisp.c **** 	set_vramdata(mode);
 3190              		.loc 1 85 30 view .LVU984
 3191 01c4 4FF4E122 		mov	r2, #460800
  85:../USER/vramdisp.c **** 	set_vramdata(mode);
 3192              		.loc 1 85 12 view .LVU985
 3193 01c8 204B     		ldr	r3, .L199+32
 3194              	.LBB232:
 3195              	.LBB233:
  51:../USER/vramdisp.c **** 	do{pd = GPIO_ReadBits(GPIO0);}  while((pd & 1)!=0);		// Wait Busy
 3196              		.loc 1 51 2 view .LVU986
 3197 01ca 1B48     		ldr	r0, .L199+12
 3198              	.LBE233:
 3199              	.LBE232:
  85:../USER/vramdisp.c **** 	set_vramdata(mode);
 3200              		.loc 1 85 30 view .LVU987
 3201 01cc C6E90121 		strd	r2, r1, [r6, #4]
  85:../USER/vramdisp.c **** 	set_vramdata(mode);
 3202              		.loc 1 85 12 view .LVU988
 3203 01d0 3360     		str	r3, [r6]
  85:../USER/vramdisp.c **** 	set_vramdata(mode);
 3204              		.loc 1 85 20 is_stmt 1 view .LVU989
  85:../USER/vramdisp.c **** 	set_vramdata(mode);
 3205              		.loc 1 85 38 view .LVU990
  86:../USER/vramdisp.c **** }
 3206              		.loc 1 86 2 view .LVU991
 3207              	.LVL289:
 3208              	.LBB235:
 3209              	.LBI232:
  49:../USER/vramdisp.c **** 	unsigned char i, dt;
 3210              		.loc 1 49 6 view .LVU992
 3211              	.LBB234:
  50:../USER/vramdisp.c **** 	GPIO_WriteBits(GPIO0,0x0000);	// dir=in clk = Lo
 3212              		.loc 1 50 2 view .LVU993
  51:../USER/vramdisp.c **** 	do{pd = GPIO_ReadBits(GPIO0);}  while((pd & 1)!=0);		// Wait Busy
 3213              		.loc 1 51 2 view .LVU994
 3214 01d2 FFF7FEFF 		bl	GPIO_WriteBits
 3215              	.LVL290:
  52:../USER/vramdisp.c **** 	GPIO_WriteBits(GPIO0,0x200);	// dir=out clk=Lo
 3216              		.loc 1 52 10 is_stmt 0 view .LVU995
 3217 01d6 184E     		ldr	r6, .L199+12
 3218              	.L179:
  52:../USER/vramdisp.c **** 	GPIO_WriteBits(GPIO0,0x200);	// dir=out clk=Lo
 3219              		.loc 1 52 2 is_stmt 1 view .LVU996
  52:../USER/vramdisp.c **** 	GPIO_WriteBits(GPIO0,0x200);	// dir=out clk=Lo
 3220              		.loc 1 52 5 view .LVU997
  52:../USER/vramdisp.c **** 	GPIO_WriteBits(GPIO0,0x200);	// dir=out clk=Lo
 3221              		.loc 1 52 10 is_stmt 0 view .LVU998
 3222 01d8 3046     		mov	r0, r6
 3223 01da FFF7FEFF 		bl	GPIO_ReadBits
 3224              	.LVL291:
  52:../USER/vramdisp.c **** 	GPIO_WriteBits(GPIO0,0x200);	// dir=out clk=Lo
 3225              		.loc 1 52 8 view .LVU999
 3226 01de C0B2     		uxtb	r0, r0
 3227 01e0 2070     		strb	r0, [r4]
  52:../USER/vramdisp.c **** 	GPIO_WriteBits(GPIO0,0x200);	// dir=out clk=Lo
 3228              		.loc 1 52 44 view .LVU1000
 3229 01e2 2378     		ldrb	r3, [r4]	@ zero_extendqisi2
  52:../USER/vramdisp.c **** 	GPIO_WriteBits(GPIO0,0x200);	// dir=out clk=Lo
 3230              		.loc 1 52 2 view .LVU1001
 3231 01e4 DA07     		lsls	r2, r3, #31
 3232 01e6 F7D4     		bmi	.L179
  53:../USER/vramdisp.c **** 	for(i=0;i<dl;i++){
 3233              		.loc 1 53 2 is_stmt 1 view .LVU1002
 3234 01e8 4FF40071 		mov	r1, #512
 3235 01ec 1248     		ldr	r0, .L199+12
 3236 01ee FFF7FEFF 		bl	GPIO_WriteBits
 3237              	.LVL292:
  54:../USER/vramdisp.c **** 		dt = wddt.b[i];
 3238              		.loc 1 54 2 view .LVU1003
  54:../USER/vramdisp.c **** 		dt = wddt.b[i];
 3239              		.loc 1 54 2 is_stmt 0 view .LVU1004
 3240 01f2 DFF860B0 		ldr	fp, .L199+40
  56:../USER/vramdisp.c **** 		GPIO_WriteBits(GPIO0,0x200+dt);
 3241              		.loc 1 56 3 view .LVU1005
 3242 01f6 104E     		ldr	r6, .L199+12
 3243              	.LVL293:
 3244              	.L180:
  55:../USER/vramdisp.c **** 		GPIO_WriteBits(GPIO0,0x300+dt);
 3245              		.loc 1 55 3 is_stmt 1 view .LVU1006
  55:../USER/vramdisp.c **** 		GPIO_WriteBits(GPIO0,0x300+dt);
 3246              		.loc 1 55 6 is_stmt 0 view .LVU1007
 3247 01f8 15F8014B 		ldrb	r4, [r5], #1	@ zero_extendqisi2
 3248              	.LVL294:
  56:../USER/vramdisp.c **** 		GPIO_WriteBits(GPIO0,0x200+dt);
 3249              		.loc 1 56 3 is_stmt 1 view .LVU1008
 3250 01fc 3046     		mov	r0, r6
 3251 01fe 04F54071 		add	r1, r4, #768
 3252 0202 FFF7FEFF 		bl	GPIO_WriteBits
 3253              	.LVL295:
  57:../USER/vramdisp.c **** 	}
 3254              		.loc 1 57 3 view .LVU1009
 3255 0206 04F50071 		add	r1, r4, #512
 3256 020a 3046     		mov	r0, r6
 3257 020c FFF7FEFF 		bl	GPIO_WriteBits
 3258              	.LVL296:
  54:../USER/vramdisp.c **** 		dt = wddt.b[i];
 3259              		.loc 1 54 2 is_stmt 0 view .LVU1010
 3260 0210 AB45     		cmp	fp, r5
 3261 0212 F1D1     		bne	.L180
  59:../USER/vramdisp.c **** }
 3262              		.loc 1 59 2 is_stmt 1 view .LVU1011
 3263 0214 0021     		movs	r1, #0
 3264 0216 0848     		ldr	r0, .L199+12
 3265 0218 FFF7FEFF 		bl	GPIO_WriteBits
 3266              	.LVL297:
  59:../USER/vramdisp.c **** }
 3267              		.loc 1 59 2 is_stmt 0 view .LVU1012
 3268              	.LBE234:
 3269              	.LBE235:
 3270              	.LBE231:
 3271              	.LBE230:
 149:../USER/vramdisp.c **** 			} else {
 3272              		.loc 1 149 5 is_stmt 1 view .LVU1013
 149:../USER/vramdisp.c **** 			} else {
 3273              		.loc 1 149 10 is_stmt 0 view .LVU1014
 3274 021c 2322     		movs	r2, #35
 149:../USER/vramdisp.c **** 			} else {
 3275              		.loc 1 149 35 view .LVU1015
 3276 021e 0023     		movs	r3, #0
 149:../USER/vramdisp.c **** 			} else {
 3277              		.loc 1 149 10 view .LVU1016
 3278 0220 CAF80020 		str	r2, [r10]
 149:../USER/vramdisp.c **** 			} else {
 3279              		.loc 1 149 30 is_stmt 1 view .LVU1017
 149:../USER/vramdisp.c **** 			} else {
 3280              		.loc 1 149 35 is_stmt 0 view .LVU1018
 3281 0224 C9F80030 		str	r3, [r9]
 3282              	.LVL298:
 149:../USER/vramdisp.c **** 			} else {
 3283              		.loc 1 149 35 view .LVU1019
 3284 0228 F7E6     		b	.L174
 3285              	.L200:
 3286 022a 00BF     		.align	2
 3287              	.L199:
 3288 022c 00000000 		.word	.LANCHOR3
 3289 0230 00000000 		.word	.LANCHOR2
 3290 0234 00000000 		.word	wddt
 3291 0238 00000140 		.word	1073807360
 3292 023c 00000000 		.word	pd
 3293 0240 FFFFFFFF 		.word	wddt-1
 3294 0244 00000000 		.word	.LANCHOR4
 3295 0248 00000000 		.word	.LANCHOR1
 3296 024c 00D60600 		.word	448000
 3297 0250 0C000000 		.word	wddt+12
 3298 0254 0A000000 		.word	wddt+10
 3299              	.LBE236:
 3300              	.LBE237:
 3301              	.LBE238:
 3302              	.LBE239:
 3303              		.cfi_endproc
 3304              	.LFE41:
 3306              		.section	.text.dispfull,"ax",%progbits
 3307              		.align	1
 3308              		.p2align 2,,3
 3309              		.global	dispfull
 3310              		.syntax unified
 3311              		.thumb
 3312              		.thumb_func
 3313              		.fpu softvfp
 3315              	dispfull:
 3316              	.LVL299:
 3317              	.LFB42:
 169:../USER/vramdisp.c **** 
 170:../USER/vramdisp.c **** void dispfull(int adry, int adrx, int ptn, int ccd, int len){
 3318              		.loc 1 170 61 is_stmt 1 view -0
 3319              		.cfi_startproc
 3320              		@ args = 4, pretend = 0, frame = 8
 3321              		@ frame_needed = 0, uses_anonymous_args = 0
 3322              		.loc 1 170 61 is_stmt 0 view .LVU1021
 3323 0000 2DE9F04F 		push	{r4, r5, r6, r7, r8, r9, r10, fp, lr}
 3324              		.cfi_def_cfa_offset 36
 3325              		.cfi_offset 4, -36
 3326              		.cfi_offset 5, -32
 3327              		.cfi_offset 6, -28
 3328              		.cfi_offset 7, -24
 3329              		.cfi_offset 8, -20
 3330              		.cfi_offset 9, -16
 3331              		.cfi_offset 10, -12
 3332              		.cfi_offset 11, -8
 3333              		.cfi_offset 14, -4
 3334 0004 83B0     		sub	sp, sp, #12
 3335              		.cfi_def_cfa_offset 48
 171:../USER/vramdisp.c **** 	int x;
 172:../USER/vramdisp.c **** 	if(len==-1) len = 1;
 3336              		.loc 1 172 4 view .LVU1022
 3337 0006 0C9A     		ldr	r2, [sp, #48]
 3338              	.LVL300:
 170:../USER/vramdisp.c **** 	int x;
 3339              		.loc 1 170 61 view .LVU1023
 3340 0008 0190     		str	r0, [sp, #4]
 3341              		.loc 1 172 4 view .LVU1024
 3342 000a 0132     		adds	r2, r2, #1
 170:../USER/vramdisp.c **** 	int x;
 3343              		.loc 1 170 61 view .LVU1025
 3344 000c 8946     		mov	r9, r1
 171:../USER/vramdisp.c **** 	int x;
 3345              		.loc 1 171 2 is_stmt 1 view .LVU1026
 3346              		.loc 1 172 2 view .LVU1027
 3347              		.loc 1 172 4 is_stmt 0 view .LVU1028
 3348 000e 64D0     		beq	.L216
 173:../USER/vramdisp.c **** 	if(adry==-1) { adry=0; adrx=0; ptn=0x07e0; ccd=0x30; len=0x10;}
 3349              		.loc 1 173 2 is_stmt 1 view .LVU1029
 3350              		.loc 1 173 4 is_stmt 0 view .LVU1030
 3351 0010 421C     		adds	r2, r0, #1
 3352 0012 4CD0     		beq	.L212
 3353              	.LVL301:
 174:../USER/vramdisp.c **** 	for( x=0; x<len; x++) {
 3354              		.loc 1 174 2 is_stmt 1 view .LVU1031
 3355              		.loc 1 174 2 is_stmt 0 view .LVU1032
 3356 0014 0C9A     		ldr	r2, [sp, #48]
 3357 0016 002A     		cmp	r2, #0
 3358 0018 5CDD     		ble	.L201
 3359 001a DA00     		lsls	r2, r3, #3
 3360 001c 3449     		ldr	r1, .L218
 3361              	.LVL302:
 3362              		.loc 1 174 2 view .LVU1033
 3363 001e C2F30A02 		ubfx	r2, r2, #0, #11
 3364 0022 8A5C     		ldrb	r2, [r1, r2]	@ zero_extendqisi2
 3365              	.LVL303:
 3366              	.L203:
 3367              		.loc 1 174 8 view .LVU1034
 3368 0024 0027     		movs	r7, #0
 3369 0026 0133     		adds	r3, r3, #1
 3370 0028 DFF8C880 		ldr	r8, .L218+4
 3371 002c DFF8C8B0 		ldr	fp, .L218+8
 3372              	.LBB244:
 3373              	.LBB245:
 3374              	.LBB246:
 3375              	.LBB247:
  20:../USER/vramdisp.c **** 	do{pd = GPIO_ReadBits(GPIO0);}  while((pd & 1)!=0);		// Wait Busy
 3376              		.loc 1 20 2 view .LVU1035
 3377 0030 DFF8C8A0 		ldr	r10, .L218+12
 3378 0034 DE00     		lsls	r6, r3, #3
 3379              	.LVL304:
 3380              	.L210:
  20:../USER/vramdisp.c **** 	do{pd = GPIO_ReadBits(GPIO0);}  while((pd & 1)!=0);		// Wait Busy
 3381              		.loc 1 20 2 view .LVU1036
 3382              	.LBE247:
 3383              	.LBE246:
 3384              	.LBE245:
 3385              	.LBE244:
 175:../USER/vramdisp.c **** 		if((adrx+x)>=80) {adrx = adrx - 80; adry++;}
 3386              		.loc 1 175 3 is_stmt 1 view .LVU1037
 3387              		.loc 1 175 11 is_stmt 0 view .LVU1038
 3388 0036 07EB0903 		add	r3, r7, r9
 3389              		.loc 1 175 5 view .LVU1039
 3390 003a 4F2B     		cmp	r3, #79
 3391 003c 06DD     		ble	.L205
 3392              		.loc 1 175 21 is_stmt 1 discriminator 1 view .LVU1040
 3393              		.loc 1 175 43 is_stmt 0 discriminator 1 view .LVU1041
 3394 003e 019B     		ldr	r3, [sp, #4]
 3395              		.loc 1 175 26 discriminator 1 view .LVU1042
 3396 0040 A9F15009 		sub	r9, r9, #80
 3397              	.LVL305:
 3398              		.loc 1 175 39 is_stmt 1 discriminator 1 view .LVU1043
 3399              		.loc 1 175 43 is_stmt 0 discriminator 1 view .LVU1044
 3400 0044 0133     		adds	r3, r3, #1
 3401 0046 0193     		str	r3, [sp, #4]
 3402              	.LVL306:
 3403              		.loc 1 175 43 discriminator 1 view .LVU1045
 3404 0048 09EB0703 		add	r3, r9, r7
 3405              	.LVL307:
 3406              	.L205:
 176:../USER/vramdisp.c **** 		set_char(adry,adrx+x,ptn,ccd+x);
 3407              		.loc 1 176 3 is_stmt 1 discriminator 2 view .LVU1046
 3408              	.LBB253:
 3409              	.LBI244:
 115:../USER/vramdisp.c **** 	int adr, bp;
 3410              		.loc 1 115 6 discriminator 2 view .LVU1047
 3411              	.LBB252:
 116:../USER/vramdisp.c **** 	unsigned char i, j, cgd, ph, pl;
 3412              		.loc 1 116 2 discriminator 2 view .LVU1048
 117:../USER/vramdisp.c **** 	ccd = ccd * 8; // font.ddr
 3413              		.loc 1 117 2 discriminator 2 view .LVU1049
 118:../USER/vramdisp.c **** 	ph = ptn >> 8; pl = ptn & 0xff;
 3414              		.loc 1 118 2 discriminator 2 view .LVU1050
 119:../USER/vramdisp.c **** 	if((adrx&1)==0) wddt.b[5] = 0xf0; else wddt.b[5] = 0x0f;
 3415              		.loc 1 119 2 discriminator 2 view .LVU1051
 119:../USER/vramdisp.c **** 	if((adrx&1)==0) wddt.b[5] = 0xf0; else wddt.b[5] = 0x0f;
 3416              		.loc 1 119 17 discriminator 2 view .LVU1052
 120:../USER/vramdisp.c **** 	for(j=0; j<8; j++) {
 3417              		.loc 1 120 2 discriminator 2 view .LVU1053
 3418 004c 4FF4C874 		mov	r4, #400
 120:../USER/vramdisp.c **** 	for(j=0; j<8; j++) {
 3419              		.loc 1 120 28 is_stmt 0 discriminator 2 view .LVU1054
 3420 0050 13F0010F 		tst	r3, #1
 3421 0054 14BF     		ite	ne
 3422 0056 0F21     		movne	r1, #15
 3423 0058 F021     		moveq	r1, #240
 3424 005a 0198     		ldr	r0, [sp, #4]
 124:../USER/vramdisp.c **** 		set_vramdata_f6(6);
 3425              		.loc 1 124 3 discriminator 2 view .LVU1055
 3426 005c 03EBD373 		add	r3, r3, r3, lsr #31
 3427 0060 04FB00F4 		mul	r4, r4, r0
 3428 0064 04EB6303 		add	r3, r4, r3, asr #1
 3429 0068 5C01     		lsls	r4, r3, #5
 3430 006a 88F80510 		strb	r1, [r8, #5]
 3431              	.LVL308:
 124:../USER/vramdisp.c **** 		set_vramdata_f6(6);
 3432              		.loc 1 124 3 discriminator 2 view .LVU1056
 3433 006e A6F10805 		sub	r5, r6, #8
 3434              	.LVL309:
 3435              	.L207:
 122:../USER/vramdisp.c **** 		wddt.b[4] = cgd;
 3436              		.loc 1 122 3 is_stmt 1 view .LVU1057
 123:../USER/vramdisp.c **** 		set_vramadr(adry*chardh+j, adrx/2);
 3437              		.loc 1 123 3 view .LVU1058
 3438              	.LBB250:
 3439              	.LBB248:
  20:../USER/vramdisp.c **** 	do{pd = GPIO_ReadBits(GPIO0);}  while((pd & 1)!=0);		// Wait Busy
 3440              		.loc 1 20 2 is_stmt 0 view .LVU1059
 3441 0072 0021     		movs	r1, #0
 3442 0074 5046     		mov	r0, r10
 3443              	.LBE248:
 3444              	.LBE250:
 123:../USER/vramdisp.c **** 		set_vramadr(adry*chardh+j, adrx/2);
 3445              		.loc 1 123 13 view .LVU1060
 3446 0076 88F80420 		strb	r2, [r8, #4]
 124:../USER/vramdisp.c **** 		set_vramdata_f6(6);
 3447              		.loc 1 124 3 is_stmt 1 view .LVU1061
 3448              	.LVL310:
 3449              	.LBB251:
 3450              	.LBI246:
  17:../USER/vramdisp.c **** 	int adr;
 3451              		.loc 1 17 6 view .LVU1062
 3452              	.LBB249:
  18:../USER/vramdisp.c **** 	adr = ((adry)*40+adrx)*32;
 3453              		.loc 1 18 2 view .LVU1063
  19:../USER/vramdisp.c **** 	GPIO_WriteBits(GPIO0,0x0000);	// dir=in clk = Lo
 3454              		.loc 1 19 2 view .LVU1064
  20:../USER/vramdisp.c **** 	do{pd = GPIO_ReadBits(GPIO0);}  while((pd & 1)!=0);		// Wait Busy
 3455              		.loc 1 20 2 view .LVU1065
 3456 007a FFF7FEFF 		bl	GPIO_WriteBits
 3457              	.LVL311:
 3458              	.L208:
  21:../USER/vramdisp.c **** 	wddt.i[0] = adr;
 3459              		.loc 1 21 2 view .LVU1066
  21:../USER/vramdisp.c **** 	wddt.i[0] = adr;
 3460              		.loc 1 21 5 view .LVU1067
  21:../USER/vramdisp.c **** 	wddt.i[0] = adr;
 3461              		.loc 1 21 10 is_stmt 0 view .LVU1068
 3462 007e 5046     		mov	r0, r10
 3463 0080 FFF7FEFF 		bl	GPIO_ReadBits
 3464              	.LVL312:
  21:../USER/vramdisp.c **** 	wddt.i[0] = adr;
 3465              		.loc 1 21 8 view .LVU1069
 3466 0084 C0B2     		uxtb	r0, r0
 3467 0086 8BF80000 		strb	r0, [fp]
  21:../USER/vramdisp.c **** 	wddt.i[0] = adr;
 3468              		.loc 1 21 44 view .LVU1070
 3469 008a 9BF80030 		ldrb	r3, [fp]	@ zero_extendqisi2
  21:../USER/vramdisp.c **** 	wddt.i[0] = adr;
 3470              		.loc 1 21 2 view .LVU1071
 3471 008e DB07     		lsls	r3, r3, #31
 3472 0090 F5D4     		bmi	.L208
  22:../USER/vramdisp.c **** }
 3473              		.loc 1 22 2 is_stmt 1 view .LVU1072
 3474 0092 0135     		adds	r5, r5, #1
 3475              	.LVL313:
  22:../USER/vramdisp.c **** }
 3476              		.loc 1 22 12 is_stmt 0 view .LVU1073
 3477 0094 C8F80040 		str	r4, [r8]
 3478              	.LVL314:
  22:../USER/vramdisp.c **** }
 3479              		.loc 1 22 12 view .LVU1074
 3480              	.LBE249:
 3481              	.LBE251:
 125:../USER/vramdisp.c **** 	}
 3482              		.loc 1 125 3 is_stmt 1 view .LVU1075
 3483 0098 FFF7FEFF 		bl	set_vramdata_f6.constprop.1
 3484              	.LVL315:
 121:../USER/vramdisp.c **** 		cgd = FONT_8x8[(ccd+j)& 0x7ff];
 3485              		.loc 1 121 2 is_stmt 0 view .LVU1076
 3486 009c AE42     		cmp	r6, r5
 3487 009e 04F5A064 		add	r4, r4, #1280
 3488 00a2 0DD0     		beq	.L217
 3489 00a4 124A     		ldr	r2, .L218
 3490 00a6 C5F30A03 		ubfx	r3, r5, #0, #11
 3491 00aa D25C     		ldrb	r2, [r2, r3]	@ zero_extendqisi2
 3492 00ac E1E7     		b	.L207
 3493              	.LVL316:
 3494              	.L212:
 121:../USER/vramdisp.c **** 		cgd = FONT_8x8[(ccd+j)& 0x7ff];
 3495              		.loc 1 121 2 view .LVU1077
 3496              	.LBE252:
 3497              	.LBE253:
 3498 00ae 1023     		movs	r3, #16
 3499              	.LVL317:
 121:../USER/vramdisp.c **** 		cgd = FONT_8x8[(ccd+j)& 0x7ff];
 3500              		.loc 1 121 2 view .LVU1078
 3501 00b0 4FF00009 		mov	r9, #0
 3502 00b4 0C93     		str	r3, [sp, #48]
 3503 00b6 7C22     		movs	r2, #124
 3504 00b8 CDF80490 		str	r9, [sp, #4]
 3505 00bc 3023     		movs	r3, #48
 3506 00be B1E7     		b	.L203
 3507              	.LVL318:
 3508              	.L217:
 174:../USER/vramdisp.c **** 		if((adrx+x)>=80) {adrx = adrx - 80; adry++;}
 3509              		.loc 1 174 2 discriminator 2 view .LVU1079
 3510 00c0 0C9B     		ldr	r3, [sp, #48]
 174:../USER/vramdisp.c **** 		if((adrx+x)>=80) {adrx = adrx - 80; adry++;}
 3511              		.loc 1 174 20 discriminator 2 view .LVU1080
 3512 00c2 0137     		adds	r7, r7, #1
 3513              	.LVL319:
 174:../USER/vramdisp.c **** 		if((adrx+x)>=80) {adrx = adrx - 80; adry++;}
 3514              		.loc 1 174 2 discriminator 2 view .LVU1081
 3515 00c4 9F42     		cmp	r7, r3
 3516 00c6 05DA     		bge	.L201
 3517 00c8 094A     		ldr	r2, .L218
 3518 00ca C6F30A03 		ubfx	r3, r6, #0, #11
 3519 00ce D25C     		ldrb	r2, [r2, r3]	@ zero_extendqisi2
 3520 00d0 0836     		adds	r6, r6, #8
 3521 00d2 B0E7     		b	.L210
 3522              	.LVL320:
 3523              	.L201:
 177:../USER/vramdisp.c **** 	}
 178:../USER/vramdisp.c **** }
 3524              		.loc 1 178 1 view .LVU1082
 3525 00d4 03B0     		add	sp, sp, #12
 3526              		.cfi_remember_state
 3527              		.cfi_def_cfa_offset 36
 3528              		@ sp needed
 3529 00d6 BDE8F08F 		pop	{r4, r5, r6, r7, r8, r9, r10, fp, pc}
 3530              	.LVL321:
 3531              	.L216:
 3532              		.cfi_restore_state
 173:../USER/vramdisp.c **** 	for( x=0; x<len; x++) {
 3533              		.loc 1 173 2 is_stmt 1 view .LVU1083
 173:../USER/vramdisp.c **** 	for( x=0; x<len; x++) {
 3534              		.loc 1 173 4 is_stmt 0 view .LVU1084
 3535 00da 421C     		adds	r2, r0, #1
 3536 00dc E7D0     		beq	.L212
 3537 00de 0449     		ldr	r1, .L218
 3538              	.LVL322:
 173:../USER/vramdisp.c **** 	for( x=0; x<len; x++) {
 3539              		.loc 1 173 4 view .LVU1085
 3540 00e0 DA00     		lsls	r2, r3, #3
 3541 00e2 C2F30A02 		ubfx	r2, r2, #0, #11
 3542 00e6 8A5C     		ldrb	r2, [r1, r2]	@ zero_extendqisi2
 172:../USER/vramdisp.c **** 	if(adry==-1) { adry=0; adrx=0; ptn=0x07e0; ccd=0x30; len=0x10;}
 3543              		.loc 1 172 18 view .LVU1086
 3544 00e8 0121     		movs	r1, #1
 3545 00ea 0C91     		str	r1, [sp, #48]
 3546 00ec 9AE7     		b	.L203
 3547              	.L219:
 3548 00ee 00BF     		.align	2
 3549              	.L218:
 3550 00f0 00000000 		.word	.LANCHOR0
 3551 00f4 00000000 		.word	wddt
 3552 00f8 00000000 		.word	pd
 3553 00fc 00000140 		.word	1073807360
 3554              		.cfi_endproc
 3555              	.LFE42:
 3557              		.section	.text.pget,"ax",%progbits
 3558              		.align	1
 3559              		.p2align 2,,3
 3560              		.global	pget
 3561              		.syntax unified
 3562              		.thumb
 3563              		.thumb_func
 3564              		.fpu softvfp
 3566              	pget:
 3567              	.LVL323:
 3568              	.LFB43:
 179:../USER/vramdisp.c **** 
 180:../USER/vramdisp.c **** u16 pget(u16 xp, u16 yp){
 3569              		.loc 1 180 25 is_stmt 1 view -0
 3570              		.cfi_startproc
 3571              		@ args = 0, pretend = 0, frame = 0
 3572              		@ frame_needed = 0, uses_anonymous_args = 0
 181:../USER/vramdisp.c **** 	unsigned char ph, pl, px;
 3573              		.loc 1 181 2 view .LVU1088
 182:../USER/vramdisp.c **** 	wddt.b[4] = xp & 15;
 3574              		.loc 1 182 2 view .LVU1089
 3575              	.LBB260:
 3576              	.LBB261:
  19:../USER/vramdisp.c **** 	GPIO_WriteBits(GPIO0,0x0000);	// dir=in clk = Lo
 3577              		.loc 1 19 15 is_stmt 0 view .LVU1090
 3578 0000 01EB8101 		add	r1, r1, r1, lsl #2
 3579              	.LVL324:
  19:../USER/vramdisp.c **** 	GPIO_WriteBits(GPIO0,0x0000);	// dir=in clk = Lo
 3580              		.loc 1 19 15 view .LVU1091
 3581              	.LBE261:
 3582              	.LBE260:
 180:../USER/vramdisp.c **** 	unsigned char ph, pl, px;
 3583              		.loc 1 180 25 view .LVU1092
 3584 0004 2DE9F843 		push	{r3, r4, r5, r6, r7, r8, r9, lr}
 3585              		.cfi_def_cfa_offset 32
 3586              		.cfi_offset 3, -32
 3587              		.cfi_offset 4, -28
 3588              		.cfi_offset 5, -24
 3589              		.cfi_offset 6, -20
 3590              		.cfi_offset 7, -16
 3591              		.cfi_offset 8, -12
 3592              		.cfi_offset 9, -8
 3593              		.cfi_offset 14, -4
 3594              	.LBB266:
 3595              	.LBB262:
  19:../USER/vramdisp.c **** 	GPIO_WriteBits(GPIO0,0x0000);	// dir=in clk = Lo
 3596              		.loc 1 19 15 view .LVU1093
 3597 0008 CC00     		lsls	r4, r1, #3
 3598              	.LBE262:
 3599              	.LBE266:
 3600              		.loc 1 182 12 view .LVU1094
 3601 000a 384D     		ldr	r5, .L230
 3602              		.loc 1 182 17 view .LVU1095
 3603 000c 00F00F03 		and	r3, r0, #15
 3604              	.LBB267:
 3605              	.LBB263:
  19:../USER/vramdisp.c **** 	GPIO_WriteBits(GPIO0,0x0000);	// dir=in clk = Lo
 3606              		.loc 1 19 18 view .LVU1096
 3607 0010 04EB1014 		add	r4, r4, r0, lsr #4
  20:../USER/vramdisp.c **** 	do{pd = GPIO_ReadBits(GPIO0);}  while((pd & 1)!=0);		// Wait Busy
 3608              		.loc 1 20 2 view .LVU1097
 3609 0014 0021     		movs	r1, #0
 3610 0016 3648     		ldr	r0, .L230+4
 3611              	.LVL325:
  20:../USER/vramdisp.c **** 	do{pd = GPIO_ReadBits(GPIO0);}  while((pd & 1)!=0);		// Wait Busy
 3612              		.loc 1 20 2 view .LVU1098
 3613              	.LBE263:
 3614              	.LBE267:
 3615              		.loc 1 182 12 view .LVU1099
 3616 0018 2B71     		strb	r3, [r5, #4]
 183:../USER/vramdisp.c **** 	set_vramadr(yp, xp/16);
 3617              		.loc 1 183 2 is_stmt 1 view .LVU1100
 3618              	.LVL326:
 3619              	.LBB268:
 3620              	.LBI260:
  17:../USER/vramdisp.c **** 	int adr;
 3621              		.loc 1 17 6 view .LVU1101
 3622              	.LBB264:
  18:../USER/vramdisp.c **** 	adr = ((adry)*40+adrx)*32;
 3623              		.loc 1 18 2 view .LVU1102
  19:../USER/vramdisp.c **** 	GPIO_WriteBits(GPIO0,0x0000);	// dir=in clk = Lo
 3624              		.loc 1 19 2 view .LVU1103
  20:../USER/vramdisp.c **** 	do{pd = GPIO_ReadBits(GPIO0);}  while((pd & 1)!=0);		// Wait Busy
 3625              		.loc 1 20 2 is_stmt 0 view .LVU1104
 3626 001a FFF7FEFF 		bl	GPIO_WriteBits
 3627              	.LVL327:
 3628 001e 354E     		ldr	r6, .L230+8
  21:../USER/vramdisp.c **** 	wddt.i[0] = adr;
 3629              		.loc 1 21 10 view .LVU1105
 3630 0020 334F     		ldr	r7, .L230+4
  19:../USER/vramdisp.c **** 	GPIO_WriteBits(GPIO0,0x0000);	// dir=in clk = Lo
 3631              		.loc 1 19 6 view .LVU1106
 3632 0022 6401     		lsls	r4, r4, #5
 3633              	.LVL328:
  20:../USER/vramdisp.c **** 	do{pd = GPIO_ReadBits(GPIO0);}  while((pd & 1)!=0);		// Wait Busy
 3634              		.loc 1 20 2 is_stmt 1 view .LVU1107
 3635              	.L221:
  21:../USER/vramdisp.c **** 	wddt.i[0] = adr;
 3636              		.loc 1 21 2 view .LVU1108
  21:../USER/vramdisp.c **** 	wddt.i[0] = adr;
 3637              		.loc 1 21 5 view .LVU1109
  21:../USER/vramdisp.c **** 	wddt.i[0] = adr;
 3638              		.loc 1 21 10 is_stmt 0 view .LVU1110
 3639 0024 3846     		mov	r0, r7
 3640 0026 FFF7FEFF 		bl	GPIO_ReadBits
 3641              	.LVL329:
  21:../USER/vramdisp.c **** 	wddt.i[0] = adr;
 3642              		.loc 1 21 8 view .LVU1111
 3643 002a C0B2     		uxtb	r0, r0
 3644 002c 3070     		strb	r0, [r6]
  21:../USER/vramdisp.c **** 	wddt.i[0] = adr;
 3645              		.loc 1 21 44 view .LVU1112
 3646 002e 3178     		ldrb	r1, [r6]	@ zero_extendqisi2
  21:../USER/vramdisp.c **** 	wddt.i[0] = adr;
 3647              		.loc 1 21 2 view .LVU1113
 3648 0030 11F00101 		ands	r1, r1, #1
 3649 0034 F6D1     		bne	.L221
  22:../USER/vramdisp.c **** }
 3650              		.loc 1 22 2 is_stmt 1 view .LVU1114
 3651              	.LBE264:
 3652              	.LBE268:
 3653              	.LBB269:
 3654              	.LBB270:
  51:../USER/vramdisp.c **** 	do{pd = GPIO_ReadBits(GPIO0);}  while((pd & 1)!=0);		// Wait Busy
 3655              		.loc 1 51 2 is_stmt 0 view .LVU1115
 3656 0036 2E48     		ldr	r0, .L230+4
 3657              	.LBE270:
 3658              	.LBE269:
 3659              	.LBB272:
 3660              	.LBB265:
  22:../USER/vramdisp.c **** }
 3661              		.loc 1 22 12 view .LVU1116
 3662 0038 2C60     		str	r4, [r5]
 3663              	.LVL330:
  22:../USER/vramdisp.c **** }
 3664              		.loc 1 22 12 view .LVU1117
 3665              	.LBE265:
 3666              	.LBE272:
 184:../USER/vramdisp.c **** 	set_vramdata(5);	// adr(4)+bitpos(1)
 3667              		.loc 1 184 2 is_stmt 1 view .LVU1118
 3668              	.LBB273:
 3669              	.LBI269:
  49:../USER/vramdisp.c **** 	unsigned char i, dt;
 3670              		.loc 1 49 6 view .LVU1119
 3671              	.LBB271:
  50:../USER/vramdisp.c **** 	GPIO_WriteBits(GPIO0,0x0000);	// dir=in clk = Lo
 3672              		.loc 1 50 2 view .LVU1120
  51:../USER/vramdisp.c **** 	do{pd = GPIO_ReadBits(GPIO0);}  while((pd & 1)!=0);		// Wait Busy
 3673              		.loc 1 51 2 view .LVU1121
 3674 003a FFF7FEFF 		bl	GPIO_WriteBits
 3675              	.LVL331:
  52:../USER/vramdisp.c **** 	GPIO_WriteBits(GPIO0,0x200);	// dir=out clk=Lo
 3676              		.loc 1 52 10 is_stmt 0 view .LVU1122
 3677 003e 2C4C     		ldr	r4, .L230+4
 3678              	.L222:
  52:../USER/vramdisp.c **** 	GPIO_WriteBits(GPIO0,0x200);	// dir=out clk=Lo
 3679              		.loc 1 52 2 is_stmt 1 view .LVU1123
  52:../USER/vramdisp.c **** 	GPIO_WriteBits(GPIO0,0x200);	// dir=out clk=Lo
 3680              		.loc 1 52 5 view .LVU1124
  52:../USER/vramdisp.c **** 	GPIO_WriteBits(GPIO0,0x200);	// dir=out clk=Lo
 3681              		.loc 1 52 10 is_stmt 0 view .LVU1125
 3682 0040 2046     		mov	r0, r4
 3683 0042 FFF7FEFF 		bl	GPIO_ReadBits
 3684              	.LVL332:
  52:../USER/vramdisp.c **** 	GPIO_WriteBits(GPIO0,0x200);	// dir=out clk=Lo
 3685              		.loc 1 52 8 view .LVU1126
 3686 0046 C0B2     		uxtb	r0, r0
 3687 0048 3070     		strb	r0, [r6]
  52:../USER/vramdisp.c **** 	GPIO_WriteBits(GPIO0,0x200);	// dir=out clk=Lo
 3688              		.loc 1 52 44 view .LVU1127
 3689 004a 3378     		ldrb	r3, [r6]	@ zero_extendqisi2
  52:../USER/vramdisp.c **** 	GPIO_WriteBits(GPIO0,0x200);	// dir=out clk=Lo
 3690              		.loc 1 52 2 view .LVU1128
 3691 004c DB07     		lsls	r3, r3, #31
 3692 004e F7D4     		bmi	.L222
  53:../USER/vramdisp.c **** 	for(i=0;i<dl;i++){
 3693              		.loc 1 53 2 is_stmt 1 view .LVU1129
 3694 0050 4FF40071 		mov	r1, #512
 3695 0054 2648     		ldr	r0, .L230+4
 3696 0056 FFF7FEFF 		bl	GPIO_WriteBits
 3697              	.LVL333:
  54:../USER/vramdisp.c **** 		dt = wddt.b[i];
 3698              		.loc 1 54 2 view .LVU1130
  54:../USER/vramdisp.c **** 		dt = wddt.b[i];
 3699              		.loc 1 54 2 is_stmt 0 view .LVU1131
 3700 005a 244C     		ldr	r4, .L230
  56:../USER/vramdisp.c **** 		GPIO_WriteBits(GPIO0,0x200+dt);
 3701              		.loc 1 56 3 view .LVU1132
 3702 005c 244F     		ldr	r7, .L230+4
 3703 005e 04F10509 		add	r9, r4, #5
 3704              	.LVL334:
 3705              	.L223:
  55:../USER/vramdisp.c **** 		GPIO_WriteBits(GPIO0,0x300+dt);
 3706              		.loc 1 55 3 is_stmt 1 view .LVU1133
  55:../USER/vramdisp.c **** 		GPIO_WriteBits(GPIO0,0x300+dt);
 3707              		.loc 1 55 6 is_stmt 0 view .LVU1134
 3708 0062 14F8018B 		ldrb	r8, [r4], #1	@ zero_extendqisi2
 3709              	.LVL335:
  56:../USER/vramdisp.c **** 		GPIO_WriteBits(GPIO0,0x200+dt);
 3710              		.loc 1 56 3 is_stmt 1 view .LVU1135
 3711 0066 3846     		mov	r0, r7
 3712 0068 08F54071 		add	r1, r8, #768
 3713 006c FFF7FEFF 		bl	GPIO_WriteBits
 3714              	.LVL336:
  57:../USER/vramdisp.c **** 	}
 3715              		.loc 1 57 3 view .LVU1136
 3716 0070 08F50071 		add	r1, r8, #512
 3717 0074 3846     		mov	r0, r7
 3718 0076 FFF7FEFF 		bl	GPIO_WriteBits
 3719              	.LVL337:
  54:../USER/vramdisp.c **** 		dt = wddt.b[i];
 3720              		.loc 1 54 2 is_stmt 0 view .LVU1137
 3721 007a A145     		cmp	r9, r4
 3722 007c F1D1     		bne	.L223
  59:../USER/vramdisp.c **** }
 3723              		.loc 1 59 2 is_stmt 1 view .LVU1138
 3724 007e 0021     		movs	r1, #0
 3725 0080 1B48     		ldr	r0, .L230+4
 3726 0082 FFF7FEFF 		bl	GPIO_WriteBits
 3727              	.LVL338:
  59:../USER/vramdisp.c **** }
 3728              		.loc 1 59 2 is_stmt 0 view .LVU1139
 3729              	.LBE271:
 3730              	.LBE273:
 185:../USER/vramdisp.c **** 	get_vramdata(2);
 3731              		.loc 1 185 2 is_stmt 1 view .LVU1140
 3732              	.LBB274:
 3733              	.LBI274:
  24:../USER/vramdisp.c **** 	unsigned char i,dt;
 3734              		.loc 1 24 6 view .LVU1141
 3735              	.LBB275:
  25:../USER/vramdisp.c **** 	GPIO_WriteBits(GPIO0,0x0000);	// dir=in clk = Lo
 3736              		.loc 1 25 2 view .LVU1142
  26:../USER/vramdisp.c **** 	do{pd = GPIO_ReadBits(GPIO0);}  while((pd & 1)!=0);		// Wait Busy
 3737              		.loc 1 26 2 view .LVU1143
 3738 0086 0021     		movs	r1, #0
 3739 0088 1948     		ldr	r0, .L230+4
 3740 008a FFF7FEFF 		bl	GPIO_WriteBits
 3741              	.LVL339:
  27:../USER/vramdisp.c **** 	for(i=0;i<dl; i++){
 3742              		.loc 1 27 10 is_stmt 0 view .LVU1144
 3743 008e 184F     		ldr	r7, .L230+4
 3744              	.L224:
  27:../USER/vramdisp.c **** 	for(i=0;i<dl; i++){
 3745              		.loc 1 27 2 is_stmt 1 view .LVU1145
  27:../USER/vramdisp.c **** 	for(i=0;i<dl; i++){
 3746              		.loc 1 27 5 view .LVU1146
  27:../USER/vramdisp.c **** 	for(i=0;i<dl; i++){
 3747              		.loc 1 27 10 is_stmt 0 view .LVU1147
 3748 0090 3846     		mov	r0, r7
 3749 0092 FFF7FEFF 		bl	GPIO_ReadBits
 3750              	.LVL340:
  27:../USER/vramdisp.c **** 	for(i=0;i<dl; i++){
 3751              		.loc 1 27 8 view .LVU1148
 3752 0096 C0B2     		uxtb	r0, r0
 3753 0098 3070     		strb	r0, [r6]
  27:../USER/vramdisp.c **** 	for(i=0;i<dl; i++){
 3754              		.loc 1 27 44 view .LVU1149
 3755 009a 3478     		ldrb	r4, [r6]	@ zero_extendqisi2
  27:../USER/vramdisp.c **** 	for(i=0;i<dl; i++){
 3756              		.loc 1 27 2 view .LVU1150
 3757 009c 14F00104 		ands	r4, r4, #1
 3758 00a0 F6D1     		bne	.L224
 3759              	.LVL341:
  29:../USER/vramdisp.c **** 		wddt.b[i+4] = GPIO_ReadBits(GPIO0);
 3760              		.loc 1 29 3 is_stmt 1 view .LVU1151
 3761 00a2 4FF48071 		mov	r1, #256
 3762 00a6 1248     		ldr	r0, .L230+4
 3763 00a8 FFF7FEFF 		bl	GPIO_WriteBits
 3764              	.LVL342:
  30:../USER/vramdisp.c **** 		GPIO_WriteBits(GPIO0,0x000);
 3765              		.loc 1 30 3 view .LVU1152
  30:../USER/vramdisp.c **** 		GPIO_WriteBits(GPIO0,0x000);
 3766              		.loc 1 30 17 is_stmt 0 view .LVU1153
 3767 00ac 1048     		ldr	r0, .L230+4
 3768 00ae FFF7FEFF 		bl	GPIO_ReadBits
 3769              	.LVL343:
  31:../USER/vramdisp.c **** 	}
 3770              		.loc 1 31 3 view .LVU1154
 3771 00b2 2146     		mov	r1, r4
  30:../USER/vramdisp.c **** 		GPIO_WriteBits(GPIO0,0x000);
 3772              		.loc 1 30 15 view .LVU1155
 3773 00b4 2871     		strb	r0, [r5, #4]
  31:../USER/vramdisp.c **** 	}
 3774              		.loc 1 31 3 is_stmt 1 view .LVU1156
 3775 00b6 0E48     		ldr	r0, .L230+4
 3776 00b8 FFF7FEFF 		bl	GPIO_WriteBits
 3777              	.LVL344:
  29:../USER/vramdisp.c **** 		wddt.b[i+4] = GPIO_ReadBits(GPIO0);
 3778              		.loc 1 29 3 view .LVU1157
 3779 00bc 4FF48071 		mov	r1, #256
 3780 00c0 0B48     		ldr	r0, .L230+4
 3781 00c2 FFF7FEFF 		bl	GPIO_WriteBits
 3782              	.LVL345:
  30:../USER/vramdisp.c **** 		GPIO_WriteBits(GPIO0,0x000);
 3783              		.loc 1 30 3 view .LVU1158
  30:../USER/vramdisp.c **** 		GPIO_WriteBits(GPIO0,0x000);
 3784              		.loc 1 30 17 is_stmt 0 view .LVU1159
 3785 00c6 0A48     		ldr	r0, .L230+4
 3786 00c8 FFF7FEFF 		bl	GPIO_ReadBits
 3787              	.LVL346:
  31:../USER/vramdisp.c **** 	}
 3788              		.loc 1 31 3 view .LVU1160
 3789 00cc 2146     		mov	r1, r4
  30:../USER/vramdisp.c **** 		GPIO_WriteBits(GPIO0,0x000);
 3790              		.loc 1 30 15 view .LVU1161
 3791 00ce 6871     		strb	r0, [r5, #5]
  31:../USER/vramdisp.c **** 	}
 3792              		.loc 1 31 3 is_stmt 1 view .LVU1162
 3793 00d0 0748     		ldr	r0, .L230+4
 3794 00d2 FFF7FEFF 		bl	GPIO_WriteBits
 3795              	.LVL347:
  33:../USER/vramdisp.c **** 
 3796              		.loc 1 33 2 view .LVU1163
 3797 00d6 2146     		mov	r1, r4
 3798 00d8 0548     		ldr	r0, .L230+4
 3799 00da FFF7FEFF 		bl	GPIO_WriteBits
 3800              	.LVL348:
  33:../USER/vramdisp.c **** 
 3801              		.loc 1 33 2 is_stmt 0 view .LVU1164
 3802              	.LBE275:
 3803              	.LBE274:
 186:../USER/vramdisp.c **** 	pl = wddt.b[4+px+0]; ph = wddt.b[4+px+1];
 3804              		.loc 1 186 2 is_stmt 1 view .LVU1165
 3805              		.loc 1 186 23 view .LVU1166
 187:../USER/vramdisp.c **** 	return (u16)ph<<8 | (u16)pl;
 3806              		.loc 1 187 2 view .LVU1167
 3807              		.loc 1 187 9 is_stmt 0 view .LVU1168
 3808 00de 6879     		ldrb	r0, [r5, #5]	@ zero_extendqisi2
 3809              		.loc 1 187 20 view .LVU1169
 3810 00e0 2B79     		ldrb	r3, [r5, #4]	@ zero_extendqisi2
 188:../USER/vramdisp.c **** }
 3811              		.loc 1 188 1 view .LVU1170
 3812 00e2 43EA0020 		orr	r0, r3, r0, lsl #8
 3813 00e6 BDE8F883 		pop	{r3, r4, r5, r6, r7, r8, r9, pc}
 3814              	.L231:
 3815 00ea 00BF     		.align	2
 3816              	.L230:
 3817 00ec 00000000 		.word	wddt
 3818 00f0 00000140 		.word	1073807360
 3819 00f4 00000000 		.word	pd
 3820              		.cfi_endproc
 3821              	.LFE43:
 3823              		.section	.text.pset,"ax",%progbits
 3824              		.align	1
 3825              		.p2align 2,,3
 3826              		.global	pset
 3827              		.syntax unified
 3828              		.thumb
 3829              		.thumb_func
 3830              		.fpu softvfp
 3832              	pset:
 3833              	.LVL349:
 3834              	.LFB44:
 189:../USER/vramdisp.c **** 
 190:../USER/vramdisp.c **** void pset(u16 xp, u16 yp, u16 ptn){	// xp=0-639 yp=0-359
 3835              		.loc 1 190 35 is_stmt 1 view -0
 3836              		.cfi_startproc
 3837              		@ args = 0, pretend = 0, frame = 0
 3838              		@ frame_needed = 0, uses_anonymous_args = 0
 191:../USER/vramdisp.c **** 	unsigned char ph, pl, px;
 3839              		.loc 1 191 2 view .LVU1172
 192:../USER/vramdisp.c **** 	//if(xp==0xffff) { dispinitf = 0; disp_vramw(0);}
 193:../USER/vramdisp.c **** 	//else {
 194:../USER/vramdisp.c **** 		wddt.s[2] = ptn; wddt.b[6] = xp & 15; // bit.pos
 3840              		.loc 1 194 3 view .LVU1173
 3841              	.LBB280:
 3842              	.LBB281:
  19:../USER/vramdisp.c **** 	GPIO_WriteBits(GPIO0,0x0000);	// dir=in clk = Lo
 3843              		.loc 1 19 15 is_stmt 0 view .LVU1174
 3844 0000 01EB8101 		add	r1, r1, r1, lsl #2
 3845              	.LVL350:
  19:../USER/vramdisp.c **** 	GPIO_WriteBits(GPIO0,0x0000);	// dir=in clk = Lo
 3846              		.loc 1 19 15 view .LVU1175
 3847              	.LBE281:
 3848              	.LBE280:
 190:../USER/vramdisp.c **** 	unsigned char ph, pl, px;
 3849              		.loc 1 190 35 view .LVU1176
 3850 0004 F8B5     		push	{r3, r4, r5, r6, r7, lr}
 3851              		.cfi_def_cfa_offset 24
 3852              		.cfi_offset 3, -24
 3853              		.cfi_offset 4, -20
 3854              		.cfi_offset 5, -16
 3855              		.cfi_offset 6, -12
 3856              		.cfi_offset 7, -8
 3857              		.cfi_offset 14, -4
 3858              	.LBB286:
 3859              	.LBB282:
  19:../USER/vramdisp.c **** 	GPIO_WriteBits(GPIO0,0x0000);	// dir=in clk = Lo
 3860              		.loc 1 19 15 view .LVU1177
 3861 0006 CC00     		lsls	r4, r1, #3
 3862              	.LBE282:
 3863              	.LBE286:
 3864              		.loc 1 194 13 view .LVU1178
 3865 0008 1F4E     		ldr	r6, .L240
 3866              		.loc 1 194 35 view .LVU1179
 3867 000a 00F00F03 		and	r3, r0, #15
 3868              	.LBB287:
 3869              	.LBB283:
  19:../USER/vramdisp.c **** 	GPIO_WriteBits(GPIO0,0x0000);	// dir=in clk = Lo
 3870              		.loc 1 19 18 view .LVU1180
 3871 000e 04EB1014 		add	r4, r4, r0, lsr #4
  20:../USER/vramdisp.c **** 	do{pd = GPIO_ReadBits(GPIO0);}  while((pd & 1)!=0);		// Wait Busy
 3872              		.loc 1 20 2 view .LVU1181
 3873 0012 0021     		movs	r1, #0
 3874 0014 1D48     		ldr	r0, .L240+4
 3875              	.LVL351:
  20:../USER/vramdisp.c **** 	do{pd = GPIO_ReadBits(GPIO0);}  while((pd & 1)!=0);		// Wait Busy
 3876              		.loc 1 20 2 view .LVU1182
 3877              	.LBE283:
 3878              	.LBE287:
 3879              		.loc 1 194 30 view .LVU1183
 3880 0016 B371     		strb	r3, [r6, #6]
 3881              		.loc 1 194 13 view .LVU1184
 3882 0018 B280     		strh	r2, [r6, #4]	@ movhi
 3883              		.loc 1 194 20 is_stmt 1 view .LVU1185
 195:../USER/vramdisp.c **** 		set_vramadr(yp, xp/16);
 3884              		.loc 1 195 3 view .LVU1186
 3885              	.LVL352:
 3886              	.LBB288:
 3887              	.LBI280:
  17:../USER/vramdisp.c **** 	int adr;
 3888              		.loc 1 17 6 view .LVU1187
 3889              	.LBB284:
  18:../USER/vramdisp.c **** 	adr = ((adry)*40+adrx)*32;
 3890              		.loc 1 18 2 view .LVU1188
  19:../USER/vramdisp.c **** 	GPIO_WriteBits(GPIO0,0x0000);	// dir=in clk = Lo
 3891              		.loc 1 19 2 view .LVU1189
  20:../USER/vramdisp.c **** 	do{pd = GPIO_ReadBits(GPIO0);}  while((pd & 1)!=0);		// Wait Busy
 3892              		.loc 1 20 2 is_stmt 0 view .LVU1190
 3893 001a FFF7FEFF 		bl	GPIO_WriteBits
 3894              	.LVL353:
  20:../USER/vramdisp.c **** 	do{pd = GPIO_ReadBits(GPIO0);}  while((pd & 1)!=0);		// Wait Busy
 3895              		.loc 1 20 2 view .LVU1191
 3896 001e 1C4D     		ldr	r5, .L240+8
  21:../USER/vramdisp.c **** 	wddt.i[0] = adr;
 3897              		.loc 1 21 10 view .LVU1192
 3898 0020 1A4F     		ldr	r7, .L240+4
  19:../USER/vramdisp.c **** 	GPIO_WriteBits(GPIO0,0x0000);	// dir=in clk = Lo
 3899              		.loc 1 19 6 view .LVU1193
 3900 0022 6401     		lsls	r4, r4, #5
 3901              	.LVL354:
  20:../USER/vramdisp.c **** 	do{pd = GPIO_ReadBits(GPIO0);}  while((pd & 1)!=0);		// Wait Busy
 3902              		.loc 1 20 2 is_stmt 1 view .LVU1194
 3903              	.L233:
  21:../USER/vramdisp.c **** 	wddt.i[0] = adr;
 3904              		.loc 1 21 2 view .LVU1195
  21:../USER/vramdisp.c **** 	wddt.i[0] = adr;
 3905              		.loc 1 21 5 view .LVU1196
  21:../USER/vramdisp.c **** 	wddt.i[0] = adr;
 3906              		.loc 1 21 10 is_stmt 0 view .LVU1197
 3907 0024 3846     		mov	r0, r7
 3908 0026 FFF7FEFF 		bl	GPIO_ReadBits
 3909              	.LVL355:
  21:../USER/vramdisp.c **** 	wddt.i[0] = adr;
 3910              		.loc 1 21 8 view .LVU1198
 3911 002a C0B2     		uxtb	r0, r0
 3912 002c 2870     		strb	r0, [r5]
  21:../USER/vramdisp.c **** 	wddt.i[0] = adr;
 3913              		.loc 1 21 44 view .LVU1199
 3914 002e 2978     		ldrb	r1, [r5]	@ zero_extendqisi2
  21:../USER/vramdisp.c **** 	wddt.i[0] = adr;
 3915              		.loc 1 21 2 view .LVU1200
 3916 0030 11F00101 		ands	r1, r1, #1
 3917 0034 F6D1     		bne	.L233
  22:../USER/vramdisp.c **** }
 3918              		.loc 1 22 2 is_stmt 1 view .LVU1201
 3919              	.LBE284:
 3920              	.LBE288:
 3921              	.LBB289:
 3922              	.LBB290:
  51:../USER/vramdisp.c **** 	do{pd = GPIO_ReadBits(GPIO0);}  while((pd & 1)!=0);		// Wait Busy
 3923              		.loc 1 51 2 is_stmt 0 view .LVU1202
 3924 0036 1548     		ldr	r0, .L240+4
 3925              	.LBE290:
 3926              	.LBE289:
 3927              	.LBB293:
 3928              	.LBB285:
  22:../USER/vramdisp.c **** }
 3929              		.loc 1 22 12 view .LVU1203
 3930 0038 3460     		str	r4, [r6]
 3931              	.LVL356:
  22:../USER/vramdisp.c **** }
 3932              		.loc 1 22 12 view .LVU1204
 3933              	.LBE285:
 3934              	.LBE293:
 196:../USER/vramdisp.c **** 		set_vramdata(7);	// adr(4)+ptn(2)+bitpos(1)
 3935              		.loc 1 196 3 is_stmt 1 view .LVU1205
 3936              	.LBB294:
 3937              	.LBI289:
  49:../USER/vramdisp.c **** 	unsigned char i, dt;
 3938              		.loc 1 49 6 view .LVU1206
 3939              	.LBB291:
  50:../USER/vramdisp.c **** 	GPIO_WriteBits(GPIO0,0x0000);	// dir=in clk = Lo
 3940              		.loc 1 50 2 view .LVU1207
  51:../USER/vramdisp.c **** 	do{pd = GPIO_ReadBits(GPIO0);}  while((pd & 1)!=0);		// Wait Busy
 3941              		.loc 1 51 2 view .LVU1208
 3942 003a FFF7FEFF 		bl	GPIO_WriteBits
 3943              	.LVL357:
  52:../USER/vramdisp.c **** 	GPIO_WriteBits(GPIO0,0x200);	// dir=out clk=Lo
 3944              		.loc 1 52 10 is_stmt 0 view .LVU1209
 3945 003e 134C     		ldr	r4, .L240+4
 3946              	.L234:
  52:../USER/vramdisp.c **** 	GPIO_WriteBits(GPIO0,0x200);	// dir=out clk=Lo
 3947              		.loc 1 52 2 is_stmt 1 view .LVU1210
  52:../USER/vramdisp.c **** 	GPIO_WriteBits(GPIO0,0x200);	// dir=out clk=Lo
 3948              		.loc 1 52 5 view .LVU1211
  52:../USER/vramdisp.c **** 	GPIO_WriteBits(GPIO0,0x200);	// dir=out clk=Lo
 3949              		.loc 1 52 10 is_stmt 0 view .LVU1212
 3950 0040 2046     		mov	r0, r4
 3951 0042 FFF7FEFF 		bl	GPIO_ReadBits
 3952              	.LVL358:
  52:../USER/vramdisp.c **** 	GPIO_WriteBits(GPIO0,0x200);	// dir=out clk=Lo
 3953              		.loc 1 52 8 view .LVU1213
 3954 0046 C0B2     		uxtb	r0, r0
 3955 0048 2870     		strb	r0, [r5]
  52:../USER/vramdisp.c **** 	GPIO_WriteBits(GPIO0,0x200);	// dir=out clk=Lo
 3956              		.loc 1 52 44 view .LVU1214
 3957 004a 2B78     		ldrb	r3, [r5]	@ zero_extendqisi2
  52:../USER/vramdisp.c **** 	GPIO_WriteBits(GPIO0,0x200);	// dir=out clk=Lo
 3958              		.loc 1 52 2 view .LVU1215
 3959 004c DB07     		lsls	r3, r3, #31
 3960 004e F7D4     		bmi	.L234
  53:../USER/vramdisp.c **** 	for(i=0;i<dl;i++){
 3961              		.loc 1 53 2 is_stmt 1 view .LVU1216
 3962 0050 4FF40071 		mov	r1, #512
 3963 0054 0D48     		ldr	r0, .L240+4
 3964 0056 FFF7FEFF 		bl	GPIO_WriteBits
 3965              	.LVL359:
  54:../USER/vramdisp.c **** 		dt = wddt.b[i];
 3966              		.loc 1 54 2 view .LVU1217
  54:../USER/vramdisp.c **** 		dt = wddt.b[i];
 3967              		.loc 1 54 2 is_stmt 0 view .LVU1218
 3968 005a 0E4C     		ldr	r4, .L240+12
  56:../USER/vramdisp.c **** 		GPIO_WriteBits(GPIO0,0x200+dt);
 3969              		.loc 1 56 3 view .LVU1219
 3970 005c 0B4D     		ldr	r5, .L240+4
 3971 005e E71D     		adds	r7, r4, #7
 3972              	.LVL360:
 3973              	.L235:
  55:../USER/vramdisp.c **** 		GPIO_WriteBits(GPIO0,0x300+dt);
 3974              		.loc 1 55 3 is_stmt 1 view .LVU1220
  56:../USER/vramdisp.c **** 		GPIO_WriteBits(GPIO0,0x200+dt);
 3975              		.loc 1 56 3 view .LVU1221
  56:../USER/vramdisp.c **** 		GPIO_WriteBits(GPIO0,0x200+dt);
 3976              		.loc 1 56 29 is_stmt 0 view .LVU1222
 3977 0060 14F8016F 		ldrb	r6, [r4, #1]!	@ zero_extendqisi2
 3978              	.LVL361:
  56:../USER/vramdisp.c **** 		GPIO_WriteBits(GPIO0,0x200+dt);
 3979              		.loc 1 56 3 view .LVU1223
 3980 0064 2846     		mov	r0, r5
 3981 0066 06F54071 		add	r1, r6, #768
 3982 006a FFF7FEFF 		bl	GPIO_WriteBits
 3983              	.LVL362:
  57:../USER/vramdisp.c **** 	}
 3984              		.loc 1 57 3 is_stmt 1 view .LVU1224
 3985 006e 06F50071 		add	r1, r6, #512
 3986 0072 2846     		mov	r0, r5
 3987 0074 FFF7FEFF 		bl	GPIO_WriteBits
 3988              	.LVL363:
  54:../USER/vramdisp.c **** 		dt = wddt.b[i];
 3989              		.loc 1 54 2 is_stmt 0 view .LVU1225
 3990 0078 A742     		cmp	r7, r4
 3991 007a F1D1     		bne	.L235
  59:../USER/vramdisp.c **** }
 3992              		.loc 1 59 2 is_stmt 1 view .LVU1226
 3993              	.LBE291:
 3994              	.LBE294:
 197:../USER/vramdisp.c **** 	//}
 198:../USER/vramdisp.c **** }
 3995              		.loc 1 198 1 is_stmt 0 view .LVU1227
 3996 007c BDE8F840 		pop	{r3, r4, r5, r6, r7, lr}
 3997              		.cfi_restore 14
 3998              		.cfi_restore 7
 3999              		.cfi_restore 6
 4000              		.cfi_restore 5
 4001              		.cfi_restore 4
 4002              		.cfi_restore 3
 4003              		.cfi_def_cfa_offset 0
 4004              	.LVL364:
 4005              	.LBB295:
 4006              	.LBB292:
  59:../USER/vramdisp.c **** }
 4007              		.loc 1 59 2 view .LVU1228
 4008 0080 0021     		movs	r1, #0
 4009 0082 0248     		ldr	r0, .L240+4
 4010 0084 FFF7FEBF 		b	GPIO_WriteBits
 4011              	.LVL365:
 4012              	.L241:
 4013              		.align	2
 4014              	.L240:
 4015 0088 00000000 		.word	wddt
 4016 008c 00000140 		.word	1073807360
 4017 0090 00000000 		.word	pd
 4018 0094 FFFFFFFF 		.word	wddt-1
 4019              	.LBE292:
 4020              	.LBE295:
 4021              		.cfi_endproc
 4022              	.LFE44:
 4024              		.section	.text.DCircle,"ax",%progbits
 4025              		.align	1
 4026              		.p2align 2,,3
 4027              		.global	DCircle
 4028              		.syntax unified
 4029              		.thumb
 4030              		.thumb_func
 4031              		.fpu softvfp
 4033              	DCircle:
 4034              	.LVL366:
 4035              	.LFB45:
 199:../USER/vramdisp.c **** 
 200:../USER/vramdisp.c **** void DCircle(u16 x0,u16 y0,u16 r,u16 ptn) {
 4036              		.loc 1 200 43 is_stmt 1 view -0
 4037              		.cfi_startproc
 4038              		@ args = 0, pretend = 0, frame = 72
 4039              		@ frame_needed = 0, uses_anonymous_args = 0
 201:../USER/vramdisp.c ****   int a,b,di;
 4040              		.loc 1 201 3 view .LVU1230
 202:../USER/vramdisp.c ****   a=0; b=r; di=3-(r<<1);
 4041              		.loc 1 202 3 view .LVU1231
 4042              		.loc 1 202 8 view .LVU1232
 200:../USER/vramdisp.c ****   int a,b,di;
 4043              		.loc 1 200 43 is_stmt 0 view .LVU1233
 4044 0000 2DE9F04F 		push	{r4, r5, r6, r7, r8, r9, r10, fp, lr}
 4045              		.cfi_def_cfa_offset 36
 4046              		.cfi_offset 4, -36
 4047              		.cfi_offset 5, -32
 4048              		.cfi_offset 6, -28
 4049              		.cfi_offset 7, -24
 4050              		.cfi_offset 8, -20
 4051              		.cfi_offset 9, -16
 4052              		.cfi_offset 10, -12
 4053              		.cfi_offset 11, -8
 4054              		.cfi_offset 14, -4
 4055 0004 93B0     		sub	sp, sp, #76
 4056              		.cfi_def_cfa_offset 112
 200:../USER/vramdisp.c ****   int a,b,di;
 4057              		.loc 1 200 43 view .LVU1234
 4058 0006 0191     		str	r1, [sp, #4]
 4059              		.loc 1 202 4 view .LVU1235
 4060 0008 0021     		movs	r1, #0
 4061              	.LVL367:
 4062              		.loc 1 202 4 view .LVU1236
 4063 000a 0091     		str	r1, [sp]
 4064              		.loc 1 202 20 view .LVU1237
 4065 000c 5100     		lsls	r1, r2, #1
 4066              		.loc 1 202 9 view .LVU1238
 4067 000e 0592     		str	r2, [sp, #20]
 4068              	.LVL368:
 4069              		.loc 1 202 13 is_stmt 1 view .LVU1239
 4070 0010 1EB2     		sxth	r6, r3
 4071 0012 421C     		adds	r2, r0, #1
 4072              	.LVL369:
 4073              		.loc 1 202 15 is_stmt 0 view .LVU1240
 4074 0014 C1F10303 		rsb	r3, r1, #3
 4075              	.LVL370:
 4076              		.loc 1 202 15 view .LVU1241
 4077 0018 0893     		str	r3, [sp, #32]
 4078              	.LVL371:
 203:../USER/vramdisp.c ****   while(a<=b) {
 4079              		.loc 1 203 3 is_stmt 1 view .LVU1242
 4080              		.loc 1 203 3 is_stmt 0 view .LVU1243
 4081 001a 93B2     		uxth	r3, r2
 4082              	.LVL372:
 4083              		.loc 1 203 3 view .LVU1244
 4084 001c 0693     		str	r3, [sp, #24]
 4085 001e CA4F     		ldr	r7, .L309
 4086 0020 C3B2     		uxtb	r3, r0
 4087 0022 DFF830B3 		ldr	fp, .L309+12
 4088              	.LBB356:
 4089              	.LBB357:
 4090              	.LBB358:
 4091              	.LBB359:
  20:../USER/vramdisp.c **** 	do{pd = GPIO_ReadBits(GPIO0);}  while((pd & 1)!=0);		// Wait Busy
 4092              		.loc 1 20 2 view .LVU1245
 4093 0026 DFF83093 		ldr	r9, .L309+16
 4094              	.LBE359:
 4095              	.LBE358:
 4096              	.LBE357:
 4097              	.LBE356:
 200:../USER/vramdisp.c ****   int a,b,di;
 4098              		.loc 1 200 43 view .LVU1246
 4099 002a 0290     		str	r0, [sp, #8]
 4100 002c 0A93     		str	r3, [sp, #40]
 4101              	.LVL373:
 4102              	.L275:
 204:../USER/vramdisp.c ****     pset(x0-b,y0-a,ptn); pset(x0+b,y0-a,ptn); pset(x0-a,y0+b,ptn);
 4103              		.loc 1 204 5 is_stmt 1 view .LVU1247
 4104 002e BDF80030 		ldrh	r3, [sp]
 4105 0032 019A     		ldr	r2, [sp, #4]
 4106 0034 0493     		str	r3, [sp, #16]
 4107 0036 D51A     		subs	r5, r2, r3
 4108 0038 BDF81440 		ldrh	r4, [sp, #20]
 4109 003c 029B     		ldr	r3, [sp, #8]
 4110              	.LBB377:
 4111              	.LBB374:
 195:../USER/vramdisp.c **** 		set_vramdata(7);	// adr(4)+ptn(2)+bitpos(1)
 4112              		.loc 1 195 3 is_stmt 0 view .LVU1248
 4113 003e ADB2     		uxth	r5, r5
 4114              	.LBE374:
 4115              	.LBE377:
 4116              		.loc 1 204 5 view .LVU1249
 4117 0040 1B1B     		subs	r3, r3, r4
 4118              	.LVL374:
 4119              	.LBB378:
 4120              	.LBI356:
 190:../USER/vramdisp.c **** 	unsigned char ph, pl, px;
 4121              		.loc 1 190 6 is_stmt 1 view .LVU1250
 4122              	.LBB375:
 191:../USER/vramdisp.c **** 	//if(xp==0xffff) { dispinitf = 0; disp_vramw(0);}
 4123              		.loc 1 191 2 view .LVU1251
 194:../USER/vramdisp.c **** 		set_vramadr(yp, xp/16);
 4124              		.loc 1 194 3 view .LVU1252
 4125              	.LBE375:
 4126              	.LBE378:
 4127              		.loc 1 204 5 is_stmt 0 view .LVU1253
 4128 0042 9BB2     		uxth	r3, r3
 4129              	.LBB379:
 4130              	.LBB376:
 195:../USER/vramdisp.c **** 		set_vramdata(7);	// adr(4)+ptn(2)+bitpos(1)
 4131              		.loc 1 195 3 view .LVU1254
 4132 0044 1A09     		lsrs	r2, r3, #4
 4133              	.LBB365:
 4134              	.LBB360:
  19:../USER/vramdisp.c **** 	GPIO_WriteBits(GPIO0,0x0000);	// dir=in clk = Lo
 4135              		.loc 1 19 15 view .LVU1255
 4136 0046 05EB8505 		add	r5, r5, r5, lsl #2
 4137              	.LBE360:
 4138              	.LBE365:
 194:../USER/vramdisp.c **** 		set_vramadr(yp, xp/16);
 4139              		.loc 1 194 35 view .LVU1256
 4140 004a 03F00F03 		and	r3, r3, #15
 4141              	.LVL375:
 194:../USER/vramdisp.c **** 		set_vramadr(yp, xp/16);
 4142              		.loc 1 194 35 view .LVU1257
 4143 004e 0393     		str	r3, [sp, #12]
 4144              	.LBB366:
 4145              	.LBB361:
  19:../USER/vramdisp.c **** 	GPIO_WriteBits(GPIO0,0x0000);	// dir=in clk = Lo
 4146              		.loc 1 19 15 view .LVU1258
 4147 0050 ED00     		lsls	r5, r5, #3
  19:../USER/vramdisp.c **** 	GPIO_WriteBits(GPIO0,0x0000);	// dir=in clk = Lo
 4148              		.loc 1 19 18 view .LVU1259
 4149 0052 5319     		adds	r3, r2, r5
 4150              	.LBE361:
 4151              	.LBE366:
 195:../USER/vramdisp.c **** 		set_vramdata(7);	// adr(4)+ptn(2)+bitpos(1)
 4152              		.loc 1 195 3 view .LVU1260
 4153 0054 0D92     		str	r2, [sp, #52]
 194:../USER/vramdisp.c **** 		set_vramadr(yp, xp/16);
 4154              		.loc 1 194 30 view .LVU1261
 4155 0056 039A     		ldr	r2, [sp, #12]
 4156              	.LBB367:
 4157              	.LBB362:
  19:../USER/vramdisp.c **** 	GPIO_WriteBits(GPIO0,0x0000);	// dir=in clk = Lo
 4158              		.loc 1 19 6 view .LVU1262
 4159 0058 5B01     		lsls	r3, r3, #5
  20:../USER/vramdisp.c **** 	do{pd = GPIO_ReadBits(GPIO0);}  while((pd & 1)!=0);		// Wait Busy
 4160              		.loc 1 20 2 view .LVU1263
 4161 005a 0021     		movs	r1, #0
 4162 005c 4846     		mov	r0, r9
 4163              	.LBE362:
 4164              	.LBE367:
 194:../USER/vramdisp.c **** 		set_vramadr(yp, xp/16);
 4165              		.loc 1 194 13 view .LVU1264
 4166 005e BE80     		strh	r6, [r7, #4]	@ movhi
 194:../USER/vramdisp.c **** 		set_vramadr(yp, xp/16);
 4167              		.loc 1 194 20 is_stmt 1 view .LVU1265
 194:../USER/vramdisp.c **** 		set_vramadr(yp, xp/16);
 4168              		.loc 1 194 30 is_stmt 0 view .LVU1266
 4169 0060 BA71     		strb	r2, [r7, #6]
 195:../USER/vramdisp.c **** 		set_vramdata(7);	// adr(4)+ptn(2)+bitpos(1)
 4170              		.loc 1 195 3 is_stmt 1 view .LVU1267
 4171              	.LVL376:
 4172              	.LBB368:
 4173              	.LBI358:
  17:../USER/vramdisp.c **** 	int adr;
 4174              		.loc 1 17 6 view .LVU1268
 4175              	.LBB363:
  18:../USER/vramdisp.c **** 	adr = ((adry)*40+adrx)*32;
 4176              		.loc 1 18 2 view .LVU1269
  19:../USER/vramdisp.c **** 	GPIO_WriteBits(GPIO0,0x0000);	// dir=in clk = Lo
 4177              		.loc 1 19 2 view .LVU1270
  19:../USER/vramdisp.c **** 	GPIO_WriteBits(GPIO0,0x0000);	// dir=in clk = Lo
 4178              		.loc 1 19 6 is_stmt 0 view .LVU1271
 4179 0062 0793     		str	r3, [sp, #28]
 4180              	.LVL377:
  20:../USER/vramdisp.c **** 	do{pd = GPIO_ReadBits(GPIO0);}  while((pd & 1)!=0);		// Wait Busy
 4181              		.loc 1 20 2 is_stmt 1 view .LVU1272
 4182 0064 FFF7FEFF 		bl	GPIO_WriteBits
 4183              	.LVL378:
 4184              	.L243:
  21:../USER/vramdisp.c **** 	wddt.i[0] = adr;
 4185              		.loc 1 21 2 view .LVU1273
  21:../USER/vramdisp.c **** 	wddt.i[0] = adr;
 4186              		.loc 1 21 5 view .LVU1274
  21:../USER/vramdisp.c **** 	wddt.i[0] = adr;
 4187              		.loc 1 21 10 is_stmt 0 view .LVU1275
 4188 0068 4846     		mov	r0, r9
 4189 006a FFF7FEFF 		bl	GPIO_ReadBits
 4190              	.LVL379:
  21:../USER/vramdisp.c **** 	wddt.i[0] = adr;
 4191              		.loc 1 21 8 view .LVU1276
 4192 006e C0B2     		uxtb	r0, r0
 4193 0070 8BF80000 		strb	r0, [fp]
  21:../USER/vramdisp.c **** 	wddt.i[0] = adr;
 4194              		.loc 1 21 44 view .LVU1277
 4195 0074 9BF80010 		ldrb	r1, [fp]	@ zero_extendqisi2
  21:../USER/vramdisp.c **** 	wddt.i[0] = adr;
 4196              		.loc 1 21 2 view .LVU1278
 4197 0078 11F00101 		ands	r1, r1, #1
 4198 007c F4D1     		bne	.L243
  22:../USER/vramdisp.c **** }
 4199              		.loc 1 22 2 is_stmt 1 view .LVU1279
  22:../USER/vramdisp.c **** }
 4200              		.loc 1 22 12 is_stmt 0 view .LVU1280
 4201 007e 079B     		ldr	r3, [sp, #28]
 4202              	.LBE363:
 4203              	.LBE368:
 4204              	.LBB369:
 4205              	.LBB370:
  51:../USER/vramdisp.c **** 	do{pd = GPIO_ReadBits(GPIO0);}  while((pd & 1)!=0);		// Wait Busy
 4206              		.loc 1 51 2 view .LVU1281
 4207 0080 4846     		mov	r0, r9
 4208              	.LBE370:
 4209              	.LBE369:
 4210              	.LBB372:
 4211              	.LBB364:
  22:../USER/vramdisp.c **** }
 4212              		.loc 1 22 12 view .LVU1282
 4213 0082 3B60     		str	r3, [r7]
 4214              	.LVL380:
  22:../USER/vramdisp.c **** }
 4215              		.loc 1 22 12 view .LVU1283
 4216              	.LBE364:
 4217              	.LBE372:
 196:../USER/vramdisp.c **** 	//}
 4218              		.loc 1 196 3 is_stmt 1 view .LVU1284
 4219              	.LBB373:
 4220              	.LBI369:
  49:../USER/vramdisp.c **** 	unsigned char i, dt;
 4221              		.loc 1 49 6 view .LVU1285
 4222              	.LBB371:
  50:../USER/vramdisp.c **** 	GPIO_WriteBits(GPIO0,0x0000);	// dir=in clk = Lo
 4223              		.loc 1 50 2 view .LVU1286
  51:../USER/vramdisp.c **** 	do{pd = GPIO_ReadBits(GPIO0);}  while((pd & 1)!=0);		// Wait Busy
 4224              		.loc 1 51 2 view .LVU1287
 4225 0084 FFF7FEFF 		bl	GPIO_WriteBits
 4226              	.LVL381:
 4227              	.L244:
  52:../USER/vramdisp.c **** 	GPIO_WriteBits(GPIO0,0x200);	// dir=out clk=Lo
 4228              		.loc 1 52 2 view .LVU1288
  52:../USER/vramdisp.c **** 	GPIO_WriteBits(GPIO0,0x200);	// dir=out clk=Lo
 4229              		.loc 1 52 5 view .LVU1289
  52:../USER/vramdisp.c **** 	GPIO_WriteBits(GPIO0,0x200);	// dir=out clk=Lo
 4230              		.loc 1 52 10 is_stmt 0 view .LVU1290
 4231 0088 4846     		mov	r0, r9
 4232 008a FFF7FEFF 		bl	GPIO_ReadBits
 4233              	.LVL382:
  52:../USER/vramdisp.c **** 	GPIO_WriteBits(GPIO0,0x200);	// dir=out clk=Lo
 4234              		.loc 1 52 8 view .LVU1291
 4235 008e C0B2     		uxtb	r0, r0
 4236 0090 8BF80000 		strb	r0, [fp]
  52:../USER/vramdisp.c **** 	GPIO_WriteBits(GPIO0,0x200);	// dir=out clk=Lo
 4237              		.loc 1 52 44 view .LVU1292
 4238 0094 9BF80030 		ldrb	r3, [fp]	@ zero_extendqisi2
  52:../USER/vramdisp.c **** 	GPIO_WriteBits(GPIO0,0x200);	// dir=out clk=Lo
 4239              		.loc 1 52 2 view .LVU1293
 4240 0098 DB07     		lsls	r3, r3, #31
 4241 009a F5D4     		bmi	.L244
  53:../USER/vramdisp.c **** 	for(i=0;i<dl;i++){
 4242              		.loc 1 53 2 is_stmt 1 view .LVU1294
 4243 009c AB4B     		ldr	r3, .L309+4
 4244 009e 4FF40071 		mov	r1, #512
 4245 00a2 4846     		mov	r0, r9
 4246 00a4 0F93     		str	r3, [sp, #60]
 4247 00a6 9846     		mov	r8, r3
 4248 00a8 FFF7FEFF 		bl	GPIO_WriteBits
 4249              	.LVL383:
  54:../USER/vramdisp.c **** 		dt = wddt.b[i];
 4250              		.loc 1 54 2 view .LVU1295
 4251              	.L245:
  55:../USER/vramdisp.c **** 		GPIO_WriteBits(GPIO0,0x300+dt);
 4252              		.loc 1 55 3 view .LVU1296
  56:../USER/vramdisp.c **** 		GPIO_WriteBits(GPIO0,0x200+dt);
 4253              		.loc 1 56 3 view .LVU1297
  56:../USER/vramdisp.c **** 		GPIO_WriteBits(GPIO0,0x200+dt);
 4254              		.loc 1 56 29 is_stmt 0 view .LVU1298
 4255 00ac 18F801AF 		ldrb	r10, [r8, #1]!	@ zero_extendqisi2
 4256              	.LVL384:
  56:../USER/vramdisp.c **** 		GPIO_WriteBits(GPIO0,0x200+dt);
 4257              		.loc 1 56 3 view .LVU1299
 4258 00b0 4846     		mov	r0, r9
 4259 00b2 0AF54071 		add	r1, r10, #768
 4260 00b6 FFF7FEFF 		bl	GPIO_WriteBits
 4261              	.LVL385:
  57:../USER/vramdisp.c **** 	}
 4262              		.loc 1 57 3 is_stmt 1 view .LVU1300
 4263 00ba 0AF50071 		add	r1, r10, #512
 4264 00be 4846     		mov	r0, r9
 4265 00c0 FFF7FEFF 		bl	GPIO_WriteBits
 4266              	.LVL386:
  54:../USER/vramdisp.c **** 		dt = wddt.b[i];
 4267              		.loc 1 54 2 is_stmt 0 view .LVU1301
 4268 00c4 A24B     		ldr	r3, .L309+8
 4269 00c6 4345     		cmp	r3, r8
 4270 00c8 F0D1     		bne	.L245
  59:../USER/vramdisp.c **** }
 4271              		.loc 1 59 2 is_stmt 1 view .LVU1302
 4272 00ca 0021     		movs	r1, #0
 4273 00cc 4846     		mov	r0, r9
 4274 00ce FFF7FEFF 		bl	GPIO_WriteBits
 4275              	.LVL387:
  59:../USER/vramdisp.c **** }
 4276              		.loc 1 59 2 is_stmt 0 view .LVU1303
 4277              	.LBE371:
 4278              	.LBE373:
 4279              	.LBE376:
 4280              	.LBE379:
 4281              		.loc 1 204 26 is_stmt 1 view .LVU1304
 4282 00d2 029B     		ldr	r3, [sp, #8]
 4283              	.LBB380:
 4284              	.LBB381:
 4285              	.LBB382:
 4286              	.LBB383:
  20:../USER/vramdisp.c **** 	do{pd = GPIO_ReadBits(GPIO0);}  while((pd & 1)!=0);		// Wait Busy
 4287              		.loc 1 20 2 is_stmt 0 view .LVU1305
 4288 00d4 0021     		movs	r1, #0
 4289              	.LBE383:
 4290              	.LBE382:
 4291              	.LBE381:
 4292              	.LBE380:
 4293              		.loc 1 204 26 view .LVU1306
 4294 00d6 E318     		adds	r3, r4, r3
 4295 00d8 9BB2     		uxth	r3, r3
 4296              	.LVL388:
 4297              	.LBB399:
 4298              	.LBI380:
 190:../USER/vramdisp.c **** 	unsigned char ph, pl, px;
 4299              		.loc 1 190 6 is_stmt 1 view .LVU1307
 4300              	.LBB398:
 191:../USER/vramdisp.c **** 	//if(xp==0xffff) { dispinitf = 0; disp_vramw(0);}
 4301              		.loc 1 191 2 view .LVU1308
 194:../USER/vramdisp.c **** 		set_vramadr(yp, xp/16);
 4302              		.loc 1 194 3 view .LVU1309
 195:../USER/vramdisp.c **** 		set_vramdata(7);	// adr(4)+ptn(2)+bitpos(1)
 4303              		.loc 1 195 3 is_stmt 0 view .LVU1310
 4304 00da 1A09     		lsrs	r2, r3, #4
 4305              	.LBB389:
 4306              	.LBB384:
  19:../USER/vramdisp.c **** 	GPIO_WriteBits(GPIO0,0x0000);	// dir=in clk = Lo
 4307              		.loc 1 19 18 view .LVU1311
 4308 00dc 1544     		add	r5, r5, r2
 4309              	.LBE384:
 4310              	.LBE389:
 194:../USER/vramdisp.c **** 		set_vramadr(yp, xp/16);
 4311              		.loc 1 194 35 view .LVU1312
 4312 00de 03F00F03 		and	r3, r3, #15
 4313              	.LVL389:
 4314              	.LBB390:
 4315              	.LBB385:
  20:../USER/vramdisp.c **** 	do{pd = GPIO_ReadBits(GPIO0);}  while((pd & 1)!=0);		// Wait Busy
 4316              		.loc 1 20 2 view .LVU1313
 4317 00e2 4846     		mov	r0, r9
 4318              	.LBE385:
 4319              	.LBE390:
 195:../USER/vramdisp.c **** 		set_vramdata(7);	// adr(4)+ptn(2)+bitpos(1)
 4320              		.loc 1 195 3 view .LVU1314
 4321 00e4 0C92     		str	r2, [sp, #48]
 194:../USER/vramdisp.c **** 		set_vramadr(yp, xp/16);
 4322              		.loc 1 194 35 view .LVU1315
 4323 00e6 0B93     		str	r3, [sp, #44]
 194:../USER/vramdisp.c **** 		set_vramadr(yp, xp/16);
 4324              		.loc 1 194 13 view .LVU1316
 4325 00e8 BE80     		strh	r6, [r7, #4]	@ movhi
 194:../USER/vramdisp.c **** 		set_vramadr(yp, xp/16);
 4326              		.loc 1 194 20 is_stmt 1 view .LVU1317
 4327              	.LBB391:
 4328              	.LBB386:
  19:../USER/vramdisp.c **** 	GPIO_WriteBits(GPIO0,0x0000);	// dir=in clk = Lo
 4329              		.loc 1 19 6 is_stmt 0 view .LVU1318
 4330 00ea 6D01     		lsls	r5, r5, #5
 4331              	.LBE386:
 4332              	.LBE391:
 194:../USER/vramdisp.c **** 		set_vramadr(yp, xp/16);
 4333              		.loc 1 194 30 view .LVU1319
 4334 00ec BB71     		strb	r3, [r7, #6]
 195:../USER/vramdisp.c **** 		set_vramdata(7);	// adr(4)+ptn(2)+bitpos(1)
 4335              		.loc 1 195 3 is_stmt 1 view .LVU1320
 4336              	.LVL390:
 4337              	.LBB392:
 4338              	.LBI382:
  17:../USER/vramdisp.c **** 	int adr;
 4339              		.loc 1 17 6 view .LVU1321
 4340              	.LBB387:
  18:../USER/vramdisp.c **** 	adr = ((adry)*40+adrx)*32;
 4341              		.loc 1 18 2 view .LVU1322
  19:../USER/vramdisp.c **** 	GPIO_WriteBits(GPIO0,0x0000);	// dir=in clk = Lo
 4342              		.loc 1 19 2 view .LVU1323
  20:../USER/vramdisp.c **** 	do{pd = GPIO_ReadBits(GPIO0);}  while((pd & 1)!=0);		// Wait Busy
 4343              		.loc 1 20 2 view .LVU1324
 4344 00ee FFF7FEFF 		bl	GPIO_WriteBits
 4345              	.LVL391:
 4346              	.L246:
  21:../USER/vramdisp.c **** 	wddt.i[0] = adr;
 4347              		.loc 1 21 2 view .LVU1325
  21:../USER/vramdisp.c **** 	wddt.i[0] = adr;
 4348              		.loc 1 21 5 view .LVU1326
  21:../USER/vramdisp.c **** 	wddt.i[0] = adr;
 4349              		.loc 1 21 10 is_stmt 0 view .LVU1327
 4350 00f2 4846     		mov	r0, r9
 4351 00f4 FFF7FEFF 		bl	GPIO_ReadBits
 4352              	.LVL392:
  21:../USER/vramdisp.c **** 	wddt.i[0] = adr;
 4353              		.loc 1 21 8 view .LVU1328
 4354 00f8 C0B2     		uxtb	r0, r0
 4355 00fa 8BF80000 		strb	r0, [fp]
  21:../USER/vramdisp.c **** 	wddt.i[0] = adr;
 4356              		.loc 1 21 44 view .LVU1329
 4357 00fe 9BF80010 		ldrb	r1, [fp]	@ zero_extendqisi2
  21:../USER/vramdisp.c **** 	wddt.i[0] = adr;
 4358              		.loc 1 21 2 view .LVU1330
 4359 0102 11F00101 		ands	r1, r1, #1
 4360 0106 F4D1     		bne	.L246
  22:../USER/vramdisp.c **** }
 4361              		.loc 1 22 2 is_stmt 1 view .LVU1331
 4362              	.LBE387:
 4363              	.LBE392:
 4364              	.LBB393:
 4365              	.LBB394:
  51:../USER/vramdisp.c **** 	do{pd = GPIO_ReadBits(GPIO0);}  while((pd & 1)!=0);		// Wait Busy
 4366              		.loc 1 51 2 is_stmt 0 view .LVU1332
 4367 0108 4846     		mov	r0, r9
 4368              	.LBE394:
 4369              	.LBE393:
 4370              	.LBB396:
 4371              	.LBB388:
  22:../USER/vramdisp.c **** }
 4372              		.loc 1 22 12 view .LVU1333
 4373 010a 3D60     		str	r5, [r7]
 4374              	.LVL393:
  22:../USER/vramdisp.c **** }
