   1              		.cpu cortex-m3
   2              		.eabi_attribute 20, 1
   3              		.eabi_attribute 21, 1
   4              		.eabi_attribute 23, 3
   5              		.eabi_attribute 24, 1
   6              		.eabi_attribute 25, 1
   7              		.eabi_attribute 26, 1
   8              		.eabi_attribute 30, 2
   9              		.eabi_attribute 34, 1
  10              		.eabi_attribute 18, 4
  11              		.file	"main_01aa.c"
  12              		.text
  13              	.Ltext0:
  14              		.cfi_sections	.debug_frame
  15              		.syntax unified
  16              		add3_embasm:
  17 0000 00F10300 		 add r0, #3
  18 0004 7047     		 bx lr
  19              		
  20              		.thumb
  21              		.syntax unified
  22              		.section	.text.GPIOInit,"ax",%progbits
  23              		.align	1
  24              		.p2align 2,,3
  25              		.global	GPIOInit
  26              		.arch armv7-m
  27              		.syntax unified
  28              		.thumb
  29              		.thumb_func
  30              		.fpu softvfp
  32              	GPIOInit:
  33              	.LVL0:
  34              	.LFB32:
  35              		.file 1 "../USER/main_01aa.c"
   1:../USER/main_01aa.c **** 
   2:../USER/main_01aa.c **** /*
   3:../USER/main_01aa.c ****  * *****************************************************************************************
   4:../USER/main_01aa.c ****  *
   5:../USER/main_01aa.c ****  * 		Copyright (C) 2014-2021 Gowin Semiconductor Technology Co.,Ltd.
   6:../USER/main_01aa.c ****  * 		
   7:../USER/main_01aa.c ****  * @file			main.c
   8:../USER/main_01aa.c ****  * @author		Embedded Development Team
   9:../USER/main_01aa.c ****  * @version		V1.x.x
  10:../USER/main_01aa.c ****  * @date			2021-01-01 09:00:00
  11:../USER/main_01aa.c ****  * @brief			Main program body.
  12:../USER/main_01aa.c ****  ******************************************************************************************
  13:../USER/main_01aa.c ****  */
  14:../USER/main_01aa.c **** 
  15:../USER/main_01aa.c **** /* Includes ------------------------------------------------------------------*/
  16:../USER/main_01aa.c **** #include "gw1ns4c.h"
  17:../USER/main_01aa.c **** //#include "GOWIN_M3.h"
  18:../USER/main_01aa.c **** 
  19:../USER/main_01aa.c **** #include <stdio.h>
  20:../USER/main_01aa.c **** #include <stdlib.h>
  21:../USER/main_01aa.c **** #include <string.h>
  22:../USER/main_01aa.c **** /* Declarations ------------------------------------------------------------------*/
  23:../USER/main_01aa.c **** void delay_ms(__IO uint32_t delay_ms);
  24:../USER/main_01aa.c **** void GPIOInit(uint32_t pin);
  25:../USER/main_01aa.c **** void UartInit(void);
  26:../USER/main_01aa.c **** 
  27:../USER/main_01aa.c **** /* Functions ------------------------------------------------------------------*/
  28:../USER/main_01aa.c **** //Initializes GPIO
  29:../USER/main_01aa.c **** void GPIOInit(uint32_t pin)
  30:../USER/main_01aa.c **** {
  36              		.loc 1 30 1 view -0
  37              		.cfi_startproc
  38              		@ args = 0, pretend = 0, frame = 8
  39              		@ frame_needed = 0, uses_anonymous_args = 0
  31:../USER/main_01aa.c **** 	GPIO_InitTypeDef GPIO_InitType;
  40              		.loc 1 31 2 view .LVU1
  32:../USER/main_01aa.c **** 	GPIO_InitType.GPIO_Pin = pin;
  41              		.loc 1 32 2 view .LVU2
  30:../USER/main_01aa.c **** 	GPIO_InitTypeDef GPIO_InitType;
  42              		.loc 1 30 1 is_stmt 0 view .LVU3
  43 0000 30B5     		push	{r4, r5, lr}
  44              		.cfi_def_cfa_offset 12
  45              		.cfi_offset 4, -12
  46              		.cfi_offset 5, -8
  47              		.cfi_offset 14, -4
  33:../USER/main_01aa.c **** 	GPIO_InitType.GPIO_Mode = GPIO_Mode_OUT;
  48              		.loc 1 33 26 view .LVU4
  49 0002 0123     		movs	r3, #1
  30:../USER/main_01aa.c **** 	GPIO_InitTypeDef GPIO_InitType;
  50              		.loc 1 30 1 view .LVU5
  51 0004 0546     		mov	r5, r0
  34:../USER/main_01aa.c **** 	GPIO_InitType.GPIO_Int = GPIO_Int_Disable;
  35:../USER/main_01aa.c **** 	GPIO_Init(GPIO0,&GPIO_InitType);
  52              		.loc 1 35 2 view .LVU6
  53 0006 074C     		ldr	r4, .L4
  30:../USER/main_01aa.c **** 	GPIO_InitTypeDef GPIO_InitType;
  54              		.loc 1 30 1 view .LVU7
  55 0008 83B0     		sub	sp, sp, #12
  56              		.cfi_def_cfa_offset 24
  57              		.loc 1 35 2 view .LVU8
  58 000a 6946     		mov	r1, sp
  59 000c 2046     		mov	r0, r4
  60              	.LVL1:
  33:../USER/main_01aa.c **** 	GPIO_InitType.GPIO_Mode = GPIO_Mode_OUT;
  61              		.loc 1 33 26 view .LVU9
  62 000e ADF80430 		strh	r3, [sp, #4]	@ movhi
  32:../USER/main_01aa.c **** 	GPIO_InitType.GPIO_Mode = GPIO_Mode_OUT;
  63              		.loc 1 32 25 view .LVU10
  64 0012 0095     		str	r5, [sp]
  33:../USER/main_01aa.c **** 	GPIO_InitType.GPIO_Int = GPIO_Int_Disable;
  65              		.loc 1 33 2 is_stmt 1 view .LVU11
  34:../USER/main_01aa.c **** 	GPIO_Init(GPIO0,&GPIO_InitType);
  66              		.loc 1 34 2 view .LVU12
  67              		.loc 1 35 2 view .LVU13
  68 0014 FFF7FEFF 		bl	GPIO_Init
  69              	.LVL2:
  36:../USER/main_01aa.c ****   GPIO_SetBit(GPIO0,pin);
  70              		.loc 1 36 3 view .LVU14
  71 0018 2946     		mov	r1, r5
  72 001a 2046     		mov	r0, r4
  73 001c FFF7FEFF 		bl	GPIO_SetBit
  74              	.LVL3:
  37:../USER/main_01aa.c **** }
  75              		.loc 1 37 1 is_stmt 0 view .LVU15
  76 0020 03B0     		add	sp, sp, #12
  77              		.cfi_def_cfa_offset 12
  78              		@ sp needed
  79 0022 30BD     		pop	{r4, r5, pc}
  80              	.LVL4:
  81              	.L5:
  82              		.loc 1 37 1 view .LVU16
  83              		.align	2
  84              	.L4:
  85 0024 00000140 		.word	1073807360
  86              		.cfi_endproc
  87              	.LFE32:
  89              		.section	.text.UartInit,"ax",%progbits
  90              		.align	1
  91              		.p2align 2,,3
  92              		.global	UartInit
  93              		.syntax unified
  94              		.thumb
  95              		.thumb_func
  96              		.fpu softvfp
  98              	UartInit:
  99              	.LFB33:
  38:../USER/main_01aa.c **** 
  39:../USER/main_01aa.c **** void UartInit(void)
  40:../USER/main_01aa.c **** {
 100              		.loc 1 40 1 is_stmt 1 view -0
 101              		.cfi_startproc
 102              		@ args = 0, pretend = 0, frame = 16
 103              		@ frame_needed = 0, uses_anonymous_args = 0
  41:../USER/main_01aa.c ****   UART_InitTypeDef UART_InitStruct;
 104              		.loc 1 41 3 view .LVU18
  42:../USER/main_01aa.c **** 
  43:../USER/main_01aa.c ****   UART_InitStruct.UART_Mode.UARTMode_Tx = ENABLE;
 105              		.loc 1 43 3 view .LVU19
  44:../USER/main_01aa.c ****   UART_InitStruct.UART_Mode.UARTMode_Rx = ENABLE;
 106              		.loc 1 44 3 view .LVU20
  45:../USER/main_01aa.c ****   UART_InitStruct.UART_Int.UARTInt_Tx = DISABLE;
 107              		.loc 1 45 3 view .LVU21
  46:../USER/main_01aa.c ****   UART_InitStruct.UART_Int.UARTInt_Rx = DISABLE;
 108              		.loc 1 46 3 view .LVU22
  47:../USER/main_01aa.c ****   UART_InitStruct.UART_Ovr.UARTOvr_Tx = DISABLE;
 109              		.loc 1 47 3 view .LVU23
  48:../USER/main_01aa.c ****   UART_InitStruct.UART_Ovr.UARTOvr_Rx = DISABLE;
 110              		.loc 1 48 3 view .LVU24
  49:../USER/main_01aa.c ****   UART_InitStruct.UART_Hstm = DISABLE;
 111              		.loc 1 49 3 view .LVU25
  50:../USER/main_01aa.c ****   UART_InitStruct.UART_BaudRate = 115200*80/72;//Baud Rate
 112              		.loc 1 50 3 view .LVU26
  40:../USER/main_01aa.c ****   UART_InitTypeDef UART_InitStruct;
 113              		.loc 1 40 1 is_stmt 0 view .LVU27
 114 0000 10B5     		push	{r4, lr}
 115              		.cfi_def_cfa_offset 8
 116              		.cfi_offset 4, -8
 117              		.cfi_offset 14, -4
  47:../USER/main_01aa.c ****   UART_InitStruct.UART_Ovr.UARTOvr_Rx = DISABLE;
 118              		.loc 1 47 39 view .LVU28
 119 0002 0023     		movs	r3, #0
  43:../USER/main_01aa.c ****   UART_InitStruct.UART_Mode.UARTMode_Rx = ENABLE;
 120              		.loc 1 43 41 view .LVU29
 121 0004 40F20112 		movw	r2, #257
 122              		.loc 1 50 33 view .LVU30
 123 0008 4FF4FA34 		mov	r4, #128000
  40:../USER/main_01aa.c ****   UART_InitTypeDef UART_InitStruct;
 124              		.loc 1 40 1 view .LVU31
 125 000c 84B0     		sub	sp, sp, #16
 126              		.cfi_def_cfa_offset 24
  51:../USER/main_01aa.c ****   UART_Init(UART0,&UART_InitStruct);
 127              		.loc 1 51 3 view .LVU32
 128 000e 01A9     		add	r1, sp, #4
 129 0010 4FF04020 		mov	r0, #1073758208
  43:../USER/main_01aa.c ****   UART_InitStruct.UART_Mode.UARTMode_Rx = ENABLE;
 130              		.loc 1 43 41 view .LVU33
 131 0014 CDE90142 		strd	r4, r2, [sp, #4]
  47:../USER/main_01aa.c ****   UART_InitStruct.UART_Ovr.UARTOvr_Rx = DISABLE;
 132              		.loc 1 47 39 view .LVU34
 133 0018 ADF80C30 		strh	r3, [sp, #12]	@ movhi
  49:../USER/main_01aa.c ****   UART_InitStruct.UART_BaudRate = 115200*80/72;//Baud Rate
 134              		.loc 1 49 29 view .LVU35
 135 001c 8DF80E30 		strb	r3, [sp, #14]
 136              		.loc 1 51 3 is_stmt 1 view .LVU36
 137 0020 FFF7FEFF 		bl	UART_Init
 138              	.LVL5:
  52:../USER/main_01aa.c **** }
 139              		.loc 1 52 1 is_stmt 0 view .LVU37
 140 0024 04B0     		add	sp, sp, #16
 141              		.cfi_def_cfa_offset 8
 142              		@ sp needed
 143 0026 10BD     		pop	{r4, pc}
 144              		.cfi_endproc
 145              	.LFE33:
 147              		.section	.text.SPIInit,"ax",%progbits
 148              		.align	1
 149              		.p2align 2,,3
 150              		.global	SPIInit
 151              		.syntax unified
 152              		.thumb
 153              		.thumb_func
 154              		.fpu softvfp
 156              	SPIInit:
 157              	.LFB34:
  53:../USER/main_01aa.c **** 
  54:../USER/main_01aa.c **** //Initializes SPI
  55:../USER/main_01aa.c **** void SPIInit(void)
  56:../USER/main_01aa.c **** {
 158              		.loc 1 56 1 is_stmt 1 view -0
 159              		.cfi_startproc
 160              		@ args = 0, pretend = 0, frame = 8
 161              		@ frame_needed = 0, uses_anonymous_args = 0
  57:../USER/main_01aa.c **** 	SPI_InitTypeDef init_spi;
 162              		.loc 1 57 2 view .LVU39
  58:../USER/main_01aa.c **** 
  59:../USER/main_01aa.c ****   init_spi.CLKSEL= CLKSEL_CLK_DIV_4;		//80MHZ / 8
 163              		.loc 1 59 3 view .LVU40
  60:../USER/main_01aa.c ****   init_spi.DIRECTION = DISABLE;					//MSB First
 164              		.loc 1 60 3 view .LVU41
  61:../USER/main_01aa.c ****   init_spi.PHASE =DISABLE;							//ENABLE;//posedge
 165              		.loc 1 61 3 view .LVU42
  62:../USER/main_01aa.c ****   init_spi.POLARITY =DISABLE;						//polarity 0
 166              		.loc 1 62 3 view .LVU43
  60:../USER/main_01aa.c ****   init_spi.DIRECTION = DISABLE;					//MSB First
 167              		.loc 1 60 22 is_stmt 0 view .LVU44
 168 0000 4FF08073 		mov	r3, #16777216
  56:../USER/main_01aa.c **** 	SPI_InitTypeDef init_spi;
 169              		.loc 1 56 1 view .LVU45
 170 0004 00B5     		push	{lr}
 171              		.cfi_def_cfa_offset 4
 172              		.cfi_offset 14, -4
 173 0006 83B0     		sub	sp, sp, #12
 174              		.cfi_def_cfa_offset 16
  63:../USER/main_01aa.c **** 
  64:../USER/main_01aa.c ****   SPI_Init(&init_spi);
 175              		.loc 1 64 3 view .LVU46
 176 0008 01A8     		add	r0, sp, #4
  60:../USER/main_01aa.c ****   init_spi.PHASE =DISABLE;							//ENABLE;//posedge
 177              		.loc 1 60 22 view .LVU47
 178 000a 0193     		str	r3, [sp, #4]
 179              		.loc 1 64 3 is_stmt 1 view .LVU48
 180 000c FFF7FEFF 		bl	SPI_Init
 181              	.LVL6:
  65:../USER/main_01aa.c **** 
  66:../USER/main_01aa.c ****   //SPI_Select_Slave(0x01) ;	//Select The SPI Slave
  67:../USER/main_01aa.c ****   //SPI_WriteData(0x9F);			//Send Jedec
  68:../USER/main_01aa.c **** 
  69:../USER/main_01aa.c **** }
 182              		.loc 1 69 1 is_stmt 0 view .LVU49
 183 0010 03B0     		add	sp, sp, #12
 184              		.cfi_def_cfa_offset 4
 185              		@ sp needed
 186 0012 5DF804FB 		ldr	pc, [sp], #4
 187              		.cfi_endproc
 188              	.LFE34:
 190 0016 00BF     		.section	.text.delay_ms,"ax",%progbits
 191              		.align	1
 192              		.p2align 2,,3
 193              		.global	delay_ms
 194              		.syntax unified
 195              		.thumb
 196              		.thumb_func
 197              		.fpu softvfp
 199              	delay_ms:
 200              	.LVL7:
 201              	.LFB35:
  70:../USER/main_01aa.c **** 
  71:../USER/main_01aa.c **** //delay ms
  72:../USER/main_01aa.c **** void delay_ms(__IO uint32_t delay_ms)
  73:../USER/main_01aa.c **** {
 202              		.loc 1 73 1 is_stmt 1 view -0
 203              		.cfi_startproc
 204              		@ args = 0, pretend = 0, frame = 8
 205              		@ frame_needed = 0, uses_anonymous_args = 0
 206              		@ link register save eliminated.
  74:../USER/main_01aa.c **** 	//delay_ms = delay_ms ;
  75:../USER/main_01aa.c **** 	for(delay_ms=(SystemCoreClock>>13)*delay_ms; delay_ms != 0; delay_ms--);
 207              		.loc 1 75 2 view .LVU51
 208              		.loc 1 75 31 is_stmt 0 view .LVU52
 209 0000 094B     		ldr	r3, .L18
  73:../USER/main_01aa.c **** 	//delay_ms = delay_ms ;
 210              		.loc 1 73 1 view .LVU53
 211 0002 82B0     		sub	sp, sp, #8
 212              		.cfi_def_cfa_offset 8
  73:../USER/main_01aa.c **** 	//delay_ms = delay_ms ;
 213              		.loc 1 73 1 view .LVU54
 214 0004 0190     		str	r0, [sp, #4]
 215              		.loc 1 75 31 view .LVU55
 216 0006 1A68     		ldr	r2, [r3]
 217              		.loc 1 75 36 view .LVU56
 218 0008 019B     		ldr	r3, [sp, #4]
 219              		.loc 1 75 31 view .LVU57
 220 000a 520B     		lsrs	r2, r2, #13
 221              		.loc 1 75 36 view .LVU58
 222 000c 03FB02F3 		mul	r3, r3, r2
 223              		.loc 1 75 14 view .LVU59
 224 0010 0193     		str	r3, [sp, #4]
 225              		.loc 1 75 56 view .LVU60
 226 0012 019B     		ldr	r3, [sp, #4]
 227              		.loc 1 75 2 view .LVU61
 228 0014 2BB1     		cbz	r3, .L10
 229              	.L12:
 230              		.loc 1 75 73 is_stmt 1 discriminator 3 view .LVU62
 231              		.loc 1 75 70 is_stmt 0 discriminator 3 view .LVU63
 232 0016 019B     		ldr	r3, [sp, #4]
 233 0018 013B     		subs	r3, r3, #1
 234 001a 0193     		str	r3, [sp, #4]
 235              		.loc 1 75 56 discriminator 3 view .LVU64
 236 001c 019B     		ldr	r3, [sp, #4]
 237              		.loc 1 75 2 discriminator 3 view .LVU65
 238 001e 002B     		cmp	r3, #0
 239 0020 F9D1     		bne	.L12
 240              	.L10:
  76:../USER/main_01aa.c **** }
 241              		.loc 1 76 1 view .LVU66
 242 0022 02B0     		add	sp, sp, #8
 243              		.cfi_def_cfa_offset 0
 244              		@ sp needed
 245 0024 7047     		bx	lr
 246              	.L19:
 247 0026 00BF     		.align	2
 248              	.L18:
 249 0028 00000000 		.word	SystemCoreClock
 250              		.cfi_endproc
 251              	.LFE35:
 253              		.section	.text.c2asm,"ax",%progbits
 254              		.align	1
 255              		.p2align 2,,3
 256              		.global	c2asm
 257              		.syntax unified
 258              		.thumb
 259              		.thumb_func
 260              		.fpu softvfp
 262              	c2asm:
 263              	.LFB36:
  77:../USER/main_01aa.c **** // アセンブラ　コンパイルできる記述例(実行性は未検証)
  78:../USER/main_01aa.c **** //　関数例　gcc用(Arm純正はエラー)
  79:../USER/main_01aa.c **** int add3_embasm(int i);
  80:../USER/main_01aa.c **** asm (
  81:../USER/main_01aa.c ****     "add3_embasm:\n\t"
  82:../USER/main_01aa.c ****     " add r0, #3\n\t"
  83:../USER/main_01aa.c ****     " bx lr\n\t"
  84:../USER/main_01aa.c **** );
  85:../USER/main_01aa.c **** 
  86:../USER/main_01aa.c **** void c2asm(void){
 264              		.loc 1 86 17 is_stmt 1 view -0
 265              		.cfi_startproc
 266              		@ args = 0, pretend = 0, frame = 0
 267              		@ frame_needed = 0, uses_anonymous_args = 0
 268              		@ link register save eliminated.
  87:../USER/main_01aa.c **** 	__asm("nop");
 269              		.loc 1 87 2 view .LVU68
 270              		.syntax unified
 271              	@ 87 "../USER/main_01aa.c" 1
 272 0000 00BF     		nop
 273              	@ 0 "" 2
  88:../USER/main_01aa.c **** 	//　インライン Arm純正ツールチェーン用(レジスタ名は書けない)
  89:../USER/main_01aa.c **** 	static int vb,i
 274              		.loc 1 89 2 view .LVU69
  90:../USER/main_01aa.c **** 	 __asm("add vb, i");
  91:../USER/main_01aa.c **** 	//　インライン　gcc用
  92:../USER/main_01aa.c **** 	asm( "add %[Rd1], %[Rs1] \n\t"	// 命令(add)テンプレート
 275              		.loc 1 92 2 view .LVU70
 276              		.thumb
 277              		.syntax unified
 278 0002 024A     		ldr	r2, .L21
 279 0004 0023     		movs	r3, #0
 280              		.syntax unified
 281              	@ 92 "../USER/main_01aa.c" 1
 282 0006 1B44     		add r3, r3 
 283              		
 284              	@ 0 "" 2
 285              		.thumb
 286              		.syntax unified
 287 0008 1360     		str	r3, [r2]
  93:../USER/main_01aa.c **** 	    : [Rd1] "=r" (vb)			// 変数(vb)をレジスタ(rd1)にヒモ付け
  94:../USER/main_01aa.c **** 	    : [Rs1] "r" (i)
  95:../USER/main_01aa.c **** 	    :							// 壊れるレジスタを記述
  96:../USER/main_01aa.c **** 	);
  97:../USER/main_01aa.c **** }
 288              		.loc 1 97 1 is_stmt 0 view .LVU71
 289 000a 7047     		bx	lr
 290              	.L22:
 291              		.align	2
 292              	.L21:
 293 000c 00000000 		.word	.LANCHOR0
 294              		.cfi_endproc
 295              	.LFE36:
 297              		.section	.text.setsup,"ax",%progbits
 298              		.align	1
 299              		.p2align 2,,3
 300              		.global	setsup
 301              		.syntax unified
 302              		.thumb
 303              		.thumb_func
 304              		.fpu softvfp
 306              	setsup:
 307              	.LVL8:
 308              	.LFB37:
  98:../USER/main_01aa.c **** 
  99:../USER/main_01aa.c **** #define getch getchuart
 100:../USER/main_01aa.c **** #define putch putchuart
 101:../USER/main_01aa.c **** #define gets  getsuart
 102:../USER/main_01aa.c **** #define puts  putsuart
 103:../USER/main_01aa.c **** void setsup(buf) char *buf;{
 309              		.loc 1 103 28 is_stmt 1 view -0
 310              		.cfi_startproc
 311              		@ args = 0, pretend = 0, frame = 0
 312              		@ frame_needed = 0, uses_anonymous_args = 0
 313              		@ link register save eliminated.
 104:../USER/main_01aa.c ****   while(*buf!=0x0d){
 314              		.loc 1 104 3 view .LVU73
 315              		.loc 1 104 9 is_stmt 0 view .LVU74
 316 0000 90F90030 		ldrsb	r3, [r0]
 317              		.loc 1 104 8 view .LVU75
 318 0004 0D2B     		cmp	r3, #13
 319 0006 0FD0     		beq	.L23
 320              	.LVL9:
 321              	.L27:
 105:../USER/main_01aa.c ****    if( *buf>='a' && *buf<='z') *buf = *buf - 0x20;
 322              		.loc 1 105 4 is_stmt 1 view .LVU76
 323              		.loc 1 105 32 view .LVU77
 106:../USER/main_01aa.c ****    buf++;
 324              		.loc 1 106 4 view .LVU78
 105:../USER/main_01aa.c ****    if( *buf>='a' && *buf<='z') *buf = *buf - 0x20;
 325              		.loc 1 105 18 is_stmt 0 view .LVU79
 326 0008 DBB2     		uxtb	r3, r3
 105:../USER/main_01aa.c ****    if( *buf>='a' && *buf<='z') *buf = *buf - 0x20;
 327              		.loc 1 105 44 view .LVU80
 328 000a A3F12002 		sub	r2, r3, #32
 105:../USER/main_01aa.c ****    if( *buf>='a' && *buf<='z') *buf = *buf - 0x20;
 329              		.loc 1 105 6 view .LVU81
 330 000e 613B     		subs	r3, r3, #97
 331 0010 192B     		cmp	r3, #25
 332 0012 05D8     		bhi	.L25
 105:../USER/main_01aa.c ****    if( *buf>='a' && *buf<='z') *buf = *buf - 0x20;
 333              		.loc 1 105 37 discriminator 1 view .LVU82
 334 0014 0270     		strb	r2, [r0]
 335              		.loc 1 106 4 is_stmt 1 discriminator 1 view .LVU83
 104:../USER/main_01aa.c ****   while(*buf!=0x0d){
 336              		.loc 1 104 9 is_stmt 0 discriminator 1 view .LVU84
 337 0016 10F9013F 		ldrsb	r3, [r0, #1]!
 338              	.LVL10:
 104:../USER/main_01aa.c ****   while(*buf!=0x0d){
 339              		.loc 1 104 8 discriminator 1 view .LVU85
 340 001a 0D2B     		cmp	r3, #13
 341 001c F4D1     		bne	.L27
 342 001e 7047     		bx	lr
 343              	.LVL11:
 344              	.L25:
 104:../USER/main_01aa.c ****   while(*buf!=0x0d){
 345              		.loc 1 104 9 view .LVU86
 346 0020 10F9013F 		ldrsb	r3, [r0, #1]!
 347              	.LVL12:
 104:../USER/main_01aa.c ****   while(*buf!=0x0d){
 348              		.loc 1 104 8 view .LVU87
 349 0024 0D2B     		cmp	r3, #13
 350 0026 EFD1     		bne	.L27
 351              	.LVL13:
 352              	.L23:
 107:../USER/main_01aa.c ****   }
 108:../USER/main_01aa.c **** }
 353              		.loc 1 108 1 view .LVU88
 354 0028 7047     		bx	lr
 355              		.cfi_endproc
 356              	.LFE37:
 358 002a 00BF     		.section	.text.getchuart,"ax",%progbits
 359              		.align	1
 360              		.p2align 2,,3
 361              		.global	getchuart
 362              		.syntax unified
 363              		.thumb
 364              		.thumb_func
 365              		.fpu softvfp
 367              	getchuart:
 368              	.LFB38:
 109:../USER/main_01aa.c **** char getchuart(void){ return UART_ReceiveChar(UART0); }
 369              		.loc 1 109 21 is_stmt 1 view -0
 370              		.cfi_startproc
 371              		@ args = 0, pretend = 0, frame = 0
 372              		@ frame_needed = 0, uses_anonymous_args = 0
 373              		@ link register save eliminated.
 374              		.loc 1 109 23 view .LVU90
 375              		.loc 1 109 30 is_stmt 0 view .LVU91
 376 0000 4FF04020 		mov	r0, #1073758208
 377 0004 FFF7FEBF 		b	UART_ReceiveChar
 378              	.LVL14:
 379              		.cfi_endproc
 380              	.LFE38:
 382              		.section	.text.putchuart,"ax",%progbits
 383              		.align	1
 384              		.p2align 2,,3
 385              		.global	putchuart
 386              		.syntax unified
 387              		.thumb
 388              		.thumb_func
 389              		.fpu softvfp
 391              	putchuart:
 392              	.LVL15:
 393              	.LFB39:
 110:../USER/main_01aa.c **** void putchuart(char ch){ UART_SendChar(UART0,ch);}
 394              		.loc 1 110 24 is_stmt 1 view -0
 395              		.cfi_startproc
 396              		@ args = 0, pretend = 0, frame = 0
 397              		@ frame_needed = 0, uses_anonymous_args = 0
 398              		@ link register save eliminated.
 399              		.loc 1 110 26 view .LVU93
 400 0000 0146     		mov	r1, r0
 401 0002 4FF04020 		mov	r0, #1073758208
 402              	.LVL16:
 403              		.loc 1 110 26 is_stmt 0 view .LVU94
 404 0006 FFF7FEBF 		b	UART_SendChar
 405              	.LVL17:
 406              		.cfi_endproc
 407              	.LFE39:
 409 000a 00BF     		.section	.text.puth,"ax",%progbits
 410              		.align	1
 411              		.p2align 2,,3
 412              		.global	puth
 413              		.syntax unified
 414              		.thumb
 415              		.thumb_func
 416              		.fpu softvfp
 418              	puth:
 419              	.LVL18:
 420              	.LFB40:
 111:../USER/main_01aa.c **** void puth(dt) int dt;{ if(dt<10) putch(0x30+dt); else putch(0x37+dt); }
 421              		.loc 1 111 22 is_stmt 1 view -0
 422              		.cfi_startproc
 423              		@ args = 0, pretend = 0, frame = 0
 424              		@ frame_needed = 0, uses_anonymous_args = 0
 425              		@ link register save eliminated.
 426              		.loc 1 111 24 view .LVU96
 427              		.loc 1 111 26 is_stmt 0 view .LVU97
 428 0000 0928     		cmp	r0, #9
 429 0002 C1B2     		uxtb	r1, r0
 430 0004 05DC     		bgt	.L37
 431              	.LVL19:
 432              	.LBB68:
 433              	.LBI68:
 434              		.loc 1 111 6 is_stmt 1 view .LVU98
 435              	.LBB69:
 436              		.loc 1 111 34 view .LVU99
 437              	.LBB70:
 438              	.LBI70:
 110:../USER/main_01aa.c **** void putchuart(char ch){ UART_SendChar(UART0,ch);}
 439              		.loc 1 110 6 view .LVU100
 440              	.LBB71:
 110:../USER/main_01aa.c **** void putchuart(char ch){ UART_SendChar(UART0,ch);}
 441              		.loc 1 110 26 view .LVU101
 442              	.LBE71:
 443              	.LBE70:
 444              		.loc 1 111 44 is_stmt 0 view .LVU102
 445 0006 3031     		adds	r1, r1, #48
 446              	.LVL20:
 447              	.LBB73:
 448              	.LBB72:
 110:../USER/main_01aa.c **** void putchuart(char ch){ UART_SendChar(UART0,ch);}
 449              		.loc 1 110 26 view .LVU103
 450 0008 49B2     		sxtb	r1, r1
 451              	.LVL21:
 110:../USER/main_01aa.c **** void putchuart(char ch){ UART_SendChar(UART0,ch);}
 452              		.loc 1 110 26 view .LVU104
 453 000a 4FF04020 		mov	r0, #1073758208
 454              	.LVL22:
 110:../USER/main_01aa.c **** void putchuart(char ch){ UART_SendChar(UART0,ch);}
 455              		.loc 1 110 26 view .LVU105
 456 000e FFF7FEBF 		b	UART_SendChar
 457              	.LVL23:
 458              	.L37:
 110:../USER/main_01aa.c **** void putchuart(char ch){ UART_SendChar(UART0,ch);}
 459              		.loc 1 110 26 view .LVU106
 460              	.LBE72:
 461              	.LBE73:
 462              	.LBE69:
 463              	.LBE68:
 464              		.loc 1 111 55 is_stmt 1 discriminator 2 view .LVU107
 465              	.LBB74:
 466              	.LBI74:
 110:../USER/main_01aa.c **** void putchuart(char ch){ UART_SendChar(UART0,ch);}
 467              		.loc 1 110 6 discriminator 2 view .LVU108
 468              	.LBB75:
 110:../USER/main_01aa.c **** void putchuart(char ch){ UART_SendChar(UART0,ch);}
 469              		.loc 1 110 26 discriminator 2 view .LVU109
 470              	.LBE75:
 471              	.LBE74:
 472              		.loc 1 111 65 is_stmt 0 discriminator 2 view .LVU110
 473 0012 3731     		adds	r1, r1, #55
 474              	.LVL24:
 475              	.LBB77:
 476              	.LBB76:
 110:../USER/main_01aa.c **** void putchuart(char ch){ UART_SendChar(UART0,ch);}
 477              		.loc 1 110 26 discriminator 2 view .LVU111
 478 0014 49B2     		sxtb	r1, r1
 479 0016 4FF04020 		mov	r0, #1073758208
 480              	.LVL25:
 110:../USER/main_01aa.c **** void putchuart(char ch){ UART_SendChar(UART0,ch);}
 481              		.loc 1 110 26 discriminator 2 view .LVU112
 482 001a FFF7FEBF 		b	UART_SendChar
 483              	.LVL26:
 484              	.LBE76:
 485              	.LBE77:
 486              		.cfi_endproc
 487              	.LFE40:
 489 001e 00BF     		.section	.text.puth2,"ax",%progbits
 490              		.align	1
 491              		.p2align 2,,3
 492              		.global	puth2
 493              		.syntax unified
 494              		.thumb
 495              		.thumb_func
 496              		.fpu softvfp
 498              	puth2:
 499              	.LVL27:
 500              	.LFB41:
 112:../USER/main_01aa.c **** void puth2(dt) int dt;{ puth((dt >> 4) & 0xf); puth(dt & 0xf); }
 501              		.loc 1 112 23 is_stmt 1 view -0
 502              		.cfi_startproc
 503              		@ args = 0, pretend = 0, frame = 0
 504              		@ frame_needed = 0, uses_anonymous_args = 0
 505              		.loc 1 112 25 view .LVU114
 506              		.loc 1 112 23 is_stmt 0 view .LVU115
 507 0000 10B5     		push	{r4, lr}
 508              		.cfi_def_cfa_offset 8
 509              		.cfi_offset 4, -8
 510              		.cfi_offset 14, -4
 511              		.loc 1 112 23 view .LVU116
 512 0002 0446     		mov	r4, r0
 513              		.loc 1 112 25 view .LVU117
 514 0004 C0F30313 		ubfx	r3, r0, #4, #4
 515              	.LVL28:
 516              	.LBB98:
 517              	.LBI98:
 111:../USER/main_01aa.c **** void puth(dt) int dt;{ if(dt<10) putch(0x30+dt); else putch(0x37+dt); }
 518              		.loc 1 111 6 is_stmt 1 view .LVU118
 519              	.LBB99:
 111:../USER/main_01aa.c **** void puth(dt) int dt;{ if(dt<10) putch(0x30+dt); else putch(0x37+dt); }
 520              		.loc 1 111 24 view .LVU119
 521              	.LBB100:
 522              	.LBI100:
 111:../USER/main_01aa.c **** void puth(dt) int dt;{ if(dt<10) putch(0x30+dt); else putch(0x37+dt); }
 523              		.loc 1 111 6 view .LVU120
 524              	.LBB101:
 111:../USER/main_01aa.c **** void puth(dt) int dt;{ if(dt<10) putch(0x30+dt); else putch(0x37+dt); }
 525              		.loc 1 111 34 view .LVU121
 526 0008 D9B2     		uxtb	r1, r3
 527              	.LVL29:
 528              	.LBB102:
 529              	.LBI102:
 110:../USER/main_01aa.c **** void putchuart(char ch){ UART_SendChar(UART0,ch);}
 530              		.loc 1 110 6 view .LVU122
 531              	.LBB103:
 110:../USER/main_01aa.c **** void putchuart(char ch){ UART_SendChar(UART0,ch);}
 532              		.loc 1 110 26 view .LVU123
 533              	.LBE103:
 534              	.LBE102:
 535              	.LBE101:
 536              	.LBE100:
 111:../USER/main_01aa.c **** void puth(dt) int dt;{ if(dt<10) putch(0x30+dt); else putch(0x37+dt); }
 537              		.loc 1 111 55 view .LVU124
 111:../USER/main_01aa.c **** void puth(dt) int dt;{ if(dt<10) putch(0x30+dt); else putch(0x37+dt); }
 538              		.loc 1 111 26 is_stmt 0 view .LVU125
 539 000a 092B     		cmp	r3, #9
 540              	.LBB107:
 541              	.LBB106:
 542              	.LBB105:
 543              	.LBB104:
 110:../USER/main_01aa.c **** void putchuart(char ch){ UART_SendChar(UART0,ch);}
 544              		.loc 1 110 26 view .LVU126
 545 000c D4BF     		ite	le
 546 000e 3031     		addle	r1, r1, #48
 547              	.LVL30:
 110:../USER/main_01aa.c **** void putchuart(char ch){ UART_SendChar(UART0,ch);}
 548              		.loc 1 110 26 view .LVU127
 549              	.LBE104:
 550              	.LBE105:
 551              	.LBE106:
 552              	.LBE107:
 553              	.LBB108:
 554              	.LBI108:
 110:../USER/main_01aa.c **** void putchuart(char ch){ UART_SendChar(UART0,ch);}
 555              		.loc 1 110 6 is_stmt 1 view .LVU128
 556              	.LBB109:
 110:../USER/main_01aa.c **** void putchuart(char ch){ UART_SendChar(UART0,ch);}
 557              		.loc 1 110 26 view .LVU129
 558 0010 3731     		addgt	r1, r1, #55
 559              	.LVL31:
 110:../USER/main_01aa.c **** void putchuart(char ch){ UART_SendChar(UART0,ch);}
 560              		.loc 1 110 26 is_stmt 0 view .LVU130
 561              	.LBE109:
 562              	.LBE108:
 563              	.LBE99:
 564              	.LBE98:
 565              		.loc 1 112 48 view .LVU131
 566 0012 04F00F04 		and	r4, r4, #15
 567              	.LBB113:
 568              	.LBB112:
 569              	.LBB111:
 570              	.LBB110:
 110:../USER/main_01aa.c **** void putchuart(char ch){ UART_SendChar(UART0,ch);}
 571              		.loc 1 110 26 view .LVU132
 572 0016 4FF04020 		mov	r0, #1073758208
 573              	.LVL32:
 110:../USER/main_01aa.c **** void putchuart(char ch){ UART_SendChar(UART0,ch);}
 574              		.loc 1 110 26 view .LVU133
 575 001a FFF7FEFF 		bl	UART_SendChar
 576              	.LVL33:
 110:../USER/main_01aa.c **** void putchuart(char ch){ UART_SendChar(UART0,ch);}
 577              		.loc 1 110 26 view .LVU134
 578              	.LBE110:
 579              	.LBE111:
 580              	.LBE112:
 581              	.LBE113:
 582              		.loc 1 112 48 is_stmt 1 view .LVU135
 583              	.LBB114:
 584              	.LBI114:
 111:../USER/main_01aa.c **** void puth(dt) int dt;{ if(dt<10) putch(0x30+dt); else putch(0x37+dt); }
 585              		.loc 1 111 6 view .LVU136
 586              	.LBB115:
 111:../USER/main_01aa.c **** void puth(dt) int dt;{ if(dt<10) putch(0x30+dt); else putch(0x37+dt); }
 587              		.loc 1 111 24 view .LVU137
 111:../USER/main_01aa.c **** void puth(dt) int dt;{ if(dt<10) putch(0x30+dt); else putch(0x37+dt); }
 588              		.loc 1 111 26 is_stmt 0 view .LVU138
 589 001e 092C     		cmp	r4, #9
 590 0020 E1B2     		uxtb	r1, r4
 591 0022 06DC     		bgt	.L41
 592              	.LVL34:
 593              	.LBB116:
 594              	.LBI116:
 111:../USER/main_01aa.c **** void puth(dt) int dt;{ if(dt<10) putch(0x30+dt); else putch(0x37+dt); }
 595              		.loc 1 111 6 is_stmt 1 view .LVU139
 596              	.LBB117:
 111:../USER/main_01aa.c **** void puth(dt) int dt;{ if(dt<10) putch(0x30+dt); else putch(0x37+dt); }
 597              		.loc 1 111 34 view .LVU140
 598              	.LBB118:
 599              	.LBI118:
 110:../USER/main_01aa.c **** void putchuart(char ch){ UART_SendChar(UART0,ch);}
 600              		.loc 1 110 6 view .LVU141
 601              	.LBB119:
 110:../USER/main_01aa.c **** void putchuart(char ch){ UART_SendChar(UART0,ch);}
 602              		.loc 1 110 26 view .LVU142
 603              	.LBE119:
 604              	.LBE118:
 605              	.LBE117:
 606              	.LBE116:
 607              	.LBE115:
 608              	.LBE114:
 609              		.loc 1 112 1 is_stmt 0 view .LVU143
 610 0024 BDE81040 		pop	{r4, lr}
 611              		.cfi_remember_state
 612              		.cfi_restore 14
 613              		.cfi_restore 4
 614              		.cfi_def_cfa_offset 0
 615              	.LBB130:
 616              	.LBB128:
 617              	.LBB123:
 618              	.LBB122:
 619              	.LBB121:
 620              	.LBB120:
 110:../USER/main_01aa.c **** void putchuart(char ch){ UART_SendChar(UART0,ch);}
 621              		.loc 1 110 26 view .LVU144
 622 0028 3031     		adds	r1, r1, #48
 623              	.LVL35:
 110:../USER/main_01aa.c **** void putchuart(char ch){ UART_SendChar(UART0,ch);}
 624              		.loc 1 110 26 view .LVU145
 625 002a 4FF04020 		mov	r0, #1073758208
 626 002e FFF7FEBF 		b	UART_SendChar
 627              	.LVL36:
 628              	.L41:
 629              		.cfi_restore_state
 110:../USER/main_01aa.c **** void putchuart(char ch){ UART_SendChar(UART0,ch);}
 630              		.loc 1 110 26 view .LVU146
 631              	.LBE120:
 632              	.LBE121:
 633              	.LBE122:
 634              	.LBE123:
 111:../USER/main_01aa.c **** void puth(dt) int dt;{ if(dt<10) putch(0x30+dt); else putch(0x37+dt); }
 635              		.loc 1 111 55 is_stmt 1 view .LVU147
 636              	.LBB124:
 637              	.LBI124:
 110:../USER/main_01aa.c **** void putchuart(char ch){ UART_SendChar(UART0,ch);}
 638              		.loc 1 110 6 view .LVU148
 639              	.LBB125:
 110:../USER/main_01aa.c **** void putchuart(char ch){ UART_SendChar(UART0,ch);}
 640              		.loc 1 110 26 view .LVU149
 641 0032 3731     		adds	r1, r1, #55
 642              	.LVL37:
 110:../USER/main_01aa.c **** void putchuart(char ch){ UART_SendChar(UART0,ch);}
 643              		.loc 1 110 26 is_stmt 0 view .LVU150
 644 0034 4FF04020 		mov	r0, #1073758208
 645              	.LBE125:
 646              	.LBE124:
 647              	.LBE128:
 648              	.LBE130:
 649              		.loc 1 112 1 view .LVU151
 650 0038 BDE81040 		pop	{r4, lr}
 651              		.cfi_restore 14
 652              		.cfi_restore 4
 653              		.cfi_def_cfa_offset 0
 654              	.LBB131:
 655              	.LBB129:
 656              	.LBB127:
 657              	.LBB126:
 110:../USER/main_01aa.c **** void putchuart(char ch){ UART_SendChar(UART0,ch);}
 658              		.loc 1 110 26 view .LVU152
 659 003c FFF7FEBF 		b	UART_SendChar
 660              	.LVL38:
 661              	.LBE126:
 662              	.LBE127:
 663              	.LBE129:
 664              	.LBE131:
 665              		.cfi_endproc
 666              	.LFE41:
 668              		.section	.text.puth4,"ax",%progbits
 669              		.align	1
 670              		.p2align 2,,3
 671              		.global	puth4
 672              		.syntax unified
 673              		.thumb
 674              		.thumb_func
 675              		.fpu softvfp
 677              	puth4:
 678              	.LVL39:
 679              	.LFB42:
 113:../USER/main_01aa.c **** void puth4(dt) int dt;{ puth2((dt >> 8) & 0xff); puth2(dt & 0xff); }
 680              		.loc 1 113 23 is_stmt 1 view -0
 681              		.cfi_startproc
 682              		@ args = 0, pretend = 0, frame = 0
 683              		@ frame_needed = 0, uses_anonymous_args = 0
 684              		.loc 1 113 25 view .LVU154
 685              		.loc 1 113 23 is_stmt 0 view .LVU155
 686 0000 38B5     		push	{r3, r4, r5, lr}
 687              		.cfi_def_cfa_offset 16
 688              		.cfi_offset 3, -16
 689              		.cfi_offset 4, -12
 690              		.cfi_offset 5, -8
 691              		.cfi_offset 14, -4
 692              		.loc 1 113 23 view .LVU156
 693 0002 0446     		mov	r4, r0
 694              	.LBB176:
 695              	.LBB177:
 112:../USER/main_01aa.c **** void puth2(dt) int dt;{ puth((dt >> 4) & 0xf); puth(dt & 0xf); }
 696              		.loc 1 112 34 view .LVU157
 697 0004 C0F30333 		ubfx	r3, r0, #12, #4
 698 0008 D9B2     		uxtb	r1, r3
 699              	.LBB178:
 700              	.LBB179:
 111:../USER/main_01aa.c **** void puth(dt) int dt;{ if(dt<10) putch(0x30+dt); else putch(0x37+dt); }
 701              		.loc 1 111 26 view .LVU158
 702 000a 092B     		cmp	r3, #9
 703              	.LBB180:
 704              	.LBB181:
 705              	.LBB182:
 706              	.LBB183:
 110:../USER/main_01aa.c **** void puth(dt) int dt;{ if(dt<10) putch(0x30+dt); else putch(0x37+dt); }
 707              		.loc 1 110 26 view .LVU159
 708 000c D4BF     		ite	le
 709 000e 3031     		addle	r1, r1, #48
 710              	.LBE183:
 711              	.LBE182:
 712              	.LBE181:
 713              	.LBE180:
 714              	.LBB187:
 715              	.LBB188:
 716 0010 3731     		addgt	r1, r1, #55
 717              	.LBE188:
 718              	.LBE187:
 719              	.LBE179:
 720              	.LBE178:
 721              	.LBE177:
 722              	.LBE176:
 723              		.loc 1 113 35 view .LVU160
 724 0012 0512     		asrs	r5, r0, #8
 725              	.LVL40:
 726              	.LBB207:
 727              	.LBI176:
 112:../USER/main_01aa.c **** void puth2(dt) int dt;{ puth((dt >> 4) & 0xf); puth(dt & 0xf); }
 728              		.loc 1 112 6 is_stmt 1 view .LVU161
 729              	.LBB206:
 112:../USER/main_01aa.c **** void puth2(dt) int dt;{ puth((dt >> 4) & 0xf); puth(dt & 0xf); }
 730              		.loc 1 112 25 view .LVU162
 731              	.LBB193:
 732              	.LBI178:
 111:../USER/main_01aa.c **** void puth2(dt) int dt;{ puth((dt >> 4) & 0xf); puth(dt & 0xf); }
 733              		.loc 1 111 6 view .LVU163
 734              	.LBB192:
 111:../USER/main_01aa.c **** void puth2(dt) int dt;{ puth((dt >> 4) & 0xf); puth(dt & 0xf); }
 735              		.loc 1 111 24 view .LVU164
 736              	.LBB190:
 737              	.LBI180:
 111:../USER/main_01aa.c **** void puth2(dt) int dt;{ puth((dt >> 4) & 0xf); puth(dt & 0xf); }
 738              		.loc 1 111 6 view .LVU165
 739              	.LBB186:
 111:../USER/main_01aa.c **** void puth2(dt) int dt;{ puth((dt >> 4) & 0xf); puth(dt & 0xf); }
 740              		.loc 1 111 34 view .LVU166
 741              	.LBB185:
 742              	.LBI182:
 110:../USER/main_01aa.c **** void puth(dt) int dt;{ if(dt<10) putch(0x30+dt); else putch(0x37+dt); }
 743              		.loc 1 110 6 view .LVU167
 744              	.LBB184:
 110:../USER/main_01aa.c **** void puth(dt) int dt;{ if(dt<10) putch(0x30+dt); else putch(0x37+dt); }
 745              		.loc 1 110 26 view .LVU168
 746              	.LBE184:
 747              	.LBE185:
 748              	.LBE186:
 749              	.LBE190:
 111:../USER/main_01aa.c **** void puth2(dt) int dt;{ puth((dt >> 4) & 0xf); puth(dt & 0xf); }
 750              		.loc 1 111 55 view .LVU169
 751              	.LBB191:
 752              	.LBI187:
 110:../USER/main_01aa.c **** void puth(dt) int dt;{ if(dt<10) putch(0x30+dt); else putch(0x37+dt); }
 753              		.loc 1 110 6 view .LVU170
 754              	.LBB189:
 110:../USER/main_01aa.c **** void puth(dt) int dt;{ if(dt<10) putch(0x30+dt); else putch(0x37+dt); }
 755              		.loc 1 110 26 view .LVU171
 756 0014 4FF04020 		mov	r0, #1073758208
 757              	.LVL41:
 110:../USER/main_01aa.c **** void puth(dt) int dt;{ if(dt<10) putch(0x30+dt); else putch(0x37+dt); }
 758              		.loc 1 110 26 is_stmt 0 view .LVU172
 759 0018 FFF7FEFF 		bl	UART_SendChar
 760              	.LVL42:
 110:../USER/main_01aa.c **** void puth(dt) int dt;{ if(dt<10) putch(0x30+dt); else putch(0x37+dt); }
 761              		.loc 1 110 26 view .LVU173
 762              	.LBE189:
 763              	.LBE191:
 764              	.LBE192:
 765              	.LBE193:
 112:../USER/main_01aa.c **** void puth4(dt) int dt;{ puth2((dt >> 8) & 0xff); puth2(dt & 0xff); }
 766              		.loc 1 112 48 is_stmt 1 view .LVU174
 767 001c 05F00F03 		and	r3, r5, #15
 768              	.LVL43:
 769              	.LBB194:
 770              	.LBI194:
 111:../USER/main_01aa.c **** void puth2(dt) int dt;{ puth((dt >> 4) & 0xf); puth(dt & 0xf); }
 771              		.loc 1 111 6 view .LVU175
 772              	.LBB195:
 111:../USER/main_01aa.c **** void puth2(dt) int dt;{ puth((dt >> 4) & 0xf); puth(dt & 0xf); }
 773              		.loc 1 111 24 view .LVU176
 774              	.LBB196:
 775              	.LBI196:
 111:../USER/main_01aa.c **** void puth2(dt) int dt;{ puth((dt >> 4) & 0xf); puth(dt & 0xf); }
 776              		.loc 1 111 6 view .LVU177
 777              	.LBB197:
 111:../USER/main_01aa.c **** void puth2(dt) int dt;{ puth((dt >> 4) & 0xf); puth(dt & 0xf); }
 778              		.loc 1 111 34 view .LVU178
 779 0020 D9B2     		uxtb	r1, r3
 780              	.LVL44:
 781              	.LBB198:
 782              	.LBI198:
 110:../USER/main_01aa.c **** void puth(dt) int dt;{ if(dt<10) putch(0x30+dt); else putch(0x37+dt); }
 783              		.loc 1 110 6 view .LVU179
 784              	.LBB199:
 110:../USER/main_01aa.c **** void puth(dt) int dt;{ if(dt<10) putch(0x30+dt); else putch(0x37+dt); }
 785              		.loc 1 110 26 view .LVU180
 786              	.LBE199:
 787              	.LBE198:
 788              	.LBE197:
 789              	.LBE196:
 111:../USER/main_01aa.c **** void puth2(dt) int dt;{ puth((dt >> 4) & 0xf); puth(dt & 0xf); }
 790              		.loc 1 111 55 view .LVU181
 111:../USER/main_01aa.c **** void puth2(dt) int dt;{ puth((dt >> 4) & 0xf); puth(dt & 0xf); }
 791              		.loc 1 111 26 is_stmt 0 view .LVU182
 792 0022 092B     		cmp	r3, #9
 793              	.LBB203:
 794              	.LBB202:
 795              	.LBB201:
 796              	.LBB200:
 110:../USER/main_01aa.c **** void puth(dt) int dt;{ if(dt<10) putch(0x30+dt); else putch(0x37+dt); }
 797              		.loc 1 110 26 view .LVU183
 798 0024 D4BF     		ite	le
 799 0026 3031     		addle	r1, r1, #48
 800              	.LVL45:
 110:../USER/main_01aa.c **** void puth(dt) int dt;{ if(dt<10) putch(0x30+dt); else putch(0x37+dt); }
 801              		.loc 1 110 26 view .LVU184
 802              	.LBE200:
 803              	.LBE201:
 804              	.LBE202:
 805              	.LBE203:
 806              	.LBB204:
 807              	.LBI204:
 110:../USER/main_01aa.c **** void puth(dt) int dt;{ if(dt<10) putch(0x30+dt); else putch(0x37+dt); }
 808              		.loc 1 110 6 is_stmt 1 view .LVU185
 809              	.LBB205:
 110:../USER/main_01aa.c **** void puth(dt) int dt;{ if(dt<10) putch(0x30+dt); else putch(0x37+dt); }
 810              		.loc 1 110 26 view .LVU186
 811 0028 3731     		addgt	r1, r1, #55
 812              	.LVL46:
 110:../USER/main_01aa.c **** void puth(dt) int dt;{ if(dt<10) putch(0x30+dt); else putch(0x37+dt); }
 813              		.loc 1 110 26 is_stmt 0 view .LVU187
 814 002a 4FF04020 		mov	r0, #1073758208
 815 002e FFF7FEFF 		bl	UART_SendChar
 816              	.LVL47:
 110:../USER/main_01aa.c **** void puth(dt) int dt;{ if(dt<10) putch(0x30+dt); else putch(0x37+dt); }
 817              		.loc 1 110 26 view .LVU188
 818              	.LBE205:
 819              	.LBE204:
 820              	.LBE195:
 821              	.LBE194:
 822              	.LBE206:
 823              	.LBE207:
 824              		.loc 1 113 50 is_stmt 1 view .LVU189
 825              	.LBB208:
 826              	.LBI208:
 112:../USER/main_01aa.c **** void puth4(dt) int dt;{ puth2((dt >> 8) & 0xff); puth2(dt & 0xff); }
 827              		.loc 1 112 6 view .LVU190
 828              	.LBB209:
 112:../USER/main_01aa.c **** void puth4(dt) int dt;{ puth2((dt >> 8) & 0xff); puth2(dt & 0xff); }
 829              		.loc 1 112 25 view .LVU191
 112:../USER/main_01aa.c **** void puth4(dt) int dt;{ puth2((dt >> 8) & 0xff); puth2(dt & 0xff); }
 830              		.loc 1 112 34 is_stmt 0 view .LVU192
 831 0032 C4F30313 		ubfx	r3, r4, #4, #4
 832              	.LVL48:
 833              	.LBB210:
 834              	.LBI210:
 111:../USER/main_01aa.c **** void puth2(dt) int dt;{ puth((dt >> 4) & 0xf); puth(dt & 0xf); }
 835              		.loc 1 111 6 is_stmt 1 view .LVU193
 836              	.LBB211:
 111:../USER/main_01aa.c **** void puth2(dt) int dt;{ puth((dt >> 4) & 0xf); puth(dt & 0xf); }
 837              		.loc 1 111 24 view .LVU194
 838              	.LBB212:
 839              	.LBI212:
 111:../USER/main_01aa.c **** void puth2(dt) int dt;{ puth((dt >> 4) & 0xf); puth(dt & 0xf); }
 840              		.loc 1 111 6 view .LVU195
 841              	.LBB213:
 111:../USER/main_01aa.c **** void puth2(dt) int dt;{ puth((dt >> 4) & 0xf); puth(dt & 0xf); }
 842              		.loc 1 111 34 view .LVU196
 843 0036 D9B2     		uxtb	r1, r3
 844              	.LVL49:
 845              	.LBB214:
 846              	.LBI214:
 110:../USER/main_01aa.c **** void puth(dt) int dt;{ if(dt<10) putch(0x30+dt); else putch(0x37+dt); }
 847              		.loc 1 110 6 view .LVU197
 848              	.LBB215:
 110:../USER/main_01aa.c **** void puth(dt) int dt;{ if(dt<10) putch(0x30+dt); else putch(0x37+dt); }
 849              		.loc 1 110 26 view .LVU198
 850              	.LBE215:
 851              	.LBE214:
 852              	.LBE213:
 853              	.LBE212:
 111:../USER/main_01aa.c **** void puth2(dt) int dt;{ puth((dt >> 4) & 0xf); puth(dt & 0xf); }
 854              		.loc 1 111 55 view .LVU199
 111:../USER/main_01aa.c **** void puth2(dt) int dt;{ puth((dt >> 4) & 0xf); puth(dt & 0xf); }
 855              		.loc 1 111 26 is_stmt 0 view .LVU200
 856 0038 092B     		cmp	r3, #9
 857              	.LBB219:
 858              	.LBB218:
 859              	.LBB217:
 860              	.LBB216:
 110:../USER/main_01aa.c **** void puth(dt) int dt;{ if(dt<10) putch(0x30+dt); else putch(0x37+dt); }
 861              		.loc 1 110 26 view .LVU201
 862 003a D4BF     		ite	le
 863 003c 3031     		addle	r1, r1, #48
 864              	.LVL50:
 110:../USER/main_01aa.c **** void puth(dt) int dt;{ if(dt<10) putch(0x30+dt); else putch(0x37+dt); }
 865              		.loc 1 110 26 view .LVU202
 866              	.LBE216:
 867              	.LBE217:
 868              	.LBE218:
 869              	.LBE219:
 870              	.LBB220:
 871              	.LBI220:
 110:../USER/main_01aa.c **** void puth(dt) int dt;{ if(dt<10) putch(0x30+dt); else putch(0x37+dt); }
 872              		.loc 1 110 6 is_stmt 1 view .LVU203
 873              	.LBB221:
 110:../USER/main_01aa.c **** void puth(dt) int dt;{ if(dt<10) putch(0x30+dt); else putch(0x37+dt); }
 874              		.loc 1 110 26 view .LVU204
 875 003e 3731     		addgt	r1, r1, #55
 876              	.LVL51:
 110:../USER/main_01aa.c **** void puth(dt) int dt;{ if(dt<10) putch(0x30+dt); else putch(0x37+dt); }
 877              		.loc 1 110 26 is_stmt 0 view .LVU205
 878              	.LBE221:
 879              	.LBE220:
 880              	.LBE211:
 881              	.LBE210:
 112:../USER/main_01aa.c **** void puth4(dt) int dt;{ puth2((dt >> 8) & 0xff); puth2(dt & 0xff); }
 882              		.loc 1 112 48 view .LVU206
 883 0040 04F00F04 		and	r4, r4, #15
 884              	.LVL52:
 885              	.LBB225:
 886              	.LBB224:
 887              	.LBB223:
 888              	.LBB222:
 110:../USER/main_01aa.c **** void puth(dt) int dt;{ if(dt<10) putch(0x30+dt); else putch(0x37+dt); }
 889              		.loc 1 110 26 view .LVU207
 890 0044 4FF04020 		mov	r0, #1073758208
 891 0048 FFF7FEFF 		bl	UART_SendChar
 892              	.LVL53:
 110:../USER/main_01aa.c **** void puth(dt) int dt;{ if(dt<10) putch(0x30+dt); else putch(0x37+dt); }
 893              		.loc 1 110 26 view .LVU208
 894              	.LBE222:
 895              	.LBE223:
 896              	.LBE224:
 897              	.LBE225:
 112:../USER/main_01aa.c **** void puth4(dt) int dt;{ puth2((dt >> 8) & 0xff); puth2(dt & 0xff); }
 898              		.loc 1 112 48 is_stmt 1 view .LVU209
 899              	.LBB226:
 900              	.LBI226:
 111:../USER/main_01aa.c **** void puth2(dt) int dt;{ puth((dt >> 4) & 0xf); puth(dt & 0xf); }
 901              		.loc 1 111 6 view .LVU210
 902              	.LBB227:
 111:../USER/main_01aa.c **** void puth2(dt) int dt;{ puth((dt >> 4) & 0xf); puth(dt & 0xf); }
 903              		.loc 1 111 24 view .LVU211
 111:../USER/main_01aa.c **** void puth2(dt) int dt;{ puth((dt >> 4) & 0xf); puth(dt & 0xf); }
 904              		.loc 1 111 26 is_stmt 0 view .LVU212
 905 004c 092C     		cmp	r4, #9
 906 004e E1B2     		uxtb	r1, r4
 907 0050 06DC     		bgt	.L50
 908              	.LVL54:
 909              	.LBB228:
 910              	.LBI228:
 111:../USER/main_01aa.c **** void puth2(dt) int dt;{ puth((dt >> 4) & 0xf); puth(dt & 0xf); }
 911              		.loc 1 111 6 is_stmt 1 view .LVU213
 912              	.LBB229:
 111:../USER/main_01aa.c **** void puth2(dt) int dt;{ puth((dt >> 4) & 0xf); puth(dt & 0xf); }
 913              		.loc 1 111 34 view .LVU214
 914              	.LBB230:
 915              	.LBI230:
 110:../USER/main_01aa.c **** void puth(dt) int dt;{ if(dt<10) putch(0x30+dt); else putch(0x37+dt); }
 916              		.loc 1 110 6 view .LVU215
 917              	.LBB231:
 110:../USER/main_01aa.c **** void puth(dt) int dt;{ if(dt<10) putch(0x30+dt); else putch(0x37+dt); }
 918              		.loc 1 110 26 view .LVU216
 919              	.LBE231:
 920              	.LBE230:
 921              	.LBE229:
 922              	.LBE228:
 923              	.LBE227:
 924              	.LBE226:
 925              	.LBE209:
 926              	.LBE208:
 927              		.loc 1 113 1 is_stmt 0 view .LVU217
 928 0052 BDE83840 		pop	{r3, r4, r5, lr}
 929              		.cfi_remember_state
 930              		.cfi_restore 14
 931              		.cfi_restore 5
 932              		.cfi_restore 4
 933              		.cfi_restore 3
 934              		.cfi_def_cfa_offset 0
 935              	.LVL55:
 936              	.LBB246:
 937              	.LBB244:
 938              	.LBB242:
 939              	.LBB240:
 940              	.LBB235:
 941              	.LBB234:
 942              	.LBB233:
 943              	.LBB232:
 110:../USER/main_01aa.c **** void puth(dt) int dt;{ if(dt<10) putch(0x30+dt); else putch(0x37+dt); }
 944              		.loc 1 110 26 view .LVU218
 945 0056 3031     		adds	r1, r1, #48
 946              	.LVL56:
 110:../USER/main_01aa.c **** void puth(dt) int dt;{ if(dt<10) putch(0x30+dt); else putch(0x37+dt); }
 947              		.loc 1 110 26 view .LVU219
 948 0058 4FF04020 		mov	r0, #1073758208
 949 005c FFF7FEBF 		b	UART_SendChar
 950              	.LVL57:
 951              	.L50:
 952              		.cfi_restore_state
 110:../USER/main_01aa.c **** void puth(dt) int dt;{ if(dt<10) putch(0x30+dt); else putch(0x37+dt); }
 953              		.loc 1 110 26 view .LVU220
 954              	.LBE232:
 955              	.LBE233:
 956              	.LBE234:
 957              	.LBE235:
 111:../USER/main_01aa.c **** void puth2(dt) int dt;{ puth((dt >> 4) & 0xf); puth(dt & 0xf); }
 958              		.loc 1 111 55 is_stmt 1 view .LVU221
 959              	.LBB236:
 960              	.LBI236:
 110:../USER/main_01aa.c **** void puth(dt) int dt;{ if(dt<10) putch(0x30+dt); else putch(0x37+dt); }
 961              		.loc 1 110 6 view .LVU222
 962              	.LBB237:
 110:../USER/main_01aa.c **** void puth(dt) int dt;{ if(dt<10) putch(0x30+dt); else putch(0x37+dt); }
 963              		.loc 1 110 26 view .LVU223
 964 0060 3731     		adds	r1, r1, #55
 965              	.LVL58:
 110:../USER/main_01aa.c **** void puth(dt) int dt;{ if(dt<10) putch(0x30+dt); else putch(0x37+dt); }
 966              		.loc 1 110 26 is_stmt 0 view .LVU224
 967 0062 4FF04020 		mov	r0, #1073758208
 968              	.LBE237:
 969              	.LBE236:
 970              	.LBE240:
 971              	.LBE242:
 972              	.LBE244:
 973              	.LBE246:
 974              		.loc 1 113 1 view .LVU225
 975 0066 BDE83840 		pop	{r3, r4, r5, lr}
 976              		.cfi_restore 14
 977              		.cfi_restore 5
 978              		.cfi_restore 4
 979              		.cfi_restore 3
 980              		.cfi_def_cfa_offset 0
 981              	.LVL59:
 982              	.LBB247:
 983              	.LBB245:
 984              	.LBB243:
 985              	.LBB241:
 986              	.LBB239:
 987              	.LBB238:
 110:../USER/main_01aa.c **** void puth(dt) int dt;{ if(dt<10) putch(0x30+dt); else putch(0x37+dt); }
 988              		.loc 1 110 26 view .LVU226
 989 006a FFF7FEBF 		b	UART_SendChar
 990              	.LVL60:
 991              	.LBE238:
 992              	.LBE239:
 993              	.LBE241:
 994              	.LBE243:
 995              	.LBE245:
 996              	.LBE247:
 997              		.cfi_endproc
 998              	.LFE42:
 1000 006e 00BF     		.section	.text.puth6,"ax",%progbits
 1001              		.align	1
 1002              		.p2align 2,,3
 1003              		.global	puth6
 1004              		.syntax unified
 1005              		.thumb
 1006              		.thumb_func
 1007              		.fpu softvfp
 1009              	puth6:
 1010              	.LVL61:
 1011              	.LFB43:
 114:../USER/main_01aa.c **** void puth6(dt) long dt;{ int dh,dl; dh = dt >> 16; dl = dt & 0xffff; puth2(dh); puth4(dl); }
 1012              		.loc 1 114 24 is_stmt 1 view -0
 1013              		.cfi_startproc
 1014              		@ args = 0, pretend = 0, frame = 0
 1015              		@ frame_needed = 0, uses_anonymous_args = 0
 1016              		.loc 1 114 26 view .LVU228
 1017              		.loc 1 114 37 view .LVU229
 1018              		.loc 1 114 24 is_stmt 0 view .LVU230
 1019 0000 70B5     		push	{r4, r5, r6, lr}
 1020              		.cfi_def_cfa_offset 16
 1021              		.cfi_offset 4, -16
 1022              		.cfi_offset 5, -12
 1023              		.cfi_offset 6, -8
 1024              		.cfi_offset 14, -4
 1025              		.loc 1 114 24 view .LVU231
 1026 0002 0446     		mov	r4, r0
 1027              	.LBB316:
 1028              	.LBB317:
 112:../USER/main_01aa.c **** void puth4(dt) int dt;{ puth2((dt >> 8) & 0xff); puth2(dt & 0xff); }
 1029              		.loc 1 112 25 view .LVU232
 1030 0004 C0F30353 		ubfx	r3, r0, #20, #4
 1031 0008 D9B2     		uxtb	r1, r3
 1032              	.LBB318:
 1033              	.LBB319:
 111:../USER/main_01aa.c **** void puth2(dt) int dt;{ puth((dt >> 4) & 0xf); puth(dt & 0xf); }
 1034              		.loc 1 111 26 view .LVU233
 1035 000a 092B     		cmp	r3, #9
 1036              	.LBE319:
 1037              	.LBE318:
 1038              	.LBE317:
 1039              	.LBE316:
 1040              		.loc 1 114 55 view .LVU234
 1041 000c 85B2     		uxth	r5, r0
 1042              	.LBB350:
 1043              	.LBB348:
 1044              	.LBB334:
 1045              	.LBB332:
 1046              	.LBB320:
 1047              	.LBB321:
 1048              	.LBB322:
 1049              	.LBB323:
 110:../USER/main_01aa.c **** void puth(dt) int dt;{ if(dt<10) putch(0x30+dt); else putch(0x37+dt); }
 1050              		.loc 1 110 26 view .LVU235
 1051 000e D4BF     		ite	le
 1052 0010 3031     		addle	r1, r1, #48
 1053              	.LBE323:
 1054              	.LBE322:
 1055              	.LBE321:
 1056              	.LBE320:
 1057              	.LBB327:
 1058              	.LBB328:
 1059 0012 3731     		addgt	r1, r1, #55
 1060              	.LBE328:
 1061              	.LBE327:
 1062              	.LBE332:
 1063              	.LBE334:
 1064              	.LBE348:
 1065              	.LBE350:
 1066              		.loc 1 114 40 view .LVU236
 1067 0014 0614     		asrs	r6, r0, #16
 1068              	.LVL62:
 1069              		.loc 1 114 52 is_stmt 1 view .LVU237
 1070              		.loc 1 114 70 view .LVU238
 1071              	.LBB351:
 1072              	.LBI316:
 112:../USER/main_01aa.c **** void puth4(dt) int dt;{ puth2((dt >> 8) & 0xff); puth2(dt & 0xff); }
 1073              		.loc 1 112 6 view .LVU239
 1074              	.LBB349:
 112:../USER/main_01aa.c **** void puth4(dt) int dt;{ puth2((dt >> 8) & 0xff); puth2(dt & 0xff); }
 1075              		.loc 1 112 25 view .LVU240
 1076              	.LBB335:
 1077              	.LBI318:
 111:../USER/main_01aa.c **** void puth2(dt) int dt;{ puth((dt >> 4) & 0xf); puth(dt & 0xf); }
 1078              		.loc 1 111 6 view .LVU241
 1079              	.LBB333:
 111:../USER/main_01aa.c **** void puth2(dt) int dt;{ puth((dt >> 4) & 0xf); puth(dt & 0xf); }
 1080              		.loc 1 111 24 view .LVU242
 1081              	.LBB330:
 1082              	.LBI320:
 111:../USER/main_01aa.c **** void puth2(dt) int dt;{ puth((dt >> 4) & 0xf); puth(dt & 0xf); }
 1083              		.loc 1 111 6 view .LVU243
 1084              	.LBB326:
 111:../USER/main_01aa.c **** void puth2(dt) int dt;{ puth((dt >> 4) & 0xf); puth(dt & 0xf); }
 1085              		.loc 1 111 34 view .LVU244
 1086              	.LBB325:
 1087              	.LBI322:
 110:../USER/main_01aa.c **** void puth(dt) int dt;{ if(dt<10) putch(0x30+dt); else putch(0x37+dt); }
 1088              		.loc 1 110 6 view .LVU245
 1089              	.LBB324:
 110:../USER/main_01aa.c **** void puth(dt) int dt;{ if(dt<10) putch(0x30+dt); else putch(0x37+dt); }
 1090              		.loc 1 110 26 view .LVU246
 1091              	.LBE324:
 1092              	.LBE325:
 1093              	.LBE326:
 1094              	.LBE330:
 111:../USER/main_01aa.c **** void puth2(dt) int dt;{ puth((dt >> 4) & 0xf); puth(dt & 0xf); }
 1095              		.loc 1 111 55 view .LVU247
 1096              	.LBB331:
 1097              	.LBI327:
 110:../USER/main_01aa.c **** void puth(dt) int dt;{ if(dt<10) putch(0x30+dt); else putch(0x37+dt); }
 1098              		.loc 1 110 6 view .LVU248
 1099              	.LBB329:
 110:../USER/main_01aa.c **** void puth(dt) int dt;{ if(dt<10) putch(0x30+dt); else putch(0x37+dt); }
 1100              		.loc 1 110 26 view .LVU249
 1101 0016 4FF04020 		mov	r0, #1073758208
 1102              	.LVL63:
 110:../USER/main_01aa.c **** void puth(dt) int dt;{ if(dt<10) putch(0x30+dt); else putch(0x37+dt); }
 1103              		.loc 1 110 26 is_stmt 0 view .LVU250
 1104 001a FFF7FEFF 		bl	UART_SendChar
 1105              	.LVL64:
 110:../USER/main_01aa.c **** void puth(dt) int dt;{ if(dt<10) putch(0x30+dt); else putch(0x37+dt); }
 1106              		.loc 1 110 26 view .LVU251
 1107              	.LBE329:
 1108              	.LBE331:
 1109              	.LBE333:
 1110              	.LBE335:
 112:../USER/main_01aa.c **** void puth4(dt) int dt;{ puth2((dt >> 8) & 0xff); puth2(dt & 0xff); }
 1111              		.loc 1 112 48 is_stmt 1 view .LVU252
 1112 001e 06F00F03 		and	r3, r6, #15
 1113              	.LVL65:
 1114              	.LBB336:
 1115              	.LBI336:
 111:../USER/main_01aa.c **** void puth2(dt) int dt;{ puth((dt >> 4) & 0xf); puth(dt & 0xf); }
 1116              		.loc 1 111 6 view .LVU253
 1117              	.LBB337:
 111:../USER/main_01aa.c **** void puth2(dt) int dt;{ puth((dt >> 4) & 0xf); puth(dt & 0xf); }
 1118              		.loc 1 111 24 view .LVU254
 1119              	.LBB338:
 1120              	.LBI338:
 111:../USER/main_01aa.c **** void puth2(dt) int dt;{ puth((dt >> 4) & 0xf); puth(dt & 0xf); }
 1121              		.loc 1 111 6 view .LVU255
 1122              	.LBB339:
 111:../USER/main_01aa.c **** void puth2(dt) int dt;{ puth((dt >> 4) & 0xf); puth(dt & 0xf); }
 1123              		.loc 1 111 34 view .LVU256
 1124 0022 D9B2     		uxtb	r1, r3
 1125              	.LVL66:
 1126              	.LBB340:
 1127              	.LBI340:
 110:../USER/main_01aa.c **** void puth(dt) int dt;{ if(dt<10) putch(0x30+dt); else putch(0x37+dt); }
 1128              		.loc 1 110 6 view .LVU257
 1129              	.LBB341:
 110:../USER/main_01aa.c **** void puth(dt) int dt;{ if(dt<10) putch(0x30+dt); else putch(0x37+dt); }
 1130              		.loc 1 110 26 view .LVU258
 1131              	.LBE341:
 1132              	.LBE340:
 1133              	.LBE339:
 1134              	.LBE338:
 111:../USER/main_01aa.c **** void puth2(dt) int dt;{ puth((dt >> 4) & 0xf); puth(dt & 0xf); }
 1135              		.loc 1 111 55 view .LVU259
 111:../USER/main_01aa.c **** void puth2(dt) int dt;{ puth((dt >> 4) & 0xf); puth(dt & 0xf); }
 1136              		.loc 1 111 26 is_stmt 0 view .LVU260
 1137 0024 092B     		cmp	r3, #9
 1138              	.LBB345:
 1139              	.LBB344:
 1140              	.LBB343:
 1141              	.LBB342:
 110:../USER/main_01aa.c **** void puth(dt) int dt;{ if(dt<10) putch(0x30+dt); else putch(0x37+dt); }
 1142              		.loc 1 110 26 view .LVU261
 1143 0026 D4BF     		ite	le
 1144 0028 3031     		addle	r1, r1, #48
 1145              	.LVL67:
 110:../USER/main_01aa.c **** void puth(dt) int dt;{ if(dt<10) putch(0x30+dt); else putch(0x37+dt); }
 1146              		.loc 1 110 26 view .LVU262
 1147              	.LBE342:
 1148              	.LBE343:
 1149              	.LBE344:
 1150              	.LBE345:
 1151              	.LBB346:
 1152              	.LBI346:
 110:../USER/main_01aa.c **** void puth(dt) int dt;{ if(dt<10) putch(0x30+dt); else putch(0x37+dt); }
 1153              		.loc 1 110 6 is_stmt 1 view .LVU263
 1154              	.LBB347:
 110:../USER/main_01aa.c **** void puth(dt) int dt;{ if(dt<10) putch(0x30+dt); else putch(0x37+dt); }
 1155              		.loc 1 110 26 view .LVU264
 1156 002a 3731     		addgt	r1, r1, #55
 1157              	.LVL68:
 110:../USER/main_01aa.c **** void puth(dt) int dt;{ if(dt<10) putch(0x30+dt); else putch(0x37+dt); }
 1158              		.loc 1 110 26 is_stmt 0 view .LVU265
 1159 002c 4FF04020 		mov	r0, #1073758208
 1160 0030 FFF7FEFF 		bl	UART_SendChar
 1161              	.LVL69:
 110:../USER/main_01aa.c **** void puth(dt) int dt;{ if(dt<10) putch(0x30+dt); else putch(0x37+dt); }
 1162              		.loc 1 110 26 view .LVU266
 1163              	.LBE347:
 1164              	.LBE346:
 1165              	.LBE337:
 1166              	.LBE336:
 1167              	.LBE349:
 1168              	.LBE351:
 1169              		.loc 1 114 81 is_stmt 1 view .LVU267
 1170              	.LBB352:
 1171              	.LBI352:
 113:../USER/main_01aa.c **** void puth6(dt) long dt;{ int dh,dl; dh = dt >> 16; dl = dt & 0xffff; puth2(dh); puth4(dl); }
 1172              		.loc 1 113 6 view .LVU268
 1173              	.LBB353:
 113:../USER/main_01aa.c **** void puth6(dt) long dt;{ int dh,dl; dh = dt >> 16; dl = dt & 0xffff; puth2(dh); puth4(dl); }
 1174              		.loc 1 113 25 view .LVU269
 1175              	.LBB354:
 1176              	.LBB355:
 112:../USER/main_01aa.c **** void puth4(dt) int dt;{ puth2((dt >> 8) & 0xff); puth2(dt & 0xff); }
 1177              		.loc 1 112 34 is_stmt 0 view .LVU270
 1178 0034 2B13     		asrs	r3, r5, #12
 1179 0036 D9B2     		uxtb	r1, r3
 1180              	.LBB356:
 1181              	.LBB357:
 111:../USER/main_01aa.c **** void puth2(dt) int dt;{ puth((dt >> 4) & 0xf); puth(dt & 0xf); }
 1182              		.loc 1 111 26 view .LVU271
 1183 0038 092B     		cmp	r3, #9
 1184              	.LBE357:
 1185              	.LBE356:
 1186              	.LBE355:
 1187              	.LBE354:
 113:../USER/main_01aa.c **** void puth6(dt) long dt;{ int dh,dl; dh = dt >> 16; dl = dt & 0xffff; puth2(dh); puth4(dl); }
 1188              		.loc 1 113 35 view .LVU272
 1189 003a 4FEA2525 		asr	r5, r5, #8
 1190              	.LVL70:
 1191              	.LBB387:
 1192              	.LBI354:
 112:../USER/main_01aa.c **** void puth4(dt) int dt;{ puth2((dt >> 8) & 0xff); puth2(dt & 0xff); }
 1193              		.loc 1 112 6 is_stmt 1 view .LVU273
 1194              	.LBB386:
 112:../USER/main_01aa.c **** void puth4(dt) int dt;{ puth2((dt >> 8) & 0xff); puth2(dt & 0xff); }
 1195              		.loc 1 112 25 view .LVU274
 1196              	.LBB372:
 1197              	.LBI356:
 111:../USER/main_01aa.c **** void puth2(dt) int dt;{ puth((dt >> 4) & 0xf); puth(dt & 0xf); }
 1198              		.loc 1 111 6 view .LVU275
 1199              	.LBB370:
 111:../USER/main_01aa.c **** void puth2(dt) int dt;{ puth((dt >> 4) & 0xf); puth(dt & 0xf); }
 1200              		.loc 1 111 24 view .LVU276
 1201              	.LBB358:
 1202              	.LBI358:
 111:../USER/main_01aa.c **** void puth2(dt) int dt;{ puth((dt >> 4) & 0xf); puth(dt & 0xf); }
 1203              		.loc 1 111 6 view .LVU277
 1204              	.LBB359:
 111:../USER/main_01aa.c **** void puth2(dt) int dt;{ puth((dt >> 4) & 0xf); puth(dt & 0xf); }
 1205              		.loc 1 111 34 view .LVU278
 1206              	.LBB360:
 1207              	.LBI360:
 110:../USER/main_01aa.c **** void puth(dt) int dt;{ if(dt<10) putch(0x30+dt); else putch(0x37+dt); }
 1208              		.loc 1 110 6 view .LVU279
 1209              	.LBB361:
 110:../USER/main_01aa.c **** void puth(dt) int dt;{ if(dt<10) putch(0x30+dt); else putch(0x37+dt); }
 1210              		.loc 1 110 26 view .LVU280
 1211              	.LBE361:
 1212              	.LBE360:
 1213              	.LBE359:
 1214              	.LBE358:
 111:../USER/main_01aa.c **** void puth2(dt) int dt;{ puth((dt >> 4) & 0xf); puth(dt & 0xf); }
 1215              		.loc 1 111 55 view .LVU281
 1216              	.LBB365:
 1217              	.LBB364:
 1218              	.LBB363:
 1219              	.LBB362:
 110:../USER/main_01aa.c **** void puth(dt) int dt;{ if(dt<10) putch(0x30+dt); else putch(0x37+dt); }
 1220              		.loc 1 110 26 is_stmt 0 view .LVU282
 1221 003e D4BF     		ite	le
 1222 0040 3031     		addle	r1, r1, #48
 1223              	.LVL71:
 110:../USER/main_01aa.c **** void puth(dt) int dt;{ if(dt<10) putch(0x30+dt); else putch(0x37+dt); }
 1224              		.loc 1 110 26 view .LVU283
 1225              	.LBE362:
 1226              	.LBE363:
 1227              	.LBE364:
 1228              	.LBE365:
 1229              	.LBB366:
 1230              	.LBI366:
 110:../USER/main_01aa.c **** void puth(dt) int dt;{ if(dt<10) putch(0x30+dt); else putch(0x37+dt); }
 1231              		.loc 1 110 6 is_stmt 1 view .LVU284
 1232              	.LBB367:
 110:../USER/main_01aa.c **** void puth(dt) int dt;{ if(dt<10) putch(0x30+dt); else putch(0x37+dt); }
 1233              		.loc 1 110 26 view .LVU285
 1234 0042 3731     		addgt	r1, r1, #55
 1235              	.LVL72:
 110:../USER/main_01aa.c **** void puth(dt) int dt;{ if(dt<10) putch(0x30+dt); else putch(0x37+dt); }
 1236              		.loc 1 110 26 is_stmt 0 view .LVU286
 1237 0044 4FF04020 		mov	r0, #1073758208
 1238              	.LBE367:
 1239              	.LBE366:
 1240              	.LBE370:
 1241              	.LBE372:
 112:../USER/main_01aa.c **** void puth4(dt) int dt;{ puth2((dt >> 8) & 0xff); puth2(dt & 0xff); }
 1242              		.loc 1 112 48 view .LVU287
 1243 0048 05F00F05 		and	r5, r5, #15
 1244              	.LVL73:
 1245              	.LBB373:
 1246              	.LBB371:
 1247              	.LBB369:
 1248              	.LBB368:
 110:../USER/main_01aa.c **** void puth(dt) int dt;{ if(dt<10) putch(0x30+dt); else putch(0x37+dt); }
 1249              		.loc 1 110 26 view .LVU288
 1250 004c FFF7FEFF 		bl	UART_SendChar
 1251              	.LVL74:
 110:../USER/main_01aa.c **** void puth(dt) int dt;{ if(dt<10) putch(0x30+dt); else putch(0x37+dt); }
 1252              		.loc 1 110 26 view .LVU289
 1253              	.LBE368:
 1254              	.LBE369:
 1255              	.LBE371:
 1256              	.LBE373:
 112:../USER/main_01aa.c **** void puth4(dt) int dt;{ puth2((dt >> 8) & 0xff); puth2(dt & 0xff); }
 1257              		.loc 1 112 48 is_stmt 1 view .LVU290
 1258              	.LBB374:
 1259              	.LBI374:
 111:../USER/main_01aa.c **** void puth2(dt) int dt;{ puth((dt >> 4) & 0xf); puth(dt & 0xf); }
 1260              		.loc 1 111 6 view .LVU291
 1261              	.LBB375:
 111:../USER/main_01aa.c **** void puth2(dt) int dt;{ puth((dt >> 4) & 0xf); puth(dt & 0xf); }
 1262              		.loc 1 111 24 view .LVU292
 1263              	.LBB376:
 1264              	.LBI376:
 111:../USER/main_01aa.c **** void puth2(dt) int dt;{ puth((dt >> 4) & 0xf); puth(dt & 0xf); }
 1265              		.loc 1 111 6 view .LVU293
 1266              	.LBB377:
 111:../USER/main_01aa.c **** void puth2(dt) int dt;{ puth((dt >> 4) & 0xf); puth(dt & 0xf); }
 1267              		.loc 1 111 34 view .LVU294
 1268 0050 E9B2     		uxtb	r1, r5
 1269              	.LVL75:
 1270              	.LBB378:
 1271              	.LBI378:
 110:../USER/main_01aa.c **** void puth(dt) int dt;{ if(dt<10) putch(0x30+dt); else putch(0x37+dt); }
 1272              		.loc 1 110 6 view .LVU295
 1273              	.LBB379:
 110:../USER/main_01aa.c **** void puth(dt) int dt;{ if(dt<10) putch(0x30+dt); else putch(0x37+dt); }
 1274              		.loc 1 110 26 view .LVU296
 1275              	.LBE379:
 1276              	.LBE378:
 1277              	.LBE377:
 1278              	.LBE376:
 111:../USER/main_01aa.c **** void puth2(dt) int dt;{ puth((dt >> 4) & 0xf); puth(dt & 0xf); }
 1279              		.loc 1 111 55 view .LVU297
 111:../USER/main_01aa.c **** void puth2(dt) int dt;{ puth((dt >> 4) & 0xf); puth(dt & 0xf); }
 1280              		.loc 1 111 26 is_stmt 0 view .LVU298
 1281 0052 092D     		cmp	r5, #9
 1282              	.LBB383:
 1283              	.LBB382:
 1284              	.LBB381:
 1285              	.LBB380:
 110:../USER/main_01aa.c **** void puth(dt) int dt;{ if(dt<10) putch(0x30+dt); else putch(0x37+dt); }
 1286              		.loc 1 110 26 view .LVU299
 1287 0054 D4BF     		ite	le
 1288 0056 3031     		addle	r1, r1, #48
 1289              	.LVL76:
 110:../USER/main_01aa.c **** void puth(dt) int dt;{ if(dt<10) putch(0x30+dt); else putch(0x37+dt); }
 1290              		.loc 1 110 26 view .LVU300
 1291              	.LBE380:
 1292              	.LBE381:
 1293              	.LBE382:
 1294              	.LBE383:
 1295              	.LBB384:
 1296              	.LBI384:
 110:../USER/main_01aa.c **** void puth(dt) int dt;{ if(dt<10) putch(0x30+dt); else putch(0x37+dt); }
 1297              		.loc 1 110 6 is_stmt 1 view .LVU301
 1298              	.LBB385:
 110:../USER/main_01aa.c **** void puth(dt) int dt;{ if(dt<10) putch(0x30+dt); else putch(0x37+dt); }
 1299              		.loc 1 110 26 view .LVU302
 1300 0058 3731     		addgt	r1, r1, #55
 1301              	.LVL77:
 110:../USER/main_01aa.c **** void puth(dt) int dt;{ if(dt<10) putch(0x30+dt); else putch(0x37+dt); }
 1302              		.loc 1 110 26 is_stmt 0 view .LVU303
 1303 005a 4FF04020 		mov	r0, #1073758208
 1304 005e FFF7FEFF 		bl	UART_SendChar
 1305              	.LVL78:
 110:../USER/main_01aa.c **** void puth(dt) int dt;{ if(dt<10) putch(0x30+dt); else putch(0x37+dt); }
 1306              		.loc 1 110 26 view .LVU304
 1307              	.LBE385:
 1308              	.LBE384:
 1309              	.LBE375:
 1310              	.LBE374:
 1311              	.LBE386:
 1312              	.LBE387:
 113:../USER/main_01aa.c **** void puth6(dt) long dt;{ int dh,dl; dh = dt >> 16; dl = dt & 0xffff; puth2(dh); puth4(dl); }
 1313              		.loc 1 113 50 is_stmt 1 view .LVU305
 1314              	.LBB388:
 1315              	.LBI388:
 112:../USER/main_01aa.c **** void puth4(dt) int dt;{ puth2((dt >> 8) & 0xff); puth2(dt & 0xff); }
 1316              		.loc 1 112 6 view .LVU306
 1317              	.LBB389:
 112:../USER/main_01aa.c **** void puth4(dt) int dt;{ puth2((dt >> 8) & 0xff); puth2(dt & 0xff); }
 1318              		.loc 1 112 25 view .LVU307
 112:../USER/main_01aa.c **** void puth4(dt) int dt;{ puth2((dt >> 8) & 0xff); puth2(dt & 0xff); }
 1319              		.loc 1 112 34 is_stmt 0 view .LVU308
 1320 0062 C4F30313 		ubfx	r3, r4, #4, #4
 1321              	.LVL79:
 1322              	.LBB390:
 1323              	.LBI390:
 111:../USER/main_01aa.c **** void puth2(dt) int dt;{ puth((dt >> 4) & 0xf); puth(dt & 0xf); }
 1324              		.loc 1 111 6 is_stmt 1 view .LVU309
 1325              	.LBB391:
 111:../USER/main_01aa.c **** void puth2(dt) int dt;{ puth((dt >> 4) & 0xf); puth(dt & 0xf); }
 1326              		.loc 1 111 24 view .LVU310
 1327              	.LBB392:
 1328              	.LBI392:
 111:../USER/main_01aa.c **** void puth2(dt) int dt;{ puth((dt >> 4) & 0xf); puth(dt & 0xf); }
 1329              		.loc 1 111 6 view .LVU311
 1330              	.LBB393:
 111:../USER/main_01aa.c **** void puth2(dt) int dt;{ puth((dt >> 4) & 0xf); puth(dt & 0xf); }
 1331              		.loc 1 111 34 view .LVU312
 1332 0066 D9B2     		uxtb	r1, r3
 1333              	.LVL80:
 1334              	.LBB394:
 1335              	.LBI394:
 110:../USER/main_01aa.c **** void puth(dt) int dt;{ if(dt<10) putch(0x30+dt); else putch(0x37+dt); }
 1336              		.loc 1 110 6 view .LVU313
 1337              	.LBB395:
 110:../USER/main_01aa.c **** void puth(dt) int dt;{ if(dt<10) putch(0x30+dt); else putch(0x37+dt); }
 1338              		.loc 1 110 26 view .LVU314
 1339              	.LBE395:
 1340              	.LBE394:
 1341              	.LBE393:
 1342              	.LBE392:
 111:../USER/main_01aa.c **** void puth2(dt) int dt;{ puth((dt >> 4) & 0xf); puth(dt & 0xf); }
 1343              		.loc 1 111 55 view .LVU315
 111:../USER/main_01aa.c **** void puth2(dt) int dt;{ puth((dt >> 4) & 0xf); puth(dt & 0xf); }
 1344              		.loc 1 111 26 is_stmt 0 view .LVU316
 1345 0068 092B     		cmp	r3, #9
 1346              	.LBB399:
 1347              	.LBB398:
 1348              	.LBB397:
 1349              	.LBB396:
 110:../USER/main_01aa.c **** void puth(dt) int dt;{ if(dt<10) putch(0x30+dt); else putch(0x37+dt); }
 1350              		.loc 1 110 26 view .LVU317
 1351 006a D4BF     		ite	le
 1352 006c 3031     		addle	r1, r1, #48
 1353              	.LVL81:
 110:../USER/main_01aa.c **** void puth(dt) int dt;{ if(dt<10) putch(0x30+dt); else putch(0x37+dt); }
 1354              		.loc 1 110 26 view .LVU318
 1355              	.LBE396:
 1356              	.LBE397:
 1357              	.LBE398:
 1358              	.LBE399:
 1359              	.LBB400:
 1360              	.LBI400:
 110:../USER/main_01aa.c **** void puth(dt) int dt;{ if(dt<10) putch(0x30+dt); else putch(0x37+dt); }
 1361              		.loc 1 110 6 is_stmt 1 view .LVU319
 1362              	.LBB401:
 110:../USER/main_01aa.c **** void puth(dt) int dt;{ if(dt<10) putch(0x30+dt); else putch(0x37+dt); }
 1363              		.loc 1 110 26 view .LVU320
 1364 006e 3731     		addgt	r1, r1, #55
 1365              	.LVL82:
 110:../USER/main_01aa.c **** void puth(dt) int dt;{ if(dt<10) putch(0x30+dt); else putch(0x37+dt); }
 1366              		.loc 1 110 26 is_stmt 0 view .LVU321
 1367              	.LBE401:
 1368              	.LBE400:
 1369              	.LBE391:
 1370              	.LBE390:
 112:../USER/main_01aa.c **** void puth4(dt) int dt;{ puth2((dt >> 8) & 0xff); puth2(dt & 0xff); }
 1371              		.loc 1 112 48 view .LVU322
 1372 0070 04F00F04 		and	r4, r4, #15
 1373              	.LVL83:
 1374              	.LBB405:
 1375              	.LBB404:
 1376              	.LBB403:
 1377              	.LBB402:
 110:../USER/main_01aa.c **** void puth(dt) int dt;{ if(dt<10) putch(0x30+dt); else putch(0x37+dt); }
 1378              		.loc 1 110 26 view .LVU323
 1379 0074 4FF04020 		mov	r0, #1073758208
 1380 0078 FFF7FEFF 		bl	UART_SendChar
 1381              	.LVL84:
 110:../USER/main_01aa.c **** void puth(dt) int dt;{ if(dt<10) putch(0x30+dt); else putch(0x37+dt); }
 1382              		.loc 1 110 26 view .LVU324
 1383              	.LBE402:
 1384              	.LBE403:
 1385              	.LBE404:
 1386              	.LBE405:
 112:../USER/main_01aa.c **** void puth4(dt) int dt;{ puth2((dt >> 8) & 0xff); puth2(dt & 0xff); }
 1387              		.loc 1 112 48 is_stmt 1 view .LVU325
 1388              	.LBB406:
 1389              	.LBI406:
 111:../USER/main_01aa.c **** void puth2(dt) int dt;{ puth((dt >> 4) & 0xf); puth(dt & 0xf); }
 1390              		.loc 1 111 6 view .LVU326
 1391              	.LBB407:
 111:../USER/main_01aa.c **** void puth2(dt) int dt;{ puth((dt >> 4) & 0xf); puth(dt & 0xf); }
 1392              		.loc 1 111 24 view .LVU327
 111:../USER/main_01aa.c **** void puth2(dt) int dt;{ puth((dt >> 4) & 0xf); puth(dt & 0xf); }
 1393              		.loc 1 111 26 is_stmt 0 view .LVU328
 1394 007c 092C     		cmp	r4, #9
 1395 007e E1B2     		uxtb	r1, r4
 1396 0080 06DC     		bgt	.L63
 1397              	.LVL85:
 1398              	.LBB408:
 1399              	.LBI408:
 111:../USER/main_01aa.c **** void puth2(dt) int dt;{ puth((dt >> 4) & 0xf); puth(dt & 0xf); }
 1400              		.loc 1 111 6 is_stmt 1 view .LVU329
 1401              	.LBB409:
 111:../USER/main_01aa.c **** void puth2(dt) int dt;{ puth((dt >> 4) & 0xf); puth(dt & 0xf); }
 1402              		.loc 1 111 34 view .LVU330
 1403              	.LBB410:
 1404              	.LBI410:
 110:../USER/main_01aa.c **** void puth(dt) int dt;{ if(dt<10) putch(0x30+dt); else putch(0x37+dt); }
 1405              		.loc 1 110 6 view .LVU331
 1406              	.LBB411:
 110:../USER/main_01aa.c **** void puth(dt) int dt;{ if(dt<10) putch(0x30+dt); else putch(0x37+dt); }
 1407              		.loc 1 110 26 view .LVU332
 1408              	.LBE411:
 1409              	.LBE410:
 1410              	.LBE409:
 1411              	.LBE408:
 1412              	.LBE407:
 1413              	.LBE406:
 1414              	.LBE389:
 1415              	.LBE388:
 1416              	.LBE353:
 1417              	.LBE352:
 1418              		.loc 1 114 1 is_stmt 0 view .LVU333
 1419 0082 BDE87040 		pop	{r4, r5, r6, lr}
 1420              		.cfi_remember_state
 1421              		.cfi_restore 14
 1422              		.cfi_restore 6
 1423              		.cfi_restore 5
 1424              		.cfi_restore 4
 1425              		.cfi_def_cfa_offset 0
 1426              	.LVL86:
 1427              	.LBB430:
 1428              	.LBB428:
 1429              	.LBB426:
 1430              	.LBB424:
 1431              	.LBB422:
 1432              	.LBB420:
 1433              	.LBB415:
 1434              	.LBB414:
 1435              	.LBB413:
 1436              	.LBB412:
 110:../USER/main_01aa.c **** void puth(dt) int dt;{ if(dt<10) putch(0x30+dt); else putch(0x37+dt); }
 1437              		.loc 1 110 26 view .LVU334
 1438 0086 3031     		adds	r1, r1, #48
 1439              	.LVL87:
 110:../USER/main_01aa.c **** void puth(dt) int dt;{ if(dt<10) putch(0x30+dt); else putch(0x37+dt); }
 1440              		.loc 1 110 26 view .LVU335
 1441 0088 4FF04020 		mov	r0, #1073758208
 1442 008c FFF7FEBF 		b	UART_SendChar
 1443              	.LVL88:
 1444              	.L63:
 1445              		.cfi_restore_state
 110:../USER/main_01aa.c **** void puth(dt) int dt;{ if(dt<10) putch(0x30+dt); else putch(0x37+dt); }
 1446              		.loc 1 110 26 view .LVU336
 1447              	.LBE412:
 1448              	.LBE413:
 1449              	.LBE414:
 1450              	.LBE415:
 111:../USER/main_01aa.c **** void puth2(dt) int dt;{ puth((dt >> 4) & 0xf); puth(dt & 0xf); }
 1451              		.loc 1 111 55 is_stmt 1 view .LVU337
 1452              	.LBB416:
 1453              	.LBI416:
 110:../USER/main_01aa.c **** void puth(dt) int dt;{ if(dt<10) putch(0x30+dt); else putch(0x37+dt); }
 1454              		.loc 1 110 6 view .LVU338
 1455              	.LBB417:
 110:../USER/main_01aa.c **** void puth(dt) int dt;{ if(dt<10) putch(0x30+dt); else putch(0x37+dt); }
 1456              		.loc 1 110 26 view .LVU339
 1457 0090 3731     		adds	r1, r1, #55
 1458              	.LVL89:
 110:../USER/main_01aa.c **** void puth(dt) int dt;{ if(dt<10) putch(0x30+dt); else putch(0x37+dt); }
 1459              		.loc 1 110 26 is_stmt 0 view .LVU340
 1460 0092 4FF04020 		mov	r0, #1073758208
 1461              	.LBE417:
 1462              	.LBE416:
 1463              	.LBE420:
 1464              	.LBE422:
 1465              	.LBE424:
 1466              	.LBE426:
 1467              	.LBE428:
 1468              	.LBE430:
 1469              		.loc 1 114 1 view .LVU341
 1470 0096 BDE87040 		pop	{r4, r5, r6, lr}
 1471              		.cfi_restore 14
 1472              		.cfi_restore 6
 1473              		.cfi_restore 5
 1474              		.cfi_restore 4
 1475              		.cfi_def_cfa_offset 0
 1476              	.LVL90:
 1477              	.LBB431:
 1478              	.LBB429:
 1479              	.LBB427:
 1480              	.LBB425:
 1481              	.LBB423:
 1482              	.LBB421:
 1483              	.LBB419:
 1484              	.LBB418:
 110:../USER/main_01aa.c **** void puth(dt) int dt;{ if(dt<10) putch(0x30+dt); else putch(0x37+dt); }
 1485              		.loc 1 110 26 view .LVU342
 1486 009a FFF7FEBF 		b	UART_SendChar
 1487              	.LVL91:
 1488              	.LBE418:
 1489              	.LBE419:
 1490              	.LBE421:
 1491              	.LBE423:
 1492              	.LBE425:
 1493              	.LBE427:
 1494              	.LBE429:
 1495              	.LBE431:
 1496              		.cfi_endproc
 1497              	.LFE43:
 1499 009e 00BF     		.section	.text.puth8,"ax",%progbits
 1500              		.align	1
 1501              		.p2align 2,,3
 1502              		.global	puth8
 1503              		.syntax unified
 1504              		.thumb
 1505              		.thumb_func
 1506              		.fpu softvfp
 1508              	puth8:
 1509              	.LVL92:
 1510              	.LFB44:
 115:../USER/main_01aa.c **** void puth8(dt) long dt;{ int dh,dl; dh = dt >> 16; dl = dt & 0xffff; puth4(dh); puth4(dl); }
 1511              		.loc 1 115 24 is_stmt 1 view -0
 1512              		.cfi_startproc
 1513              		@ args = 0, pretend = 0, frame = 0
 1514              		@ frame_needed = 0, uses_anonymous_args = 0
 1515              		.loc 1 115 26 view .LVU344
 1516              		.loc 1 115 37 view .LVU345
 1517              		.loc 1 115 24 is_stmt 0 view .LVU346
 1518 0000 F8B5     		push	{r3, r4, r5, r6, r7, lr}
 1519              		.cfi_def_cfa_offset 24
 1520              		.cfi_offset 3, -24
 1521              		.cfi_offset 4, -20
 1522              		.cfi_offset 5, -16
 1523              		.cfi_offset 6, -12
 1524              		.cfi_offset 7, -8
 1525              		.cfi_offset 14, -4
 1526              		.loc 1 115 24 view .LVU347
 1527 0002 0446     		mov	r4, r0
 1528 0004 060E     		lsrs	r6, r0, #24
 1529              	.LBB524:
 1530              	.LBB525:
 1531              	.LBB526:
 112:../USER/main_01aa.c **** void puth4(dt) int dt;{ puth2((dt >> 8) & 0xff); puth2(dt & 0xff); }
 1532              		.loc 1 112 34 view .LVU348
 1533 0006 3311     		asrs	r3, r6, #4
 1534 0008 D9B2     		uxtb	r1, r3
 1535              	.LBB527:
 1536              	.LBB528:
 111:../USER/main_01aa.c **** void puth2(dt) int dt;{ puth((dt >> 4) & 0xf); puth(dt & 0xf); }
 1537              		.loc 1 111 26 view .LVU349
 1538 000a 092B     		cmp	r3, #9
 1539              	.LBE528:
 1540              	.LBE527:
 1541              	.LBE526:
 1542              	.LBE525:
 1543              	.LBE524:
 1544              		.loc 1 115 55 view .LVU350
 1545 000c 85B2     		uxth	r5, r0
 1546              	.LBB591:
 1547              	.LBB563:
 1548              	.LBB561:
 1549              	.LBB546:
 1550              	.LBB543:
 1551              	.LBB529:
 1552              	.LBB530:
 1553              	.LBB531:
 1554              	.LBB532:
 110:../USER/main_01aa.c **** void puth(dt) int dt;{ if(dt<10) putch(0x30+dt); else putch(0x37+dt); }
 1555              		.loc 1 110 26 view .LVU351
 1556 000e D4BF     		ite	le
 1557 0010 3031     		addle	r1, r1, #48
 1558              	.LBE532:
 1559              	.LBE531:
 1560              	.LBE530:
 1561              	.LBE529:
 1562              	.LBB536:
 1563              	.LBB537:
 1564 0012 3731     		addgt	r1, r1, #55
 1565              	.LBE537:
 1566              	.LBE536:
 1567              	.LBE543:
 1568              	.LBE546:
 1569              	.LBE561:
 1570              	.LBE563:
 1571              	.LBE591:
 1572              		.loc 1 115 40 view .LVU352
 1573 0014 0714     		asrs	r7, r0, #16
 1574              	.LVL93:
 1575              		.loc 1 115 52 is_stmt 1 view .LVU353
 1576              		.loc 1 115 70 view .LVU354
 1577              	.LBB592:
 1578              	.LBI524:
 113:../USER/main_01aa.c **** void puth6(dt) long dt;{ int dh,dl; dh = dt >> 16; dl = dt & 0xffff; puth2(dh); puth4(dl); }
 1579              		.loc 1 113 6 view .LVU355
 1580              	.LBE592:
 113:../USER/main_01aa.c **** void puth6(dt) long dt;{ int dh,dl; dh = dt >> 16; dl = dt & 0xffff; puth2(dh); puth4(dl); }
 1581              		.loc 1 113 25 view .LVU356
 1582              	.LBB593:
 1583              	.LBB564:
 1584              	.LBI525:
 112:../USER/main_01aa.c **** void puth4(dt) int dt;{ puth2((dt >> 8) & 0xff); puth2(dt & 0xff); }
 1585              		.loc 1 112 6 view .LVU357
 1586              	.LBB562:
 112:../USER/main_01aa.c **** void puth4(dt) int dt;{ puth2((dt >> 8) & 0xff); puth2(dt & 0xff); }
 1587              		.loc 1 112 25 view .LVU358
 1588              	.LBB547:
 1589              	.LBI527:
 111:../USER/main_01aa.c **** void puth2(dt) int dt;{ puth((dt >> 4) & 0xf); puth(dt & 0xf); }
 1590              		.loc 1 111 6 view .LVU359
 1591              	.LBB544:
 111:../USER/main_01aa.c **** void puth2(dt) int dt;{ puth((dt >> 4) & 0xf); puth(dt & 0xf); }
 1592              		.loc 1 111 24 view .LVU360
 1593              	.LBB540:
 1594              	.LBI529:
 111:../USER/main_01aa.c **** void puth2(dt) int dt;{ puth((dt >> 4) & 0xf); puth(dt & 0xf); }
 1595              		.loc 1 111 6 view .LVU361
 1596              	.LBB535:
 111:../USER/main_01aa.c **** void puth2(dt) int dt;{ puth((dt >> 4) & 0xf); puth(dt & 0xf); }
 1597              		.loc 1 111 34 view .LVU362
 1598              	.LBB534:
 1599              	.LBI531:
 110:../USER/main_01aa.c **** void puth(dt) int dt;{ if(dt<10) putch(0x30+dt); else putch(0x37+dt); }
 1600              		.loc 1 110 6 view .LVU363
 1601              	.LBB533:
 110:../USER/main_01aa.c **** void puth(dt) int dt;{ if(dt<10) putch(0x30+dt); else putch(0x37+dt); }
 1602              		.loc 1 110 26 view .LVU364
 1603              	.LBE533:
 1604              	.LBE534:
 1605              	.LBE535:
 1606              	.LBE540:
 111:../USER/main_01aa.c **** void puth2(dt) int dt;{ puth((dt >> 4) & 0xf); puth(dt & 0xf); }
 1607              		.loc 1 111 55 view .LVU365
 1608              	.LBB541:
 1609              	.LBI536:
 110:../USER/main_01aa.c **** void puth(dt) int dt;{ if(dt<10) putch(0x30+dt); else putch(0x37+dt); }
 1610              		.loc 1 110 6 view .LVU366
 1611              	.LBB538:
 110:../USER/main_01aa.c **** void puth(dt) int dt;{ if(dt<10) putch(0x30+dt); else putch(0x37+dt); }
 1612              		.loc 1 110 26 view .LVU367
 1613              	.LBE538:
 1614              	.LBE541:
 1615              	.LBE544:
 1616              	.LBE547:
 112:../USER/main_01aa.c **** void puth4(dt) int dt;{ puth2((dt >> 8) & 0xff); puth2(dt & 0xff); }
 1617              		.loc 1 112 48 is_stmt 0 view .LVU368
 1618 0016 06F00F06 		and	r6, r6, #15
 1619              	.LVL94:
 1620              	.LBB548:
 1621              	.LBB545:
 1622              	.LBB542:
 1623              	.LBB539:
 110:../USER/main_01aa.c **** void puth(dt) int dt;{ if(dt<10) putch(0x30+dt); else putch(0x37+dt); }
 1624              		.loc 1 110 26 view .LVU369
 1625 001a 4FF04020 		mov	r0, #1073758208
 1626              	.LVL95:
 110:../USER/main_01aa.c **** void puth(dt) int dt;{ if(dt<10) putch(0x30+dt); else putch(0x37+dt); }
 1627              		.loc 1 110 26 view .LVU370
 1628 001e FFF7FEFF 		bl	UART_SendChar
 1629              	.LVL96:
 110:../USER/main_01aa.c **** void puth(dt) int dt;{ if(dt<10) putch(0x30+dt); else putch(0x37+dt); }
 1630              		.loc 1 110 26 view .LVU371
 1631              	.LBE539:
 1632              	.LBE542:
 1633              	.LBE545:
 1634              	.LBE548:
 112:../USER/main_01aa.c **** void puth4(dt) int dt;{ puth2((dt >> 8) & 0xff); puth2(dt & 0xff); }
 1635              		.loc 1 112 48 is_stmt 1 view .LVU372
 1636              	.LBB549:
 1637              	.LBI549:
 111:../USER/main_01aa.c **** void puth2(dt) int dt;{ puth((dt >> 4) & 0xf); puth(dt & 0xf); }
 1638              		.loc 1 111 6 view .LVU373
 1639              	.LBB550:
 111:../USER/main_01aa.c **** void puth2(dt) int dt;{ puth((dt >> 4) & 0xf); puth(dt & 0xf); }
 1640              		.loc 1 111 24 view .LVU374
 1641              	.LBB551:
 1642              	.LBI551:
 111:../USER/main_01aa.c **** void puth2(dt) int dt;{ puth((dt >> 4) & 0xf); puth(dt & 0xf); }
 1643              		.loc 1 111 6 view .LVU375
 1644              	.LBB552:
 111:../USER/main_01aa.c **** void puth2(dt) int dt;{ puth((dt >> 4) & 0xf); puth(dt & 0xf); }
 1645              		.loc 1 111 34 view .LVU376
 1646 0022 F1B2     		uxtb	r1, r6
 1647              	.LVL97:
 1648              	.LBB553:
 1649              	.LBI553:
 110:../USER/main_01aa.c **** void puth(dt) int dt;{ if(dt<10) putch(0x30+dt); else putch(0x37+dt); }
 1650              		.loc 1 110 6 view .LVU377
 1651              	.LBB554:
 110:../USER/main_01aa.c **** void puth(dt) int dt;{ if(dt<10) putch(0x30+dt); else putch(0x37+dt); }
 1652              		.loc 1 110 26 view .LVU378
 1653              	.LBE554:
 1654              	.LBE553:
 1655              	.LBE552:
 1656              	.LBE551:
 111:../USER/main_01aa.c **** void puth2(dt) int dt;{ puth((dt >> 4) & 0xf); puth(dt & 0xf); }
 1657              		.loc 1 111 55 view .LVU379
 111:../USER/main_01aa.c **** void puth2(dt) int dt;{ puth((dt >> 4) & 0xf); puth(dt & 0xf); }
 1658              		.loc 1 111 26 is_stmt 0 view .LVU380
 1659 0024 092E     		cmp	r6, #9
 1660              	.LBB558:
 1661              	.LBB557:
 1662              	.LBB556:
 1663              	.LBB555:
 110:../USER/main_01aa.c **** void puth(dt) int dt;{ if(dt<10) putch(0x30+dt); else putch(0x37+dt); }
 1664              		.loc 1 110 26 view .LVU381
 1665 0026 D4BF     		ite	le
 1666 0028 3031     		addle	r1, r1, #48
 1667              	.LVL98:
 110:../USER/main_01aa.c **** void puth(dt) int dt;{ if(dt<10) putch(0x30+dt); else putch(0x37+dt); }
 1668              		.loc 1 110 26 view .LVU382
 1669              	.LBE555:
 1670              	.LBE556:
 1671              	.LBE557:
 1672              	.LBE558:
 1673              	.LBB559:
 1674              	.LBI559:
 110:../USER/main_01aa.c **** void puth(dt) int dt;{ if(dt<10) putch(0x30+dt); else putch(0x37+dt); }
 1675              		.loc 1 110 6 is_stmt 1 view .LVU383
 1676              	.LBB560:
 110:../USER/main_01aa.c **** void puth(dt) int dt;{ if(dt<10) putch(0x30+dt); else putch(0x37+dt); }
 1677              		.loc 1 110 26 view .LVU384
 1678 002a 3731     		addgt	r1, r1, #55
 1679              	.LVL99:
 110:../USER/main_01aa.c **** void puth(dt) int dt;{ if(dt<10) putch(0x30+dt); else putch(0x37+dt); }
 1680              		.loc 1 110 26 is_stmt 0 view .LVU385
 1681 002c 4FF04020 		mov	r0, #1073758208
 1682 0030 FFF7FEFF 		bl	UART_SendChar
 1683              	.LVL100:
 110:../USER/main_01aa.c **** void puth(dt) int dt;{ if(dt<10) putch(0x30+dt); else putch(0x37+dt); }
 1684              		.loc 1 110 26 view .LVU386
 1685              	.LBE560:
 1686              	.LBE559:
 1687              	.LBE550:
 1688              	.LBE549:
 1689              	.LBE562:
 1690              	.LBE564:
 1691              	.LBE593:
 113:../USER/main_01aa.c **** void puth6(dt) long dt;{ int dh,dl; dh = dt >> 16; dl = dt & 0xffff; puth2(dh); puth4(dl); }
 1692              		.loc 1 113 50 is_stmt 1 view .LVU387
 1693              	.LBB594:
 1694              	.LBB565:
 1695              	.LBI565:
 112:../USER/main_01aa.c **** void puth4(dt) int dt;{ puth2((dt >> 8) & 0xff); puth2(dt & 0xff); }
 1696              		.loc 1 112 6 view .LVU388
 1697              	.LBB566:
 112:../USER/main_01aa.c **** void puth4(dt) int dt;{ puth2((dt >> 8) & 0xff); puth2(dt & 0xff); }
 1698              		.loc 1 112 25 view .LVU389
 112:../USER/main_01aa.c **** void puth4(dt) int dt;{ puth2((dt >> 8) & 0xff); puth2(dt & 0xff); }
 1699              		.loc 1 112 34 is_stmt 0 view .LVU390
 1700 0034 C4F30353 		ubfx	r3, r4, #20, #4
 1701              	.LVL101:
 1702              	.LBB567:
 1703              	.LBI567:
 111:../USER/main_01aa.c **** void puth2(dt) int dt;{ puth((dt >> 4) & 0xf); puth(dt & 0xf); }
 1704              		.loc 1 111 6 is_stmt 1 view .LVU391
 1705              	.LBB568:
 111:../USER/main_01aa.c **** void puth2(dt) int dt;{ puth((dt >> 4) & 0xf); puth(dt & 0xf); }
 1706              		.loc 1 111 24 view .LVU392
 1707              	.LBB569:
 1708              	.LBI569:
 111:../USER/main_01aa.c **** void puth2(dt) int dt;{ puth((dt >> 4) & 0xf); puth(dt & 0xf); }
 1709              		.loc 1 111 6 view .LVU393
 1710              	.LBB570:
 111:../USER/main_01aa.c **** void puth2(dt) int dt;{ puth((dt >> 4) & 0xf); puth(dt & 0xf); }
 1711              		.loc 1 111 34 view .LVU394
 1712 0038 D9B2     		uxtb	r1, r3
 1713              	.LVL102:
 1714              	.LBB571:
 1715              	.LBI571:
 110:../USER/main_01aa.c **** void puth(dt) int dt;{ if(dt<10) putch(0x30+dt); else putch(0x37+dt); }
 1716              		.loc 1 110 6 view .LVU395
 1717              	.LBB572:
 110:../USER/main_01aa.c **** void puth(dt) int dt;{ if(dt<10) putch(0x30+dt); else putch(0x37+dt); }
 1718              		.loc 1 110 26 view .LVU396
 1719              	.LBE572:
 1720              	.LBE571:
 1721              	.LBE570:
 1722              	.LBE569:
 111:../USER/main_01aa.c **** void puth2(dt) int dt;{ puth((dt >> 4) & 0xf); puth(dt & 0xf); }
 1723              		.loc 1 111 55 view .LVU397
 111:../USER/main_01aa.c **** void puth2(dt) int dt;{ puth((dt >> 4) & 0xf); puth(dt & 0xf); }
 1724              		.loc 1 111 26 is_stmt 0 view .LVU398
 1725 003a 092B     		cmp	r3, #9
 1726              	.LBB576:
 1727              	.LBB575:
 1728              	.LBB574:
 1729              	.LBB573:
 110:../USER/main_01aa.c **** void puth(dt) int dt;{ if(dt<10) putch(0x30+dt); else putch(0x37+dt); }
 1730              		.loc 1 110 26 view .LVU399
 1731 003c D4BF     		ite	le
 1732 003e 3031     		addle	r1, r1, #48
 1733              	.LVL103:
 110:../USER/main_01aa.c **** void puth(dt) int dt;{ if(dt<10) putch(0x30+dt); else putch(0x37+dt); }
 1734              		.loc 1 110 26 view .LVU400
 1735              	.LBE573:
 1736              	.LBE574:
 1737              	.LBE575:
 1738              	.LBE576:
 1739              	.LBB577:
 1740              	.LBI577:
 110:../USER/main_01aa.c **** void puth(dt) int dt;{ if(dt<10) putch(0x30+dt); else putch(0x37+dt); }
 1741              		.loc 1 110 6 is_stmt 1 view .LVU401
 1742              	.LBB578:
 110:../USER/main_01aa.c **** void puth(dt) int dt;{ if(dt<10) putch(0x30+dt); else putch(0x37+dt); }
 1743              		.loc 1 110 26 view .LVU402
 1744 0040 3731     		addgt	r1, r1, #55
 1745              	.LVL104:
 110:../USER/main_01aa.c **** void puth(dt) int dt;{ if(dt<10) putch(0x30+dt); else putch(0x37+dt); }
 1746              		.loc 1 110 26 is_stmt 0 view .LVU403
 1747 0042 4FF04020 		mov	r0, #1073758208
 1748 0046 FFF7FEFF 		bl	UART_SendChar
 1749              	.LVL105:
 110:../USER/main_01aa.c **** void puth(dt) int dt;{ if(dt<10) putch(0x30+dt); else putch(0x37+dt); }
 1750              		.loc 1 110 26 view .LVU404
 1751              	.LBE578:
 1752              	.LBE577:
 1753              	.LBE568:
 1754              	.LBE567:
 112:../USER/main_01aa.c **** void puth4(dt) int dt;{ puth2((dt >> 8) & 0xff); puth2(dt & 0xff); }
 1755              		.loc 1 112 48 is_stmt 1 view .LVU405
 1756 004a 07F00F03 		and	r3, r7, #15
 1757              	.LVL106:
 1758              	.LBB579:
 1759              	.LBI579:
 111:../USER/main_01aa.c **** void puth2(dt) int dt;{ puth((dt >> 4) & 0xf); puth(dt & 0xf); }
 1760              		.loc 1 111 6 view .LVU406
 1761              	.LBB580:
 111:../USER/main_01aa.c **** void puth2(dt) int dt;{ puth((dt >> 4) & 0xf); puth(dt & 0xf); }
 1762              		.loc 1 111 24 view .LVU407
 1763              	.LBB581:
 1764              	.LBI581:
 111:../USER/main_01aa.c **** void puth2(dt) int dt;{ puth((dt >> 4) & 0xf); puth(dt & 0xf); }
 1765              		.loc 1 111 6 view .LVU408
 1766              	.LBB582:
 111:../USER/main_01aa.c **** void puth2(dt) int dt;{ puth((dt >> 4) & 0xf); puth(dt & 0xf); }
 1767              		.loc 1 111 34 view .LVU409
 1768 004e D9B2     		uxtb	r1, r3
 1769              	.LVL107:
 1770              	.LBB583:
 1771              	.LBI583:
 110:../USER/main_01aa.c **** void puth(dt) int dt;{ if(dt<10) putch(0x30+dt); else putch(0x37+dt); }
 1772              		.loc 1 110 6 view .LVU410
 1773              	.LBB584:
 110:../USER/main_01aa.c **** void puth(dt) int dt;{ if(dt<10) putch(0x30+dt); else putch(0x37+dt); }
 1774              		.loc 1 110 26 view .LVU411
 1775              	.LBE584:
 1776              	.LBE583:
 1777              	.LBE582:
 1778              	.LBE581:
 111:../USER/main_01aa.c **** void puth2(dt) int dt;{ puth((dt >> 4) & 0xf); puth(dt & 0xf); }
 1779              		.loc 1 111 55 view .LVU412
 111:../USER/main_01aa.c **** void puth2(dt) int dt;{ puth((dt >> 4) & 0xf); puth(dt & 0xf); }
 1780              		.loc 1 111 26 is_stmt 0 view .LVU413
 1781 0050 092B     		cmp	r3, #9
 1782              	.LBB588:
 1783              	.LBB587:
 1784              	.LBB586:
 1785              	.LBB585:
 110:../USER/main_01aa.c **** void puth(dt) int dt;{ if(dt<10) putch(0x30+dt); else putch(0x37+dt); }
 1786              		.loc 1 110 26 view .LVU414
 1787 0052 D4BF     		ite	le
 1788 0054 3031     		addle	r1, r1, #48
 1789              	.LVL108:
 110:../USER/main_01aa.c **** void puth(dt) int dt;{ if(dt<10) putch(0x30+dt); else putch(0x37+dt); }
 1790              		.loc 1 110 26 view .LVU415
 1791              	.LBE585:
 1792              	.LBE586:
 1793              	.LBE587:
 1794              	.LBE588:
 1795              	.LBB589:
 1796              	.LBI589:
 110:../USER/main_01aa.c **** void puth(dt) int dt;{ if(dt<10) putch(0x30+dt); else putch(0x37+dt); }
 1797              		.loc 1 110 6 is_stmt 1 view .LVU416
 1798              	.LBB590:
 110:../USER/main_01aa.c **** void puth(dt) int dt;{ if(dt<10) putch(0x30+dt); else putch(0x37+dt); }
 1799              		.loc 1 110 26 view .LVU417
 1800 0056 3731     		addgt	r1, r1, #55
 1801              	.LVL109:
 110:../USER/main_01aa.c **** void puth(dt) int dt;{ if(dt<10) putch(0x30+dt); else putch(0x37+dt); }
 1802              		.loc 1 110 26 is_stmt 0 view .LVU418
 1803 0058 4FF04020 		mov	r0, #1073758208
 1804 005c FFF7FEFF 		bl	UART_SendChar
 1805              	.LVL110:
 110:../USER/main_01aa.c **** void puth(dt) int dt;{ if(dt<10) putch(0x30+dt); else putch(0x37+dt); }
 1806              		.loc 1 110 26 view .LVU419
 1807              	.LBE590:
 1808              	.LBE589:
 1809              	.LBE580:
 1810              	.LBE579:
 1811              	.LBE566:
 1812              	.LBE565:
 1813              	.LBE594:
 1814              		.loc 1 115 81 is_stmt 1 view .LVU420
 1815              	.LBB595:
 1816              	.LBI595:
 113:../USER/main_01aa.c **** void puth6(dt) long dt;{ int dh,dl; dh = dt >> 16; dl = dt & 0xffff; puth2(dh); puth4(dl); }
 1817              		.loc 1 113 6 view .LVU421
 1818              	.LBB596:
 113:../USER/main_01aa.c **** void puth6(dt) long dt;{ int dh,dl; dh = dt >> 16; dl = dt & 0xffff; puth2(dh); puth4(dl); }
 1819              		.loc 1 113 25 view .LVU422
 1820              	.LBB597:
 1821              	.LBB598:
 112:../USER/main_01aa.c **** void puth4(dt) int dt;{ puth2((dt >> 8) & 0xff); puth2(dt & 0xff); }
 1822              		.loc 1 112 34 is_stmt 0 view .LVU423
 1823 0060 2B13     		asrs	r3, r5, #12
 1824 0062 D9B2     		uxtb	r1, r3
 1825              	.LBB599:
 1826              	.LBB600:
 111:../USER/main_01aa.c **** void puth2(dt) int dt;{ puth((dt >> 4) & 0xf); puth(dt & 0xf); }
 1827              		.loc 1 111 26 view .LVU424
 1828 0064 092B     		cmp	r3, #9
 1829              	.LBE600:
 1830              	.LBE599:
 1831              	.LBE598:
 1832              	.LBE597:
 113:../USER/main_01aa.c **** void puth6(dt) long dt;{ int dh,dl; dh = dt >> 16; dl = dt & 0xffff; puth2(dh); puth4(dl); }
 1833              		.loc 1 113 35 view .LVU425
 1834 0066 4FEA2525 		asr	r5, r5, #8
 1835              	.LVL111:
 1836              	.LBB630:
 1837              	.LBI597:
 112:../USER/main_01aa.c **** void puth4(dt) int dt;{ puth2((dt >> 8) & 0xff); puth2(dt & 0xff); }
 1838              		.loc 1 112 6 is_stmt 1 view .LVU426
 1839              	.LBB629:
 112:../USER/main_01aa.c **** void puth4(dt) int dt;{ puth2((dt >> 8) & 0xff); puth2(dt & 0xff); }
 1840              		.loc 1 112 25 view .LVU427
 1841              	.LBB615:
 1842              	.LBI599:
 111:../USER/main_01aa.c **** void puth2(dt) int dt;{ puth((dt >> 4) & 0xf); puth(dt & 0xf); }
 1843              		.loc 1 111 6 view .LVU428
 1844              	.LBB613:
 111:../USER/main_01aa.c **** void puth2(dt) int dt;{ puth((dt >> 4) & 0xf); puth(dt & 0xf); }
 1845              		.loc 1 111 24 view .LVU429
 1846              	.LBB601:
 1847              	.LBI601:
 111:../USER/main_01aa.c **** void puth2(dt) int dt;{ puth((dt >> 4) & 0xf); puth(dt & 0xf); }
 1848              		.loc 1 111 6 view .LVU430
 1849              	.LBB602:
 111:../USER/main_01aa.c **** void puth2(dt) int dt;{ puth((dt >> 4) & 0xf); puth(dt & 0xf); }
 1850              		.loc 1 111 34 view .LVU431
 1851              	.LBB603:
 1852              	.LBI603:
 110:../USER/main_01aa.c **** void puth(dt) int dt;{ if(dt<10) putch(0x30+dt); else putch(0x37+dt); }
 1853              		.loc 1 110 6 view .LVU432
 1854              	.LBB604:
 110:../USER/main_01aa.c **** void puth(dt) int dt;{ if(dt<10) putch(0x30+dt); else putch(0x37+dt); }
 1855              		.loc 1 110 26 view .LVU433
 1856              	.LBE604:
 1857              	.LBE603:
 1858              	.LBE602:
 1859              	.LBE601:
 111:../USER/main_01aa.c **** void puth2(dt) int dt;{ puth((dt >> 4) & 0xf); puth(dt & 0xf); }
 1860              		.loc 1 111 55 view .LVU434
 1861              	.LBB608:
 1862              	.LBB607:
 1863              	.LBB606:
 1864              	.LBB605:
 110:../USER/main_01aa.c **** void puth(dt) int dt;{ if(dt<10) putch(0x30+dt); else putch(0x37+dt); }
 1865              		.loc 1 110 26 is_stmt 0 view .LVU435
 1866 006a D4BF     		ite	le
 1867 006c 3031     		addle	r1, r1, #48
 1868              	.LVL112:
 110:../USER/main_01aa.c **** void puth(dt) int dt;{ if(dt<10) putch(0x30+dt); else putch(0x37+dt); }
 1869              		.loc 1 110 26 view .LVU436
 1870              	.LBE605:
 1871              	.LBE606:
 1872              	.LBE607:
 1873              	.LBE608:
 1874              	.LBB609:
 1875              	.LBI609:
 110:../USER/main_01aa.c **** void puth(dt) int dt;{ if(dt<10) putch(0x30+dt); else putch(0x37+dt); }
 1876              		.loc 1 110 6 is_stmt 1 view .LVU437
 1877              	.LBB610:
 110:../USER/main_01aa.c **** void puth(dt) int dt;{ if(dt<10) putch(0x30+dt); else putch(0x37+dt); }
 1878              		.loc 1 110 26 view .LVU438
 1879 006e 3731     		addgt	r1, r1, #55
 1880              	.LVL113:
 110:../USER/main_01aa.c **** void puth(dt) int dt;{ if(dt<10) putch(0x30+dt); else putch(0x37+dt); }
 1881              		.loc 1 110 26 is_stmt 0 view .LVU439
 1882 0070 4FF04020 		mov	r0, #1073758208
 1883              	.LBE610:
 1884              	.LBE609:
 1885              	.LBE613:
 1886              	.LBE615:
 112:../USER/main_01aa.c **** void puth4(dt) int dt;{ puth2((dt >> 8) & 0xff); puth2(dt & 0xff); }
 1887              		.loc 1 112 48 view .LVU440
 1888 0074 05F00F05 		and	r5, r5, #15
 1889              	.LVL114:
 1890              	.LBB616:
 1891              	.LBB614:
 1892              	.LBB612:
 1893              	.LBB611:
 110:../USER/main_01aa.c **** void puth(dt) int dt;{ if(dt<10) putch(0x30+dt); else putch(0x37+dt); }
 1894              		.loc 1 110 26 view .LVU441
 1895 0078 FFF7FEFF 		bl	UART_SendChar
 1896              	.LVL115:
 110:../USER/main_01aa.c **** void puth(dt) int dt;{ if(dt<10) putch(0x30+dt); else putch(0x37+dt); }
 1897              		.loc 1 110 26 view .LVU442
 1898              	.LBE611:
 1899              	.LBE612:
 1900              	.LBE614:
 1901              	.LBE616:
 112:../USER/main_01aa.c **** void puth4(dt) int dt;{ puth2((dt >> 8) & 0xff); puth2(dt & 0xff); }
 1902              		.loc 1 112 48 is_stmt 1 view .LVU443
 1903              	.LBB617:
 1904              	.LBI617:
 111:../USER/main_01aa.c **** void puth2(dt) int dt;{ puth((dt >> 4) & 0xf); puth(dt & 0xf); }
 1905              		.loc 1 111 6 view .LVU444
 1906              	.LBB618:
 111:../USER/main_01aa.c **** void puth2(dt) int dt;{ puth((dt >> 4) & 0xf); puth(dt & 0xf); }
 1907              		.loc 1 111 24 view .LVU445
 1908              	.LBB619:
 1909              	.LBI619:
 111:../USER/main_01aa.c **** void puth2(dt) int dt;{ puth((dt >> 4) & 0xf); puth(dt & 0xf); }
 1910              		.loc 1 111 6 view .LVU446
 1911              	.LBB620:
 111:../USER/main_01aa.c **** void puth2(dt) int dt;{ puth((dt >> 4) & 0xf); puth(dt & 0xf); }
 1912              		.loc 1 111 34 view .LVU447
 1913 007c E9B2     		uxtb	r1, r5
 1914              	.LVL116:
 1915              	.LBB621:
 1916              	.LBI621:
 110:../USER/main_01aa.c **** void puth(dt) int dt;{ if(dt<10) putch(0x30+dt); else putch(0x37+dt); }
 1917              		.loc 1 110 6 view .LVU448
 1918              	.LBB622:
 110:../USER/main_01aa.c **** void puth(dt) int dt;{ if(dt<10) putch(0x30+dt); else putch(0x37+dt); }
 1919              		.loc 1 110 26 view .LVU449
 1920              	.LBE622:
 1921              	.LBE621:
 1922              	.LBE620:
 1923              	.LBE619:
 111:../USER/main_01aa.c **** void puth2(dt) int dt;{ puth((dt >> 4) & 0xf); puth(dt & 0xf); }
 1924              		.loc 1 111 55 view .LVU450
 111:../USER/main_01aa.c **** void puth2(dt) int dt;{ puth((dt >> 4) & 0xf); puth(dt & 0xf); }
 1925              		.loc 1 111 26 is_stmt 0 view .LVU451
 1926 007e 092D     		cmp	r5, #9
 1927              	.LBB626:
 1928              	.LBB625:
 1929              	.LBB624:
 1930              	.LBB623:
 110:../USER/main_01aa.c **** void puth(dt) int dt;{ if(dt<10) putch(0x30+dt); else putch(0x37+dt); }
 1931              		.loc 1 110 26 view .LVU452
 1932 0080 D4BF     		ite	le
 1933 0082 3031     		addle	r1, r1, #48
 1934              	.LVL117:
 110:../USER/main_01aa.c **** void puth(dt) int dt;{ if(dt<10) putch(0x30+dt); else putch(0x37+dt); }
 1935              		.loc 1 110 26 view .LVU453
 1936              	.LBE623:
 1937              	.LBE624:
 1938              	.LBE625:
 1939              	.LBE626:
 1940              	.LBB627:
 1941              	.LBI627:
 110:../USER/main_01aa.c **** void puth(dt) int dt;{ if(dt<10) putch(0x30+dt); else putch(0x37+dt); }
 1942              		.loc 1 110 6 is_stmt 1 view .LVU454
 1943              	.LBB628:
 110:../USER/main_01aa.c **** void puth(dt) int dt;{ if(dt<10) putch(0x30+dt); else putch(0x37+dt); }
 1944              		.loc 1 110 26 view .LVU455
 1945 0084 3731     		addgt	r1, r1, #55
 1946              	.LVL118:
 110:../USER/main_01aa.c **** void puth(dt) int dt;{ if(dt<10) putch(0x30+dt); else putch(0x37+dt); }
 1947              		.loc 1 110 26 is_stmt 0 view .LVU456
 1948 0086 4FF04020 		mov	r0, #1073758208
 1949 008a FFF7FEFF 		bl	UART_SendChar
 1950              	.LVL119:
 110:../USER/main_01aa.c **** void puth(dt) int dt;{ if(dt<10) putch(0x30+dt); else putch(0x37+dt); }
 1951              		.loc 1 110 26 view .LVU457
 1952              	.LBE628:
 1953              	.LBE627:
 1954              	.LBE618:
 1955              	.LBE617:
 1956              	.LBE629:
 1957              	.LBE630:
 113:../USER/main_01aa.c **** void puth6(dt) long dt;{ int dh,dl; dh = dt >> 16; dl = dt & 0xffff; puth2(dh); puth4(dl); }
 1958              		.loc 1 113 50 is_stmt 1 view .LVU458
 1959              	.LBB631:
 1960              	.LBI631:
 112:../USER/main_01aa.c **** void puth4(dt) int dt;{ puth2((dt >> 8) & 0xff); puth2(dt & 0xff); }
 1961              		.loc 1 112 6 view .LVU459
 1962              	.LBB632:
 112:../USER/main_01aa.c **** void puth4(dt) int dt;{ puth2((dt >> 8) & 0xff); puth2(dt & 0xff); }
 1963              		.loc 1 112 25 view .LVU460
 112:../USER/main_01aa.c **** void puth4(dt) int dt;{ puth2((dt >> 8) & 0xff); puth2(dt & 0xff); }
 1964              		.loc 1 112 34 is_stmt 0 view .LVU461
 1965 008e C4F30313 		ubfx	r3, r4, #4, #4
 1966              	.LVL120:
 1967              	.LBB633:
 1968              	.LBI633:
 111:../USER/main_01aa.c **** void puth2(dt) int dt;{ puth((dt >> 4) & 0xf); puth(dt & 0xf); }
 1969              		.loc 1 111 6 is_stmt 1 view .LVU462
 1970              	.LBB634:
 111:../USER/main_01aa.c **** void puth2(dt) int dt;{ puth((dt >> 4) & 0xf); puth(dt & 0xf); }
 1971              		.loc 1 111 24 view .LVU463
 1972              	.LBB635:
 1973              	.LBI635:
 111:../USER/main_01aa.c **** void puth2(dt) int dt;{ puth((dt >> 4) & 0xf); puth(dt & 0xf); }
 1974              		.loc 1 111 6 view .LVU464
 1975              	.LBB636:
 111:../USER/main_01aa.c **** void puth2(dt) int dt;{ puth((dt >> 4) & 0xf); puth(dt & 0xf); }
 1976              		.loc 1 111 34 view .LVU465
 1977 0092 D9B2     		uxtb	r1, r3
 1978              	.LVL121:
 1979              	.LBB637:
 1980              	.LBI637:
 110:../USER/main_01aa.c **** void puth(dt) int dt;{ if(dt<10) putch(0x30+dt); else putch(0x37+dt); }
 1981              		.loc 1 110 6 view .LVU466
 1982              	.LBB638:
 110:../USER/main_01aa.c **** void puth(dt) int dt;{ if(dt<10) putch(0x30+dt); else putch(0x37+dt); }
 1983              		.loc 1 110 26 view .LVU467
 1984              	.LBE638:
 1985              	.LBE637:
 1986              	.LBE636:
 1987              	.LBE635:
 111:../USER/main_01aa.c **** void puth2(dt) int dt;{ puth((dt >> 4) & 0xf); puth(dt & 0xf); }
 1988              		.loc 1 111 55 view .LVU468
 111:../USER/main_01aa.c **** void puth2(dt) int dt;{ puth((dt >> 4) & 0xf); puth(dt & 0xf); }
 1989              		.loc 1 111 26 is_stmt 0 view .LVU469
 1990 0094 092B     		cmp	r3, #9
 1991              	.LBB642:
 1992              	.LBB641:
 1993              	.LBB640:
 1994              	.LBB639:
 110:../USER/main_01aa.c **** void puth(dt) int dt;{ if(dt<10) putch(0x30+dt); else putch(0x37+dt); }
 1995              		.loc 1 110 26 view .LVU470
 1996 0096 D4BF     		ite	le
 1997 0098 3031     		addle	r1, r1, #48
 1998              	.LVL122:
 110:../USER/main_01aa.c **** void puth(dt) int dt;{ if(dt<10) putch(0x30+dt); else putch(0x37+dt); }
 1999              		.loc 1 110 26 view .LVU471
 2000              	.LBE639:
 2001              	.LBE640:
 2002              	.LBE641:
 2003              	.LBE642:
 2004              	.LBB643:
 2005              	.LBI643:
 110:../USER/main_01aa.c **** void puth(dt) int dt;{ if(dt<10) putch(0x30+dt); else putch(0x37+dt); }
 2006              		.loc 1 110 6 is_stmt 1 view .LVU472
 2007              	.LBB644:
 110:../USER/main_01aa.c **** void puth(dt) int dt;{ if(dt<10) putch(0x30+dt); else putch(0x37+dt); }
 2008              		.loc 1 110 26 view .LVU473
 2009 009a 3731     		addgt	r1, r1, #55
 2010              	.LVL123:
 110:../USER/main_01aa.c **** void puth(dt) int dt;{ if(dt<10) putch(0x30+dt); else putch(0x37+dt); }
 2011              		.loc 1 110 26 is_stmt 0 view .LVU474
 2012              	.LBE644:
 2013              	.LBE643:
 2014              	.LBE634:
 2015              	.LBE633:
 112:../USER/main_01aa.c **** void puth4(dt) int dt;{ puth2((dt >> 8) & 0xff); puth2(dt & 0xff); }
 2016              		.loc 1 112 48 view .LVU475
 2017 009c 04F00F04 		and	r4, r4, #15
 2018              	.LVL124:
 2019              	.LBB648:
 2020              	.LBB647:
 2021              	.LBB646:
 2022              	.LBB645:
 110:../USER/main_01aa.c **** void puth(dt) int dt;{ if(dt<10) putch(0x30+dt); else putch(0x37+dt); }
 2023              		.loc 1 110 26 view .LVU476
 2024 00a0 4FF04020 		mov	r0, #1073758208
 2025 00a4 FFF7FEFF 		bl	UART_SendChar
 2026              	.LVL125:
 110:../USER/main_01aa.c **** void puth(dt) int dt;{ if(dt<10) putch(0x30+dt); else putch(0x37+dt); }
 2027              		.loc 1 110 26 view .LVU477
 2028              	.LBE645:
 2029              	.LBE646:
 2030              	.LBE647:
 2031              	.LBE648:
 112:../USER/main_01aa.c **** void puth4(dt) int dt;{ puth2((dt >> 8) & 0xff); puth2(dt & 0xff); }
 2032              		.loc 1 112 48 is_stmt 1 view .LVU478
 2033              	.LBB649:
 2034              	.LBI649:
 111:../USER/main_01aa.c **** void puth2(dt) int dt;{ puth((dt >> 4) & 0xf); puth(dt & 0xf); }
 2035              		.loc 1 111 6 view .LVU479
 2036              	.LBB650:
 111:../USER/main_01aa.c **** void puth2(dt) int dt;{ puth((dt >> 4) & 0xf); puth(dt & 0xf); }
 2037              		.loc 1 111 24 view .LVU480
 111:../USER/main_01aa.c **** void puth2(dt) int dt;{ puth((dt >> 4) & 0xf); puth(dt & 0xf); }
 2038              		.loc 1 111 26 is_stmt 0 view .LVU481
 2039 00a8 092C     		cmp	r4, #9
 2040 00aa E1B2     		uxtb	r1, r4
 2041 00ac 06DC     		bgt	.L80
 2042              	.LVL126:
 2043              	.LBB651:
 2044              	.LBI651:
 111:../USER/main_01aa.c **** void puth2(dt) int dt;{ puth((dt >> 4) & 0xf); puth(dt & 0xf); }
 2045              		.loc 1 111 6 is_stmt 1 view .LVU482
 2046              	.LBB652:
 111:../USER/main_01aa.c **** void puth2(dt) int dt;{ puth((dt >> 4) & 0xf); puth(dt & 0xf); }
 2047              		.loc 1 111 34 view .LVU483
 2048              	.LBB653:
 2049              	.LBI653:
 110:../USER/main_01aa.c **** void puth(dt) int dt;{ if(dt<10) putch(0x30+dt); else putch(0x37+dt); }
 2050              		.loc 1 110 6 view .LVU484
 2051              	.LBB654:
 110:../USER/main_01aa.c **** void puth(dt) int dt;{ if(dt<10) putch(0x30+dt); else putch(0x37+dt); }
 2052              		.loc 1 110 26 view .LVU485
 2053              	.LBE654:
 2054              	.LBE653:
 2055              	.LBE652:
 2056              	.LBE651:
 2057              	.LBE650:
 2058              	.LBE649:
 2059              	.LBE632:
 2060              	.LBE631:
 2061              	.LBE596:
 2062              	.LBE595:
 2063              		.loc 1 115 1 is_stmt 0 view .LVU486
 2064 00ae BDE8F840 		pop	{r3, r4, r5, r6, r7, lr}
 2065              		.cfi_remember_state
 2066              		.cfi_restore 14
 2067              		.cfi_restore 7
 2068              		.cfi_restore 6
 2069              		.cfi_restore 5
 2070              		.cfi_restore 4
 2071              		.cfi_restore 3
 2072              		.cfi_def_cfa_offset 0
 2073              	.LVL127:
 2074              	.LBB673:
 2075              	.LBB671:
 2076              	.LBB669:
 2077              	.LBB667:
 2078              	.LBB665:
 2079              	.LBB663:
 2080              	.LBB658:
 2081              	.LBB657:
 2082              	.LBB656:
 2083              	.LBB655:
 110:../USER/main_01aa.c **** void puth(dt) int dt;{ if(dt<10) putch(0x30+dt); else putch(0x37+dt); }
 2084              		.loc 1 110 26 view .LVU487
 2085 00b2 3031     		adds	r1, r1, #48
 2086              	.LVL128:
 110:../USER/main_01aa.c **** void puth(dt) int dt;{ if(dt<10) putch(0x30+dt); else putch(0x37+dt); }
 2087              		.loc 1 110 26 view .LVU488
 2088 00b4 4FF04020 		mov	r0, #1073758208
 2089 00b8 FFF7FEBF 		b	UART_SendChar
 2090              	.LVL129:
 2091              	.L80:
 2092              		.cfi_restore_state
 110:../USER/main_01aa.c **** void puth(dt) int dt;{ if(dt<10) putch(0x30+dt); else putch(0x37+dt); }
 2093              		.loc 1 110 26 view .LVU489
 2094              	.LBE655:
 2095              	.LBE656:
 2096              	.LBE657:
 2097              	.LBE658:
 111:../USER/main_01aa.c **** void puth2(dt) int dt;{ puth((dt >> 4) & 0xf); puth(dt & 0xf); }
 2098              		.loc 1 111 55 is_stmt 1 view .LVU490
 2099              	.LBB659:
 2100              	.LBI659:
 110:../USER/main_01aa.c **** void puth(dt) int dt;{ if(dt<10) putch(0x30+dt); else putch(0x37+dt); }
 2101              		.loc 1 110 6 view .LVU491
 2102              	.LBB660:
 110:../USER/main_01aa.c **** void puth(dt) int dt;{ if(dt<10) putch(0x30+dt); else putch(0x37+dt); }
 2103              		.loc 1 110 26 view .LVU492
 2104 00bc 3731     		adds	r1, r1, #55
 2105              	.LVL130:
 110:../USER/main_01aa.c **** void puth(dt) int dt;{ if(dt<10) putch(0x30+dt); else putch(0x37+dt); }
 2106              		.loc 1 110 26 is_stmt 0 view .LVU493
 2107 00be 4FF04020 		mov	r0, #1073758208
 2108              	.LBE660:
 2109              	.LBE659:
 2110              	.LBE663:
 2111              	.LBE665:
 2112              	.LBE667:
 2113              	.LBE669:
 2114              	.LBE671:
 2115              	.LBE673:
 2116              		.loc 1 115 1 view .LVU494
 2117 00c2 BDE8F840 		pop	{r3, r4, r5, r6, r7, lr}
 2118              		.cfi_restore 14
 2119              		.cfi_restore 7
 2120              		.cfi_restore 6
 2121              		.cfi_restore 5
 2122              		.cfi_restore 4
 2123              		.cfi_restore 3
 2124              		.cfi_def_cfa_offset 0
 2125              	.LVL131:
 2126              	.LBB674:
 2127              	.LBB672:
 2128              	.LBB670:
 2129              	.LBB668:
 2130              	.LBB666:
 2131              	.LBB664:
 2132              	.LBB662:
 2133              	.LBB661:
 110:../USER/main_01aa.c **** void puth(dt) int dt;{ if(dt<10) putch(0x30+dt); else putch(0x37+dt); }
 2134              		.loc 1 110 26 view .LVU495
 2135 00c6 FFF7FEBF 		b	UART_SendChar
 2136              	.LVL132:
 2137              	.LBE661:
 2138              	.LBE662:
 2139              	.LBE664:
 2140              	.LBE666:
 2141              	.LBE668:
 2142              	.LBE670:
 2143              	.LBE672:
 2144              	.LBE674:
 2145              		.cfi_endproc
 2146              	.LFE44:
 2148 00ca 00BF     		.section	.text.putsuart,"ax",%progbits
 2149              		.align	1
 2150              		.p2align 2,,3
 2151              		.global	putsuart
 2152              		.syntax unified
 2153              		.thumb
 2154              		.thumb_func
 2155              		.fpu softvfp
 2157              	putsuart:
 2158              	.LVL133:
 2159              	.LFB45:
 116:../USER/main_01aa.c **** void putsuart(char *buf){
 2160              		.loc 1 116 25 is_stmt 1 view -0
 2161              		.cfi_startproc
 2162              		@ args = 0, pretend = 0, frame = 0
 2163              		@ frame_needed = 0, uses_anonymous_args = 0
 117:../USER/main_01aa.c **** 	while(1){
 2164              		.loc 1 117 2 view .LVU497
 118:../USER/main_01aa.c **** 		if(*buf==0) break;
 2165              		.loc 1 118 3 view .LVU498
 2166              		.loc 1 118 6 is_stmt 0 view .LVU499
 2167 0000 90F90010 		ldrsb	r1, [r0]
 2168              		.loc 1 118 5 view .LVU500
 2169 0004 51B1     		cbz	r1, .L90
 116:../USER/main_01aa.c **** void putsuart(char *buf){
 2170              		.loc 1 116 25 view .LVU501
 2171 0006 10B5     		push	{r4, lr}
 2172              		.cfi_def_cfa_offset 8
 2173              		.cfi_offset 4, -8
 2174              		.cfi_offset 14, -4
 2175 0008 0446     		mov	r4, r0
 2176              	.LVL134:
 2177              	.L84:
 119:../USER/main_01aa.c **** 		else        putch(*buf++);
 2178              		.loc 1 119 15 is_stmt 1 view .LVU502
 2179              	.LBB675:
 2180              	.LBI675:
 110:../USER/main_01aa.c **** void puth(dt) int dt;{ if(dt<10) putch(0x30+dt); else putch(0x37+dt); }
 2181              		.loc 1 110 6 view .LVU503
 2182              	.LBB676:
 110:../USER/main_01aa.c **** void puth(dt) int dt;{ if(dt<10) putch(0x30+dt); else putch(0x37+dt); }
 2183              		.loc 1 110 26 view .LVU504
 2184 000a 4FF04020 		mov	r0, #1073758208
 2185 000e FFF7FEFF 		bl	UART_SendChar
 2186              	.LVL135:
 110:../USER/main_01aa.c **** void puth(dt) int dt;{ if(dt<10) putch(0x30+dt); else putch(0x37+dt); }
 2187              		.loc 1 110 26 is_stmt 0 view .LVU505
 2188              	.LBE676:
 2189              	.LBE675:
 117:../USER/main_01aa.c **** 		if(*buf==0) break;
 2190              		.loc 1 117 2 is_stmt 1 view .LVU506
 118:../USER/main_01aa.c **** 		else        putch(*buf++);
 2191              		.loc 1 118 3 view .LVU507
 118:../USER/main_01aa.c **** 		else        putch(*buf++);
 2192              		.loc 1 118 6 is_stmt 0 view .LVU508
 2193 0012 14F9011F 		ldrsb	r1, [r4, #1]!
 2194              	.LVL136:
 118:../USER/main_01aa.c **** 		else        putch(*buf++);
 2195              		.loc 1 118 5 view .LVU509
 2196 0016 0029     		cmp	r1, #0
 2197 0018 F7D1     		bne	.L84
 120:../USER/main_01aa.c **** 	}
 121:../USER/main_01aa.c **** }
 2198              		.loc 1 121 1 view .LVU510
 2199 001a 10BD     		pop	{r4, pc}
 2200              	.LVL137:
 2201              	.L90:
 2202              		.cfi_def_cfa_offset 0
 2203              		.cfi_restore 4
 2204              		.cfi_restore 14
 2205              		.loc 1 121 1 view .LVU511
 2206 001c 7047     		bx	lr
 2207              		.cfi_endproc
 2208              	.LFE45:
 2210 001e 00BF     		.section	.text.getsuart,"ax",%progbits
 2211              		.align	1
 2212              		.p2align 2,,3
 2213              		.global	getsuart
 2214              		.syntax unified
 2215              		.thumb
 2216              		.thumb_func
 2217              		.fpu softvfp
 2219              	getsuart:
 2220              	.LVL138:
 2221              	.LFB46:
 122:../USER/main_01aa.c **** void getsuart(char *buf){
 2222              		.loc 1 122 25 is_stmt 1 view -0
 2223              		.cfi_startproc
 2224              		@ args = 0, pretend = 0, frame = 0
 2225              		@ frame_needed = 0, uses_anonymous_args = 0
 2226              		.loc 1 122 25 is_stmt 0 view .LVU513
 2227 0000 38B5     		push	{r3, r4, r5, lr}
 2228              		.cfi_def_cfa_offset 16
 2229              		.cfi_offset 3, -16
 2230              		.cfi_offset 4, -12
 2231              		.cfi_offset 5, -8
 2232              		.cfi_offset 14, -4
 2233 0002 0546     		mov	r5, r0
 2234              	.LVL139:
 2235              	.L94:
 123:../USER/main_01aa.c **** 	char ch;
 2236              		.loc 1 123 2 is_stmt 1 view .LVU514
 124:../USER/main_01aa.c **** 	while(1){
 2237              		.loc 1 124 2 view .LVU515
 125:../USER/main_01aa.c **** 		ch = getch(); putch(ch); *buf++ = ch;
 2238              		.loc 1 125 3 view .LVU516
 2239              	.LBB681:
 2240              	.LBI681:
 109:../USER/main_01aa.c **** void putchuart(char ch){ UART_SendChar(UART0,ch);}
 2241              		.loc 1 109 6 view .LVU517
 2242              	.LBB682:
 109:../USER/main_01aa.c **** void putchuart(char ch){ UART_SendChar(UART0,ch);}
 2243              		.loc 1 109 23 view .LVU518
 109:../USER/main_01aa.c **** void putchuart(char ch){ UART_SendChar(UART0,ch);}
 2244              		.loc 1 109 30 is_stmt 0 view .LVU519
 2245 0004 4FF04020 		mov	r0, #1073758208
 2246 0008 FFF7FEFF 		bl	UART_ReceiveChar
 2247              	.LVL140:
 2248 000c 0446     		mov	r4, r0
 2249              	.LVL141:
 109:../USER/main_01aa.c **** void putchuart(char ch){ UART_SendChar(UART0,ch);}
 2250              		.loc 1 109 30 view .LVU520
 2251              	.LBE682:
 2252              	.LBE681:
 2253              		.loc 1 125 17 is_stmt 1 view .LVU521
 2254              	.LBB683:
 2255              	.LBI683:
 110:../USER/main_01aa.c **** void puth(dt) int dt;{ if(dt<10) putch(0x30+dt); else putch(0x37+dt); }
 2256              		.loc 1 110 6 view .LVU522
 2257              	.LBB684:
 110:../USER/main_01aa.c **** void puth(dt) int dt;{ if(dt<10) putch(0x30+dt); else putch(0x37+dt); }
 2258              		.loc 1 110 26 view .LVU523
 2259 000e 0146     		mov	r1, r0
 2260 0010 4FF04020 		mov	r0, #1073758208
 2261              	.LVL142:
 110:../USER/main_01aa.c **** void puth(dt) int dt;{ if(dt<10) putch(0x30+dt); else putch(0x37+dt); }
 2262              		.loc 1 110 26 is_stmt 0 view .LVU524
 2263 0014 FFF7FEFF 		bl	UART_SendChar
 2264              	.LVL143:
 110:../USER/main_01aa.c **** void puth(dt) int dt;{ if(dt<10) putch(0x30+dt); else putch(0x37+dt); }
 2265              		.loc 1 110 26 view .LVU525
 2266              	.LBE684:
 2267              	.LBE683:
 2268              		.loc 1 125 28 is_stmt 1 view .LVU526
 126:../USER/main_01aa.c **** 		if(ch==0x0d) break;
 2269              		.loc 1 126 5 is_stmt 0 view .LVU527
 2270 0018 0D2C     		cmp	r4, #13
 125:../USER/main_01aa.c **** 		if(ch==0x0d) break;
 2271              		.loc 1 125 35 view .LVU528
 2272 001a 05F8014B 		strb	r4, [r5], #1
 2273              	.LVL144:
 2274              		.loc 1 126 3 is_stmt 1 view .LVU529
 2275              		.loc 1 126 5 is_stmt 0 view .LVU530
 2276 001e F1D1     		bne	.L94
 127:../USER/main_01aa.c **** 	}
 128:../USER/main_01aa.c **** }
 2277              		.loc 1 128 1 view .LVU531
 2278 0020 38BD     		pop	{r3, r4, r5, pc}
 2279              		.loc 1 128 1 view .LVU532
 2280              		.cfi_endproc
 2281              	.LFE46:
 2283 0022 00BF     		.section	.text.ishex,"ax",%progbits
 2284              		.align	1
 2285              		.p2align 2,,3
 2286              		.global	ishex
 2287              		.syntax unified
 2288              		.thumb
 2289              		.thumb_func
 2290              		.fpu softvfp
 2292              	ishex:
 2293              	.LVL145:
 2294              	.LFB47:
 129:../USER/main_01aa.c **** int ishex(ch) char ch;{
 2295              		.loc 1 129 23 is_stmt 1 view -0
 2296              		.cfi_startproc
 2297              		@ args = 0, pretend = 0, frame = 0
 2298              		@ frame_needed = 0, uses_anonymous_args = 0
 2299              		@ link register save eliminated.
 130:../USER/main_01aa.c ****   int hd;
 2300              		.loc 1 130 3 view .LVU534
 131:../USER/main_01aa.c ****   if(ch>='0' && ch<='9') hd = ch - 0x30;
 2301              		.loc 1 131 3 view .LVU535
 129:../USER/main_01aa.c **** int ishex(ch) char ch;{
 2302              		.loc 1 129 23 is_stmt 0 view .LVU536
 2303 0000 40B2     		sxtb	r0, r0
 2304              		.loc 1 131 14 view .LVU537
 2305 0002 C3B2     		uxtb	r3, r0
 2306              		.loc 1 131 5 view .LVU538
 2307 0004 A3F13002 		sub	r2, r3, #48
 2308 0008 092A     		cmp	r2, #9
 2309 000a 01D8     		bhi	.L98
 2310              		.loc 1 131 26 is_stmt 1 discriminator 1 view .LVU539
 2311              		.loc 1 131 29 is_stmt 0 discriminator 1 view .LVU540
 2312 000c 3038     		subs	r0, r0, #48
 2313              	.LVL146:
 2314              		.loc 1 131 29 discriminator 1 view .LVU541
 2315 000e 7047     		bx	lr
 2316              	.LVL147:
 2317              	.L98:
 132:../USER/main_01aa.c ****   else if(ch>='A' && ch<='F') hd = ch - 0x37;
 2318              		.loc 1 132 8 is_stmt 1 view .LVU542
 2319              		.loc 1 132 10 is_stmt 0 view .LVU543
 2320 0010 413B     		subs	r3, r3, #65
 2321 0012 052B     		cmp	r3, #5
 2322              		.loc 1 132 31 is_stmt 1 view .LVU544
 2323              		.loc 1 132 34 is_stmt 0 view .LVU545
 2324 0014 94BF     		ite	ls
 2325 0016 3738     		subls	r0, r0, #55
 2326              	.LVL148:
 133:../USER/main_01aa.c ****   else hd = -1;
 2327              		.loc 1 133 11 view .LVU546
 2328 0018 4FF0FF30 		movhi	r0, #-1
 2329              	.LVL149:
 134:../USER/main_01aa.c ****   return hd;
 2330              		.loc 1 134 3 is_stmt 1 view .LVU547
 135:../USER/main_01aa.c **** }
 2331              		.loc 1 135 1 is_stmt 0 view .LVU548
 2332 001c 7047     		bx	lr
 2333              		.cfi_endproc
 2334              	.LFE47:
 2336 001e 00BF     		.section	.text.getssu,"ax",%progbits
 2337              		.align	1
 2338              		.p2align 2,,3
 2339              		.global	getssu
 2340              		.syntax unified
 2341              		.thumb
 2342              		.thumb_func
 2343              		.fpu softvfp
 2345              	getssu:
 2346              	.LVL150:
 2347              	.LFB48:
 136:../USER/main_01aa.c **** void getssu(cbuf) char *cbuf;{ gets(cbuf); setsup(cbuf);}
 2348              		.loc 1 136 30 is_stmt 1 view -0
 2349              		.cfi_startproc
 2350              		@ args = 0, pretend = 0, frame = 0
 2351              		@ frame_needed = 0, uses_anonymous_args = 0
 2352              		.loc 1 136 32 view .LVU550
 2353              		.loc 1 136 30 is_stmt 0 view .LVU551
 2354 0000 70B5     		push	{r4, r5, r6, lr}
 2355              		.cfi_def_cfa_offset 16
 2356              		.cfi_offset 4, -16
 2357              		.cfi_offset 5, -12
 2358              		.cfi_offset 6, -8
 2359              		.cfi_offset 14, -4
 2360              		.loc 1 136 30 view .LVU552
 2361 0002 0546     		mov	r5, r0
 2362              	.LVL151:
 2363              	.LBB695:
 2364              	.LBI695:
 122:../USER/main_01aa.c **** 	char ch;
 2365              		.loc 1 122 6 is_stmt 1 view .LVU553
 2366              	.LBE695:
 2367              		.loc 1 136 30 is_stmt 0 view .LVU554
 2368 0004 0646     		mov	r6, r0
 2369              	.LVL152:
 2370              	.L102:
 2371              	.LBB701:
 2372              	.LBB696:
 123:../USER/main_01aa.c **** 	while(1){
 2373              		.loc 1 123 2 is_stmt 1 view .LVU555
 124:../USER/main_01aa.c **** 		ch = getch(); putch(ch); *buf++ = ch;
 2374              		.loc 1 124 2 view .LVU556
 125:../USER/main_01aa.c **** 		if(ch==0x0d) break;
 2375              		.loc 1 125 3 view .LVU557
 2376              	.LBB697:
 2377              	.LBI697:
 109:../USER/main_01aa.c **** void putchuart(char ch){ UART_SendChar(UART0,ch);}
 2378              		.loc 1 109 6 view .LVU558
 2379              	.LBB698:
 109:../USER/main_01aa.c **** void putchuart(char ch){ UART_SendChar(UART0,ch);}
 2380              		.loc 1 109 23 view .LVU559
 109:../USER/main_01aa.c **** void putchuart(char ch){ UART_SendChar(UART0,ch);}
 2381              		.loc 1 109 30 is_stmt 0 view .LVU560
 2382 0006 4FF04020 		mov	r0, #1073758208
 2383 000a FFF7FEFF 		bl	UART_ReceiveChar
 2384              	.LVL153:
 2385 000e 0446     		mov	r4, r0
 2386              	.LVL154:
 109:../USER/main_01aa.c **** void putchuart(char ch){ UART_SendChar(UART0,ch);}
 2387              		.loc 1 109 30 view .LVU561
 2388              	.LBE698:
 2389              	.LBE697:
 125:../USER/main_01aa.c **** 		if(ch==0x0d) break;
 2390              		.loc 1 125 17 is_stmt 1 view .LVU562
 2391              	.LBB699:
 2392              	.LBI699:
 110:../USER/main_01aa.c **** void puth(dt) int dt;{ if(dt<10) putch(0x30+dt); else putch(0x37+dt); }
 2393              		.loc 1 110 6 view .LVU563
 2394              	.LBB700:
 110:../USER/main_01aa.c **** void puth(dt) int dt;{ if(dt<10) putch(0x30+dt); else putch(0x37+dt); }
 2395              		.loc 1 110 26 view .LVU564
 2396 0010 0146     		mov	r1, r0
 2397 0012 4FF04020 		mov	r0, #1073758208
 2398              	.LVL155:
 110:../USER/main_01aa.c **** void puth(dt) int dt;{ if(dt<10) putch(0x30+dt); else putch(0x37+dt); }
 2399              		.loc 1 110 26 is_stmt 0 view .LVU565
 2400 0016 FFF7FEFF 		bl	UART_SendChar
 2401              	.LVL156:
 110:../USER/main_01aa.c **** void puth(dt) int dt;{ if(dt<10) putch(0x30+dt); else putch(0x37+dt); }
 2402              		.loc 1 110 26 view .LVU566
 2403              	.LBE700:
 2404              	.LBE699:
 125:../USER/main_01aa.c **** 		if(ch==0x0d) break;
 2405              		.loc 1 125 28 is_stmt 1 view .LVU567
 126:../USER/main_01aa.c **** 	}
 2406              		.loc 1 126 5 is_stmt 0 view .LVU568
 2407 001a 0D2C     		cmp	r4, #13
 125:../USER/main_01aa.c **** 		if(ch==0x0d) break;
 2408              		.loc 1 125 35 view .LVU569
 2409 001c 06F8014B 		strb	r4, [r6], #1
 2410              	.LVL157:
 126:../USER/main_01aa.c **** 	}
 2411              		.loc 1 126 3 is_stmt 1 view .LVU570
 126:../USER/main_01aa.c **** 	}
 2412              		.loc 1 126 5 is_stmt 0 view .LVU571
 2413 0020 F1D1     		bne	.L102
 2414              	.LVL158:
 126:../USER/main_01aa.c **** 	}
 2415              		.loc 1 126 5 view .LVU572
 2416              	.LBE696:
 2417              	.LBE701:
 2418              	.LBB702:
 2419              	.LBB703:
 104:../USER/main_01aa.c ****    if( *buf>='a' && *buf<='z') *buf = *buf - 0x20;
 2420              		.loc 1 104 9 view .LVU573
 2421 0022 95F90030 		ldrsb	r3, [r5]
 104:../USER/main_01aa.c ****    if( *buf>='a' && *buf<='z') *buf = *buf - 0x20;
 2422              		.loc 1 104 8 view .LVU574
 2423 0026 0D2B     		cmp	r3, #13
 2424 0028 0AD0     		beq	.L101
 2425              	.LVL159:
 2426              	.L106:
 105:../USER/main_01aa.c ****    buf++;
 2427              		.loc 1 105 4 is_stmt 1 view .LVU575
 105:../USER/main_01aa.c ****    buf++;
 2428              		.loc 1 105 32 view .LVU576
 106:../USER/main_01aa.c ****   }
 2429              		.loc 1 106 4 view .LVU577
 105:../USER/main_01aa.c ****    buf++;
 2430              		.loc 1 105 18 is_stmt 0 view .LVU578
 2431 002a DBB2     		uxtb	r3, r3
 105:../USER/main_01aa.c ****    buf++;
 2432              		.loc 1 105 44 view .LVU579
 2433 002c A3F12002 		sub	r2, r3, #32
 105:../USER/main_01aa.c ****    buf++;
 2434              		.loc 1 105 6 view .LVU580
 2435 0030 613B     		subs	r3, r3, #97
 2436 0032 192B     		cmp	r3, #25
 2437 0034 05D8     		bhi	.L104
 105:../USER/main_01aa.c ****    buf++;
 2438              		.loc 1 105 37 view .LVU581
 2439 0036 2A70     		strb	r2, [r5]
 106:../USER/main_01aa.c ****   }
 2440              		.loc 1 106 4 is_stmt 1 view .LVU582
 104:../USER/main_01aa.c ****    if( *buf>='a' && *buf<='z') *buf = *buf - 0x20;
 2441              		.loc 1 104 9 is_stmt 0 view .LVU583
 2442 0038 15F9013F 		ldrsb	r3, [r5, #1]!
 2443              	.LVL160:
 104:../USER/main_01aa.c ****    if( *buf>='a' && *buf<='z') *buf = *buf - 0x20;
 2444              		.loc 1 104 8 view .LVU584
 2445 003c 0D2B     		cmp	r3, #13
 2446 003e F4D1     		bne	.L106
 2447              	.LVL161:
 2448              	.L101:
 104:../USER/main_01aa.c ****    if( *buf>='a' && *buf<='z') *buf = *buf - 0x20;
 2449              		.loc 1 104 8 view .LVU585
 2450              	.LBE703:
 2451              	.LBE702:
 2452              		.loc 1 136 1 view .LVU586
 2453 0040 70BD     		pop	{r4, r5, r6, pc}
 2454              	.LVL162:
 2455              	.L104:
 2456              	.LBB705:
 2457              	.LBB704:
 104:../USER/main_01aa.c ****    if( *buf>='a' && *buf<='z') *buf = *buf - 0x20;
 2458              		.loc 1 104 9 view .LVU587
 2459 0042 15F9013F 		ldrsb	r3, [r5, #1]!
 2460              	.LVL163:
 104:../USER/main_01aa.c ****    if( *buf>='a' && *buf<='z') *buf = *buf - 0x20;
 2461              		.loc 1 104 8 view .LVU588
 2462 0046 0D2B     		cmp	r3, #13
 2463 0048 EFD1     		bne	.L106
 2464              	.LBE704:
 2465              	.LBE705:
 2466              		.loc 1 136 1 view .LVU589
 2467 004a 70BD     		pop	{r4, r5, r6, pc}
 2468              		.loc 1 136 1 view .LVU590
 2469              		.cfi_endproc
 2470              	.LFE48:
 2472              		.section	.text.putadrhd,"ax",%progbits
 2473              		.align	1
 2474              		.p2align 2,,3
 2475              		.global	putadrhd
 2476              		.syntax unified
 2477              		.thumb
 2478              		.thumb_func
 2479              		.fpu softvfp
 2481              	putadrhd:
 2482              	.LVL164:
 2483              	.LFB49:
 137:../USER/main_01aa.c **** void putadrhd(adr) long adr;{putch('\n'); puth8(adr); putch(':');}
 2484              		.loc 1 137 29 is_stmt 1 view -0
 2485              		.cfi_startproc
 2486              		@ args = 0, pretend = 0, frame = 0
 2487              		@ frame_needed = 0, uses_anonymous_args = 0
 2488              		.loc 1 137 30 view .LVU592
 2489              	.LBB810:
 2490              	.LBI810:
 110:../USER/main_01aa.c **** void puth(dt) int dt;{ if(dt<10) putch(0x30+dt); else putch(0x37+dt); }
 2491              		.loc 1 110 6 view .LVU593
 2492              	.LBB811:
 110:../USER/main_01aa.c **** void puth(dt) int dt;{ if(dt<10) putch(0x30+dt); else putch(0x37+dt); }
 2493              		.loc 1 110 26 view .LVU594
 2494              	.LBE811:
 2495              	.LBE810:
 2496              		.loc 1 137 29 is_stmt 0 view .LVU595
 2497 0000 F8B5     		push	{r3, r4, r5, r6, r7, lr}
 2498              		.cfi_def_cfa_offset 24
 2499              		.cfi_offset 3, -24
 2500              		.cfi_offset 4, -20
 2501              		.cfi_offset 5, -16
 2502              		.cfi_offset 6, -12
 2503              		.cfi_offset 7, -8
 2504              		.cfi_offset 14, -4
 2505              		.loc 1 137 29 view .LVU596
 2506 0002 0446     		mov	r4, r0
 2507 0004 060E     		lsrs	r6, r0, #24
 2508              	.LBB813:
 2509              	.LBB812:
 110:../USER/main_01aa.c **** void puth(dt) int dt;{ if(dt<10) putch(0x30+dt); else putch(0x37+dt); }
 2510              		.loc 1 110 26 view .LVU597
 2511 0006 0A21     		movs	r1, #10
 2512 0008 4FF04020 		mov	r0, #1073758208
 2513              	.LVL165:
 110:../USER/main_01aa.c **** void puth(dt) int dt;{ if(dt<10) putch(0x30+dt); else putch(0x37+dt); }
 2514              		.loc 1 110 26 view .LVU598
 2515 000c FFF7FEFF 		bl	UART_SendChar
 2516              	.LVL166:
 110:../USER/main_01aa.c **** void puth(dt) int dt;{ if(dt<10) putch(0x30+dt); else putch(0x37+dt); }
 2517              		.loc 1 110 26 view .LVU599
 2518              	.LBE812:
 2519              	.LBE813:
 2520              		.loc 1 137 43 is_stmt 1 view .LVU600
 2521              	.LBB814:
 2522              	.LBI814:
 115:../USER/main_01aa.c **** void putsuart(char *buf){
 2523              		.loc 1 115 6 view .LVU601
 2524              	.LBB815:
 115:../USER/main_01aa.c **** void putsuart(char *buf){
 2525              		.loc 1 115 26 view .LVU602
 115:../USER/main_01aa.c **** void putsuart(char *buf){
 2526              		.loc 1 115 37 view .LVU603
 2527              	.LBB816:
 2528              	.LBB817:
 2529              	.LBB818:
 112:../USER/main_01aa.c **** void puth4(dt) int dt;{ puth2((dt >> 8) & 0xff); puth2(dt & 0xff); }
 2530              		.loc 1 112 34 is_stmt 0 view .LVU604
 2531 0010 3311     		asrs	r3, r6, #4
 2532 0012 D9B2     		uxtb	r1, r3
 2533              	.LBB819:
 2534              	.LBB820:
 111:../USER/main_01aa.c **** void puth2(dt) int dt;{ puth((dt >> 4) & 0xf); puth(dt & 0xf); }
 2535              		.loc 1 111 26 view .LVU605
 2536 0014 092B     		cmp	r3, #9
 2537              	.LBB821:
 2538              	.LBB822:
 2539              	.LBB823:
 2540              	.LBB824:
 110:../USER/main_01aa.c **** void puth(dt) int dt;{ if(dt<10) putch(0x30+dt); else putch(0x37+dt); }
 2541              		.loc 1 110 26 view .LVU606
 2542 0016 D4BF     		ite	le
 2543 0018 3031     		addle	r1, r1, #48
 2544              	.LBE824:
 2545              	.LBE823:
 2546              	.LBE822:
 2547              	.LBE821:
 2548              	.LBB828:
 2549              	.LBB829:
 2550 001a 3731     		addgt	r1, r1, #55
 2551              	.LBE829:
 2552              	.LBE828:
 2553              	.LBE820:
 2554              	.LBE819:
 112:../USER/main_01aa.c **** void puth4(dt) int dt;{ puth2((dt >> 8) & 0xff); puth2(dt & 0xff); }
 2555              		.loc 1 112 48 view .LVU607
 2556 001c 06F00F06 		and	r6, r6, #15
 2557              	.LBB837:
 2558              	.LBB835:
 2559              	.LBB832:
 2560              	.LBB830:
 110:../USER/main_01aa.c **** void puth(dt) int dt;{ if(dt<10) putch(0x30+dt); else putch(0x37+dt); }
 2561              		.loc 1 110 26 view .LVU608
 2562 0020 4FF04020 		mov	r0, #1073758208
 2563 0024 FFF7FEFF 		bl	UART_SendChar
 2564              	.LVL167:
 2565 0028 F1B2     		uxtb	r1, r6
 2566              	.LBE830:
 2567              	.LBE832:
 2568              	.LBE835:
 2569              	.LBE837:
 2570              	.LBB838:
 2571              	.LBB839:
 111:../USER/main_01aa.c **** void puth2(dt) int dt;{ puth((dt >> 4) & 0xf); puth(dt & 0xf); }
 2572              		.loc 1 111 26 view .LVU609
 2573 002a 092E     		cmp	r6, #9
 2574              	.LBB840:
 2575              	.LBB841:
 2576              	.LBB842:
 2577              	.LBB843:
 110:../USER/main_01aa.c **** void puth(dt) int dt;{ if(dt<10) putch(0x30+dt); else putch(0x37+dt); }
 2578              		.loc 1 110 26 view .LVU610
 2579 002c D4BF     		ite	le
 2580 002e 3031     		addle	r1, r1, #48
 2581              	.LBE843:
 2582              	.LBE842:
 2583              	.LBE841:
 2584              	.LBE840:
 2585              	.LBB847:
 2586              	.LBB848:
 2587 0030 3731     		addgt	r1, r1, #55
 2588 0032 4FF04020 		mov	r0, #1073758208
 2589 0036 FFF7FEFF 		bl	UART_SendChar
 2590              	.LVL168:
 2591              	.LBE848:
 2592              	.LBE847:
 2593              	.LBE839:
 2594              	.LBE838:
 2595              	.LBE818:
 2596              	.LBE817:
 2597              	.LBB856:
 2598              	.LBB857:
 112:../USER/main_01aa.c **** void puth4(dt) int dt;{ puth2((dt >> 8) & 0xff); puth2(dt & 0xff); }
 2599              		.loc 1 112 34 view .LVU611
 2600 003a C4F30353 		ubfx	r3, r4, #20, #4
 2601 003e D9B2     		uxtb	r1, r3
 2602              	.LBB858:
 2603              	.LBB859:
 111:../USER/main_01aa.c **** void puth2(dt) int dt;{ puth((dt >> 4) & 0xf); puth(dt & 0xf); }
 2604              		.loc 1 111 26 view .LVU612
 2605 0040 092B     		cmp	r3, #9
 2606              	.LBE859:
 2607              	.LBE858:
 2608              	.LBE857:
 2609              	.LBE856:
 2610              	.LBE816:
 115:../USER/main_01aa.c **** void putsuart(char *buf){
 2611              		.loc 1 115 40 view .LVU613
 2612 0042 4FEA2447 		asr	r7, r4, #16
 2613              	.LVL169:
 115:../USER/main_01aa.c **** void putsuart(char *buf){
 2614              		.loc 1 115 52 is_stmt 1 view .LVU614
 2615              	.LBB895:
 2616              	.LBB892:
 2617              	.LBB890:
 2618              	.LBB874:
 2619              	.LBB872:
 2620              	.LBB860:
 2621              	.LBB861:
 2622              	.LBB862:
 2623              	.LBB863:
 110:../USER/main_01aa.c **** void puth(dt) int dt;{ if(dt<10) putch(0x30+dt); else putch(0x37+dt); }
 2624              		.loc 1 110 26 is_stmt 0 view .LVU615
 2625 0046 D4BF     		ite	le
 2626 0048 3031     		addle	r1, r1, #48
 2627              	.LBE863:
 2628              	.LBE862:
 2629              	.LBE861:
 2630              	.LBE860:
 2631              	.LBB867:
 2632              	.LBB868:
 2633 004a 3731     		addgt	r1, r1, #55
 2634 004c 4FF04020 		mov	r0, #1073758208
 2635 0050 FFF7FEFF 		bl	UART_SendChar
 2636              	.LVL170:
 2637              	.LBE868:
 2638              	.LBE867:
 2639              	.LBE872:
 2640              	.LBE874:
 112:../USER/main_01aa.c **** void puth4(dt) int dt;{ puth2((dt >> 8) & 0xff); puth2(dt & 0xff); }
 2641              		.loc 1 112 48 view .LVU616
 2642 0054 07F00F03 		and	r3, r7, #15
 2643 0058 D9B2     		uxtb	r1, r3
 2644              	.LBB875:
 2645              	.LBB876:
 111:../USER/main_01aa.c **** void puth2(dt) int dt;{ puth((dt >> 4) & 0xf); puth(dt & 0xf); }
 2646              		.loc 1 111 26 view .LVU617
 2647 005a 092B     		cmp	r3, #9
 2648              	.LBE876:
 2649              	.LBE875:
 2650              	.LBE890:
 2651              	.LBE892:
 2652              	.LBE895:
 115:../USER/main_01aa.c **** void putsuart(char *buf){
 2653              		.loc 1 115 55 view .LVU618
 2654 005c A5B2     		uxth	r5, r4
 2655              	.LVL171:
 115:../USER/main_01aa.c **** void putsuart(char *buf){
 2656              		.loc 1 115 70 is_stmt 1 view .LVU619
 2657              	.LBB896:
 2658              	.LBI816:
 113:../USER/main_01aa.c **** void puth6(dt) long dt;{ int dh,dl; dh = dt >> 16; dl = dt & 0xffff; puth2(dh); puth4(dl); }
 2659              		.loc 1 113 6 view .LVU620
 2660              	.LBE896:
 2661              	.LBE815:
 2662              	.LBE814:
 113:../USER/main_01aa.c **** void puth6(dt) long dt;{ int dh,dl; dh = dt >> 16; dl = dt & 0xffff; puth2(dh); puth4(dl); }
 2663              		.loc 1 113 25 view .LVU621
 2664              	.LBB967:
 2665              	.LBB965:
 2666              	.LBB897:
 2667              	.LBB893:
 2668              	.LBI817:
 112:../USER/main_01aa.c **** void puth4(dt) int dt;{ puth2((dt >> 8) & 0xff); puth2(dt & 0xff); }
 2669              		.loc 1 112 6 view .LVU622
 2670              	.LBB855:
 112:../USER/main_01aa.c **** void puth4(dt) int dt;{ puth2((dt >> 8) & 0xff); puth2(dt & 0xff); }
 2671              		.loc 1 112 25 view .LVU623
 2672              	.LBB853:
 2673              	.LBI819:
 111:../USER/main_01aa.c **** void puth2(dt) int dt;{ puth((dt >> 4) & 0xf); puth(dt & 0xf); }
 2674              		.loc 1 111 6 view .LVU624
 2675              	.LBB836:
 111:../USER/main_01aa.c **** void puth2(dt) int dt;{ puth((dt >> 4) & 0xf); puth(dt & 0xf); }
 2676              		.loc 1 111 24 view .LVU625
 2677              	.LBB833:
 2678              	.LBI821:
 111:../USER/main_01aa.c **** void puth2(dt) int dt;{ puth((dt >> 4) & 0xf); puth(dt & 0xf); }
 2679              		.loc 1 111 6 view .LVU626
 2680              	.LBB827:
 111:../USER/main_01aa.c **** void puth2(dt) int dt;{ puth((dt >> 4) & 0xf); puth(dt & 0xf); }
 2681              		.loc 1 111 34 view .LVU627
 2682              	.LBB826:
 2683              	.LBI823:
 110:../USER/main_01aa.c **** void puth(dt) int dt;{ if(dt<10) putch(0x30+dt); else putch(0x37+dt); }
 2684              		.loc 1 110 6 view .LVU628
 2685              	.LBB825:
 110:../USER/main_01aa.c **** void puth(dt) int dt;{ if(dt<10) putch(0x30+dt); else putch(0x37+dt); }
 2686              		.loc 1 110 26 view .LVU629
 2687              	.LBE825:
 2688              	.LBE826:
 2689              	.LBE827:
 2690              	.LBE833:
 111:../USER/main_01aa.c **** void puth2(dt) int dt;{ puth((dt >> 4) & 0xf); puth(dt & 0xf); }
 2691              		.loc 1 111 55 view .LVU630
 2692              	.LBB834:
 2693              	.LBI828:
 110:../USER/main_01aa.c **** void puth(dt) int dt;{ if(dt<10) putch(0x30+dt); else putch(0x37+dt); }
 2694              		.loc 1 110 6 view .LVU631
 2695              	.LBB831:
 110:../USER/main_01aa.c **** void puth(dt) int dt;{ if(dt<10) putch(0x30+dt); else putch(0x37+dt); }
 2696              		.loc 1 110 26 view .LVU632
 110:../USER/main_01aa.c **** void puth(dt) int dt;{ if(dt<10) putch(0x30+dt); else putch(0x37+dt); }
 2697              		.loc 1 110 26 is_stmt 0 view .LVU633
 2698              	.LBE831:
 2699              	.LBE834:
 2700              	.LBE836:
 2701              	.LBE853:
 112:../USER/main_01aa.c **** void puth4(dt) int dt;{ puth2((dt >> 8) & 0xff); puth2(dt & 0xff); }
 2702              		.loc 1 112 48 is_stmt 1 view .LVU634
 2703              	.LBB854:
 2704              	.LBI838:
 111:../USER/main_01aa.c **** void puth2(dt) int dt;{ puth((dt >> 4) & 0xf); puth(dt & 0xf); }
 2705              		.loc 1 111 6 view .LVU635
 2706              	.LBB852:
 111:../USER/main_01aa.c **** void puth2(dt) int dt;{ puth((dt >> 4) & 0xf); puth(dt & 0xf); }
 2707              		.loc 1 111 24 view .LVU636
 2708              	.LBB850:
 2709              	.LBI840:
 111:../USER/main_01aa.c **** void puth2(dt) int dt;{ puth((dt >> 4) & 0xf); puth(dt & 0xf); }
 2710              		.loc 1 111 6 view .LVU637
 2711              	.LBB846:
 111:../USER/main_01aa.c **** void puth2(dt) int dt;{ puth((dt >> 4) & 0xf); puth(dt & 0xf); }
 2712              		.loc 1 111 34 view .LVU638
 2713              	.LBB845:
 2714              	.LBI842:
 110:../USER/main_01aa.c **** void puth(dt) int dt;{ if(dt<10) putch(0x30+dt); else putch(0x37+dt); }
 2715              		.loc 1 110 6 view .LVU639
 2716              	.LBB844:
 110:../USER/main_01aa.c **** void puth(dt) int dt;{ if(dt<10) putch(0x30+dt); else putch(0x37+dt); }
 2717              		.loc 1 110 26 view .LVU640
 2718              	.LBE844:
 2719              	.LBE845:
 2720              	.LBE846:
 2721              	.LBE850:
 111:../USER/main_01aa.c **** void puth2(dt) int dt;{ puth((dt >> 4) & 0xf); puth(dt & 0xf); }
 2722              		.loc 1 111 55 view .LVU641
 2723              	.LBB851:
 2724              	.LBI847:
 110:../USER/main_01aa.c **** void puth(dt) int dt;{ if(dt<10) putch(0x30+dt); else putch(0x37+dt); }
 2725              		.loc 1 110 6 view .LVU642
 2726              	.LBB849:
 110:../USER/main_01aa.c **** void puth(dt) int dt;{ if(dt<10) putch(0x30+dt); else putch(0x37+dt); }
 2727              		.loc 1 110 26 view .LVU643
 110:../USER/main_01aa.c **** void puth(dt) int dt;{ if(dt<10) putch(0x30+dt); else putch(0x37+dt); }
 2728              		.loc 1 110 26 is_stmt 0 view .LVU644
 2729              	.LBE849:
 2730              	.LBE851:
 2731              	.LBE852:
 2732              	.LBE854:
 2733              	.LBE855:
 2734              	.LBE893:
 2735              	.LBE897:
 2736              	.LBE965:
 2737              	.LBE967:
 113:../USER/main_01aa.c **** void puth6(dt) long dt;{ int dh,dl; dh = dt >> 16; dl = dt & 0xffff; puth2(dh); puth4(dl); }
 2738              		.loc 1 113 50 is_stmt 1 view .LVU645
 2739              	.LBB968:
 2740              	.LBB966:
 2741              	.LBB898:
 2742              	.LBB894:
 2743              	.LBI856:
 112:../USER/main_01aa.c **** void puth4(dt) int dt;{ puth2((dt >> 8) & 0xff); puth2(dt & 0xff); }
 2744              		.loc 1 112 6 view .LVU646
 2745              	.LBB891:
 112:../USER/main_01aa.c **** void puth4(dt) int dt;{ puth2((dt >> 8) & 0xff); puth2(dt & 0xff); }
 2746              		.loc 1 112 25 view .LVU647
 2747              	.LBB888:
 2748              	.LBI858:
 111:../USER/main_01aa.c **** void puth2(dt) int dt;{ puth((dt >> 4) & 0xf); puth(dt & 0xf); }
 2749              		.loc 1 111 6 view .LVU648
 2750              	.LBB873:
 111:../USER/main_01aa.c **** void puth2(dt) int dt;{ puth((dt >> 4) & 0xf); puth(dt & 0xf); }
 2751              		.loc 1 111 24 view .LVU649
 2752              	.LBB870:
 2753              	.LBI860:
 111:../USER/main_01aa.c **** void puth2(dt) int dt;{ puth((dt >> 4) & 0xf); puth(dt & 0xf); }
 2754              		.loc 1 111 6 view .LVU650
 2755              	.LBB866:
 111:../USER/main_01aa.c **** void puth2(dt) int dt;{ puth((dt >> 4) & 0xf); puth(dt & 0xf); }
 2756              		.loc 1 111 34 view .LVU651
 2757              	.LBB865:
 2758              	.LBI862:
 110:../USER/main_01aa.c **** void puth(dt) int dt;{ if(dt<10) putch(0x30+dt); else putch(0x37+dt); }
 2759              		.loc 1 110 6 view .LVU652
 2760              	.LBB864:
 110:../USER/main_01aa.c **** void puth(dt) int dt;{ if(dt<10) putch(0x30+dt); else putch(0x37+dt); }
 2761              		.loc 1 110 26 view .LVU653
 2762              	.LBE864:
 2763              	.LBE865:
 2764              	.LBE866:
 2765              	.LBE870:
 111:../USER/main_01aa.c **** void puth2(dt) int dt;{ puth((dt >> 4) & 0xf); puth(dt & 0xf); }
 2766              		.loc 1 111 55 view .LVU654
 2767              	.LBB871:
 2768              	.LBI867:
 110:../USER/main_01aa.c **** void puth(dt) int dt;{ if(dt<10) putch(0x30+dt); else putch(0x37+dt); }
 2769              		.loc 1 110 6 view .LVU655
 2770              	.LBB869:
 110:../USER/main_01aa.c **** void puth(dt) int dt;{ if(dt<10) putch(0x30+dt); else putch(0x37+dt); }
 2771              		.loc 1 110 26 view .LVU656
 110:../USER/main_01aa.c **** void puth(dt) int dt;{ if(dt<10) putch(0x30+dt); else putch(0x37+dt); }
 2772              		.loc 1 110 26 is_stmt 0 view .LVU657
 2773              	.LBE869:
 2774              	.LBE871:
 2775              	.LBE873:
 2776              	.LBE888:
 112:../USER/main_01aa.c **** void puth4(dt) int dt;{ puth2((dt >> 8) & 0xff); puth2(dt & 0xff); }
 2777              		.loc 1 112 48 is_stmt 1 view .LVU658
 2778              	.LBB889:
 2779              	.LBI875:
 111:../USER/main_01aa.c **** void puth2(dt) int dt;{ puth((dt >> 4) & 0xf); puth(dt & 0xf); }
 2780              		.loc 1 111 6 view .LVU659
 2781              	.LBB887:
 111:../USER/main_01aa.c **** void puth2(dt) int dt;{ puth((dt >> 4) & 0xf); puth(dt & 0xf); }
 2782              		.loc 1 111 24 view .LVU660
 2783              	.LBB877:
 2784              	.LBI877:
 111:../USER/main_01aa.c **** void puth2(dt) int dt;{ puth((dt >> 4) & 0xf); puth(dt & 0xf); }
 2785              		.loc 1 111 6 view .LVU661
 2786              	.LBB878:
 111:../USER/main_01aa.c **** void puth2(dt) int dt;{ puth((dt >> 4) & 0xf); puth(dt & 0xf); }
 2787              		.loc 1 111 34 view .LVU662
 2788              	.LBB879:
 2789              	.LBI879:
 110:../USER/main_01aa.c **** void puth(dt) int dt;{ if(dt<10) putch(0x30+dt); else putch(0x37+dt); }
 2790              		.loc 1 110 6 view .LVU663
 2791              	.LBB880:
 110:../USER/main_01aa.c **** void puth(dt) int dt;{ if(dt<10) putch(0x30+dt); else putch(0x37+dt); }
 2792              		.loc 1 110 26 view .LVU664
 2793              	.LBE880:
 2794              	.LBE879:
 2795              	.LBE878:
 2796              	.LBE877:
 111:../USER/main_01aa.c **** void puth2(dt) int dt;{ puth((dt >> 4) & 0xf); puth(dt & 0xf); }
 2797              		.loc 1 111 55 view .LVU665
 2798              	.LBB884:
 2799              	.LBB883:
 2800              	.LBB882:
 2801              	.LBB881:
 110:../USER/main_01aa.c **** void puth(dt) int dt;{ if(dt<10) putch(0x30+dt); else putch(0x37+dt); }
 2802              		.loc 1 110 26 is_stmt 0 view .LVU666
 2803 005e D4BF     		ite	le
 2804 0060 3031     		addle	r1, r1, #48
 2805              	.LVL172:
 110:../USER/main_01aa.c **** void puth(dt) int dt;{ if(dt<10) putch(0x30+dt); else putch(0x37+dt); }
 2806              		.loc 1 110 26 view .LVU667
 2807              	.LBE881:
 2808              	.LBE882:
 2809              	.LBE883:
 2810              	.LBE884:
 2811              	.LBB885:
 2812              	.LBI885:
 110:../USER/main_01aa.c **** void puth(dt) int dt;{ if(dt<10) putch(0x30+dt); else putch(0x37+dt); }
 2813              		.loc 1 110 6 is_stmt 1 view .LVU668
 2814              	.LBB886:
 110:../USER/main_01aa.c **** void puth(dt) int dt;{ if(dt<10) putch(0x30+dt); else putch(0x37+dt); }
 2815              		.loc 1 110 26 view .LVU669
 2816 0062 3731     		addgt	r1, r1, #55
 2817              	.LVL173:
 110:../USER/main_01aa.c **** void puth(dt) int dt;{ if(dt<10) putch(0x30+dt); else putch(0x37+dt); }
 2818              		.loc 1 110 26 is_stmt 0 view .LVU670
 2819 0064 4FF04020 		mov	r0, #1073758208
 2820 0068 FFF7FEFF 		bl	UART_SendChar
 2821              	.LVL174:
 110:../USER/main_01aa.c **** void puth(dt) int dt;{ if(dt<10) putch(0x30+dt); else putch(0x37+dt); }
 2822              		.loc 1 110 26 view .LVU671
 2823              	.LBE886:
 2824              	.LBE885:
 2825              	.LBE887:
 2826              	.LBE889:
 2827              	.LBE891:
 2828              	.LBE894:
 2829              	.LBE898:
 115:../USER/main_01aa.c **** void putsuart(char *buf){
 2830              		.loc 1 115 81 is_stmt 1 view .LVU672
 2831              	.LBB899:
 2832              	.LBI899:
 113:../USER/main_01aa.c **** void puth6(dt) long dt;{ int dh,dl; dh = dt >> 16; dl = dt & 0xffff; puth2(dh); puth4(dl); }
 2833              		.loc 1 113 6 view .LVU673
 2834              	.LBB900:
 113:../USER/main_01aa.c **** void puth6(dt) long dt;{ int dh,dl; dh = dt >> 16; dl = dt & 0xffff; puth2(dh); puth4(dl); }
 2835              		.loc 1 113 25 view .LVU674
 2836              	.LBB901:
 2837              	.LBB902:
 112:../USER/main_01aa.c **** void puth4(dt) int dt;{ puth2((dt >> 8) & 0xff); puth2(dt & 0xff); }
 2838              		.loc 1 112 34 is_stmt 0 view .LVU675
 2839 006c 2B13     		asrs	r3, r5, #12
 2840 006e D9B2     		uxtb	r1, r3
 2841              	.LBB903:
 2842              	.LBB904:
 111:../USER/main_01aa.c **** void puth2(dt) int dt;{ puth((dt >> 4) & 0xf); puth(dt & 0xf); }
 2843              		.loc 1 111 26 view .LVU676
 2844 0070 092B     		cmp	r3, #9
 2845              	.LBE904:
 2846              	.LBE903:
 2847              	.LBE902:
 2848              	.LBE901:
 113:../USER/main_01aa.c **** void puth6(dt) long dt;{ int dh,dl; dh = dt >> 16; dl = dt & 0xffff; puth2(dh); puth4(dl); }
 2849              		.loc 1 113 35 view .LVU677
 2850 0072 4FEA2525 		asr	r5, r5, #8
 2851              	.LVL175:
 2852              	.LBB934:
 2853              	.LBI901:
 112:../USER/main_01aa.c **** void puth4(dt) int dt;{ puth2((dt >> 8) & 0xff); puth2(dt & 0xff); }
 2854              		.loc 1 112 6 is_stmt 1 view .LVU678
 2855              	.LBB933:
 112:../USER/main_01aa.c **** void puth4(dt) int dt;{ puth2((dt >> 8) & 0xff); puth2(dt & 0xff); }
 2856              		.loc 1 112 25 view .LVU679
 2857              	.LBB919:
 2858              	.LBI903:
 111:../USER/main_01aa.c **** void puth2(dt) int dt;{ puth((dt >> 4) & 0xf); puth(dt & 0xf); }
 2859              		.loc 1 111 6 view .LVU680
 2860              	.LBB917:
 111:../USER/main_01aa.c **** void puth2(dt) int dt;{ puth((dt >> 4) & 0xf); puth(dt & 0xf); }
 2861              		.loc 1 111 24 view .LVU681
 2862              	.LBB905:
 2863              	.LBI905:
 111:../USER/main_01aa.c **** void puth2(dt) int dt;{ puth((dt >> 4) & 0xf); puth(dt & 0xf); }
 2864              		.loc 1 111 6 view .LVU682
 2865              	.LBB906:
 111:../USER/main_01aa.c **** void puth2(dt) int dt;{ puth((dt >> 4) & 0xf); puth(dt & 0xf); }
 2866              		.loc 1 111 34 view .LVU683
 2867              	.LBB907:
 2868              	.LBI907:
 110:../USER/main_01aa.c **** void puth(dt) int dt;{ if(dt<10) putch(0x30+dt); else putch(0x37+dt); }
 2869              		.loc 1 110 6 view .LVU684
 2870              	.LBB908:
 110:../USER/main_01aa.c **** void puth(dt) int dt;{ if(dt<10) putch(0x30+dt); else putch(0x37+dt); }
 2871              		.loc 1 110 26 view .LVU685
 2872              	.LBE908:
 2873              	.LBE907:
 2874              	.LBE906:
 2875              	.LBE905:
 111:../USER/main_01aa.c **** void puth2(dt) int dt;{ puth((dt >> 4) & 0xf); puth(dt & 0xf); }
 2876              		.loc 1 111 55 view .LVU686
 2877              	.LBB912:
 2878              	.LBB911:
 2879              	.LBB910:
 2880              	.LBB909:
 110:../USER/main_01aa.c **** void puth(dt) int dt;{ if(dt<10) putch(0x30+dt); else putch(0x37+dt); }
 2881              		.loc 1 110 26 is_stmt 0 view .LVU687
 2882 0076 D4BF     		ite	le
 2883 0078 3031     		addle	r1, r1, #48
 2884              	.LVL176:
 110:../USER/main_01aa.c **** void puth(dt) int dt;{ if(dt<10) putch(0x30+dt); else putch(0x37+dt); }
 2885              		.loc 1 110 26 view .LVU688
 2886              	.LBE909:
 2887              	.LBE910:
 2888              	.LBE911:
 2889              	.LBE912:
 2890              	.LBB913:
 2891              	.LBI913:
 110:../USER/main_01aa.c **** void puth(dt) int dt;{ if(dt<10) putch(0x30+dt); else putch(0x37+dt); }
 2892              		.loc 1 110 6 is_stmt 1 view .LVU689
 2893              	.LBB914:
 110:../USER/main_01aa.c **** void puth(dt) int dt;{ if(dt<10) putch(0x30+dt); else putch(0x37+dt); }
 2894              		.loc 1 110 26 view .LVU690
 2895 007a 3731     		addgt	r1, r1, #55
 2896              	.LVL177:
 110:../USER/main_01aa.c **** void puth(dt) int dt;{ if(dt<10) putch(0x30+dt); else putch(0x37+dt); }
 2897              		.loc 1 110 26 is_stmt 0 view .LVU691
 2898              	.LBE914:
 2899              	.LBE913:
 2900              	.LBE917:
 2901              	.LBE919:
 112:../USER/main_01aa.c **** void puth4(dt) int dt;{ puth2((dt >> 8) & 0xff); puth2(dt & 0xff); }
 2902              		.loc 1 112 48 view .LVU692
 2903 007c 05F00F05 		and	r5, r5, #15
 2904              	.LVL178:
 2905              	.LBB920:
 2906              	.LBB918:
 2907              	.LBB916:
 2908              	.LBB915:
 110:../USER/main_01aa.c **** void puth(dt) int dt;{ if(dt<10) putch(0x30+dt); else putch(0x37+dt); }
 2909              		.loc 1 110 26 view .LVU693
 2910 0080 4FF04020 		mov	r0, #1073758208
 2911 0084 FFF7FEFF 		bl	UART_SendChar
 2912              	.LVL179:
 110:../USER/main_01aa.c **** void puth(dt) int dt;{ if(dt<10) putch(0x30+dt); else putch(0x37+dt); }
 2913              		.loc 1 110 26 view .LVU694
 2914              	.LBE915:
 2915              	.LBE916:
 2916              	.LBE918:
 2917              	.LBE920:
 112:../USER/main_01aa.c **** void puth4(dt) int dt;{ puth2((dt >> 8) & 0xff); puth2(dt & 0xff); }
 2918              		.loc 1 112 48 is_stmt 1 view .LVU695
 2919              	.LBB921:
 2920              	.LBI921:
 111:../USER/main_01aa.c **** void puth2(dt) int dt;{ puth((dt >> 4) & 0xf); puth(dt & 0xf); }
 2921              		.loc 1 111 6 view .LVU696
 2922              	.LBB922:
 111:../USER/main_01aa.c **** void puth2(dt) int dt;{ puth((dt >> 4) & 0xf); puth(dt & 0xf); }
 2923              		.loc 1 111 24 view .LVU697
 2924              	.LBB923:
 2925              	.LBI923:
 111:../USER/main_01aa.c **** void puth2(dt) int dt;{ puth((dt >> 4) & 0xf); puth(dt & 0xf); }
 2926              		.loc 1 111 6 view .LVU698
 2927              	.LBB924:
 111:../USER/main_01aa.c **** void puth2(dt) int dt;{ puth((dt >> 4) & 0xf); puth(dt & 0xf); }
 2928              		.loc 1 111 34 view .LVU699
 2929 0088 E9B2     		uxtb	r1, r5
 2930              	.LVL180:
 2931              	.LBB925:
 2932              	.LBI925:
 110:../USER/main_01aa.c **** void puth(dt) int dt;{ if(dt<10) putch(0x30+dt); else putch(0x37+dt); }
 2933              		.loc 1 110 6 view .LVU700
 2934              	.LBB926:
 110:../USER/main_01aa.c **** void puth(dt) int dt;{ if(dt<10) putch(0x30+dt); else putch(0x37+dt); }
 2935              		.loc 1 110 26 view .LVU701
 2936              	.LBE926:
 2937              	.LBE925:
 2938              	.LBE924:
 2939              	.LBE923:
 111:../USER/main_01aa.c **** void puth2(dt) int dt;{ puth((dt >> 4) & 0xf); puth(dt & 0xf); }
 2940              		.loc 1 111 55 view .LVU702
 111:../USER/main_01aa.c **** void puth2(dt) int dt;{ puth((dt >> 4) & 0xf); puth(dt & 0xf); }
 2941              		.loc 1 111 26 is_stmt 0 view .LVU703
 2942 008a 092D     		cmp	r5, #9
 2943              	.LBB930:
 2944              	.LBB929:
 2945              	.LBB928:
 2946              	.LBB927:
 110:../USER/main_01aa.c **** void puth(dt) int dt;{ if(dt<10) putch(0x30+dt); else putch(0x37+dt); }
 2947              		.loc 1 110 26 view .LVU704
 2948 008c D4BF     		ite	le
 2949 008e 3031     		addle	r1, r1, #48
 2950              	.LVL181:
 110:../USER/main_01aa.c **** void puth(dt) int dt;{ if(dt<10) putch(0x30+dt); else putch(0x37+dt); }
 2951              		.loc 1 110 26 view .LVU705
 2952              	.LBE927:
 2953              	.LBE928:
 2954              	.LBE929:
 2955              	.LBE930:
 2956              	.LBB931:
 2957              	.LBI931:
 110:../USER/main_01aa.c **** void puth(dt) int dt;{ if(dt<10) putch(0x30+dt); else putch(0x37+dt); }
 2958              		.loc 1 110 6 is_stmt 1 view .LVU706
 2959              	.LBB932:
 110:../USER/main_01aa.c **** void puth(dt) int dt;{ if(dt<10) putch(0x30+dt); else putch(0x37+dt); }
 2960              		.loc 1 110 26 view .LVU707
 2961 0090 3731     		addgt	r1, r1, #55
 2962              	.LVL182:
 110:../USER/main_01aa.c **** void puth(dt) int dt;{ if(dt<10) putch(0x30+dt); else putch(0x37+dt); }
 2963              		.loc 1 110 26 is_stmt 0 view .LVU708
 2964 0092 4FF04020 		mov	r0, #1073758208
 2965 0096 FFF7FEFF 		bl	UART_SendChar
 2966              	.LVL183:
 110:../USER/main_01aa.c **** void puth(dt) int dt;{ if(dt<10) putch(0x30+dt); else putch(0x37+dt); }
 2967              		.loc 1 110 26 view .LVU709
 2968              	.LBE932:
 2969              	.LBE931:
 2970              	.LBE922:
 2971              	.LBE921:
 2972              	.LBE933:
 2973              	.LBE934:
 113:../USER/main_01aa.c **** void puth6(dt) long dt;{ int dh,dl; dh = dt >> 16; dl = dt & 0xffff; puth2(dh); puth4(dl); }
 2974              		.loc 1 113 50 is_stmt 1 view .LVU710
 2975              	.LBB935:
 2976              	.LBI935:
 112:../USER/main_01aa.c **** void puth4(dt) int dt;{ puth2((dt >> 8) & 0xff); puth2(dt & 0xff); }
 2977              		.loc 1 112 6 view .LVU711
 2978              	.LBB936:
 112:../USER/main_01aa.c **** void puth4(dt) int dt;{ puth2((dt >> 8) & 0xff); puth2(dt & 0xff); }
 2979              		.loc 1 112 25 view .LVU712
 112:../USER/main_01aa.c **** void puth4(dt) int dt;{ puth2((dt >> 8) & 0xff); puth2(dt & 0xff); }
 2980              		.loc 1 112 34 is_stmt 0 view .LVU713
 2981 009a C4F30313 		ubfx	r3, r4, #4, #4
 2982              	.LVL184:
 2983              	.LBB937:
 2984              	.LBI937:
 111:../USER/main_01aa.c **** void puth2(dt) int dt;{ puth((dt >> 4) & 0xf); puth(dt & 0xf); }
 2985              		.loc 1 111 6 is_stmt 1 view .LVU714
 2986              	.LBB938:
 111:../USER/main_01aa.c **** void puth2(dt) int dt;{ puth((dt >> 4) & 0xf); puth(dt & 0xf); }
 2987              		.loc 1 111 24 view .LVU715
 2988              	.LBB939:
 2989              	.LBI939:
 111:../USER/main_01aa.c **** void puth2(dt) int dt;{ puth((dt >> 4) & 0xf); puth(dt & 0xf); }
 2990              		.loc 1 111 6 view .LVU716
 2991              	.LBB940:
 111:../USER/main_01aa.c **** void puth2(dt) int dt;{ puth((dt >> 4) & 0xf); puth(dt & 0xf); }
 2992              		.loc 1 111 34 view .LVU717
 2993 009e D9B2     		uxtb	r1, r3
 2994              	.LVL185:
 2995              	.LBB941:
 2996              	.LBI941:
 110:../USER/main_01aa.c **** void puth(dt) int dt;{ if(dt<10) putch(0x30+dt); else putch(0x37+dt); }
 2997              		.loc 1 110 6 view .LVU718
 2998              	.LBB942:
 110:../USER/main_01aa.c **** void puth(dt) int dt;{ if(dt<10) putch(0x30+dt); else putch(0x37+dt); }
 2999              		.loc 1 110 26 view .LVU719
 3000              	.LBE942:
 3001              	.LBE941:
 3002              	.LBE940:
 3003              	.LBE939:
 111:../USER/main_01aa.c **** void puth2(dt) int dt;{ puth((dt >> 4) & 0xf); puth(dt & 0xf); }
 3004              		.loc 1 111 55 view .LVU720
 111:../USER/main_01aa.c **** void puth2(dt) int dt;{ puth((dt >> 4) & 0xf); puth(dt & 0xf); }
 3005              		.loc 1 111 26 is_stmt 0 view .LVU721
 3006 00a0 092B     		cmp	r3, #9
 3007              	.LBB946:
 3008              	.LBB945:
 3009              	.LBB944:
 3010              	.LBB943:
 110:../USER/main_01aa.c **** void puth(dt) int dt;{ if(dt<10) putch(0x30+dt); else putch(0x37+dt); }
 3011              		.loc 1 110 26 view .LVU722
 3012 00a2 D4BF     		ite	le
 3013 00a4 3031     		addle	r1, r1, #48
 3014              	.LVL186:
 110:../USER/main_01aa.c **** void puth(dt) int dt;{ if(dt<10) putch(0x30+dt); else putch(0x37+dt); }
 3015              		.loc 1 110 26 view .LVU723
 3016              	.LBE943:
 3017              	.LBE944:
 3018              	.LBE945:
 3019              	.LBE946:
 3020              	.LBB947:
 3021              	.LBI947:
 110:../USER/main_01aa.c **** void puth(dt) int dt;{ if(dt<10) putch(0x30+dt); else putch(0x37+dt); }
 3022              		.loc 1 110 6 is_stmt 1 view .LVU724
 3023              	.LBB948:
 110:../USER/main_01aa.c **** void puth(dt) int dt;{ if(dt<10) putch(0x30+dt); else putch(0x37+dt); }
 3024              		.loc 1 110 26 view .LVU725
 3025 00a6 3731     		addgt	r1, r1, #55
 3026              	.LVL187:
 110:../USER/main_01aa.c **** void puth(dt) int dt;{ if(dt<10) putch(0x30+dt); else putch(0x37+dt); }
 3027              		.loc 1 110 26 is_stmt 0 view .LVU726
 3028              	.LBE948:
 3029              	.LBE947:
 3030              	.LBE938:
 3031              	.LBE937:
 112:../USER/main_01aa.c **** void puth4(dt) int dt;{ puth2((dt >> 8) & 0xff); puth2(dt & 0xff); }
 3032              		.loc 1 112 48 view .LVU727
 3033 00a8 04F00F04 		and	r4, r4, #15
 3034              	.LVL188:
 3035              	.LBB952:
 3036              	.LBB951:
 3037              	.LBB950:
 3038              	.LBB949:
 110:../USER/main_01aa.c **** void puth(dt) int dt;{ if(dt<10) putch(0x30+dt); else putch(0x37+dt); }
 3039              		.loc 1 110 26 view .LVU728
 3040 00ac 4FF04020 		mov	r0, #1073758208
 3041 00b0 FFF7FEFF 		bl	UART_SendChar
 3042              	.LVL189:
 110:../USER/main_01aa.c **** void puth(dt) int dt;{ if(dt<10) putch(0x30+dt); else putch(0x37+dt); }
 3043              		.loc 1 110 26 view .LVU729
 3044              	.LBE949:
 3045              	.LBE950:
 3046              	.LBE951:
 3047              	.LBE952:
 112:../USER/main_01aa.c **** void puth4(dt) int dt;{ puth2((dt >> 8) & 0xff); puth2(dt & 0xff); }
 3048              		.loc 1 112 48 is_stmt 1 view .LVU730
 3049              	.LBB953:
 3050              	.LBI953:
 111:../USER/main_01aa.c **** void puth2(dt) int dt;{ puth((dt >> 4) & 0xf); puth(dt & 0xf); }
 3051              		.loc 1 111 6 view .LVU731
 3052              	.LBB954:
 111:../USER/main_01aa.c **** void puth2(dt) int dt;{ puth((dt >> 4) & 0xf); puth(dt & 0xf); }
 3053              		.loc 1 111 24 view .LVU732
 3054              	.LBB955:
 3055              	.LBI955:
 111:../USER/main_01aa.c **** void puth2(dt) int dt;{ puth((dt >> 4) & 0xf); puth(dt & 0xf); }
 3056              		.loc 1 111 6 view .LVU733
 3057              	.LBB956:
 111:../USER/main_01aa.c **** void puth2(dt) int dt;{ puth((dt >> 4) & 0xf); puth(dt & 0xf); }
 3058              		.loc 1 111 34 view .LVU734
 3059 00b4 E1B2     		uxtb	r1, r4
 3060              	.LVL190:
 3061              	.LBB957:
 3062              	.LBI957:
 110:../USER/main_01aa.c **** void puth(dt) int dt;{ if(dt<10) putch(0x30+dt); else putch(0x37+dt); }
 3063              		.loc 1 110 6 view .LVU735
 3064              	.LBB958:
 110:../USER/main_01aa.c **** void puth(dt) int dt;{ if(dt<10) putch(0x30+dt); else putch(0x37+dt); }
 3065              		.loc 1 110 26 view .LVU736
 3066              	.LBE958:
 3067              	.LBE957:
 3068              	.LBE956:
 3069              	.LBE955:
 111:../USER/main_01aa.c **** void puth2(dt) int dt;{ puth((dt >> 4) & 0xf); puth(dt & 0xf); }
 3070              		.loc 1 111 55 view .LVU737
 111:../USER/main_01aa.c **** void puth2(dt) int dt;{ puth((dt >> 4) & 0xf); puth(dt & 0xf); }
 3071              		.loc 1 111 26 is_stmt 0 view .LVU738
 3072 00b6 092C     		cmp	r4, #9
 3073              	.LBB962:
 3074              	.LBB961:
 3075              	.LBB960:
 3076              	.LBB959:
 110:../USER/main_01aa.c **** void puth(dt) int dt;{ if(dt<10) putch(0x30+dt); else putch(0x37+dt); }
 3077              		.loc 1 110 26 view .LVU739
 3078 00b8 D4BF     		ite	le
 3079 00ba 3031     		addle	r1, r1, #48
 3080              	.LVL191:
 110:../USER/main_01aa.c **** void puth(dt) int dt;{ if(dt<10) putch(0x30+dt); else putch(0x37+dt); }
 3081              		.loc 1 110 26 view .LVU740
 3082              	.LBE959:
 3083              	.LBE960:
 3084              	.LBE961:
 3085              	.LBE962:
 3086              	.LBB963:
 3087              	.LBI963:
 110:../USER/main_01aa.c **** void puth(dt) int dt;{ if(dt<10) putch(0x30+dt); else putch(0x37+dt); }
 3088              		.loc 1 110 6 is_stmt 1 view .LVU741
 3089              	.LBB964:
 110:../USER/main_01aa.c **** void puth(dt) int dt;{ if(dt<10) putch(0x30+dt); else putch(0x37+dt); }
 3090              		.loc 1 110 26 view .LVU742
 3091 00bc 3731     		addgt	r1, r1, #55
 3092              	.LVL192:
 110:../USER/main_01aa.c **** void puth(dt) int dt;{ if(dt<10) putch(0x30+dt); else putch(0x37+dt); }
 3093              		.loc 1 110 26 is_stmt 0 view .LVU743
 3094 00be 4FF04020 		mov	r0, #1073758208
 3095 00c2 FFF7FEFF 		bl	UART_SendChar
 3096              	.LVL193:
 110:../USER/main_01aa.c **** void puth(dt) int dt;{ if(dt<10) putch(0x30+dt); else putch(0x37+dt); }
 3097              		.loc 1 110 26 view .LVU744
 3098              	.LBE964:
 3099              	.LBE963:
 3100              	.LBE954:
 3101              	.LBE953:
 3102              	.LBE936:
 3103              	.LBE935:
 3104              	.LBE900:
 3105              	.LBE899:
 3106              	.LBE966:
 3107              	.LBE968:
 3108              		.loc 1 137 55 is_stmt 1 view .LVU745
 3109              	.LBB969:
 3110              	.LBI969:
 110:../USER/main_01aa.c **** void puth(dt) int dt;{ if(dt<10) putch(0x30+dt); else putch(0x37+dt); }
 3111              		.loc 1 110 6 view .LVU746
 3112              	.LBB970:
 110:../USER/main_01aa.c **** void puth(dt) int dt;{ if(dt<10) putch(0x30+dt); else putch(0x37+dt); }
 3113              		.loc 1 110 26 view .LVU747
 3114              	.LBE970:
 3115              	.LBE969:
 3116              		.loc 1 137 1 is_stmt 0 view .LVU748
 3117 00c6 BDE8F840 		pop	{r3, r4, r5, r6, r7, lr}
 3118              		.cfi_restore 14
 3119              		.cfi_restore 7
 3120              		.cfi_restore 6
 3121              		.cfi_restore 5
 3122              		.cfi_restore 4
 3123              		.cfi_restore 3
 3124              		.cfi_def_cfa_offset 0
 3125              	.LVL194:
 3126              	.LBB972:
 3127              	.LBB971:
 110:../USER/main_01aa.c **** void puth(dt) int dt;{ if(dt<10) putch(0x30+dt); else putch(0x37+dt); }
 3128              		.loc 1 110 26 view .LVU749
 3129 00ca 3A21     		movs	r1, #58
 3130 00cc 4FF04020 		mov	r0, #1073758208
 3131 00d0 FFF7FEBF 		b	UART_SendChar
 3132              	.LVL195:
 3133              	.LBE971:
 3134              	.LBE972:
 3135              		.cfi_endproc
 3136              	.LFE49:
 3138              		.section	.text.getsh,"ax",%progbits
 3139              		.align	1
 3140              		.p2align 2,,3
 3141              		.global	getsh
 3142              		.syntax unified
 3143              		.thumb
 3144              		.thumb_func
 3145              		.fpu softvfp
 3147              	getsh:
 3148              	.LVL196:
 3149              	.LFB50:
 138:../USER/main_01aa.c **** 
 139:../USER/main_01aa.c **** long getsh(buf) char **buf;{
 3150              		.loc 1 139 28 is_stmt 1 view -0
 3151              		.cfi_startproc
 3152              		@ args = 0, pretend = 0, frame = 0
 3153              		@ frame_needed = 0, uses_anonymous_args = 0
 3154              		@ link register save eliminated.
 140:../USER/main_01aa.c ****   long num = 0; int hd;
 3155              		.loc 1 140 3 view .LVU751
 3156              		.loc 1 140 17 view .LVU752
 141:../USER/main_01aa.c ****   if(**buf==0x0d) return -1;
 3157              		.loc 1 141 3 view .LVU753
 3158              		.loc 1 141 7 is_stmt 0 view .LVU754
 3159 0000 0268     		ldr	r2, [r0]
 3160              		.loc 1 141 6 view .LVU755
 3161 0002 92F90030 		ldrsb	r3, [r2]
 3162              		.loc 1 141 5 view .LVU756
 3163 0006 0D2B     		cmp	r3, #13
 3164 0008 22D0     		beq	.L141
 3165              	.LBB977:
 3166              	.LBB978:
 142:../USER/main_01aa.c ****   while(**buf==' ') (*buf)++; /* spip sp*/
 3167              		.loc 1 142 8 view .LVU757
 3168 000a 202B     		cmp	r3, #32
 3169              	.LBE978:
 3170              	.LBE977:
 139:../USER/main_01aa.c ****   long num = 0; int hd;
 3171              		.loc 1 139 28 view .LVU758
 3172 000c 30B4     		push	{r4, r5}
 3173              		.cfi_def_cfa_offset 8
 3174              		.cfi_offset 4, -8
 3175              		.cfi_offset 5, -4
 3176 000e 0546     		mov	r5, r0
 3177              	.LBB988:
 3178              	.LBB987:
 3179              		.loc 1 142 8 view .LVU759
 3180 0010 05D1     		bne	.L135
 3181              	.L136:
 3182              		.loc 1 142 21 is_stmt 1 view .LVU760
 3183              		.loc 1 142 27 is_stmt 0 view .LVU761
 3184 0012 0132     		adds	r2, r2, #1
 3185 0014 2A60     		str	r2, [r5]
 3186              		.loc 1 142 9 view .LVU762
 3187 0016 92F90030 		ldrsb	r3, [r2]
 3188              		.loc 1 142 8 view .LVU763
 3189 001a 202B     		cmp	r3, #32
 3190 001c F9D0     		beq	.L136
 3191              	.L135:
 140:../USER/main_01aa.c ****   if(**buf==0x0d) return -1;
 3192              		.loc 1 140 8 view .LVU764
 3193 001e 0020     		movs	r0, #0
 3194              	.LVL197:
 140:../USER/main_01aa.c ****   if(**buf==0x0d) return -1;
 3195              		.loc 1 140 8 view .LVU765
 3196 0020 08E0     		b	.L137
 3197              	.LVL198:
 3198              	.L148:
 3199              	.LBB979:
 3200              	.LBB980:
 131:../USER/main_01aa.c ****   else if(ch>='A' && ch<='F') hd = ch - 0x37;
 3201              		.loc 1 131 29 view .LVU766
 3202 0022 303B     		subs	r3, r3, #48
 3203              	.LVL199:
 131:../USER/main_01aa.c ****   else if(ch>='A' && ch<='F') hd = ch - 0x37;
 3204              		.loc 1 131 29 view .LVU767
 3205              	.LBE980:
 3206              	.LBE979:
 143:../USER/main_01aa.c ****   while( (hd=ishex(**buf)) != -1){ num = num * 16 + hd; (*buf)++; }
 3207              		.loc 1 143 36 is_stmt 1 view .LVU768
 3208              	.LBB984:
 3209              	.LBB981:
 134:../USER/main_01aa.c **** }
 3210              		.loc 1 134 3 view .LVU769
 134:../USER/main_01aa.c **** }
 3211              		.loc 1 134 3 is_stmt 0 view .LVU770
 3212              	.LBE981:
 3213              	.LBE984:
 3214              		.loc 1 143 8 view .LVU771
 3215 0024 591C     		adds	r1, r3, #1
 3216 0026 11D0     		beq	.L133
 3217              	.L140:
 3218              		.loc 1 143 63 view .LVU772
 3219 0028 0132     		adds	r2, r2, #1
 3220 002a 2A60     		str	r2, [r5]
 3221              		.loc 1 143 40 view .LVU773
 3222 002c 03EB0010 		add	r0, r3, r0, lsl #4
 3223              	.LVL200:
 3224              		.loc 1 143 57 is_stmt 1 view .LVU774
 3225 0030 92F90030 		ldrsb	r3, [r2]
 3226              	.LVL201:
 3227              	.L137:
 3228              	.LBB985:
 3229              	.LBI979:
 129:../USER/main_01aa.c ****   int hd;
 3230              		.loc 1 129 5 view .LVU775
 3231              	.LBB982:
 130:../USER/main_01aa.c ****   if(ch>='0' && ch<='9') hd = ch - 0x30;
 3232              		.loc 1 130 3 view .LVU776
 131:../USER/main_01aa.c ****   else if(ch>='A' && ch<='F') hd = ch - 0x37;
 3233              		.loc 1 131 3 view .LVU777
 131:../USER/main_01aa.c ****   else if(ch>='A' && ch<='F') hd = ch - 0x37;
 3234              		.loc 1 131 26 view .LVU778
 132:../USER/main_01aa.c ****   else hd = -1;
 3235              		.loc 1 132 8 view .LVU779
 132:../USER/main_01aa.c ****   else hd = -1;
 3236              		.loc 1 132 31 view .LVU780
 131:../USER/main_01aa.c ****   else if(ch>='A' && ch<='F') hd = ch - 0x37;
 3237              		.loc 1 131 14 is_stmt 0 view .LVU781
 3238 0034 D9B2     		uxtb	r1, r3
 131:../USER/main_01aa.c ****   else if(ch>='A' && ch<='F') hd = ch - 0x37;
 3239              		.loc 1 131 5 view .LVU782
 3240 0036 A1F13004 		sub	r4, r1, #48
 3241 003a 092C     		cmp	r4, #9
 132:../USER/main_01aa.c ****   else hd = -1;
 3242              		.loc 1 132 10 view .LVU783
 3243 003c A1F14101 		sub	r1, r1, #65
 131:../USER/main_01aa.c ****   else if(ch>='A' && ch<='F') hd = ch - 0x37;
 3244              		.loc 1 131 5 view .LVU784
 3245 0040 EFD9     		bls	.L148
 132:../USER/main_01aa.c ****   else hd = -1;
 3246              		.loc 1 132 10 view .LVU785
 3247 0042 0529     		cmp	r1, #5
 3248 0044 02D8     		bhi	.L133
 132:../USER/main_01aa.c ****   else hd = -1;
 3249              		.loc 1 132 34 view .LVU786
 3250 0046 373B     		subs	r3, r3, #55
 3251              	.LVL202:
 132:../USER/main_01aa.c ****   else hd = -1;
 3252              		.loc 1 132 34 view .LVU787
 3253              	.LBE982:
 3254              	.LBE985:
 3255              		.loc 1 143 36 is_stmt 1 view .LVU788
 3256              	.LBB986:
 3257              	.LBB983:
 134:../USER/main_01aa.c **** }
 3258              		.loc 1 134 3 view .LVU789
 134:../USER/main_01aa.c **** }
 3259              		.loc 1 134 3 is_stmt 0 view .LVU790
 3260              	.LBE983:
 3261              	.LBE986:
 3262              		.loc 1 143 8 view .LVU791
 3263 0048 591C     		adds	r1, r3, #1
 3264 004a EDD1     		bne	.L140
 3265              	.LVL203:
 3266              	.L133:
 3267              		.loc 1 143 8 view .LVU792
 3268              	.LBE987:
 3269              	.LBE988:
 144:../USER/main_01aa.c ****   return num;
 145:../USER/main_01aa.c **** }
 3270              		.loc 1 145 1 view .LVU793
 3271 004c 30BC     		pop	{r4, r5}
 3272              		.cfi_restore 5
 3273              		.cfi_restore 4
 3274              		.cfi_def_cfa_offset 0
 3275              	.LVL204:
 3276              		.loc 1 145 1 view .LVU794
 3277 004e 7047     		bx	lr
 3278              	.LVL205:
 3279              	.L141:
 141:../USER/main_01aa.c ****   while(**buf==' ') (*buf)++; /* spip sp*/
 3280              		.loc 1 141 26 view .LVU795
 3281 0050 4FF0FF30 		mov	r0, #-1
 3282              	.LVL206:
 3283              		.loc 1 145 1 view .LVU796
 3284 0054 7047     		bx	lr
 3285              		.cfi_endproc
 3286              	.LFE50:
 3288 0056 00BF     		.section	.text.startup.main,"ax",%progbits
 3289              		.align	1
 3290              		.p2align 2,,3
 3291              		.global	main
 3292              		.syntax unified
 3293              		.thumb
 3294              		.thumb_func
 3295              		.fpu softvfp
 3297              	main:
 3298              	.LFB51:
 146:../USER/main_01aa.c **** 
 147:../USER/main_01aa.c **** int main(void){
 3299              		.loc 1 147 15 is_stmt 1 view -0
 3300              		.cfi_startproc
 3301              		@ args = 0, pretend = 0, frame = 48
 3302              		@ frame_needed = 0, uses_anonymous_args = 0
 148:../USER/main_01aa.c **** 	unsigned char *mbase;
 3303              		.loc 1 148 2 view .LVU798
 149:../USER/main_01aa.c **** 	  long adr,ade,adro,dt,dtr,wk,sct,scr,sl;
 3304              		.loc 1 149 4 view .LVU799
 150:../USER/main_01aa.c **** 	  long i,j,mmd,rno;
 3305              		.loc 1 150 4 view .LVU800
 151:../USER/main_01aa.c **** 	  unsigned int * cmp, *wrp, *sbp;
 3306              		.loc 1 151 4 view .LVU801
 152:../USER/main_01aa.c **** 	  char cmd, cbuf[32], *cbp, **cbpp;
 3307              		.loc 1 152 4 view .LVU802
 153:../USER/main_01aa.c **** 
 154:../USER/main_01aa.c **** 		uint32_t pin;
 3308              		.loc 1 154 3 view .LVU803
 155:../USER/main_01aa.c **** 		char ch,kd;
 3309              		.loc 1 155 3 view .LVU804
 156:../USER/main_01aa.c **** 		SystemInit();	//Initializes system
 3310              		.loc 1 156 3 view .LVU805
 147:../USER/main_01aa.c **** 	unsigned char *mbase;
 3311              		.loc 1 147 15 is_stmt 0 view .LVU806
 3312 0000 2DE9F04F 		push	{r4, r5, r6, r7, r8, r9, r10, fp, lr}
 3313              		.cfi_def_cfa_offset 36
 3314              		.cfi_offset 4, -36
 3315              		.cfi_offset 5, -32
 3316              		.cfi_offset 6, -28
 3317              		.cfi_offset 7, -24
 3318              		.cfi_offset 8, -20
 3319              		.cfi_offset 9, -16
 3320              		.cfi_offset 10, -12
 3321              		.cfi_offset 11, -8
 3322              		.cfi_offset 14, -4
 3323 0004 8DB0     		sub	sp, sp, #52
 3324              		.cfi_def_cfa_offset 88
 3325              		.loc 1 156 3 view .LVU807
 3326 0006 FFF7FEFF 		bl	SystemInit
 3327              	.LVL207:
 157:../USER/main_01aa.c **** 		//pin = GPIO_Pin_3; GPIOInit(pin);	//Initializes GPIO
 158:../USER/main_01aa.c **** 		UartInit();
 3328              		.loc 1 158 3 is_stmt 1 view .LVU808
 3329 000a FFF7FEFF 		bl	UartInit
 3330              	.LVL208:
 159:../USER/main_01aa.c **** 		SPIInit();		//Initializes SPI
 3331              		.loc 1 159 3 view .LVU809
 3332              	.LBB1393:
 3333              	.LBI1393:
  55:../USER/main_01aa.c **** {
 3334              		.loc 1 55 6 view .LVU810
 3335              	.LBB1394:
  57:../USER/main_01aa.c **** 
 3336              		.loc 1 57 2 view .LVU811
  59:../USER/main_01aa.c ****   init_spi.DIRECTION = DISABLE;					//MSB First
 3337              		.loc 1 59 3 view .LVU812
  60:../USER/main_01aa.c ****   init_spi.PHASE =DISABLE;							//ENABLE;//posedge
 3338              		.loc 1 60 3 view .LVU813
  61:../USER/main_01aa.c ****   init_spi.POLARITY =DISABLE;						//polarity 0
 3339              		.loc 1 61 3 view .LVU814
  62:../USER/main_01aa.c **** 
 3340              		.loc 1 62 3 view .LVU815
  60:../USER/main_01aa.c ****   init_spi.PHASE =DISABLE;							//ENABLE;//posedge
 3341              		.loc 1 60 22 is_stmt 0 view .LVU816
 3342 000e 4FF08073 		mov	r3, #16777216
  64:../USER/main_01aa.c **** 
 3343              		.loc 1 64 3 view .LVU817
 3344 0012 04A8     		add	r0, sp, #16
  60:../USER/main_01aa.c ****   init_spi.PHASE =DISABLE;							//ENABLE;//posedge
 3345              		.loc 1 60 22 view .LVU818
 3346 0014 0493     		str	r3, [sp, #16]
  64:../USER/main_01aa.c **** 
 3347              		.loc 1 64 3 is_stmt 1 view .LVU819
 3348 0016 FFF7FEFF 		bl	SPI_Init
 3349              	.LVL209:
 3350              	.LBE1394:
 3351              	.LBE1393:
 160:../USER/main_01aa.c **** 		GPIOInit(0); GPIO_ResetBit(GPIO0,0);
 3352              		.loc 1 160 3 view .LVU820
 3353 001a 0020     		movs	r0, #0
 3354 001c FFF7FEFF 		bl	GPIOInit
 3355              	.LVL210:
 3356              		.loc 1 160 16 view .LVU821
 3357 0020 0021     		movs	r1, #0
 3358 0022 6B48     		ldr	r0, .L349
 3359 0024 FFF7FEFF 		bl	GPIO_ResetBit
 3360              	.LVL211:
 161:../USER/main_01aa.c **** 		GPIOInit(1); GPIO_SetBit(GPIO0,1);
 3361              		.loc 1 161 3 view .LVU822
 3362 0028 0120     		movs	r0, #1
 3363 002a FFF7FEFF 		bl	GPIOInit
 3364              	.LVL212:
 3365              		.loc 1 161 16 view .LVU823
 3366 002e 0121     		movs	r1, #1
 3367 0030 6748     		ldr	r0, .L349
 3368 0032 FFF7FEFF 		bl	GPIO_SetBit
 3369              	.LVL213:
 162:../USER/main_01aa.c **** 
 163:../USER/main_01aa.c **** 		mbase = 0;
 3370              		.loc 1 163 3 view .LVU824
 164:../USER/main_01aa.c **** 		cbpp = &cbp; adro = 0;
 3371              		.loc 1 164 3 view .LVU825
 3372              		.loc 1 164 16 view .LVU826
 165:../USER/main_01aa.c **** 	  puts("\nMon_TN4K");
 3373              		.loc 1 165 4 view .LVU827
 3374              	.LBB1395:
 3375              	.LBI1395:
 116:../USER/main_01aa.c **** 	while(1){
 3376              		.loc 1 116 6 view .LVU828
 3377              	.LBB1396:
 117:../USER/main_01aa.c **** 		if(*buf==0) break;
 3378              		.loc 1 117 2 view .LVU829
 118:../USER/main_01aa.c **** 		else        putch(*buf++);
 3379              		.loc 1 118 3 view .LVU830
 118:../USER/main_01aa.c **** 		else        putch(*buf++);
 3380              		.loc 1 118 6 is_stmt 0 view .LVU831
 3381 0036 0A21     		movs	r1, #10
 3382              	.LBE1396:
 3383              	.LBE1395:
 161:../USER/main_01aa.c **** 
 3384              		.loc 1 161 16 view .LVU832
 3385 0038 664C     		ldr	r4, .L349+4
 3386              	.LVL214:
 3387              	.L151:
 3388              	.LBB1400:
 3389              	.LBB1399:
 119:../USER/main_01aa.c **** 	}
 3390              		.loc 1 119 15 is_stmt 1 view .LVU833
 3391              	.LBB1397:
 3392              	.LBI1397:
 110:../USER/main_01aa.c **** void puth(dt) int dt;{ if(dt<10) putch(0x30+dt); else putch(0x37+dt); }
 3393              		.loc 1 110 6 view .LVU834
 3394              	.LBB1398:
 110:../USER/main_01aa.c **** void puth(dt) int dt;{ if(dt<10) putch(0x30+dt); else putch(0x37+dt); }
 3395              		.loc 1 110 26 view .LVU835
 3396 003a 4FF04020 		mov	r0, #1073758208
 3397 003e FFF7FEFF 		bl	UART_SendChar
 3398              	.LVL215:
 110:../USER/main_01aa.c **** void puth(dt) int dt;{ if(dt<10) putch(0x30+dt); else putch(0x37+dt); }
 3399              		.loc 1 110 26 is_stmt 0 view .LVU836
 3400              	.LBE1398:
 3401              	.LBE1397:
 117:../USER/main_01aa.c **** 		if(*buf==0) break;
 3402              		.loc 1 117 2 is_stmt 1 view .LVU837
 118:../USER/main_01aa.c **** 		else        putch(*buf++);
 3403              		.loc 1 118 3 view .LVU838
 118:../USER/main_01aa.c **** 		else        putch(*buf++);
 3404              		.loc 1 118 6 is_stmt 0 view .LVU839
 3405 0042 14F9011F 		ldrsb	r1, [r4, #1]!
 3406              	.LVL216:
 118:../USER/main_01aa.c **** 		else        putch(*buf++);
 3407              		.loc 1 118 5 view .LVU840
 3408 0046 0029     		cmp	r1, #0
 3409 0048 F7D1     		bne	.L151
 3410              	.LBE1399:
 3411              	.LBE1400:
 164:../USER/main_01aa.c **** 	  puts("\nMon_TN4K");
 3412              		.loc 1 164 21 view .LVU841
 3413 004a 0391     		str	r1, [sp, #12]
 3414              	.LVL217:
 3415              	.L150:
 166:../USER/main_01aa.c **** 	  while(1){
 3416              		.loc 1 166 4 is_stmt 1 view .LVU842
 167:../USER/main_01aa.c **** 		  puts("\n>"); getssu(cbuf);
 3417              		.loc 1 167 5 view .LVU843
 3418              	.LBB1401:
 3419              	.LBI1401:
 116:../USER/main_01aa.c **** 	while(1){
 3420              		.loc 1 116 6 view .LVU844
 3421              	.LBB1402:
 117:../USER/main_01aa.c **** 		if(*buf==0) break;
 3422              		.loc 1 117 2 view .LVU845
 118:../USER/main_01aa.c **** 		else        putch(*buf++);
 3423              		.loc 1 118 3 view .LVU846
 118:../USER/main_01aa.c **** 		else        putch(*buf++);
 3424              		.loc 1 118 6 is_stmt 0 view .LVU847
 3425 004c 0A21     		movs	r1, #10
 3426 004e 624C     		ldr	r4, .L349+8
 3427              	.LVL218:
 3428              	.L152:
 119:../USER/main_01aa.c **** 	}
 3429              		.loc 1 119 15 is_stmt 1 view .LVU848
 3430              	.LBB1403:
 3431              	.LBI1403:
 110:../USER/main_01aa.c **** void puth(dt) int dt;{ if(dt<10) putch(0x30+dt); else putch(0x37+dt); }
 3432              		.loc 1 110 6 view .LVU849
 3433              	.LBB1404:
 110:../USER/main_01aa.c **** void puth(dt) int dt;{ if(dt<10) putch(0x30+dt); else putch(0x37+dt); }
 3434              		.loc 1 110 26 view .LVU850
 3435 0050 4FF04020 		mov	r0, #1073758208
 3436 0054 FFF7FEFF 		bl	UART_SendChar
 3437              	.LVL219:
 110:../USER/main_01aa.c **** void puth(dt) int dt;{ if(dt<10) putch(0x30+dt); else putch(0x37+dt); }
 3438              		.loc 1 110 26 is_stmt 0 view .LVU851
 3439              	.LBE1404:
 3440              	.LBE1403:
 117:../USER/main_01aa.c **** 		if(*buf==0) break;
 3441              		.loc 1 117 2 is_stmt 1 view .LVU852
 118:../USER/main_01aa.c **** 		else        putch(*buf++);
 3442              		.loc 1 118 3 view .LVU853
 118:../USER/main_01aa.c **** 		else        putch(*buf++);
 3443              		.loc 1 118 6 is_stmt 0 view .LVU854
 3444 0058 14F9011F 		ldrsb	r1, [r4, #1]!
 3445              	.LVL220:
 118:../USER/main_01aa.c **** 		else        putch(*buf++);
 3446              		.loc 1 118 5 view .LVU855
 3447 005c 0029     		cmp	r1, #0
 3448 005e F7D1     		bne	.L152
 3449 0060 04AD     		add	r5, sp, #16
 3450              	.LVL221:
 3451              	.L153:
 118:../USER/main_01aa.c **** 		else        putch(*buf++);
 3452              		.loc 1 118 5 view .LVU856
 3453              	.LBE1402:
 3454              	.LBE1401:
 3455              	.LBB1405:
 3456              	.LBB1406:
 3457              	.LBB1407:
 123:../USER/main_01aa.c **** 	while(1){
 3458              		.loc 1 123 2 is_stmt 1 view .LVU857
 124:../USER/main_01aa.c **** 		ch = getch(); putch(ch); *buf++ = ch;
 3459              		.loc 1 124 2 view .LVU858
 125:../USER/main_01aa.c **** 		if(ch==0x0d) break;
 3460              		.loc 1 125 3 view .LVU859
 3461              	.LBB1408:
 3462              	.LBI1408:
 109:../USER/main_01aa.c **** void putchuart(char ch){ UART_SendChar(UART0,ch);}
 3463              		.loc 1 109 6 view .LVU860
 3464              	.LBB1409:
 109:../USER/main_01aa.c **** void putchuart(char ch){ UART_SendChar(UART0,ch);}
 3465              		.loc 1 109 23 view .LVU861
 109:../USER/main_01aa.c **** void putchuart(char ch){ UART_SendChar(UART0,ch);}
 3466              		.loc 1 109 30 is_stmt 0 view .LVU862
 3467 0062 4FF04020 		mov	r0, #1073758208
 3468 0066 FFF7FEFF 		bl	UART_ReceiveChar
 3469              	.LVL222:
 3470 006a 0446     		mov	r4, r0
 3471              	.LVL223:
 109:../USER/main_01aa.c **** void putchuart(char ch){ UART_SendChar(UART0,ch);}
 3472              		.loc 1 109 30 view .LVU863
 3473              	.LBE1409:
 3474              	.LBE1408:
 125:../USER/main_01aa.c **** 		if(ch==0x0d) break;
 3475              		.loc 1 125 17 is_stmt 1 view .LVU864
 3476              	.LBB1410:
 3477              	.LBI1410:
 110:../USER/main_01aa.c **** void puth(dt) int dt;{ if(dt<10) putch(0x30+dt); else putch(0x37+dt); }
 3478              		.loc 1 110 6 view .LVU865
 3479              	.LBB1411:
 110:../USER/main_01aa.c **** void puth(dt) int dt;{ if(dt<10) putch(0x30+dt); else putch(0x37+dt); }
 3480              		.loc 1 110 26 view .LVU866
 3481 006c 0146     		mov	r1, r0
 3482 006e 4FF04020 		mov	r0, #1073758208
 3483              	.LVL224:
 110:../USER/main_01aa.c **** void puth(dt) int dt;{ if(dt<10) putch(0x30+dt); else putch(0x37+dt); }
 3484              		.loc 1 110 26 is_stmt 0 view .LVU867
 3485 0072 FFF7FEFF 		bl	UART_SendChar
 3486              	.LVL225:
 110:../USER/main_01aa.c **** void puth(dt) int dt;{ if(dt<10) putch(0x30+dt); else putch(0x37+dt); }
 3487              		.loc 1 110 26 view .LVU868
 3488              	.LBE1411:
 3489              	.LBE1410:
 125:../USER/main_01aa.c **** 		if(ch==0x0d) break;
 3490              		.loc 1 125 28 is_stmt 1 view .LVU869
 126:../USER/main_01aa.c **** 	}
 3491              		.loc 1 126 5 is_stmt 0 view .LVU870
 3492 0076 0D2C     		cmp	r4, #13
 125:../USER/main_01aa.c **** 		if(ch==0x0d) break;
 3493              		.loc 1 125 35 view .LVU871
 3494 0078 05F8014B 		strb	r4, [r5], #1
 3495              	.LVL226:
 126:../USER/main_01aa.c **** 	}
 3496              		.loc 1 126 3 is_stmt 1 view .LVU872
 126:../USER/main_01aa.c **** 	}
 3497              		.loc 1 126 5 is_stmt 0 view .LVU873
 3498 007c F1D1     		bne	.L153
 3499              	.LVL227:
 126:../USER/main_01aa.c **** 	}
 3500              		.loc 1 126 5 view .LVU874
 3501              	.LBE1407:
 3502              	.LBE1406:
 3503              	.LBB1412:
 3504              	.LBB1413:
 104:../USER/main_01aa.c ****    if( *buf>='a' && *buf<='z') *buf = *buf - 0x20;
 3505              		.loc 1 104 9 view .LVU875
 3506 007e 9DF91030 		ldrsb	r3, [sp, #16]
 104:../USER/main_01aa.c ****    if( *buf>='a' && *buf<='z') *buf = *buf - 0x20;
 3507              		.loc 1 104 8 view .LVU876
 3508 0082 0D2B     		cmp	r3, #13
 3509 0084 00F06382 		beq	.L154
 3510 0088 04AA     		add	r2, sp, #16
 3511              	.LVL228:
 3512              	.L158:
 105:../USER/main_01aa.c ****    buf++;
 3513              		.loc 1 105 4 is_stmt 1 view .LVU877
 105:../USER/main_01aa.c ****    buf++;
 3514              		.loc 1 105 32 view .LVU878
 106:../USER/main_01aa.c ****   }
 3515              		.loc 1 106 4 view .LVU879
 105:../USER/main_01aa.c ****    buf++;
 3516              		.loc 1 105 18 is_stmt 0 view .LVU880
 3517 008a DBB2     		uxtb	r3, r3
 105:../USER/main_01aa.c ****    buf++;
 3518              		.loc 1 105 44 view .LVU881
 3519 008c A3F12001 		sub	r1, r3, #32
 105:../USER/main_01aa.c ****    buf++;
 3520              		.loc 1 105 6 view .LVU882
 3521 0090 613B     		subs	r3, r3, #97
 3522 0092 192B     		cmp	r3, #25
 3523 0094 00F26C82 		bhi	.L155
 105:../USER/main_01aa.c ****    buf++;
 3524              		.loc 1 105 37 view .LVU883
 3525 0098 1170     		strb	r1, [r2]
 106:../USER/main_01aa.c ****   }
 3526              		.loc 1 106 4 is_stmt 1 view .LVU884
 104:../USER/main_01aa.c ****    if( *buf>='a' && *buf<='z') *buf = *buf - 0x20;
 3527              		.loc 1 104 9 is_stmt 0 view .LVU885
 3528 009a 12F9013F 		ldrsb	r3, [r2, #1]!
 3529              	.LVL229:
 104:../USER/main_01aa.c ****    if( *buf>='a' && *buf<='z') *buf = *buf - 0x20;
 3530              		.loc 1 104 8 view .LVU886
 3531 009e 0D2B     		cmp	r3, #13
 3532 00a0 F3D1     		bne	.L158
 3533              	.LVL230:
 3534              	.L157:
 104:../USER/main_01aa.c ****    if( *buf>='a' && *buf<='z') *buf = *buf - 0x20;
 3535              		.loc 1 104 8 view .LVU887
 3536              	.LBE1413:
 3537              	.LBE1412:
 3538              	.LBE1405:
 168:../USER/main_01aa.c **** 		  cmd = cbuf[0]; cbp = &cbuf[1];
 3539              		.loc 1 168 5 is_stmt 1 view .LVU888
 3540              		.loc 1 168 20 view .LVU889
 169:../USER/main_01aa.c **** 		  switch(cmd){
 3541              		.loc 1 169 5 view .LVU890
 3542 00a2 9DF91030 		ldrsb	r3, [sp, #16]
 3543 00a6 443B     		subs	r3, r3, #68
 3544 00a8 132B     		cmp	r3, #19
 3545 00aa 00F25082 		bhi	.L154
 3546 00ae DFE813F0 		tbh	[pc, r3, lsl #1]
 3547              	.L160:
 3548 00b2 8D01     		.2byte	(.L163-.L160)/2
 3549 00b4 4E02     		.2byte	(.L154-.L160)/2
 3550 00b6 4E02     		.2byte	(.L154-.L160)/2
 3551 00b8 4E02     		.2byte	(.L154-.L160)/2
 3552 00ba 4E02     		.2byte	(.L154-.L160)/2
 3553 00bc 4E02     		.2byte	(.L154-.L160)/2
 3554 00be 4E02     		.2byte	(.L154-.L160)/2
 3555 00c0 4E02     		.2byte	(.L154-.L160)/2
 3556 00c2 4E02     		.2byte	(.L154-.L160)/2
 3557 00c4 7B00     		.2byte	(.L162-.L160)/2
 3558 00c6 4E02     		.2byte	(.L154-.L160)/2
 3559 00c8 4E02     		.2byte	(.L154-.L160)/2
 3560 00ca 4E02     		.2byte	(.L154-.L160)/2
 3561 00cc 4E02     		.2byte	(.L154-.L160)/2
 3562 00ce 4200     		.2byte	(.L161-.L160)/2
 3563 00d0 4E02     		.2byte	(.L154-.L160)/2
 3564 00d2 4E02     		.2byte	(.L154-.L160)/2
 3565 00d4 4E02     		.2byte	(.L154-.L160)/2
 3566 00d6 4E02     		.2byte	(.L154-.L160)/2
 3567 00d8 1400     		.2byte	(.L159-.L160)/2
 3568              		.p2align 1
 3569              	.L159:
 170:../USER/main_01aa.c **** 	      case 'D':
 171:../USER/main_01aa.c **** 	        adr = getsh(cbpp);
 172:../USER/main_01aa.c **** 	        if(adr==-1) adr = adro;
 173:../USER/main_01aa.c **** 	        for(i=0; i<8; i++){
 174:../USER/main_01aa.c **** 	          putadrhd(adr);
 175:../USER/main_01aa.c **** 	          for(j=0; j<16; j++) { putch(' '); puth2(mbase[adr++]); }
 176:../USER/main_01aa.c **** 	        }
 177:../USER/main_01aa.c **** 	        adro = adr;
 178:../USER/main_01aa.c **** 	        break;
 179:../USER/main_01aa.c **** 	      case 'W':
 180:../USER/main_01aa.c **** 	    	if(*cbp=='S'){ cbp++; dt = getsh(cbpp);	SPI_WriteData(dt); }
 3570              		.loc 1 180 7 view .LVU891
 3571              		.loc 1 180 10 is_stmt 0 view .LVU892
 3572 00da 9DF91150 		ldrsb	r5, [sp, #17]
 3573              	.LVL231:
 3574              		.loc 1 180 9 view .LVU893
 3575 00de 532D     		cmp	r5, #83
 3576 00e0 00F08382 		beq	.L336
 168:../USER/main_01aa.c **** 		  switch(cmd){
 3577              		.loc 1 168 24 view .LVU894
 3578 00e4 0DF11104 		add	r4, sp, #17
 3579              	.LVL232:
 3580              	.L195:
 181:../USER/main_01aa.c **** 			if(*cbp=='G'){ cbp++; dt = getsh(cbpp); GPIO_WriteBits(GPIO0,dt); }
 3581              		.loc 1 181 4 is_stmt 1 view .LVU895
 3582              		.loc 1 181 6 is_stmt 0 view .LVU896
 3583 00e8 472D     		cmp	r5, #71
 3584 00ea AFD1     		bne	.L150
 3585              		.loc 1 181 19 is_stmt 1 discriminator 1 view .LVU897
 3586              	.LBB1416:
 3587              	.LBB1417:
 141:../USER/main_01aa.c ****   while(**buf==' ') (*buf)++; /* spip sp*/
 3588              		.loc 1 141 6 is_stmt 0 discriminator 1 view .LVU898
 3589 00ec 94F90130 		ldrsb	r3, [r4, #1]
 3590              	.LBE1417:
 3591              	.LBE1416:
 3592              		.loc 1 181 22 discriminator 1 view .LVU899
 3593 00f0 611C     		adds	r1, r4, #1
 3594              	.LVL233:
 3595              		.loc 1 181 26 is_stmt 1 discriminator 1 view .LVU900
 3596              	.LBB1432:
 3597              	.LBI1416:
 139:../USER/main_01aa.c ****   long num = 0; int hd;
 3598              		.loc 1 139 6 discriminator 1 view .LVU901
 3599              	.LBB1430:
 140:../USER/main_01aa.c ****   if(**buf==0x0d) return -1;
 3600              		.loc 1 140 3 discriminator 1 view .LVU902
 140:../USER/main_01aa.c ****   if(**buf==0x0d) return -1;
 3601              		.loc 1 140 17 discriminator 1 view .LVU903
 141:../USER/main_01aa.c ****   while(**buf==' ') (*buf)++; /* spip sp*/
 3602              		.loc 1 141 3 discriminator 1 view .LVU904
 141:../USER/main_01aa.c ****   while(**buf==' ') (*buf)++; /* spip sp*/
 3603              		.loc 1 141 5 is_stmt 0 discriminator 1 view .LVU905
 3604 00f2 0D2B     		cmp	r3, #13
 3605 00f4 02D1     		bne	.L332
 3606 00f6 BFE2     		b	.L285
 3607              	.LVL234:
 3608              	.L208:
 3609              	.LBB1418:
 3610              	.LBB1419:
 142:../USER/main_01aa.c ****   while( (hd=ishex(**buf)) != -1){ num = num * 16 + hd; (*buf)++; }
 3611              		.loc 1 142 21 is_stmt 1 view .LVU906
 142:../USER/main_01aa.c ****   while( (hd=ishex(**buf)) != -1){ num = num * 16 + hd; (*buf)++; }
 3612              		.loc 1 142 9 is_stmt 0 view .LVU907
 3613 00f8 11F9013F 		ldrsb	r3, [r1, #1]!
 3614              	.LVL235:
 3615              	.L332:
 142:../USER/main_01aa.c ****   while( (hd=ishex(**buf)) != -1){ num = num * 16 + hd; (*buf)++; }
 3616              		.loc 1 142 8 view .LVU908
 3617 00fc 202B     		cmp	r3, #32
 3618 00fe FBD0     		beq	.L208
 3619 0100 0139     		subs	r1, r1, #1
 140:../USER/main_01aa.c ****   if(**buf==0x0d) return -1;
 3620              		.loc 1 140 8 view .LVU909
 3621 0102 0020     		movs	r0, #0
 3622 0104 04E0     		b	.L209
 3623              	.LVL236:
 3624              	.L337:
 3625              	.LBB1420:
 3626              	.LBB1421:
 131:../USER/main_01aa.c ****   else if(ch>='A' && ch<='F') hd = ch - 0x37;
 3627              		.loc 1 131 29 view .LVU910
 3628 0106 303B     		subs	r3, r3, #48
 3629              	.LVL237:
 131:../USER/main_01aa.c ****   else if(ch>='A' && ch<='F') hd = ch - 0x37;
 3630              		.loc 1 131 29 view .LVU911
 3631              	.LBE1421:
 3632              	.LBE1420:
 143:../USER/main_01aa.c ****   return num;
 3633              		.loc 1 143 36 is_stmt 1 view .LVU912
 3634              	.LBB1426:
 3635              	.LBB1422:
 134:../USER/main_01aa.c **** }
 3636              		.loc 1 134 3 view .LVU913
 134:../USER/main_01aa.c **** }
 3637              		.loc 1 134 3 is_stmt 0 view .LVU914
 3638              	.LBE1422:
 3639              	.LBE1426:
 143:../USER/main_01aa.c ****   return num;
 3640              		.loc 1 143 8 view .LVU915
 3641 0108 5C1C     		adds	r4, r3, #1
 3642 010a 0FD0     		beq	.L333
 3643              	.L213:
 143:../USER/main_01aa.c ****   return num;
 3644              		.loc 1 143 40 view .LVU916
 3645 010c 03EB0010 		add	r0, r3, r0, lsl #4
 3646              	.LVL238:
 143:../USER/main_01aa.c ****   return num;
 3647              		.loc 1 143 57 is_stmt 1 view .LVU917
 3648              	.L209:
 3649              	.LBB1427:
 3650              	.LBB1423:
 131:../USER/main_01aa.c ****   else if(ch>='A' && ch<='F') hd = ch - 0x37;
 3651              		.loc 1 131 26 view .LVU918
 132:../USER/main_01aa.c ****   else hd = -1;
 3652              		.loc 1 132 8 view .LVU919
 132:../USER/main_01aa.c ****   else hd = -1;
 3653              		.loc 1 132 31 view .LVU920
 3654              	.LBE1423:
 3655              	.LBE1427:
 143:../USER/main_01aa.c ****   return num;
 3656              		.loc 1 143 20 is_stmt 0 view .LVU921
 3657 0110 11F9013F 		ldrsb	r3, [r1, #1]!
 3658              	.LVL239:
 3659              	.LBB1428:
 3660              	.LBI1420:
 129:../USER/main_01aa.c ****   int hd;
 3661              		.loc 1 129 5 is_stmt 1 view .LVU922
 3662              	.LBB1424:
 130:../USER/main_01aa.c ****   if(ch>='0' && ch<='9') hd = ch - 0x30;
 3663              		.loc 1 130 3 view .LVU923
 131:../USER/main_01aa.c ****   else if(ch>='A' && ch<='F') hd = ch - 0x37;
 3664              		.loc 1 131 3 view .LVU924
 131:../USER/main_01aa.c ****   else if(ch>='A' && ch<='F') hd = ch - 0x37;
 3665              		.loc 1 131 14 is_stmt 0 view .LVU925
 3666 0114 DAB2     		uxtb	r2, r3
 131:../USER/main_01aa.c ****   else if(ch>='A' && ch<='F') hd = ch - 0x37;
 3667              		.loc 1 131 5 view .LVU926
 3668 0116 A2F13004 		sub	r4, r2, #48
 3669 011a 092C     		cmp	r4, #9
 132:../USER/main_01aa.c ****   else hd = -1;
 3670              		.loc 1 132 10 view .LVU927
 3671 011c A2F14102 		sub	r2, r2, #65
 131:../USER/main_01aa.c ****   else if(ch>='A' && ch<='F') hd = ch - 0x37;
 3672              		.loc 1 131 5 view .LVU928
 3673 0120 F1D9     		bls	.L337
 132:../USER/main_01aa.c ****   else hd = -1;
 3674              		.loc 1 132 10 view .LVU929
 3675 0122 052A     		cmp	r2, #5
 3676 0124 02D8     		bhi	.L333
 132:../USER/main_01aa.c ****   else hd = -1;
 3677              		.loc 1 132 34 view .LVU930
 3678 0126 373B     		subs	r3, r3, #55
 3679              	.LVL240:
 132:../USER/main_01aa.c ****   else hd = -1;
 3680              		.loc 1 132 34 view .LVU931
 3681              	.LBE1424:
 3682              	.LBE1428:
 143:../USER/main_01aa.c ****   return num;
 3683              		.loc 1 143 36 is_stmt 1 view .LVU932
 3684              	.LBB1429:
 3685              	.LBB1425:
 134:../USER/main_01aa.c **** }
 3686              		.loc 1 134 3 view .LVU933
 134:../USER/main_01aa.c **** }
 3687              		.loc 1 134 3 is_stmt 0 view .LVU934
 3688              	.LBE1425:
 3689              	.LBE1429:
 143:../USER/main_01aa.c ****   return num;
 3690              		.loc 1 143 8 view .LVU935
 3691 0128 5C1C     		adds	r4, r3, #1
 3692 012a EFD1     		bne	.L213
 3693              	.LVL241:
 3694              	.L333:
 143:../USER/main_01aa.c ****   return num;
 3695              		.loc 1 143 8 view .LVU936
 3696 012c 0146     		mov	r1, r0
 3697              	.LVL242:
 3698              	.L206:
 143:../USER/main_01aa.c ****   return num;
 3699              		.loc 1 143 8 view .LVU937
 3700              	.LBE1419:
 3701              	.LBE1418:
 3702              	.LBE1430:
 3703              	.LBE1432:
 3704              		.loc 1 181 44 is_stmt 1 view .LVU938
 3705 012e 2848     		ldr	r0, .L349
 3706 0130 FFF7FEFF 		bl	GPIO_WriteBits
 3707              	.LVL243:
 3708 0134 8AE7     		b	.L150
 3709              	.LVL244:
 3710              	.L161:
 182:../USER/main_01aa.c **** 	    	break;
 183:../USER/main_01aa.c **** 	      case 'R':
 184:../USER/main_01aa.c **** 	    	if(*cbp=='S'){ dt = SPI_ReadData(); puth2(dt); }
 3711              		.loc 1 184 7 view .LVU939
 3712              		.loc 1 184 10 is_stmt 0 view .LVU940
 3713 0136 9DF91130 		ldrsb	r3, [sp, #17]
 3714              		.loc 1 184 9 view .LVU941
 3715 013a 532B     		cmp	r3, #83
 3716 013c 00F07D82 		beq	.L338
 185:../USER/main_01aa.c **** 	    	if(*cbp=='G'){ dt = GPIO_ReadBits(GPIO0); puth4(dt); }
 3717              		.loc 1 185 7 is_stmt 1 view .LVU942
 3718              		.loc 1 185 9 is_stmt 0 view .LVU943
 3719 0140 472B     		cmp	r3, #71
 3720 0142 83D1     		bne	.L150
 3721              		.loc 1 185 22 is_stmt 1 discriminator 1 view .LVU944
 3722              		.loc 1 185 27 is_stmt 0 discriminator 1 view .LVU945
 3723 0144 2248     		ldr	r0, .L349
 3724 0146 FFF7FEFF 		bl	GPIO_ReadBits
 3725              	.LVL245:
 3726              		.loc 1 185 27 discriminator 1 view .LVU946
 3727 014a 0446     		mov	r4, r0
 3728              	.LVL246:
 3729              		.loc 1 185 49 is_stmt 1 discriminator 1 view .LVU947
 3730              	.LBB1433:
 3731              	.LBI1433:
 113:../USER/main_01aa.c **** void puth6(dt) long dt;{ int dh,dl; dh = dt >> 16; dl = dt & 0xffff; puth2(dh); puth4(dl); }
 3732              		.loc 1 113 6 discriminator 1 view .LVU948
 3733              	.LBB1434:
 113:../USER/main_01aa.c **** void puth6(dt) long dt;{ int dh,dl; dh = dt >> 16; dl = dt & 0xffff; puth2(dh); puth4(dl); }
 3734              		.loc 1 113 25 discriminator 1 view .LVU949
 3735              	.LBB1435:
 3736              	.LBB1436:
 112:../USER/main_01aa.c **** void puth4(dt) int dt;{ puth2((dt >> 8) & 0xff); puth2(dt & 0xff); }
 3737              		.loc 1 112 34 is_stmt 0 discriminator 1 view .LVU950
 3738 014c C0F30333 		ubfx	r3, r0, #12, #4
 3739 0150 D9B2     		uxtb	r1, r3
 3740              	.LBB1437:
 3741              	.LBB1438:
 111:../USER/main_01aa.c **** void puth2(dt) int dt;{ puth((dt >> 4) & 0xf); puth(dt & 0xf); }
 3742              		.loc 1 111 26 discriminator 1 view .LVU951
 3743 0152 092B     		cmp	r3, #9
 3744              	.LBB1439:
 3745              	.LBB1440:
 3746              	.LBB1441:
 3747              	.LBB1442:
 110:../USER/main_01aa.c **** void puth(dt) int dt;{ if(dt<10) putch(0x30+dt); else putch(0x37+dt); }
 3748              		.loc 1 110 26 discriminator 1 view .LVU952
 3749 0154 D4BF     		ite	le
 3750 0156 3031     		addle	r1, r1, #48
 3751              	.LBE1442:
 3752              	.LBE1441:
 3753              	.LBE1440:
 3754              	.LBE1439:
 3755              	.LBB1446:
 3756              	.LBB1447:
 3757 0158 3731     		addgt	r1, r1, #55
 3758              	.LBE1447:
 3759              	.LBE1446:
 3760              	.LBE1438:
 3761              	.LBE1437:
 3762              	.LBE1436:
 3763              	.LBE1435:
 113:../USER/main_01aa.c **** void puth6(dt) long dt;{ int dh,dl; dh = dt >> 16; dl = dt & 0xffff; puth2(dh); puth4(dl); }
 3764              		.loc 1 113 35 discriminator 1 view .LVU953
 3765 015a 0512     		asrs	r5, r0, #8
 3766              	.LVL247:
 3767              	.LBB1466:
 3768              	.LBI1435:
 112:../USER/main_01aa.c **** void puth4(dt) int dt;{ puth2((dt >> 8) & 0xff); puth2(dt & 0xff); }
 3769              		.loc 1 112 6 is_stmt 1 discriminator 1 view .LVU954
 3770              	.LBB1465:
 112:../USER/main_01aa.c **** void puth4(dt) int dt;{ puth2((dt >> 8) & 0xff); puth2(dt & 0xff); }
 3771              		.loc 1 112 25 discriminator 1 view .LVU955
 3772              	.LBB1452:
 3773              	.LBI1437:
 111:../USER/main_01aa.c **** void puth2(dt) int dt;{ puth((dt >> 4) & 0xf); puth(dt & 0xf); }
 3774              		.loc 1 111 6 discriminator 1 view .LVU956
 3775              	.LBB1451:
 111:../USER/main_01aa.c **** void puth2(dt) int dt;{ puth((dt >> 4) & 0xf); puth(dt & 0xf); }
 3776              		.loc 1 111 24 discriminator 1 view .LVU957
 3777              	.LBB1449:
 3778              	.LBI1439:
 111:../USER/main_01aa.c **** void puth2(dt) int dt;{ puth((dt >> 4) & 0xf); puth(dt & 0xf); }
 3779              		.loc 1 111 6 discriminator 1 view .LVU958
 3780              	.LBB1445:
 111:../USER/main_01aa.c **** void puth2(dt) int dt;{ puth((dt >> 4) & 0xf); puth(dt & 0xf); }
 3781              		.loc 1 111 34 discriminator 1 view .LVU959
 3782              	.LBB1444:
 3783              	.LBI1441:
 110:../USER/main_01aa.c **** void puth(dt) int dt;{ if(dt<10) putch(0x30+dt); else putch(0x37+dt); }
 3784              		.loc 1 110 6 discriminator 1 view .LVU960
 3785              	.LBB1443:
 110:../USER/main_01aa.c **** void puth(dt) int dt;{ if(dt<10) putch(0x30+dt); else putch(0x37+dt); }
 3786              		.loc 1 110 26 discriminator 1 view .LVU961
 3787              	.LBE1443:
 3788              	.LBE1444:
 3789              	.LBE1445:
 3790              	.LBE1449:
 111:../USER/main_01aa.c **** void puth2(dt) int dt;{ puth((dt >> 4) & 0xf); puth(dt & 0xf); }
 3791              		.loc 1 111 55 discriminator 1 view .LVU962
 3792              	.LBB1450:
 3793              	.LBI1446:
 110:../USER/main_01aa.c **** void puth(dt) int dt;{ if(dt<10) putch(0x30+dt); else putch(0x37+dt); }
 3794              		.loc 1 110 6 discriminator 1 view .LVU963
 3795              	.LBB1448:
 110:../USER/main_01aa.c **** void puth(dt) int dt;{ if(dt<10) putch(0x30+dt); else putch(0x37+dt); }
 3796              		.loc 1 110 26 discriminator 1 view .LVU964
 3797 015c 4FF04020 		mov	r0, #1073758208
 3798              	.LVL248:
 110:../USER/main_01aa.c **** void puth(dt) int dt;{ if(dt<10) putch(0x30+dt); else putch(0x37+dt); }
 3799              		.loc 1 110 26 is_stmt 0 discriminator 1 view .LVU965
 3800 0160 FFF7FEFF 		bl	UART_SendChar
 3801              	.LVL249:
 110:../USER/main_01aa.c **** void puth(dt) int dt;{ if(dt<10) putch(0x30+dt); else putch(0x37+dt); }
 3802              		.loc 1 110 26 discriminator 1 view .LVU966
 3803              	.LBE1448:
 3804              	.LBE1450:
 3805              	.LBE1451:
 3806              	.LBE1452:
 112:../USER/main_01aa.c **** void puth4(dt) int dt;{ puth2((dt >> 8) & 0xff); puth2(dt & 0xff); }
 3807              		.loc 1 112 48 is_stmt 1 discriminator 1 view .LVU967
 3808 0164 05F00F03 		and	r3, r5, #15
 3809              	.LVL250:
 3810              	.LBB1453:
 3811              	.LBI1453:
 111:../USER/main_01aa.c **** void puth2(dt) int dt;{ puth((dt >> 4) & 0xf); puth(dt & 0xf); }
 3812              		.loc 1 111 6 discriminator 1 view .LVU968
 3813              	.LBB1454:
 111:../USER/main_01aa.c **** void puth2(dt) int dt;{ puth((dt >> 4) & 0xf); puth(dt & 0xf); }
 3814              		.loc 1 111 24 discriminator 1 view .LVU969
 3815              	.LBB1455:
 3816              	.LBI1455:
 111:../USER/main_01aa.c **** void puth2(dt) int dt;{ puth((dt >> 4) & 0xf); puth(dt & 0xf); }
 3817              		.loc 1 111 6 discriminator 1 view .LVU970
 3818              	.LBB1456:
 111:../USER/main_01aa.c **** void puth2(dt) int dt;{ puth((dt >> 4) & 0xf); puth(dt & 0xf); }
 3819              		.loc 1 111 34 discriminator 1 view .LVU971
 3820 0168 D9B2     		uxtb	r1, r3
 3821              	.LVL251:
 3822              	.LBB1457:
 3823              	.LBI1457:
 110:../USER/main_01aa.c **** void puth(dt) int dt;{ if(dt<10) putch(0x30+dt); else putch(0x37+dt); }
 3824              		.loc 1 110 6 discriminator 1 view .LVU972
 3825              	.LBB1458:
 110:../USER/main_01aa.c **** void puth(dt) int dt;{ if(dt<10) putch(0x30+dt); else putch(0x37+dt); }
 3826              		.loc 1 110 26 discriminator 1 view .LVU973
 3827              	.LBE1458:
 3828              	.LBE1457:
 3829              	.LBE1456:
 3830              	.LBE1455:
 111:../USER/main_01aa.c **** void puth2(dt) int dt;{ puth((dt >> 4) & 0xf); puth(dt & 0xf); }
 3831              		.loc 1 111 55 discriminator 1 view .LVU974
 111:../USER/main_01aa.c **** void puth2(dt) int dt;{ puth((dt >> 4) & 0xf); puth(dt & 0xf); }
 3832              		.loc 1 111 26 is_stmt 0 discriminator 1 view .LVU975
 3833 016a 092B     		cmp	r3, #9
 3834              	.LBB1462:
 3835              	.LBB1461:
 3836              	.LBB1460:
 3837              	.LBB1459:
 110:../USER/main_01aa.c **** void puth(dt) int dt;{ if(dt<10) putch(0x30+dt); else putch(0x37+dt); }
 3838              		.loc 1 110 26 discriminator 1 view .LVU976
 3839 016c D4BF     		ite	le
 3840 016e 3031     		addle	r1, r1, #48
 3841              	.LVL252:
 110:../USER/main_01aa.c **** void puth(dt) int dt;{ if(dt<10) putch(0x30+dt); else putch(0x37+dt); }
 3842              		.loc 1 110 26 discriminator 1 view .LVU977
 3843              	.LBE1459:
 3844              	.LBE1460:
 3845              	.LBE1461:
 3846              	.LBE1462:
 3847              	.LBB1463:
 3848              	.LBI1463:
 110:../USER/main_01aa.c **** void puth(dt) int dt;{ if(dt<10) putch(0x30+dt); else putch(0x37+dt); }
 3849              		.loc 1 110 6 is_stmt 1 discriminator 1 view .LVU978
 3850              	.LBB1464:
 110:../USER/main_01aa.c **** void puth(dt) int dt;{ if(dt<10) putch(0x30+dt); else putch(0x37+dt); }
 3851              		.loc 1 110 26 discriminator 1 view .LVU979
 3852 0170 3731     		addgt	r1, r1, #55
 3853              	.LVL253:
 110:../USER/main_01aa.c **** void puth(dt) int dt;{ if(dt<10) putch(0x30+dt); else putch(0x37+dt); }
 3854              		.loc 1 110 26 is_stmt 0 discriminator 1 view .LVU980
 3855 0172 4FF04020 		mov	r0, #1073758208
 3856 0176 FFF7FEFF 		bl	UART_SendChar
 3857              	.LVL254:
 110:../USER/main_01aa.c **** void puth(dt) int dt;{ if(dt<10) putch(0x30+dt); else putch(0x37+dt); }
 3858              		.loc 1 110 26 discriminator 1 view .LVU981
 3859              	.LBE1464:
 3860              	.LBE1463:
 3861              	.LBE1454:
 3862              	.LBE1453:
 3863              	.LBE1465:
 3864              	.LBE1466:
 113:../USER/main_01aa.c **** void puth6(dt) long dt;{ int dh,dl; dh = dt >> 16; dl = dt & 0xffff; puth2(dh); puth4(dl); }
 3865              		.loc 1 113 50 is_stmt 1 discriminator 1 view .LVU982
 3866              	.LBB1467:
 3867              	.LBI1467:
 112:../USER/main_01aa.c **** void puth4(dt) int dt;{ puth2((dt >> 8) & 0xff); puth2(dt & 0xff); }
 3868              		.loc 1 112 6 discriminator 1 view .LVU983
 3869              	.LBB1468:
 112:../USER/main_01aa.c **** void puth4(dt) int dt;{ puth2((dt >> 8) & 0xff); puth2(dt & 0xff); }
 3870              		.loc 1 112 25 discriminator 1 view .LVU984
 112:../USER/main_01aa.c **** void puth4(dt) int dt;{ puth2((dt >> 8) & 0xff); puth2(dt & 0xff); }
 3871              		.loc 1 112 34 is_stmt 0 discriminator 1 view .LVU985
 3872 017a C4F30313 		ubfx	r3, r4, #4, #4
 3873              	.LVL255:
 3874              	.LBB1469:
 3875              	.LBI1469:
 111:../USER/main_01aa.c **** void puth2(dt) int dt;{ puth((dt >> 4) & 0xf); puth(dt & 0xf); }
 3876              		.loc 1 111 6 is_stmt 1 discriminator 1 view .LVU986
 3877              	.LBB1470:
 111:../USER/main_01aa.c **** void puth2(dt) int dt;{ puth((dt >> 4) & 0xf); puth(dt & 0xf); }
 3878              		.loc 1 111 24 discriminator 1 view .LVU987
 3879              	.LBB1471:
 3880              	.LBI1471:
 111:../USER/main_01aa.c **** void puth2(dt) int dt;{ puth((dt >> 4) & 0xf); puth(dt & 0xf); }
 3881              		.loc 1 111 6 discriminator 1 view .LVU988
 3882              	.LBB1472:
 111:../USER/main_01aa.c **** void puth2(dt) int dt;{ puth((dt >> 4) & 0xf); puth(dt & 0xf); }
 3883              		.loc 1 111 34 discriminator 1 view .LVU989
 3884 017e D9B2     		uxtb	r1, r3
 3885              	.LVL256:
 3886              	.LBB1473:
 3887              	.LBI1473:
 110:../USER/main_01aa.c **** void puth(dt) int dt;{ if(dt<10) putch(0x30+dt); else putch(0x37+dt); }
 3888              		.loc 1 110 6 discriminator 1 view .LVU990
 3889              	.LBB1474:
 110:../USER/main_01aa.c **** void puth(dt) int dt;{ if(dt<10) putch(0x30+dt); else putch(0x37+dt); }
 3890              		.loc 1 110 26 discriminator 1 view .LVU991
 3891              	.LBE1474:
 3892              	.LBE1473:
 3893              	.LBE1472:
 3894              	.LBE1471:
 111:../USER/main_01aa.c **** void puth2(dt) int dt;{ puth((dt >> 4) & 0xf); puth(dt & 0xf); }
 3895              		.loc 1 111 55 discriminator 1 view .LVU992
 111:../USER/main_01aa.c **** void puth2(dt) int dt;{ puth((dt >> 4) & 0xf); puth(dt & 0xf); }
 3896              		.loc 1 111 26 is_stmt 0 discriminator 1 view .LVU993
 3897 0180 092B     		cmp	r3, #9
 3898              	.LBB1478:
 3899              	.LBB1477:
 3900              	.LBB1476:
 3901              	.LBB1475:
 110:../USER/main_01aa.c **** void puth(dt) int dt;{ if(dt<10) putch(0x30+dt); else putch(0x37+dt); }
 3902              		.loc 1 110 26 discriminator 1 view .LVU994
 3903 0182 D4BF     		ite	le
 3904 0184 3031     		addle	r1, r1, #48
 3905              	.LVL257:
 110:../USER/main_01aa.c **** void puth(dt) int dt;{ if(dt<10) putch(0x30+dt); else putch(0x37+dt); }
 3906              		.loc 1 110 26 discriminator 1 view .LVU995
 3907              	.LBE1475:
 3908              	.LBE1476:
 3909              	.LBE1477:
 3910              	.LBE1478:
 3911              	.LBB1479:
 3912              	.LBI1479:
 110:../USER/main_01aa.c **** void puth(dt) int dt;{ if(dt<10) putch(0x30+dt); else putch(0x37+dt); }
 3913              		.loc 1 110 6 is_stmt 1 discriminator 1 view .LVU996
 3914              	.LBB1480:
 110:../USER/main_01aa.c **** void puth(dt) int dt;{ if(dt<10) putch(0x30+dt); else putch(0x37+dt); }
 3915              		.loc 1 110 26 discriminator 1 view .LVU997
 3916 0186 3731     		addgt	r1, r1, #55
 3917              	.LVL258:
 110:../USER/main_01aa.c **** void puth(dt) int dt;{ if(dt<10) putch(0x30+dt); else putch(0x37+dt); }
 3918              		.loc 1 110 26 is_stmt 0 discriminator 1 view .LVU998
 3919              	.LBE1480:
 3920              	.LBE1479:
 3921              	.LBE1470:
 3922              	.LBE1469:
 112:../USER/main_01aa.c **** void puth4(dt) int dt;{ puth2((dt >> 8) & 0xff); puth2(dt & 0xff); }
 3923              		.loc 1 112 48 discriminator 1 view .LVU999
 3924 0188 04F00F04 		and	r4, r4, #15
 3925              	.LVL259:
 3926              	.LBB1484:
 3927              	.LBB1483:
 3928              	.LBB1482:
 3929              	.LBB1481:
 110:../USER/main_01aa.c **** void puth(dt) int dt;{ if(dt<10) putch(0x30+dt); else putch(0x37+dt); }
 3930              		.loc 1 110 26 discriminator 1 view .LVU1000
 3931 018c 4FF04020 		mov	r0, #1073758208
 3932 0190 FFF7FEFF 		bl	UART_SendChar
 3933              	.LVL260:
 110:../USER/main_01aa.c **** void puth(dt) int dt;{ if(dt<10) putch(0x30+dt); else putch(0x37+dt); }
 3934              		.loc 1 110 26 discriminator 1 view .LVU1001
 3935              	.LBE1481:
 3936              	.LBE1482:
 3937              	.LBE1483:
 3938              	.LBE1484:
 112:../USER/main_01aa.c **** void puth4(dt) int dt;{ puth2((dt >> 8) & 0xff); puth2(dt & 0xff); }
 3939              		.loc 1 112 48 is_stmt 1 discriminator 1 view .LVU1002
 3940              	.LBB1485:
 3941              	.LBI1485:
 111:../USER/main_01aa.c **** void puth2(dt) int dt;{ puth((dt >> 4) & 0xf); puth(dt & 0xf); }
 3942              		.loc 1 111 6 discriminator 1 view .LVU1003
 3943              	.LBB1486:
 111:../USER/main_01aa.c **** void puth2(dt) int dt;{ puth((dt >> 4) & 0xf); puth(dt & 0xf); }
 3944              		.loc 1 111 24 discriminator 1 view .LVU1004
 111:../USER/main_01aa.c **** void puth2(dt) int dt;{ puth((dt >> 4) & 0xf); puth(dt & 0xf); }
 3945              		.loc 1 111 26 is_stmt 0 discriminator 1 view .LVU1005
 3946 0194 092C     		cmp	r4, #9
 3947 0196 E1B2     		uxtb	r1, r4
 3948 0198 00F36182 		bgt	.L225
 3949              	.LVL261:
 3950              	.L329:
 3951              	.LBB1487:
 3952              	.LBI1487:
 111:../USER/main_01aa.c **** void puth2(dt) int dt;{ puth((dt >> 4) & 0xf); puth(dt & 0xf); }
 3953              		.loc 1 111 6 is_stmt 1 view .LVU1006
 3954              	.LBB1488:
 111:../USER/main_01aa.c **** void puth2(dt) int dt;{ puth((dt >> 4) & 0xf); puth(dt & 0xf); }
 3955              		.loc 1 111 34 view .LVU1007
 3956              	.LBB1489:
 3957              	.LBI1489:
 110:../USER/main_01aa.c **** void puth(dt) int dt;{ if(dt<10) putch(0x30+dt); else putch(0x37+dt); }
 3958              		.loc 1 110 6 view .LVU1008
 3959              	.LBB1490:
 110:../USER/main_01aa.c **** void puth(dt) int dt;{ if(dt<10) putch(0x30+dt); else putch(0x37+dt); }
 3960              		.loc 1 110 26 view .LVU1009
 3961 019c 3031     		adds	r1, r1, #48
 3962              	.LVL262:
 110:../USER/main_01aa.c **** void puth(dt) int dt;{ if(dt<10) putch(0x30+dt); else putch(0x37+dt); }
 3963              		.loc 1 110 26 is_stmt 0 view .LVU1010
 3964 019e 4FF04020 		mov	r0, #1073758208
 3965 01a2 FFF7FEFF 		bl	UART_SendChar
 3966              	.LVL263:
 3967 01a6 51E7     		b	.L150
 3968              	.LVL264:
 3969              	.L162:
 110:../USER/main_01aa.c **** void puth(dt) int dt;{ if(dt<10) putch(0x30+dt); else putch(0x37+dt); }
 3970              		.loc 1 110 26 view .LVU1011
 3971              	.LBE1490:
 3972              	.LBE1489:
 3973              	.LBE1488:
 3974              	.LBE1487:
 3975              	.LBE1486:
 3976              	.LBE1485:
 3977              	.LBE1468:
 3978              	.LBE1467:
 3979              	.LBE1434:
 3980              	.LBE1433:
 186:../USER/main_01aa.c **** 	        break;
 187:../USER/main_01aa.c **** 	      case 'M':
 188:../USER/main_01aa.c **** 	        mmd = 1;
 3981              		.loc 1 188 10 is_stmt 1 view .LVU1012
 189:../USER/main_01aa.c **** 	        if(*cbp=='W'){ mmd = 2; cbp++; }
 3982              		.loc 1 189 10 view .LVU1013
 3983              		.loc 1 189 13 is_stmt 0 view .LVU1014
 3984 01a8 9DF91130 		ldrsb	r3, [sp, #17]
 3985              		.loc 1 189 12 view .LVU1015
 3986 01ac 572B     		cmp	r3, #87
 3987 01ae 00F01082 		beq	.L339
 3988              	.LBB1498:
 3989              	.LBB1499:
 141:../USER/main_01aa.c ****   while(**buf==' ') (*buf)++; /* spip sp*/
 3990              		.loc 1 141 5 view .LVU1016
 3991 01b2 0D2B     		cmp	r3, #13
 3992              	.LBE1499:
 3993              	.LBE1498:
 168:../USER/main_01aa.c **** 		  switch(cmd){
 3994              		.loc 1 168 24 view .LVU1017
 3995 01b4 0DF11101 		add	r1, sp, #17
 3996              	.LVL265:
 188:../USER/main_01aa.c **** 	        if(*cbp=='W'){ mmd = 2; cbp++; }
 3997              		.loc 1 188 14 view .LVU1018
 3998 01b8 4FF00108 		mov	r8, #1
 3999              	.LVL266:
 190:../USER/main_01aa.c **** 	        adr = getsh(cbpp);
 4000              		.loc 1 190 10 is_stmt 1 view .LVU1019
 4001              	.LBB1515:
 4002              	.LBI1498:
 139:../USER/main_01aa.c ****   long num = 0; int hd;
 4003              		.loc 1 139 6 view .LVU1020
 4004              	.LBB1512:
 140:../USER/main_01aa.c ****   if(**buf==0x0d) return -1;
 4005              		.loc 1 140 3 view .LVU1021
 140:../USER/main_01aa.c ****   if(**buf==0x0d) return -1;
 4006              		.loc 1 140 17 view .LVU1022
 141:../USER/main_01aa.c ****   while(**buf==' ') (*buf)++; /* spip sp*/
 4007              		.loc 1 141 3 view .LVU1023
 141:../USER/main_01aa.c ****   while(**buf==' ') (*buf)++; /* spip sp*/
 4008              		.loc 1 141 5 is_stmt 0 view .LVU1024
 4009 01bc 02D1     		bne	.L334
 4010 01be 11E2     		b	.L287
 4011              	.LVL267:
 4012              	.L228:
 4013              	.LBB1500:
 4014              	.LBB1501:
 142:../USER/main_01aa.c ****   while( (hd=ishex(**buf)) != -1){ num = num * 16 + hd; (*buf)++; }
 4015              		.loc 1 142 21 is_stmt 1 view .LVU1025
 142:../USER/main_01aa.c ****   while( (hd=ishex(**buf)) != -1){ num = num * 16 + hd; (*buf)++; }
 4016              		.loc 1 142 9 is_stmt 0 view .LVU1026
 4017 01c0 11F9013F 		ldrsb	r3, [r1, #1]!
 4018              	.LVL268:
 4019              	.L334:
 142:../USER/main_01aa.c ****   while( (hd=ishex(**buf)) != -1){ num = num * 16 + hd; (*buf)++; }
 4020              		.loc 1 142 8 view .LVU1027
 4021 01c4 202B     		cmp	r3, #32
 4022 01c6 FBD0     		beq	.L228
 4023 01c8 0139     		subs	r1, r1, #1
 140:../USER/main_01aa.c ****   if(**buf==0x0d) return -1;
 4024              		.loc 1 140 8 view .LVU1028
 4025 01ca 0024     		movs	r4, #0
 4026 01cc 0BE0     		b	.L231
 4027              	.L350:
 4028 01ce 00BF     		.align	2
 4029              	.L349:
 4030 01d0 00000140 		.word	1073807360
 4031 01d4 00000000 		.word	.LC0
 4032 01d8 0C000000 		.word	.LC1
 4033              	.LVL269:
 4034              	.L340:
 4035              	.LBB1502:
 4036              	.LBB1503:
 131:../USER/main_01aa.c ****   else if(ch>='A' && ch<='F') hd = ch - 0x37;
 4037              		.loc 1 131 29 view .LVU1029
 4038 01dc 303B     		subs	r3, r3, #48
 4039              	.LVL270:
 131:../USER/main_01aa.c ****   else if(ch>='A' && ch<='F') hd = ch - 0x37;
 4040              		.loc 1 131 29 view .LVU1030
 4041              	.LBE1503:
 4042              	.LBE1502:
 143:../USER/main_01aa.c ****   return num;
 4043              		.loc 1 143 36 is_stmt 1 view .LVU1031
 4044              	.LBB1508:
 4045              	.LBB1504:
 134:../USER/main_01aa.c **** }
 4046              		.loc 1 134 3 view .LVU1032
 134:../USER/main_01aa.c **** }
 4047              		.loc 1 134 3 is_stmt 0 view .LVU1033
 4048              	.LBE1504:
 4049              	.LBE1508:
 143:../USER/main_01aa.c ****   return num;
 4050              		.loc 1 143 8 view .LVU1034
 4051 01de 5A1C     		adds	r2, r3, #1
 4052 01e0 0FD0     		beq	.L335
 4053              	.L234:
 143:../USER/main_01aa.c ****   return num;
 4054              		.loc 1 143 40 view .LVU1035
 4055 01e2 03EB0414 		add	r4, r3, r4, lsl #4
 4056              	.LVL271:
 143:../USER/main_01aa.c ****   return num;
 4057              		.loc 1 143 57 is_stmt 1 view .LVU1036
 4058              	.L231:
 4059              	.LBB1509:
 4060              	.LBB1505:
 131:../USER/main_01aa.c ****   else if(ch>='A' && ch<='F') hd = ch - 0x37;
 4061              		.loc 1 131 26 view .LVU1037
 132:../USER/main_01aa.c ****   else hd = -1;
 4062              		.loc 1 132 8 view .LVU1038
 132:../USER/main_01aa.c ****   else hd = -1;
 4063              		.loc 1 132 31 view .LVU1039
 4064              	.LBE1505:
 4065              	.LBE1509:
 143:../USER/main_01aa.c ****   return num;
 4066              		.loc 1 143 20 is_stmt 0 view .LVU1040
 4067 01e6 11F9013F 		ldrsb	r3, [r1, #1]!
 4068              	.LVL272:
 4069              	.LBB1510:
 4070              	.LBI1502:
 129:../USER/main_01aa.c ****   int hd;
 4071              		.loc 1 129 5 is_stmt 1 view .LVU1041
 4072              	.LBB1506:
 130:../USER/main_01aa.c ****   if(ch>='0' && ch<='9') hd = ch - 0x30;
 4073              		.loc 1 130 3 view .LVU1042
 131:../USER/main_01aa.c ****   else if(ch>='A' && ch<='F') hd = ch - 0x37;
 4074              		.loc 1 131 3 view .LVU1043
 131:../USER/main_01aa.c ****   else if(ch>='A' && ch<='F') hd = ch - 0x37;
 4075              		.loc 1 131 14 is_stmt 0 view .LVU1044
 4076 01ea DAB2     		uxtb	r2, r3
 131:../USER/main_01aa.c ****   else if(ch>='A' && ch<='F') hd = ch - 0x37;
 4077              		.loc 1 131 5 view .LVU1045
 4078 01ec A2F13000 		sub	r0, r2, #48
 4079 01f0 0928     		cmp	r0, #9
 132:../USER/main_01aa.c ****   else hd = -1;
 4080              		.loc 1 132 10 view .LVU1046
 4081 01f2 A2F14102 		sub	r2, r2, #65
 131:../USER/main_01aa.c ****   else if(ch>='A' && ch<='F') hd = ch - 0x37;
 4082              		.loc 1 131 5 view .LVU1047
 4083 01f6 F1D9     		bls	.L340
 132:../USER/main_01aa.c ****   else hd = -1;
 4084              		.loc 1 132 10 view .LVU1048
 4085 01f8 052A     		cmp	r2, #5
 4086 01fa 02D8     		bhi	.L335
 132:../USER/main_01aa.c ****   else hd = -1;
 4087              		.loc 1 132 34 view .LVU1049
 4088 01fc 373B     		subs	r3, r3, #55
 4089              	.LVL273:
 132:../USER/main_01aa.c ****   else hd = -1;
 4090              		.loc 1 132 34 view .LVU1050
 4091              	.LBE1506:
 4092              	.LBE1510:
 143:../USER/main_01aa.c ****   return num;
 4093              		.loc 1 143 36 is_stmt 1 view .LVU1051
 4094              	.LBB1511:
 4095              	.LBB1507:
 134:../USER/main_01aa.c **** }
 4096              		.loc 1 134 3 view .LVU1052
 134:../USER/main_01aa.c **** }
 4097              		.loc 1 134 3 is_stmt 0 view .LVU1053
 4098              	.LBE1507:
 4099              	.LBE1511:
 143:../USER/main_01aa.c ****   return num;
 4100              		.loc 1 143 8 view .LVU1054
 4101 01fe 5A1C     		adds	r2, r3, #1
 4102 0200 EFD1     		bne	.L234
 4103              	.LVL274:
 4104              	.L335:
 143:../USER/main_01aa.c ****   return num;
 4105              		.loc 1 143 8 view .LVU1055
 4106 0202 2315     		asrs	r3, r4, #20
 4107 0204 0293     		str	r3, [sp, #8]
 4108 0206 2311     		asrs	r3, r4, #4
 4109 0208 4FEA244B 		asr	fp, r4, #16
 4110 020c A7B2     		uxth	r7, r4
 4111 020e 260E     		lsrs	r6, r4, #24
 4112 0210 0193     		str	r3, [sp, #4]
 4113 0212 04F00F05 		and	r5, r4, #15
 4114              	.L230:
 4115              	.LBE1501:
 4116              	.LBE1500:
 4117              	.LBE1512:
 4118              	.LBE1515:
 191:../USER/main_01aa.c **** 	        while(cmd!='.'){
 192:../USER/main_01aa.c **** 	          putadrhd(adr);
 4119              		.loc 1 192 12 is_stmt 1 view .LVU1056
 4120              	.LVL275:
 4121              	.LBB1516:
 4122              	.LBI1516:
 137:../USER/main_01aa.c **** 
 4123              		.loc 1 137 6 view .LVU1057
 4124              	.LBE1516:
 137:../USER/main_01aa.c **** 
 4125              		.loc 1 137 30 view .LVU1058
 4126              	.LBB1652:
 4127              	.LBB1517:
 4128              	.LBI1517:
 110:../USER/main_01aa.c **** void puth(dt) int dt;{ if(dt<10) putch(0x30+dt); else putch(0x37+dt); }
 4129              		.loc 1 110 6 view .LVU1059
 4130              	.LBB1518:
 110:../USER/main_01aa.c **** void puth(dt) int dt;{ if(dt<10) putch(0x30+dt); else putch(0x37+dt); }
 4131              		.loc 1 110 26 view .LVU1060
 4132 0216 0A21     		movs	r1, #10
 4133 0218 4FF04020 		mov	r0, #1073758208
 4134 021c FFF7FEFF 		bl	UART_SendChar
 4135              	.LVL276:
 110:../USER/main_01aa.c **** void puth(dt) int dt;{ if(dt<10) putch(0x30+dt); else putch(0x37+dt); }
 4136              		.loc 1 110 26 is_stmt 0 view .LVU1061
 4137              	.LBE1518:
 4138              	.LBE1517:
 4139              	.LBE1652:
 137:../USER/main_01aa.c **** 
 4140              		.loc 1 137 43 is_stmt 1 view .LVU1062
 4141              	.LBB1653:
 4142              	.LBB1519:
 4143              	.LBI1519:
 115:../USER/main_01aa.c **** void putsuart(char *buf){
 4144              		.loc 1 115 6 view .LVU1063
 4145              	.LBB1520:
 115:../USER/main_01aa.c **** void putsuart(char *buf){
 4146              		.loc 1 115 26 view .LVU1064
 115:../USER/main_01aa.c **** void putsuart(char *buf){
 4147              		.loc 1 115 37 view .LVU1065
 115:../USER/main_01aa.c **** void putsuart(char *buf){
 4148              		.loc 1 115 52 view .LVU1066
 115:../USER/main_01aa.c **** void putsuart(char *buf){
 4149              		.loc 1 115 70 view .LVU1067
 4150              	.LBB1521:
 4151              	.LBI1521:
 113:../USER/main_01aa.c **** void puth6(dt) long dt;{ int dh,dl; dh = dt >> 16; dl = dt & 0xffff; puth2(dh); puth4(dl); }
 4152              		.loc 1 113 6 view .LVU1068
 4153              	.LBE1521:
 4154              	.LBE1520:
 4155              	.LBE1519:
 4156              	.LBE1653:
 113:../USER/main_01aa.c **** void puth6(dt) long dt;{ int dh,dl; dh = dt >> 16; dl = dt & 0xffff; puth2(dh); puth4(dl); }
 4157              		.loc 1 113 25 view .LVU1069
 4158              	.LBB1654:
 4159              	.LBB1648:
 4160              	.LBB1646:
 4161              	.LBB1578:
 4162              	.LBB1522:
 4163              	.LBI1522:
 112:../USER/main_01aa.c **** void puth4(dt) int dt;{ puth2((dt >> 8) & 0xff); puth2(dt & 0xff); }
 4164              		.loc 1 112 6 view .LVU1070
 4165              	.LBB1523:
 112:../USER/main_01aa.c **** void puth4(dt) int dt;{ puth2((dt >> 8) & 0xff); puth2(dt & 0xff); }
 4166              		.loc 1 112 25 view .LVU1071
 112:../USER/main_01aa.c **** void puth4(dt) int dt;{ puth2((dt >> 8) & 0xff); puth2(dt & 0xff); }
 4167              		.loc 1 112 34 is_stmt 0 view .LVU1072
 4168 0220 3311     		asrs	r3, r6, #4
 4169              	.LVL277:
 4170              	.LBB1524:
 4171              	.LBI1524:
 111:../USER/main_01aa.c **** void puth2(dt) int dt;{ puth((dt >> 4) & 0xf); puth(dt & 0xf); }
 4172              		.loc 1 111 6 is_stmt 1 view .LVU1073
 4173              	.LBB1525:
 111:../USER/main_01aa.c **** void puth2(dt) int dt;{ puth((dt >> 4) & 0xf); puth(dt & 0xf); }
 4174              		.loc 1 111 24 view .LVU1074
 4175              	.LBB1526:
 4176              	.LBI1526:
 111:../USER/main_01aa.c **** void puth2(dt) int dt;{ puth((dt >> 4) & 0xf); puth(dt & 0xf); }
 4177              		.loc 1 111 6 view .LVU1075
 4178              	.LBB1527:
 111:../USER/main_01aa.c **** void puth2(dt) int dt;{ puth((dt >> 4) & 0xf); puth(dt & 0xf); }
 4179              		.loc 1 111 34 view .LVU1076
 4180 0222 D9B2     		uxtb	r1, r3
 4181              	.LVL278:
 4182              	.LBB1528:
 4183              	.LBI1528:
 110:../USER/main_01aa.c **** void puth(dt) int dt;{ if(dt<10) putch(0x30+dt); else putch(0x37+dt); }
 4184              		.loc 1 110 6 view .LVU1077
 4185              	.LBB1529:
 110:../USER/main_01aa.c **** void puth(dt) int dt;{ if(dt<10) putch(0x30+dt); else putch(0x37+dt); }
 4186              		.loc 1 110 26 view .LVU1078
 110:../USER/main_01aa.c **** void puth(dt) int dt;{ if(dt<10) putch(0x30+dt); else putch(0x37+dt); }
 4187              		.loc 1 110 26 is_stmt 0 view .LVU1079
 4188              	.LBE1529:
 4189              	.LBE1528:
 4190              	.LBE1527:
 4191              	.LBE1526:
 111:../USER/main_01aa.c **** void puth2(dt) int dt;{ puth((dt >> 4) & 0xf); puth(dt & 0xf); }
 4192              		.loc 1 111 55 is_stmt 1 view .LVU1080
 111:../USER/main_01aa.c **** void puth2(dt) int dt;{ puth((dt >> 4) & 0xf); puth(dt & 0xf); }
 4193              		.loc 1 111 26 is_stmt 0 view .LVU1081
 4194 0224 092B     		cmp	r3, #9
 4195              	.LBB1533:
 4196              	.LBB1532:
 4197              	.LBB1531:
 4198              	.LBB1530:
 110:../USER/main_01aa.c **** void puth(dt) int dt;{ if(dt<10) putch(0x30+dt); else putch(0x37+dt); }
 4199              		.loc 1 110 26 view .LVU1082
 4200 0226 D4BF     		ite	le
 4201 0228 3031     		addle	r1, r1, #48
 4202              	.LVL279:
 110:../USER/main_01aa.c **** void puth(dt) int dt;{ if(dt<10) putch(0x30+dt); else putch(0x37+dt); }
 4203              		.loc 1 110 26 view .LVU1083
 4204              	.LBE1530:
 4205              	.LBE1531:
 4206              	.LBE1532:
 4207              	.LBE1533:
 4208              	.LBB1534:
 4209              	.LBI1534:
 110:../USER/main_01aa.c **** void puth(dt) int dt;{ if(dt<10) putch(0x30+dt); else putch(0x37+dt); }
 4210              		.loc 1 110 6 is_stmt 1 view .LVU1084
 4211              	.LBB1535:
 110:../USER/main_01aa.c **** void puth(dt) int dt;{ if(dt<10) putch(0x30+dt); else putch(0x37+dt); }
 4212              		.loc 1 110 26 view .LVU1085
 4213 022a 3731     		addgt	r1, r1, #55
 4214              	.LVL280:
 110:../USER/main_01aa.c **** void puth(dt) int dt;{ if(dt<10) putch(0x30+dt); else putch(0x37+dt); }
 4215              		.loc 1 110 26 is_stmt 0 view .LVU1086
 4216 022c 4FF04020 		mov	r0, #1073758208
 4217 0230 FFF7FEFF 		bl	UART_SendChar
 4218              	.LVL281:
 110:../USER/main_01aa.c **** void puth(dt) int dt;{ if(dt<10) putch(0x30+dt); else putch(0x37+dt); }
 4219              		.loc 1 110 26 view .LVU1087
 4220              	.LBE1535:
 4221              	.LBE1534:
 4222              	.LBE1525:
 4223              	.LBE1524:
 112:../USER/main_01aa.c **** void puth4(dt) int dt;{ puth2((dt >> 8) & 0xff); puth2(dt & 0xff); }
 4224              		.loc 1 112 48 is_stmt 1 view .LVU1088
 4225 0234 06F00F03 		and	r3, r6, #15
 4226              	.LVL282:
 4227              	.LBB1536:
 4228              	.LBI1536:
 111:../USER/main_01aa.c **** void puth2(dt) int dt;{ puth((dt >> 4) & 0xf); puth(dt & 0xf); }
 4229              		.loc 1 111 6 view .LVU1089
 4230              	.LBB1537:
 111:../USER/main_01aa.c **** void puth2(dt) int dt;{ puth((dt >> 4) & 0xf); puth(dt & 0xf); }
 4231              		.loc 1 111 24 view .LVU1090
 4232              	.LBB1538:
 4233              	.LBI1538:
 111:../USER/main_01aa.c **** void puth2(dt) int dt;{ puth((dt >> 4) & 0xf); puth(dt & 0xf); }
 4234              		.loc 1 111 6 view .LVU1091
 4235              	.LBB1539:
 111:../USER/main_01aa.c **** void puth2(dt) int dt;{ puth((dt >> 4) & 0xf); puth(dt & 0xf); }
 4236              		.loc 1 111 34 view .LVU1092
 4237 0238 D9B2     		uxtb	r1, r3
 4238              	.LVL283:
 4239              	.LBB1540:
 4240              	.LBI1540:
 110:../USER/main_01aa.c **** void puth(dt) int dt;{ if(dt<10) putch(0x30+dt); else putch(0x37+dt); }
 4241              		.loc 1 110 6 view .LVU1093
 4242              	.LBB1541:
 110:../USER/main_01aa.c **** void puth(dt) int dt;{ if(dt<10) putch(0x30+dt); else putch(0x37+dt); }
 4243              		.loc 1 110 26 view .LVU1094
 4244              	.LBE1541:
 4245              	.LBE1540:
 4246              	.LBE1539:
 4247              	.LBE1538:
 111:../USER/main_01aa.c **** void puth2(dt) int dt;{ puth((dt >> 4) & 0xf); puth(dt & 0xf); }
 4248              		.loc 1 111 55 view .LVU1095
 111:../USER/main_01aa.c **** void puth2(dt) int dt;{ puth((dt >> 4) & 0xf); puth(dt & 0xf); }
 4249              		.loc 1 111 26 is_stmt 0 view .LVU1096
 4250 023a 092B     		cmp	r3, #9
 4251              	.LBB1545:
 4252              	.LBB1544:
 4253              	.LBB1543:
 4254              	.LBB1542:
 110:../USER/main_01aa.c **** void puth(dt) int dt;{ if(dt<10) putch(0x30+dt); else putch(0x37+dt); }
 4255              		.loc 1 110 26 view .LVU1097
 4256 023c D4BF     		ite	le
 4257 023e 3031     		addle	r1, r1, #48
 4258              	.LVL284:
 110:../USER/main_01aa.c **** void puth(dt) int dt;{ if(dt<10) putch(0x30+dt); else putch(0x37+dt); }
 4259              		.loc 1 110 26 view .LVU1098
 4260              	.LBE1542:
 4261              	.LBE1543:
 4262              	.LBE1544:
 4263              	.LBE1545:
 4264              	.LBB1546:
 4265              	.LBI1546:
 110:../USER/main_01aa.c **** void puth(dt) int dt;{ if(dt<10) putch(0x30+dt); else putch(0x37+dt); }
 4266              		.loc 1 110 6 is_stmt 1 view .LVU1099
 4267              	.LBB1547:
 110:../USER/main_01aa.c **** void puth(dt) int dt;{ if(dt<10) putch(0x30+dt); else putch(0x37+dt); }
 4268              		.loc 1 110 26 view .LVU1100
 4269 0240 3731     		addgt	r1, r1, #55
 4270              	.LVL285:
 110:../USER/main_01aa.c **** void puth(dt) int dt;{ if(dt<10) putch(0x30+dt); else putch(0x37+dt); }
 4271              		.loc 1 110 26 is_stmt 0 view .LVU1101
 4272 0242 4FF04020 		mov	r0, #1073758208
 4273 0246 FFF7FEFF 		bl	UART_SendChar
 4274              	.LVL286:
 110:../USER/main_01aa.c **** void puth(dt) int dt;{ if(dt<10) putch(0x30+dt); else putch(0x37+dt); }
 4275              		.loc 1 110 26 view .LVU1102
 4276              	.LBE1547:
 4277              	.LBE1546:
 4278              	.LBE1537:
 4279              	.LBE1536:
 4280              	.LBE1523:
 4281              	.LBE1522:
 4282              	.LBE1578:
 4283              	.LBE1646:
 4284              	.LBE1648:
 4285              	.LBE1654:
 113:../USER/main_01aa.c **** void puth6(dt) long dt;{ int dh,dl; dh = dt >> 16; dl = dt & 0xffff; puth2(dh); puth4(dl); }
 4286              		.loc 1 113 50 is_stmt 1 view .LVU1103
 4287              	.LBB1655:
 4288              	.LBB1649:
 4289              	.LBB1647:
 4290              	.LBB1579:
 4291              	.LBB1548:
 4292              	.LBI1548:
 112:../USER/main_01aa.c **** void puth4(dt) int dt;{ puth2((dt >> 8) & 0xff); puth2(dt & 0xff); }
 4293              		.loc 1 112 6 view .LVU1104
 4294              	.LBB1549:
 112:../USER/main_01aa.c **** void puth4(dt) int dt;{ puth2((dt >> 8) & 0xff); puth2(dt & 0xff); }
 4295              		.loc 1 112 25 view .LVU1105
 112:../USER/main_01aa.c **** void puth4(dt) int dt;{ puth2((dt >> 8) & 0xff); puth2(dt & 0xff); }
 4296              		.loc 1 112 34 is_stmt 0 view .LVU1106
 4297 024a 029B     		ldr	r3, [sp, #8]
 4298              	.LBB1550:
 4299              	.LBB1551:
 4300              	.LBB1552:
 4301              	.LBB1553:
 110:../USER/main_01aa.c **** void puth(dt) int dt;{ if(dt<10) putch(0x30+dt); else putch(0x37+dt); }
 4302              		.loc 1 110 26 view .LVU1107
 4303 024c 4FF04020 		mov	r0, #1073758208
 4304              	.LBE1553:
 4305              	.LBE1552:
 4306              	.LBE1551:
 4307              	.LBE1550:
 112:../USER/main_01aa.c **** void puth4(dt) int dt;{ puth2((dt >> 8) & 0xff); puth2(dt & 0xff); }
 4308              		.loc 1 112 34 view .LVU1108
 4309 0250 03F00F03 		and	r3, r3, #15
 4310              	.LVL287:
 4311              	.LBB1565:
 4312              	.LBI1550:
 111:../USER/main_01aa.c **** void puth2(dt) int dt;{ puth((dt >> 4) & 0xf); puth(dt & 0xf); }
 4313              		.loc 1 111 6 is_stmt 1 view .LVU1109
 4314              	.LBB1564:
 111:../USER/main_01aa.c **** void puth2(dt) int dt;{ puth((dt >> 4) & 0xf); puth(dt & 0xf); }
 4315              		.loc 1 111 24 view .LVU1110
 4316              	.LBB1555:
 4317              	.LBI1555:
 111:../USER/main_01aa.c **** void puth2(dt) int dt;{ puth((dt >> 4) & 0xf); puth(dt & 0xf); }
 4318              		.loc 1 111 6 view .LVU1111
 4319              	.LBB1556:
 111:../USER/main_01aa.c **** void puth2(dt) int dt;{ puth((dt >> 4) & 0xf); puth(dt & 0xf); }
 4320              		.loc 1 111 34 view .LVU1112
 4321 0254 D9B2     		uxtb	r1, r3
 4322              	.LVL288:
 4323              	.LBB1557:
 4324              	.LBI1557:
 110:../USER/main_01aa.c **** void puth(dt) int dt;{ if(dt<10) putch(0x30+dt); else putch(0x37+dt); }
 4325              		.loc 1 110 6 view .LVU1113
 4326              	.LBB1558:
 110:../USER/main_01aa.c **** void puth(dt) int dt;{ if(dt<10) putch(0x30+dt); else putch(0x37+dt); }
 4327              		.loc 1 110 26 view .LVU1114
 4328              	.LBE1558:
 4329              	.LBE1557:
 4330              	.LBE1556:
 4331              	.LBE1555:
 111:../USER/main_01aa.c **** void puth2(dt) int dt;{ puth((dt >> 4) & 0xf); puth(dt & 0xf); }
 4332              		.loc 1 111 55 view .LVU1115
 111:../USER/main_01aa.c **** void puth2(dt) int dt;{ puth((dt >> 4) & 0xf); puth(dt & 0xf); }
 4333              		.loc 1 111 26 is_stmt 0 view .LVU1116
 4334 0256 092B     		cmp	r3, #9
 4335              	.LBB1562:
 4336              	.LBB1561:
 4337              	.LBB1560:
 4338              	.LBB1559:
 110:../USER/main_01aa.c **** void puth(dt) int dt;{ if(dt<10) putch(0x30+dt); else putch(0x37+dt); }
 4339              		.loc 1 110 26 view .LVU1117
 4340 0258 D4BF     		ite	le
 4341 025a 3031     		addle	r1, r1, #48
 4342              	.LVL289:
 110:../USER/main_01aa.c **** void puth(dt) int dt;{ if(dt<10) putch(0x30+dt); else putch(0x37+dt); }
 4343              		.loc 1 110 26 view .LVU1118
 4344              	.LBE1559:
 4345              	.LBE1560:
 4346              	.LBE1561:
 4347              	.LBE1562:
 4348              	.LBB1563:
 4349              	.LBI1552:
 110:../USER/main_01aa.c **** void puth(dt) int dt;{ if(dt<10) putch(0x30+dt); else putch(0x37+dt); }
 4350              		.loc 1 110 6 is_stmt 1 view .LVU1119
 4351              	.LBB1554:
 110:../USER/main_01aa.c **** void puth(dt) int dt;{ if(dt<10) putch(0x30+dt); else putch(0x37+dt); }
 4352              		.loc 1 110 26 view .LVU1120
 4353 025c 3731     		addgt	r1, r1, #55
 4354              	.LVL290:
 110:../USER/main_01aa.c **** void puth(dt) int dt;{ if(dt<10) putch(0x30+dt); else putch(0x37+dt); }
 4355              		.loc 1 110 26 is_stmt 0 view .LVU1121
 4356 025e FFF7FEFF 		bl	UART_SendChar
 4357              	.LVL291:
 110:../USER/main_01aa.c **** void puth(dt) int dt;{ if(dt<10) putch(0x30+dt); else putch(0x37+dt); }
 4358              		.loc 1 110 26 view .LVU1122
 4359              	.LBE1554:
 4360              	.LBE1563:
 4361              	.LBE1564:
 4362              	.LBE1565:
 112:../USER/main_01aa.c **** void puth4(dt) int dt;{ puth2((dt >> 8) & 0xff); puth2(dt & 0xff); }
 4363              		.loc 1 112 48 is_stmt 1 view .LVU1123
 4364 0262 0BF00F03 		and	r3, fp, #15
 4365              	.LVL292:
 4366              	.LBB1566:
 4367              	.LBI1566:
 111:../USER/main_01aa.c **** void puth2(dt) int dt;{ puth((dt >> 4) & 0xf); puth(dt & 0xf); }
 4368              		.loc 1 111 6 view .LVU1124
 4369              	.LBB1567:
 111:../USER/main_01aa.c **** void puth2(dt) int dt;{ puth((dt >> 4) & 0xf); puth(dt & 0xf); }
 4370              		.loc 1 111 24 view .LVU1125
 4371              	.LBB1568:
 4372              	.LBI1568:
 111:../USER/main_01aa.c **** void puth2(dt) int dt;{ puth((dt >> 4) & 0xf); puth(dt & 0xf); }
 4373              		.loc 1 111 6 view .LVU1126
 4374              	.LBB1569:
 111:../USER/main_01aa.c **** void puth2(dt) int dt;{ puth((dt >> 4) & 0xf); puth(dt & 0xf); }
 4375              		.loc 1 111 34 view .LVU1127
 4376 0266 D9B2     		uxtb	r1, r3
 4377              	.LVL293:
 4378              	.LBB1570:
 4379              	.LBI1570:
 110:../USER/main_01aa.c **** void puth(dt) int dt;{ if(dt<10) putch(0x30+dt); else putch(0x37+dt); }
 4380              		.loc 1 110 6 view .LVU1128
 4381              	.LBB1571:
 110:../USER/main_01aa.c **** void puth(dt) int dt;{ if(dt<10) putch(0x30+dt); else putch(0x37+dt); }
 4382              		.loc 1 110 26 view .LVU1129
 4383              	.LBE1571:
 4384              	.LBE1570:
 4385              	.LBE1569:
 4386              	.LBE1568:
 111:../USER/main_01aa.c **** void puth2(dt) int dt;{ puth((dt >> 4) & 0xf); puth(dt & 0xf); }
 4387              		.loc 1 111 55 view .LVU1130
 111:../USER/main_01aa.c **** void puth2(dt) int dt;{ puth((dt >> 4) & 0xf); puth(dt & 0xf); }
 4388              		.loc 1 111 26 is_stmt 0 view .LVU1131
 4389 0268 092B     		cmp	r3, #9
 4390              	.LBB1575:
 4391              	.LBB1574:
 4392              	.LBB1573:
 4393              	.LBB1572:
 110:../USER/main_01aa.c **** void puth(dt) int dt;{ if(dt<10) putch(0x30+dt); else putch(0x37+dt); }
 4394              		.loc 1 110 26 view .LVU1132
 4395 026a D4BF     		ite	le
 4396 026c 3031     		addle	r1, r1, #48
 4397              	.LVL294:
 110:../USER/main_01aa.c **** void puth(dt) int dt;{ if(dt<10) putch(0x30+dt); else putch(0x37+dt); }
 4398              		.loc 1 110 26 view .LVU1133
 4399              	.LBE1572:
 4400              	.LBE1573:
 4401              	.LBE1574:
 4402              	.LBE1575:
 4403              	.LBB1576:
 4404              	.LBI1576:
 110:../USER/main_01aa.c **** void puth(dt) int dt;{ if(dt<10) putch(0x30+dt); else putch(0x37+dt); }
 4405              		.loc 1 110 6 is_stmt 1 view .LVU1134
 4406              	.LBB1577:
 110:../USER/main_01aa.c **** void puth(dt) int dt;{ if(dt<10) putch(0x30+dt); else putch(0x37+dt); }
 4407              		.loc 1 110 26 view .LVU1135
 4408 026e 3731     		addgt	r1, r1, #55
 4409              	.LVL295:
 110:../USER/main_01aa.c **** void puth(dt) int dt;{ if(dt<10) putch(0x30+dt); else putch(0x37+dt); }
 4410              		.loc 1 110 26 is_stmt 0 view .LVU1136
 4411 0270 4FF04020 		mov	r0, #1073758208
 4412 0274 FFF7FEFF 		bl	UART_SendChar
 4413              	.LVL296:
 110:../USER/main_01aa.c **** void puth(dt) int dt;{ if(dt<10) putch(0x30+dt); else putch(0x37+dt); }
 4414              		.loc 1 110 26 view .LVU1137
 4415              	.LBE1577:
 4416              	.LBE1576:
 4417              	.LBE1567:
 4418              	.LBE1566:
 4419              	.LBE1549:
 4420              	.LBE1548:
 4421              	.LBE1579:
 115:../USER/main_01aa.c **** void putsuart(char *buf){
 4422              		.loc 1 115 81 is_stmt 1 view .LVU1138
 4423              	.LBB1580:
 4424              	.LBI1580:
 113:../USER/main_01aa.c **** void puth6(dt) long dt;{ int dh,dl; dh = dt >> 16; dl = dt & 0xffff; puth2(dh); puth4(dl); }
 4425              		.loc 1 113 6 view .LVU1139
 4426              	.LBB1581:
 113:../USER/main_01aa.c **** void puth6(dt) long dt;{ int dh,dl; dh = dt >> 16; dl = dt & 0xffff; puth2(dh); puth4(dl); }
 4427              		.loc 1 113 25 view .LVU1140
 4428              	.LBB1582:
 4429              	.LBB1583:
 112:../USER/main_01aa.c **** void puth4(dt) int dt;{ puth2((dt >> 8) & 0xff); puth2(dt & 0xff); }
 4430              		.loc 1 112 34 is_stmt 0 view .LVU1141
 4431 0278 3A13     		asrs	r2, r7, #12
 4432 027a D1B2     		uxtb	r1, r2
 4433              	.LBB1584:
 4434              	.LBB1585:
 111:../USER/main_01aa.c **** void puth2(dt) int dt;{ puth((dt >> 4) & 0xf); puth(dt & 0xf); }
 4435              		.loc 1 111 26 view .LVU1142
 4436 027c 092A     		cmp	r2, #9
 4437              	.LBB1586:
 4438              	.LBB1587:
 4439              	.LBB1588:
 4440              	.LBB1589:
 110:../USER/main_01aa.c **** void puth(dt) int dt;{ if(dt<10) putch(0x30+dt); else putch(0x37+dt); }
 4441              		.loc 1 110 26 view .LVU1143
 4442 027e D4BF     		ite	le
 4443 0280 3031     		addle	r1, r1, #48
 4444              	.LBE1589:
 4445              	.LBE1588:
 4446              	.LBE1587:
 4447              	.LBE1586:
 4448              	.LBB1593:
 4449              	.LBB1594:
 4450 0282 3731     		addgt	r1, r1, #55
 4451              	.LBE1594:
 4452              	.LBE1593:
 4453              	.LBE1585:
 4454              	.LBE1584:
 4455              	.LBE1583:
 4456              	.LBE1582:
 113:../USER/main_01aa.c **** void puth6(dt) long dt;{ int dh,dl; dh = dt >> 16; dl = dt & 0xffff; puth2(dh); puth4(dl); }
 4457              		.loc 1 113 35 view .LVU1144
 4458 0284 4FEA2729 		asr	r9, r7, #8
 4459              	.LVL297:
 4460              	.LBB1613:
 4461              	.LBI1582:
 112:../USER/main_01aa.c **** void puth4(dt) int dt;{ puth2((dt >> 8) & 0xff); puth2(dt & 0xff); }
 4462              		.loc 1 112 6 is_stmt 1 view .LVU1145
 4463              	.LBB1612:
 112:../USER/main_01aa.c **** void puth4(dt) int dt;{ puth2((dt >> 8) & 0xff); puth2(dt & 0xff); }
 4464              		.loc 1 112 25 view .LVU1146
 4465              	.LBB1599:
 4466              	.LBI1584:
 111:../USER/main_01aa.c **** void puth2(dt) int dt;{ puth((dt >> 4) & 0xf); puth(dt & 0xf); }
 4467              		.loc 1 111 6 view .LVU1147
 4468              	.LBB1598:
 111:../USER/main_01aa.c **** void puth2(dt) int dt;{ puth((dt >> 4) & 0xf); puth(dt & 0xf); }
 4469              		.loc 1 111 24 view .LVU1148
 4470              	.LBB1596:
 4471              	.LBI1586:
 111:../USER/main_01aa.c **** void puth2(dt) int dt;{ puth((dt >> 4) & 0xf); puth(dt & 0xf); }
 4472              		.loc 1 111 6 view .LVU1149
 4473              	.LBB1592:
 111:../USER/main_01aa.c **** void puth2(dt) int dt;{ puth((dt >> 4) & 0xf); puth(dt & 0xf); }
 4474              		.loc 1 111 34 view .LVU1150
 4475              	.LBB1591:
 4476              	.LBI1588:
 110:../USER/main_01aa.c **** void puth(dt) int dt;{ if(dt<10) putch(0x30+dt); else putch(0x37+dt); }
 4477              		.loc 1 110 6 view .LVU1151
 4478              	.LBB1590:
 110:../USER/main_01aa.c **** void puth(dt) int dt;{ if(dt<10) putch(0x30+dt); else putch(0x37+dt); }
 4479              		.loc 1 110 26 view .LVU1152
 4480              	.LBE1590:
 4481              	.LBE1591:
 4482              	.LBE1592:
 4483              	.LBE1596:
 111:../USER/main_01aa.c **** void puth2(dt) int dt;{ puth((dt >> 4) & 0xf); puth(dt & 0xf); }
 4484              		.loc 1 111 55 view .LVU1153
 4485              	.LBB1597:
 4486              	.LBI1593:
 110:../USER/main_01aa.c **** void puth(dt) int dt;{ if(dt<10) putch(0x30+dt); else putch(0x37+dt); }
 4487              		.loc 1 110 6 view .LVU1154
 4488              	.LBB1595:
 110:../USER/main_01aa.c **** void puth(dt) int dt;{ if(dt<10) putch(0x30+dt); else putch(0x37+dt); }
 4489              		.loc 1 110 26 view .LVU1155
 4490 0288 4FF04020 		mov	r0, #1073758208
 4491 028c FFF7FEFF 		bl	UART_SendChar
 4492              	.LVL298:
 110:../USER/main_01aa.c **** void puth(dt) int dt;{ if(dt<10) putch(0x30+dt); else putch(0x37+dt); }
 4493              		.loc 1 110 26 is_stmt 0 view .LVU1156
 4494              	.LBE1595:
 4495              	.LBE1597:
 4496              	.LBE1598:
 4497              	.LBE1599:
 112:../USER/main_01aa.c **** void puth4(dt) int dt;{ puth2((dt >> 8) & 0xff); puth2(dt & 0xff); }
 4498              		.loc 1 112 48 is_stmt 1 view .LVU1157
 4499 0290 09F00F03 		and	r3, r9, #15
 4500              	.LVL299:
 4501              	.LBB1600:
 4502              	.LBI1600:
 111:../USER/main_01aa.c **** void puth2(dt) int dt;{ puth((dt >> 4) & 0xf); puth(dt & 0xf); }
 4503              		.loc 1 111 6 view .LVU1158
 4504              	.LBB1601:
 111:../USER/main_01aa.c **** void puth2(dt) int dt;{ puth((dt >> 4) & 0xf); puth(dt & 0xf); }
 4505              		.loc 1 111 24 view .LVU1159
 4506              	.LBB1602:
 4507              	.LBI1602:
 111:../USER/main_01aa.c **** void puth2(dt) int dt;{ puth((dt >> 4) & 0xf); puth(dt & 0xf); }
 4508              		.loc 1 111 6 view .LVU1160
 4509              	.LBB1603:
 111:../USER/main_01aa.c **** void puth2(dt) int dt;{ puth((dt >> 4) & 0xf); puth(dt & 0xf); }
 4510              		.loc 1 111 34 view .LVU1161
 4511 0294 D9B2     		uxtb	r1, r3
 4512              	.LVL300:
 4513              	.LBB1604:
 4514              	.LBI1604:
 110:../USER/main_01aa.c **** void puth(dt) int dt;{ if(dt<10) putch(0x30+dt); else putch(0x37+dt); }
 4515              		.loc 1 110 6 view .LVU1162
 4516              	.LBB1605:
 110:../USER/main_01aa.c **** void puth(dt) int dt;{ if(dt<10) putch(0x30+dt); else putch(0x37+dt); }
 4517              		.loc 1 110 26 view .LVU1163
 4518              	.LBE1605:
 4519              	.LBE1604:
 4520              	.LBE1603:
 4521              	.LBE1602:
 111:../USER/main_01aa.c **** void puth2(dt) int dt;{ puth((dt >> 4) & 0xf); puth(dt & 0xf); }
 4522              		.loc 1 111 55 view .LVU1164
 111:../USER/main_01aa.c **** void puth2(dt) int dt;{ puth((dt >> 4) & 0xf); puth(dt & 0xf); }
 4523              		.loc 1 111 26 is_stmt 0 view .LVU1165
 4524 0296 092B     		cmp	r3, #9
 4525              	.LBB1609:
 4526              	.LBB1608:
 4527              	.LBB1607:
 4528              	.LBB1606:
 110:../USER/main_01aa.c **** void puth(dt) int dt;{ if(dt<10) putch(0x30+dt); else putch(0x37+dt); }
 4529              		.loc 1 110 26 view .LVU1166
 4530 0298 D4BF     		ite	le
 4531 029a 3031     		addle	r1, r1, #48
 4532              	.LVL301:
 110:../USER/main_01aa.c **** void puth(dt) int dt;{ if(dt<10) putch(0x30+dt); else putch(0x37+dt); }
 4533              		.loc 1 110 26 view .LVU1167
 4534              	.LBE1606:
 4535              	.LBE1607:
 4536              	.LBE1608:
 4537              	.LBE1609:
 4538              	.LBB1610:
 4539              	.LBI1610:
 110:../USER/main_01aa.c **** void puth(dt) int dt;{ if(dt<10) putch(0x30+dt); else putch(0x37+dt); }
 4540              		.loc 1 110 6 is_stmt 1 view .LVU1168
 4541              	.LBB1611:
 110:../USER/main_01aa.c **** void puth(dt) int dt;{ if(dt<10) putch(0x30+dt); else putch(0x37+dt); }
 4542              		.loc 1 110 26 view .LVU1169
 4543 029c 3731     		addgt	r1, r1, #55
 4544              	.LVL302:
 110:../USER/main_01aa.c **** void puth(dt) int dt;{ if(dt<10) putch(0x30+dt); else putch(0x37+dt); }
 4545              		.loc 1 110 26 is_stmt 0 view .LVU1170
 4546 029e 4FF04020 		mov	r0, #1073758208
 4547 02a2 FFF7FEFF 		bl	UART_SendChar
 4548              	.LVL303:
 110:../USER/main_01aa.c **** void puth(dt) int dt;{ if(dt<10) putch(0x30+dt); else putch(0x37+dt); }
 4549              		.loc 1 110 26 view .LVU1171
 4550              	.LBE1611:
 4551              	.LBE1610:
 4552              	.LBE1601:
 4553              	.LBE1600:
 4554              	.LBE1612:
 4555              	.LBE1613:
 113:../USER/main_01aa.c **** void puth6(dt) long dt;{ int dh,dl; dh = dt >> 16; dl = dt & 0xffff; puth2(dh); puth4(dl); }
 4556              		.loc 1 113 50 is_stmt 1 view .LVU1172
 4557              	.LBB1614:
 4558              	.LBI1614:
 112:../USER/main_01aa.c **** void puth4(dt) int dt;{ puth2((dt >> 8) & 0xff); puth2(dt & 0xff); }
 4559              		.loc 1 112 6 view .LVU1173
 4560              	.LBB1615:
 112:../USER/main_01aa.c **** void puth4(dt) int dt;{ puth2((dt >> 8) & 0xff); puth2(dt & 0xff); }
 4561              		.loc 1 112 25 view .LVU1174
 112:../USER/main_01aa.c **** void puth4(dt) int dt;{ puth2((dt >> 8) & 0xff); puth2(dt & 0xff); }
 4562              		.loc 1 112 34 is_stmt 0 view .LVU1175
 4563 02a6 019B     		ldr	r3, [sp, #4]
 4564              	.LBB1616:
 4565              	.LBB1617:
 4566              	.LBB1618:
 4567              	.LBB1619:
 110:../USER/main_01aa.c **** void puth(dt) int dt;{ if(dt<10) putch(0x30+dt); else putch(0x37+dt); }
 4568              		.loc 1 110 26 view .LVU1176
 4569 02a8 4FF04020 		mov	r0, #1073758208
 4570              	.LBE1619:
 4571              	.LBE1618:
 4572              	.LBE1617:
 4573              	.LBE1616:
 112:../USER/main_01aa.c **** void puth4(dt) int dt;{ puth2((dt >> 8) & 0xff); puth2(dt & 0xff); }
 4574              		.loc 1 112 34 view .LVU1177
 4575 02ac 03F00F03 		and	r3, r3, #15
 4576              	.LVL304:
 4577              	.LBB1631:
 4578              	.LBI1616:
 111:../USER/main_01aa.c **** void puth2(dt) int dt;{ puth((dt >> 4) & 0xf); puth(dt & 0xf); }
 4579              		.loc 1 111 6 is_stmt 1 view .LVU1178
 4580              	.LBB1630:
 111:../USER/main_01aa.c **** void puth2(dt) int dt;{ puth((dt >> 4) & 0xf); puth(dt & 0xf); }
 4581              		.loc 1 111 24 view .LVU1179
 4582              	.LBB1621:
 4583              	.LBI1621:
 111:../USER/main_01aa.c **** void puth2(dt) int dt;{ puth((dt >> 4) & 0xf); puth(dt & 0xf); }
 4584              		.loc 1 111 6 view .LVU1180
 4585              	.LBB1622:
 111:../USER/main_01aa.c **** void puth2(dt) int dt;{ puth((dt >> 4) & 0xf); puth(dt & 0xf); }
 4586              		.loc 1 111 34 view .LVU1181
 4587 02b0 D9B2     		uxtb	r1, r3
 4588              	.LVL305:
 4589              	.LBB1623:
 4590              	.LBI1623:
 110:../USER/main_01aa.c **** void puth(dt) int dt;{ if(dt<10) putch(0x30+dt); else putch(0x37+dt); }
 4591              		.loc 1 110 6 view .LVU1182
 4592              	.LBB1624:
 110:../USER/main_01aa.c **** void puth(dt) int dt;{ if(dt<10) putch(0x30+dt); else putch(0x37+dt); }
 4593              		.loc 1 110 26 view .LVU1183
 4594              	.LBE1624:
 4595              	.LBE1623:
 4596              	.LBE1622:
 4597              	.LBE1621:
 111:../USER/main_01aa.c **** void puth2(dt) int dt;{ puth((dt >> 4) & 0xf); puth(dt & 0xf); }
 4598              		.loc 1 111 55 view .LVU1184
 111:../USER/main_01aa.c **** void puth2(dt) int dt;{ puth((dt >> 4) & 0xf); puth(dt & 0xf); }
 4599              		.loc 1 111 26 is_stmt 0 view .LVU1185
 4600 02b2 092B     		cmp	r3, #9
 4601              	.LBB1628:
 4602              	.LBB1627:
 4603              	.LBB1626:
 4604              	.LBB1625:
 110:../USER/main_01aa.c **** void puth(dt) int dt;{ if(dt<10) putch(0x30+dt); else putch(0x37+dt); }
 4605              		.loc 1 110 26 view .LVU1186
 4606 02b4 D4BF     		ite	le
 4607 02b6 3031     		addle	r1, r1, #48
 4608              	.LVL306:
 110:../USER/main_01aa.c **** void puth(dt) int dt;{ if(dt<10) putch(0x30+dt); else putch(0x37+dt); }
 4609              		.loc 1 110 26 view .LVU1187
 4610              	.LBE1625:
 4611              	.LBE1626:
 4612              	.LBE1627:
 4613              	.LBE1628:
 4614              	.LBB1629:
 4615              	.LBI1618:
 110:../USER/main_01aa.c **** void puth(dt) int dt;{ if(dt<10) putch(0x30+dt); else putch(0x37+dt); }
 4616              		.loc 1 110 6 is_stmt 1 view .LVU1188
 4617              	.LBB1620:
 110:../USER/main_01aa.c **** void puth(dt) int dt;{ if(dt<10) putch(0x30+dt); else putch(0x37+dt); }
 4618              		.loc 1 110 26 view .LVU1189
 4619 02b8 3731     		addgt	r1, r1, #55
 4620              	.LVL307:
 110:../USER/main_01aa.c **** void puth(dt) int dt;{ if(dt<10) putch(0x30+dt); else putch(0x37+dt); }
 4621              		.loc 1 110 26 is_stmt 0 view .LVU1190
 4622 02ba FFF7FEFF 		bl	UART_SendChar
 4623              	.LVL308:
 110:../USER/main_01aa.c **** void puth(dt) int dt;{ if(dt<10) putch(0x30+dt); else putch(0x37+dt); }
 4624              		.loc 1 110 26 view .LVU1191
 4625              	.LBE1620:
 4626              	.LBE1629:
 4627              	.LBE1630:
 4628              	.LBE1631:
 112:../USER/main_01aa.c **** void puth4(dt) int dt;{ puth2((dt >> 8) & 0xff); puth2(dt & 0xff); }
 4629              		.loc 1 112 48 is_stmt 1 view .LVU1192
 4630              	.LBB1632:
 4631              	.LBI1632:
 111:../USER/main_01aa.c **** void puth2(dt) int dt;{ puth((dt >> 4) & 0xf); puth(dt & 0xf); }
 4632              		.loc 1 111 6 view .LVU1193
 4633              	.LBB1633:
 111:../USER/main_01aa.c **** void puth2(dt) int dt;{ puth((dt >> 4) & 0xf); puth(dt & 0xf); }
 4634              		.loc 1 111 24 view .LVU1194
 4635              	.LBB1634:
 4636              	.LBI1634:
 111:../USER/main_01aa.c **** void puth2(dt) int dt;{ puth((dt >> 4) & 0xf); puth(dt & 0xf); }
 4637              		.loc 1 111 6 view .LVU1195
 4638              	.LBB1635:
 111:../USER/main_01aa.c **** void puth2(dt) int dt;{ puth((dt >> 4) & 0xf); puth(dt & 0xf); }
 4639              		.loc 1 111 34 view .LVU1196
 4640              	.LBE1635:
 4641              	.LBE1634:
 111:../USER/main_01aa.c **** void puth2(dt) int dt;{ puth((dt >> 4) & 0xf); puth(dt & 0xf); }
 4642              		.loc 1 111 26 is_stmt 0 view .LVU1197
 4643 02be 092D     		cmp	r5, #9
 4644 02c0 E9B2     		uxtb	r1, r5
 4645              	.LVL309:
 4646              	.LBB1642:
 4647              	.LBB1640:
 4648              	.LBB1636:
 4649              	.LBI1636:
 110:../USER/main_01aa.c **** void puth(dt) int dt;{ if(dt<10) putch(0x30+dt); else putch(0x37+dt); }
 4650              		.loc 1 110 6 is_stmt 1 view .LVU1198
 4651              	.LBB1637:
 110:../USER/main_01aa.c **** void puth(dt) int dt;{ if(dt<10) putch(0x30+dt); else putch(0x37+dt); }
 4652              		.loc 1 110 26 view .LVU1199
 4653              	.LBE1637:
 4654              	.LBE1636:
 4655              	.LBE1640:
 4656              	.LBE1642:
 111:../USER/main_01aa.c **** void puth2(dt) int dt;{ puth((dt >> 4) & 0xf); puth(dt & 0xf); }
 4657              		.loc 1 111 55 view .LVU1200
 4658              	.LBB1643:
 4659              	.LBB1641:
 4660              	.LBB1639:
 4661              	.LBB1638:
 110:../USER/main_01aa.c **** void puth(dt) int dt;{ if(dt<10) putch(0x30+dt); else putch(0x37+dt); }
 4662              		.loc 1 110 26 is_stmt 0 view .LVU1201
 4663 02c2 D4BF     		ite	le
 4664 02c4 3031     		addle	r1, r1, #48
 4665              	.LVL310:
 110:../USER/main_01aa.c **** void puth(dt) int dt;{ if(dt<10) putch(0x30+dt); else putch(0x37+dt); }
 4666              		.loc 1 110 26 view .LVU1202
 4667              	.LBE1638:
 4668              	.LBE1639:
 4669              	.LBE1641:
 4670              	.LBE1643:
 4671              	.LBB1644:
 4672              	.LBI1644:
 110:../USER/main_01aa.c **** void puth(dt) int dt;{ if(dt<10) putch(0x30+dt); else putch(0x37+dt); }
 4673              		.loc 1 110 6 is_stmt 1 view .LVU1203
 4674              	.LBB1645:
 110:../USER/main_01aa.c **** void puth(dt) int dt;{ if(dt<10) putch(0x30+dt); else putch(0x37+dt); }
 4675              		.loc 1 110 26 view .LVU1204
 4676 02c6 3731     		addgt	r1, r1, #55
 4677              	.LVL311:
 110:../USER/main_01aa.c **** void puth(dt) int dt;{ if(dt<10) putch(0x30+dt); else putch(0x37+dt); }
 4678              		.loc 1 110 26 is_stmt 0 view .LVU1205
 4679 02c8 4FF04020 		mov	r0, #1073758208
 4680 02cc FFF7FEFF 		bl	UART_SendChar
 4681              	.LVL312:
 110:../USER/main_01aa.c **** void puth(dt) int dt;{ if(dt<10) putch(0x30+dt); else putch(0x37+dt); }
 4682              		.loc 1 110 26 view .LVU1206
 4683              	.LBE1645:
 4684              	.LBE1644:
 4685              	.LBE1633:
 4686              	.LBE1632:
 4687              	.LBE1615:
 4688              	.LBE1614:
 4689              	.LBE1581:
 4690              	.LBE1580:
 4691              	.LBE1647:
 4692              	.LBE1649:
 4693              	.LBE1655:
 137:../USER/main_01aa.c **** 
 4694              		.loc 1 137 55 is_stmt 1 view .LVU1207
 4695              	.LBB1656:
 4696              	.LBB1650:
 4697              	.LBI1650:
 110:../USER/main_01aa.c **** void puth(dt) int dt;{ if(dt<10) putch(0x30+dt); else putch(0x37+dt); }
 4698              		.loc 1 110 6 view .LVU1208
 4699              	.LBB1651:
 110:../USER/main_01aa.c **** void puth(dt) int dt;{ if(dt<10) putch(0x30+dt); else putch(0x37+dt); }
 4700              		.loc 1 110 26 view .LVU1209
 4701 02d0 3A21     		movs	r1, #58
 4702 02d2 4FF04020 		mov	r0, #1073758208
 4703 02d6 FFF7FEFF 		bl	UART_SendChar
 4704              	.LVL313:
 110:../USER/main_01aa.c **** void puth(dt) int dt;{ if(dt<10) putch(0x30+dt); else putch(0x37+dt); }
 4705              		.loc 1 110 26 is_stmt 0 view .LVU1210
 4706              	.LBE1651:
 4707              	.LBE1650:
 4708              	.LBE1656:
 193:../USER/main_01aa.c **** 	          putch(' '); puth2(mbase[adr]); if(mmd==2) puth2(mbase[adr+1]);
 4709              		.loc 1 193 12 is_stmt 1 view .LVU1211
 4710              	.LBB1657:
 4711              	.LBI1657:
 110:../USER/main_01aa.c **** void puth(dt) int dt;{ if(dt<10) putch(0x30+dt); else putch(0x37+dt); }
 4712              		.loc 1 110 6 view .LVU1212
 4713              	.LBB1658:
 110:../USER/main_01aa.c **** void puth(dt) int dt;{ if(dt<10) putch(0x30+dt); else putch(0x37+dt); }
 4714              		.loc 1 110 26 view .LVU1213
 4715 02da 2021     		movs	r1, #32
 4716 02dc 4FF04020 		mov	r0, #1073758208
 4717 02e0 FFF7FEFF 		bl	UART_SendChar
 4718              	.LVL314:
 110:../USER/main_01aa.c **** void puth(dt) int dt;{ if(dt<10) putch(0x30+dt); else putch(0x37+dt); }
 4719              		.loc 1 110 26 is_stmt 0 view .LVU1214
 4720              	.LBE1658:
 4721              	.LBE1657:
 4722              		.loc 1 193 24 is_stmt 1 view .LVU1215
 4723              		.loc 1 193 35 is_stmt 0 view .LVU1216
 4724 02e4 94F80090 		ldrb	r9, [r4]	@ zero_extendqisi2
 4725              	.LVL315:
 4726              	.LBB1659:
 4727              	.LBI1659:
 112:../USER/main_01aa.c **** void puth4(dt) int dt;{ puth2((dt >> 8) & 0xff); puth2(dt & 0xff); }
 4728              		.loc 1 112 6 is_stmt 1 view .LVU1217
 4729              	.LBB1660:
 112:../USER/main_01aa.c **** void puth4(dt) int dt;{ puth2((dt >> 8) & 0xff); puth2(dt & 0xff); }
 4730              		.loc 1 112 25 view .LVU1218
 4731              	.LBB1661:
 4732              	.LBB1662:
 4733              	.LBB1663:
 4734              	.LBB1664:
 110:../USER/main_01aa.c **** void puth(dt) int dt;{ if(dt<10) putch(0x30+dt); else putch(0x37+dt); }
 4735              		.loc 1 110 26 is_stmt 0 view .LVU1219
 4736 02e8 4FF04020 		mov	r0, #1073758208
 4737              	.LBE1664:
 4738              	.LBE1663:
 4739              	.LBE1662:
 4740              	.LBE1661:
 112:../USER/main_01aa.c **** void puth4(dt) int dt;{ puth2((dt >> 8) & 0xff); puth2(dt & 0xff); }
 4741              		.loc 1 112 34 view .LVU1220
 4742 02ec 4FEA2911 		asr	r1, r9, #4
 4743              	.LVL316:
 4744              	.LBB1676:
 4745              	.LBI1661:
 111:../USER/main_01aa.c **** void puth2(dt) int dt;{ puth((dt >> 4) & 0xf); puth(dt & 0xf); }
 4746              		.loc 1 111 6 is_stmt 1 view .LVU1221
 4747              	.LBB1675:
 111:../USER/main_01aa.c **** void puth2(dt) int dt;{ puth((dt >> 4) & 0xf); puth(dt & 0xf); }
 4748              		.loc 1 111 24 view .LVU1222
 4749              	.LBB1666:
 4750              	.LBI1666:
 111:../USER/main_01aa.c **** void puth2(dt) int dt;{ puth((dt >> 4) & 0xf); puth(dt & 0xf); }
 4751              		.loc 1 111 6 view .LVU1223
 4752              	.LBB1667:
 111:../USER/main_01aa.c **** void puth2(dt) int dt;{ puth((dt >> 4) & 0xf); puth(dt & 0xf); }
 4753              		.loc 1 111 34 view .LVU1224
 4754              	.LBB1668:
 4755              	.LBI1668:
 110:../USER/main_01aa.c **** void puth(dt) int dt;{ if(dt<10) putch(0x30+dt); else putch(0x37+dt); }
 4756              		.loc 1 110 6 view .LVU1225
 4757              	.LBB1669:
 110:../USER/main_01aa.c **** void puth(dt) int dt;{ if(dt<10) putch(0x30+dt); else putch(0x37+dt); }
 4758              		.loc 1 110 26 view .LVU1226
 4759              	.LBE1669:
 4760              	.LBE1668:
 4761              	.LBE1667:
 4762              	.LBE1666:
 111:../USER/main_01aa.c **** void puth2(dt) int dt;{ puth((dt >> 4) & 0xf); puth(dt & 0xf); }
 4763              		.loc 1 111 55 view .LVU1227
 111:../USER/main_01aa.c **** void puth2(dt) int dt;{ puth((dt >> 4) & 0xf); puth(dt & 0xf); }
 4764              		.loc 1 111 26 is_stmt 0 view .LVU1228
 4765 02f0 0929     		cmp	r1, #9
 4766              	.LBB1673:
 4767              	.LBB1672:
 4768              	.LBB1671:
 4769              	.LBB1670:
 110:../USER/main_01aa.c **** void puth(dt) int dt;{ if(dt<10) putch(0x30+dt); else putch(0x37+dt); }
 4770              		.loc 1 110 26 view .LVU1229
 4771 02f2 D4BF     		ite	le
 4772 02f4 3031     		addle	r1, r1, #48
 4773              	.LVL317:
 110:../USER/main_01aa.c **** void puth(dt) int dt;{ if(dt<10) putch(0x30+dt); else putch(0x37+dt); }
 4774              		.loc 1 110 26 view .LVU1230
 4775              	.LBE1670:
 4776              	.LBE1671:
 4777              	.LBE1672:
 4778              	.LBE1673:
 4779              	.LBB1674:
 4780              	.LBI1663:
 110:../USER/main_01aa.c **** void puth(dt) int dt;{ if(dt<10) putch(0x30+dt); else putch(0x37+dt); }
 4781              		.loc 1 110 6 is_stmt 1 view .LVU1231
 4782              	.LBB1665:
 110:../USER/main_01aa.c **** void puth(dt) int dt;{ if(dt<10) putch(0x30+dt); else putch(0x37+dt); }
 4783              		.loc 1 110 26 view .LVU1232
 4784 02f6 3731     		addgt	r1, r1, #55
 4785              	.LVL318:
 110:../USER/main_01aa.c **** void puth(dt) int dt;{ if(dt<10) putch(0x30+dt); else putch(0x37+dt); }
 4786              		.loc 1 110 26 is_stmt 0 view .LVU1233
 4787 02f8 FFF7FEFF 		bl	UART_SendChar
 4788              	.LVL319:
 110:../USER/main_01aa.c **** void puth(dt) int dt;{ if(dt<10) putch(0x30+dt); else putch(0x37+dt); }
 4789              		.loc 1 110 26 view .LVU1234
 4790              	.LBE1665:
 4791              	.LBE1674:
 4792              	.LBE1675:
 4793              	.LBE1676:
 112:../USER/main_01aa.c **** void puth4(dt) int dt;{ puth2((dt >> 8) & 0xff); puth2(dt & 0xff); }
 4794              		.loc 1 112 48 is_stmt 1 view .LVU1235
 4795 02fc 09F00F03 		and	r3, r9, #15
 4796              	.LVL320:
 4797              	.LBB1677:
 4798              	.LBI1677:
 111:../USER/main_01aa.c **** void puth2(dt) int dt;{ puth((dt >> 4) & 0xf); puth(dt & 0xf); }
 4799              		.loc 1 111 6 view .LVU1236
 4800              	.LBB1678:
 111:../USER/main_01aa.c **** void puth2(dt) int dt;{ puth((dt >> 4) & 0xf); puth(dt & 0xf); }
 4801              		.loc 1 111 24 view .LVU1237
 4802              	.LBB1679:
 4803              	.LBI1679:
 111:../USER/main_01aa.c **** void puth2(dt) int dt;{ puth((dt >> 4) & 0xf); puth(dt & 0xf); }
 4804              		.loc 1 111 6 view .LVU1238
 4805              	.LBB1680:
 111:../USER/main_01aa.c **** void puth2(dt) int dt;{ puth((dt >> 4) & 0xf); puth(dt & 0xf); }
 4806              		.loc 1 111 34 view .LVU1239
 4807              	.LBB1681:
 4808              	.LBI1681:
 110:../USER/main_01aa.c **** void puth(dt) int dt;{ if(dt<10) putch(0x30+dt); else putch(0x37+dt); }
 4809              		.loc 1 110 6 view .LVU1240
 4810              	.LBB1682:
 110:../USER/main_01aa.c **** void puth(dt) int dt;{ if(dt<10) putch(0x30+dt); else putch(0x37+dt); }
 4811              		.loc 1 110 26 view .LVU1241
 4812              	.LBE1682:
 4813              	.LBE1681:
 4814              	.LBE1680:
 4815              	.LBE1679:
 111:../USER/main_01aa.c **** void puth2(dt) int dt;{ puth((dt >> 4) & 0xf); puth(dt & 0xf); }
 4816              		.loc 1 111 55 view .LVU1242
 4817              	.LBB1686:
 4818              	.LBI1686:
 110:../USER/main_01aa.c **** void puth(dt) int dt;{ if(dt<10) putch(0x30+dt); else putch(0x37+dt); }
 4819              		.loc 1 110 6 view .LVU1243
 4820              	.LBB1687:
 110:../USER/main_01aa.c **** void puth(dt) int dt;{ if(dt<10) putch(0x30+dt); else putch(0x37+dt); }
 4821              		.loc 1 110 26 view .LVU1244
 4822              	.LBE1687:
 4823              	.LBE1686:
 111:../USER/main_01aa.c **** void puth2(dt) int dt;{ puth((dt >> 4) & 0xf); puth(dt & 0xf); }
 4824              		.loc 1 111 26 is_stmt 0 view .LVU1245
 4825 0300 092B     		cmp	r3, #9
 4826              	.LBB1689:
 4827              	.LBB1685:
 4828              	.LBB1684:
 4829              	.LBB1683:
 110:../USER/main_01aa.c **** void puth(dt) int dt;{ if(dt<10) putch(0x30+dt); else putch(0x37+dt); }
 4830              		.loc 1 110 26 view .LVU1246
 4831 0302 94BF     		ite	ls
 4832 0304 03F13001 		addls	r1, r3, #48
 4833              	.LBE1683:
 4834              	.LBE1684:
 4835              	.LBE1685:
 4836              	.LBE1689:
 4837              	.LBB1690:
 4838              	.LBB1688:
 4839 0308 03F13701 		addhi	r1, r3, #55
 4840 030c 4FF04020 		mov	r0, #1073758208
 4841 0310 FFF7FEFF 		bl	UART_SendChar
 4842              	.LVL321:
 110:../USER/main_01aa.c **** void puth(dt) int dt;{ if(dt<10) putch(0x30+dt); else putch(0x37+dt); }
 4843              		.loc 1 110 26 view .LVU1247
 4844              	.LBE1688:
 4845              	.LBE1690:
 4846              	.LBE1678:
 4847              	.LBE1677:
 4848              	.LBE1660:
 4849              	.LBE1659:
 4850              		.loc 1 193 43 is_stmt 1 view .LVU1248
 4851              		.loc 1 193 45 is_stmt 0 view .LVU1249
 4852 0314 B8F1020F 		cmp	r8, #2
 4853 0318 00F03C81 		beq	.L341
 4854              	.LVL322:
 4855              	.L255:
 194:../USER/main_01aa.c **** 	          putch(' ');
 4856              		.loc 1 194 12 is_stmt 1 view .LVU1250
 4857              	.LBB1691:
 4858              	.LBI1691:
 110:../USER/main_01aa.c **** void puth(dt) int dt;{ if(dt<10) putch(0x30+dt); else putch(0x37+dt); }
 4859              		.loc 1 110 6 view .LVU1251
 4860              	.LBB1692:
 110:../USER/main_01aa.c **** void puth(dt) int dt;{ if(dt<10) putch(0x30+dt); else putch(0x37+dt); }
 4861              		.loc 1 110 26 view .LVU1252
 4862 031c 2021     		movs	r1, #32
 4863 031e 4FF04020 		mov	r0, #1073758208
 4864 0322 FFF7FEFF 		bl	UART_SendChar
 4865              	.LVL323:
 110:../USER/main_01aa.c **** void puth(dt) int dt;{ if(dt<10) putch(0x30+dt); else putch(0x37+dt); }
 4866              		.loc 1 110 26 is_stmt 0 view .LVU1253
 4867              	.LBE1692:
 4868              	.LBE1691:
 195:../USER/main_01aa.c **** 	          getssu(cbuf); cbp = &cbuf[0];
 4869              		.loc 1 195 12 is_stmt 1 view .LVU1254
 4870              	.LBB1694:
 4871              	.LBI1694:
 136:../USER/main_01aa.c **** void putadrhd(adr) long adr;{putch('\n'); puth8(adr); putch(':');}
 4872              		.loc 1 136 6 view .LVU1255
 4873              	.LBE1694:
 4874              	.LBB1705:
 4875              	.LBB1693:
 110:../USER/main_01aa.c **** void puth(dt) int dt;{ if(dt<10) putch(0x30+dt); else putch(0x37+dt); }
 4876              		.loc 1 110 26 is_stmt 0 view .LVU1256
 4877 0326 0DF11009 		add	r9, sp, #16
 4878              	.LVL324:
 4879              	.L259:
 110:../USER/main_01aa.c **** void puth(dt) int dt;{ if(dt<10) putch(0x30+dt); else putch(0x37+dt); }
 4880              		.loc 1 110 26 view .LVU1257
 4881              	.LBE1693:
 4882              	.LBE1705:
 4883              	.LBB1706:
 4884              	.LBB1695:
 4885              	.LBB1696:
 123:../USER/main_01aa.c **** 	while(1){
 4886              		.loc 1 123 2 is_stmt 1 view .LVU1258
 124:../USER/main_01aa.c **** 		ch = getch(); putch(ch); *buf++ = ch;
 4887              		.loc 1 124 2 view .LVU1259
 125:../USER/main_01aa.c **** 		if(ch==0x0d) break;
 4888              		.loc 1 125 3 view .LVU1260
 4889              	.LBB1697:
 4890              	.LBI1697:
 109:../USER/main_01aa.c **** void putchuart(char ch){ UART_SendChar(UART0,ch);}
 4891              		.loc 1 109 6 view .LVU1261
 4892              	.LBB1698:
 109:../USER/main_01aa.c **** void putchuart(char ch){ UART_SendChar(UART0,ch);}
 4893              		.loc 1 109 23 view .LVU1262
 109:../USER/main_01aa.c **** void putchuart(char ch){ UART_SendChar(UART0,ch);}
 4894              		.loc 1 109 30 is_stmt 0 view .LVU1263
 4895 032a 4FF04020 		mov	r0, #1073758208
 4896 032e FFF7FEFF 		bl	UART_ReceiveChar
 4897              	.LVL325:
 4898 0332 8246     		mov	r10, r0
 4899              	.LVL326:
 109:../USER/main_01aa.c **** void putchuart(char ch){ UART_SendChar(UART0,ch);}
 4900              		.loc 1 109 30 view .LVU1264
 4901              	.LBE1698:
 4902              	.LBE1697:
 125:../USER/main_01aa.c **** 		if(ch==0x0d) break;
 4903              		.loc 1 125 17 is_stmt 1 view .LVU1265
 4904              	.LBB1699:
 4905              	.LBI1699:
 110:../USER/main_01aa.c **** void puth(dt) int dt;{ if(dt<10) putch(0x30+dt); else putch(0x37+dt); }
 4906              		.loc 1 110 6 view .LVU1266
 4907              	.LBB1700:
 110:../USER/main_01aa.c **** void puth(dt) int dt;{ if(dt<10) putch(0x30+dt); else putch(0x37+dt); }
 4908              		.loc 1 110 26 view .LVU1267
 4909 0334 0146     		mov	r1, r0
 4910 0336 4FF04020 		mov	r0, #1073758208
 4911              	.LVL327:
 110:../USER/main_01aa.c **** void puth(dt) int dt;{ if(dt<10) putch(0x30+dt); else putch(0x37+dt); }
 4912              		.loc 1 110 26 is_stmt 0 view .LVU1268
 4913 033a FFF7FEFF 		bl	UART_SendChar
 4914              	.LVL328:
 110:../USER/main_01aa.c **** void puth(dt) int dt;{ if(dt<10) putch(0x30+dt); else putch(0x37+dt); }
 4915              		.loc 1 110 26 view .LVU1269
 4916              	.LBE1700:
 4917              	.LBE1699:
 125:../USER/main_01aa.c **** 		if(ch==0x0d) break;
 4918              		.loc 1 125 28 is_stmt 1 view .LVU1270
 126:../USER/main_01aa.c **** 	}
 4919              		.loc 1 126 5 is_stmt 0 view .LVU1271
 4920 033e BAF10D0F 		cmp	r10, #13
 125:../USER/main_01aa.c **** 		if(ch==0x0d) break;
 4921              		.loc 1 125 35 view .LVU1272
 4922 0342 09F801AB 		strb	r10, [r9], #1
 4923              	.LVL329:
 126:../USER/main_01aa.c **** 	}
 4924              		.loc 1 126 3 is_stmt 1 view .LVU1273
 126:../USER/main_01aa.c **** 	}
 4925              		.loc 1 126 5 is_stmt 0 view .LVU1274
 4926 0346 F0D1     		bne	.L259
 4927              	.LVL330:
 126:../USER/main_01aa.c **** 	}
 4928              		.loc 1 126 5 view .LVU1275
 4929              	.LBE1696:
 4930              	.LBE1695:
 4931              	.LBB1701:
 4932              	.LBB1702:
 104:../USER/main_01aa.c ****    if( *buf>='a' && *buf<='z') *buf = *buf - 0x20;
 4933              		.loc 1 104 9 view .LVU1276
 4934 0348 9DF91030 		ldrsb	r3, [sp, #16]
 104:../USER/main_01aa.c ****    if( *buf>='a' && *buf<='z') *buf = *buf - 0x20;
 4935              		.loc 1 104 8 view .LVU1277
 4936 034c 0D2B     		cmp	r3, #13
 4937 034e 3BD0     		beq	.L267
 4938 0350 04AA     		add	r2, sp, #16
 4939              	.LVL331:
 4940              	.L264:
 105:../USER/main_01aa.c ****    buf++;
 4941              		.loc 1 105 4 is_stmt 1 view .LVU1278
 105:../USER/main_01aa.c ****    buf++;
 4942              		.loc 1 105 32 view .LVU1279
 106:../USER/main_01aa.c ****   }
 4943              		.loc 1 106 4 view .LVU1280
 105:../USER/main_01aa.c ****    buf++;
 4944              		.loc 1 105 18 is_stmt 0 view .LVU1281
 4945 0352 DBB2     		uxtb	r3, r3
 105:../USER/main_01aa.c ****    buf++;
 4946              		.loc 1 105 44 view .LVU1282
 4947 0354 A3F12001 		sub	r1, r3, #32
 105:../USER/main_01aa.c ****    buf++;
 4948              		.loc 1 105 6 view .LVU1283
 4949 0358 613B     		subs	r3, r3, #97
 4950 035a 192B     		cmp	r3, #25
 4951 035c 00F20281 		bhi	.L261
 105:../USER/main_01aa.c ****    buf++;
 4952              		.loc 1 105 37 view .LVU1284
 4953 0360 1170     		strb	r1, [r2]
 106:../USER/main_01aa.c ****   }
 4954              		.loc 1 106 4 is_stmt 1 view .LVU1285
 104:../USER/main_01aa.c ****    if( *buf>='a' && *buf<='z') *buf = *buf - 0x20;
 4955              		.loc 1 104 9 is_stmt 0 view .LVU1286
 4956 0362 12F9013F 		ldrsb	r3, [r2, #1]!
 4957              	.LVL332:
 104:../USER/main_01aa.c ****    if( *buf>='a' && *buf<='z') *buf = *buf - 0x20;
 4958              		.loc 1 104 8 view .LVU1287
 4959 0366 0D2B     		cmp	r3, #13
 4960 0368 F3D1     		bne	.L264
 4961              	.LVL333:
 4962              	.L263:
 104:../USER/main_01aa.c ****    if( *buf>='a' && *buf<='z') *buf = *buf - 0x20;
 4963              		.loc 1 104 8 view .LVU1288
 4964              	.LBE1702:
 4965              	.LBE1701:
 4966              	.LBE1706:
 4967              		.loc 1 195 26 is_stmt 1 view .LVU1289
 196:../USER/main_01aa.c **** 	          dt = getsh(cbpp); cmd = *cbp;
 4968              		.loc 1 196 12 view .LVU1290
 4969              	.LBB1707:
 4970              	.LBI1707:
 139:../USER/main_01aa.c ****   long num = 0; int hd;
 4971              		.loc 1 139 6 view .LVU1291
 4972              	.LBB1708:
 140:../USER/main_01aa.c ****   if(**buf==0x0d) return -1;
 4973              		.loc 1 140 3 view .LVU1292
 140:../USER/main_01aa.c ****   if(**buf==0x0d) return -1;
 4974              		.loc 1 140 17 view .LVU1293
 141:../USER/main_01aa.c ****   while(**buf==' ') (*buf)++; /* spip sp*/
 4975              		.loc 1 141 3 view .LVU1294
 141:../USER/main_01aa.c ****   while(**buf==' ') (*buf)++; /* spip sp*/
 4976              		.loc 1 141 6 is_stmt 0 view .LVU1295
 4977 036a 9DF91030 		ldrsb	r3, [sp, #16]
 141:../USER/main_01aa.c ****   while(**buf==' ') (*buf)++; /* spip sp*/
 4978              		.loc 1 141 5 view .LVU1296
 4979 036e 0D2B     		cmp	r3, #13
 4980 0370 2AD0     		beq	.L267
 4981              	.LBB1709:
 4982              	.LBB1710:
 142:../USER/main_01aa.c ****   while( (hd=ishex(**buf)) != -1){ num = num * 16 + hd; (*buf)++; }
 4983              		.loc 1 142 8 view .LVU1297
 4984 0372 202B     		cmp	r3, #32
 4985              	.LBE1710:
 4986              	.LBE1709:
 4987              	.LBE1708:
 4988              	.LBE1707:
 195:../USER/main_01aa.c **** 	          dt = getsh(cbpp); cmd = *cbp;
 4989              		.loc 1 195 30 view .LVU1298
 4990 0374 04AA     		add	r2, sp, #16
 4991              	.LVL334:
 4992              	.LBB1724:
 4993              	.LBB1723:
 4994              	.LBB1722:
 4995              	.LBB1721:
 142:../USER/main_01aa.c ****   while( (hd=ishex(**buf)) != -1){ num = num * 16 + hd; (*buf)++; }
 4996              		.loc 1 142 8 view .LVU1299
 4997 0376 03D1     		bne	.L266
 4998              	.LVL335:
 4999              	.L265:
 142:../USER/main_01aa.c ****   while( (hd=ishex(**buf)) != -1){ num = num * 16 + hd; (*buf)++; }
 5000              		.loc 1 142 21 is_stmt 1 view .LVU1300
 142:../USER/main_01aa.c ****   while( (hd=ishex(**buf)) != -1){ num = num * 16 + hd; (*buf)++; }
 5001              		.loc 1 142 9 is_stmt 0 view .LVU1301
 5002 0378 12F9013F 		ldrsb	r3, [r2, #1]!
 5003              	.LVL336:
 142:../USER/main_01aa.c ****   while( (hd=ishex(**buf)) != -1){ num = num * 16 + hd; (*buf)++; }
 5004              		.loc 1 142 8 view .LVU1302
 5005 037c 202B     		cmp	r3, #32
 5006 037e FBD0     		beq	.L265
 5007              	.LVL337:
 5008              	.L266:
 142:../USER/main_01aa.c ****   while( (hd=ishex(**buf)) != -1){ num = num * 16 + hd; (*buf)++; }
 5009              		.loc 1 142 8 view .LVU1303
 5010 0380 013A     		subs	r2, r2, #1
 140:../USER/main_01aa.c ****   if(**buf==0x0d) return -1;
 5011              		.loc 1 140 8 view .LVU1304
 5012 0382 0020     		movs	r0, #0
 5013 0384 06E0     		b	.L268
 5014              	.LVL338:
 5015              	.L342:
 5016              	.LBB1711:
 5017              	.LBB1712:
 131:../USER/main_01aa.c ****   else if(ch>='A' && ch<='F') hd = ch - 0x37;
 5018              		.loc 1 131 29 view .LVU1305
 5019 0386 A1F13003 		sub	r3, r1, #48
 5020              	.LVL339:
 131:../USER/main_01aa.c ****   else if(ch>='A' && ch<='F') hd = ch - 0x37;
 5021              		.loc 1 131 29 view .LVU1306
 5022              	.LBE1712:
 5023              	.LBE1711:
 143:../USER/main_01aa.c ****   return num;
 5024              		.loc 1 143 36 is_stmt 1 view .LVU1307
 5025              	.LBB1717:
 5026              	.LBB1713:
 134:../USER/main_01aa.c **** }
 5027              		.loc 1 134 3 view .LVU1308
 134:../USER/main_01aa.c **** }
 5028              		.loc 1 134 3 is_stmt 0 view .LVU1309
 5029              	.LBE1713:
 5030              	.LBE1717:
 143:../USER/main_01aa.c ****   return num;
 5031              		.loc 1 143 8 view .LVU1310
 5032 038a B3F1FF3F 		cmp	r3, #-1
 5033 038e 12D0     		beq	.L271
 5034              	.LVL340:
 5035              	.L272:
 143:../USER/main_01aa.c ****   return num;
 5036              		.loc 1 143 40 view .LVU1311
 5037 0390 03EB0010 		add	r0, r3, r0, lsl #4
 143:../USER/main_01aa.c ****   return num;
 5038              		.loc 1 143 57 is_stmt 1 view .LVU1312
 5039              	.LVL341:
 5040              	.L268:
 5041              	.LBB1718:
 5042              	.LBB1714:
 131:../USER/main_01aa.c ****   else if(ch>='A' && ch<='F') hd = ch - 0x37;
 5043              		.loc 1 131 26 view .LVU1313
 132:../USER/main_01aa.c ****   else hd = -1;
 5044              		.loc 1 132 8 view .LVU1314
 132:../USER/main_01aa.c ****   else hd = -1;
 5045              		.loc 1 132 31 view .LVU1315
 5046              	.LBE1714:
 5047              	.LBE1718:
 143:../USER/main_01aa.c ****   return num;
 5048              		.loc 1 143 20 is_stmt 0 view .LVU1316
 5049 0394 12F9011F 		ldrsb	r1, [r2, #1]!
 5050              	.LVL342:
 5051              	.LBB1719:
 5052              	.LBI1711:
 129:../USER/main_01aa.c ****   int hd;
 5053              		.loc 1 129 5 is_stmt 1 view .LVU1317
 5054              	.LBB1715:
 130:../USER/main_01aa.c ****   if(ch>='0' && ch<='9') hd = ch - 0x30;
 5055              		.loc 1 130 3 view .LVU1318
 131:../USER/main_01aa.c ****   else if(ch>='A' && ch<='F') hd = ch - 0x37;
 5056              		.loc 1 131 3 view .LVU1319
 131:../USER/main_01aa.c ****   else if(ch>='A' && ch<='F') hd = ch - 0x37;
 5057              		.loc 1 131 14 is_stmt 0 view .LVU1320
 5058 0398 CBB2     		uxtb	r3, r1
 131:../USER/main_01aa.c ****   else if(ch>='A' && ch<='F') hd = ch - 0x37;
 5059              		.loc 1 131 5 view .LVU1321
 5060 039a A3F1300C 		sub	ip, r3, #48
 5061 039e BCF1090F 		cmp	ip, #9
 132:../USER/main_01aa.c ****   else hd = -1;
 5062              		.loc 1 132 10 view .LVU1322
 5063 03a2 A3F14103 		sub	r3, r3, #65
 131:../USER/main_01aa.c ****   else if(ch>='A' && ch<='F') hd = ch - 0x37;
 5064              		.loc 1 131 5 view .LVU1323
 5065 03a6 EED9     		bls	.L342
 132:../USER/main_01aa.c ****   else hd = -1;
 5066              		.loc 1 132 10 view .LVU1324
 5067 03a8 052B     		cmp	r3, #5
 5068 03aa 04D8     		bhi	.L271
 132:../USER/main_01aa.c ****   else hd = -1;
 5069              		.loc 1 132 34 view .LVU1325
 5070 03ac A1F13703 		sub	r3, r1, #55
 5071              	.LVL343:
 132:../USER/main_01aa.c ****   else hd = -1;
 5072              		.loc 1 132 34 view .LVU1326
 5073              	.LBE1715:
 5074              	.LBE1719:
 143:../USER/main_01aa.c ****   return num;
 5075              		.loc 1 143 36 is_stmt 1 view .LVU1327
 5076              	.LBB1720:
 5077              	.LBB1716:
 134:../USER/main_01aa.c **** }
 5078              		.loc 1 134 3 view .LVU1328
 134:../USER/main_01aa.c **** }
 5079              		.loc 1 134 3 is_stmt 0 view .LVU1329
 5080              	.LBE1716:
 5081              	.LBE1720:
 143:../USER/main_01aa.c ****   return num;
 5082              		.loc 1 143 8 view .LVU1330
 5083 03b0 B3F1FF3F 		cmp	r3, #-1
 5084 03b4 ECD1     		bne	.L272
 5085              	.LVL344:
 5086              	.L271:
 143:../USER/main_01aa.c ****   return num;
 5087              		.loc 1 143 8 view .LVU1331
 5088              	.LBE1721:
 5089              	.LBE1722:
 5090              	.LBE1723:
 5091              	.LBE1724:
 5092              		.loc 1 196 30 is_stmt 1 view .LVU1332
 197:../USER/main_01aa.c **** 	          if(cmd==0x0d && dt>=0){
 5093              		.loc 1 197 12 view .LVU1333
 5094              		.loc 1 197 14 is_stmt 0 view .LVU1334
 5095 03b6 0D29     		cmp	r1, #13
 5096 03b8 00F0E380 		beq	.L343
 5097              	.LVL345:
 198:../USER/main_01aa.c **** 	            if(mmd==1){
 199:../USER/main_01aa.c **** 	              if(dt>=0) {
 200:../USER/main_01aa.c **** 	                mbase[adr] = dt; dtr = mbase[adr];
 201:../USER/main_01aa.c **** 	                if(dt!=dtr) adr--;
 202:../USER/main_01aa.c **** 	              }
 203:../USER/main_01aa.c **** 	            } else {
 204:../USER/main_01aa.c **** 	              wrp = (unsigned int *)&mbase[adr];
 205:../USER/main_01aa.c **** 	              if(dt>=0) {
 206:../USER/main_01aa.c **** 	                *wrp = dt; dtr = *wrp;
 207:../USER/main_01aa.c **** 	                if(dt!=dtr) wrp--;
 208:../USER/main_01aa.c **** 	              }
 209:../USER/main_01aa.c **** 	              adr = (long)wrp;
 210:../USER/main_01aa.c **** 	            }
 211:../USER/main_01aa.c **** 	          }
 212:../USER/main_01aa.c **** 	          if(cmd=='-') adr = adr - mmd;
 5098              		.loc 1 212 12 is_stmt 1 view .LVU1335
 5099              		.loc 1 212 14 is_stmt 0 view .LVU1336
 5100 03bc 2D29     		cmp	r1, #45
 5101 03be 00F0DD80 		beq	.L344
 213:../USER/main_01aa.c **** 	          else         adr = adr + mmd;
 5102              		.loc 1 213 25 is_stmt 1 view .LVU1337
 5103              	.LVL346:
 191:../USER/main_01aa.c **** 	          putadrhd(adr);
 5104              		.loc 1 191 15 is_stmt 0 view .LVU1338
 5105 03c2 2E29     		cmp	r1, #46
 5106 03c4 3FF442AE 		beq	.L150
 5107              	.LVL347:
 5108              	.L267:
 5109              		.loc 1 213 29 view .LVU1339
 5110 03c8 4444     		add	r4, r4, r8
 5111              	.LVL348:
 5112              		.loc 1 213 29 view .LVU1340
 5113 03ca 1AE7     		b	.L335
 5114              	.LVL349:
 5115              	.L163:
 171:../USER/main_01aa.c **** 	        if(adr==-1) adr = adro;
 5116              		.loc 1 171 10 is_stmt 1 view .LVU1341
 5117              	.LBB1725:
 5118              	.LBI1725:
 139:../USER/main_01aa.c ****   long num = 0; int hd;
 5119              		.loc 1 139 6 view .LVU1342
 5120              	.LBB1726:
 140:../USER/main_01aa.c ****   if(**buf==0x0d) return -1;
 5121              		.loc 1 140 3 view .LVU1343
 140:../USER/main_01aa.c ****   if(**buf==0x0d) return -1;
 5122              		.loc 1 140 17 view .LVU1344
 141:../USER/main_01aa.c ****   while(**buf==' ') (*buf)++; /* spip sp*/
 5123              		.loc 1 141 3 view .LVU1345
 141:../USER/main_01aa.c ****   while(**buf==' ') (*buf)++; /* spip sp*/
 5124              		.loc 1 141 6 is_stmt 0 view .LVU1346
 5125 03cc 9DF91130 		ldrsb	r3, [sp, #17]
 141:../USER/main_01aa.c ****   while(**buf==' ') (*buf)++; /* spip sp*/
 5126              		.loc 1 141 5 view .LVU1347
 5127 03d0 0D2B     		cmp	r3, #13
 5128 03d2 00F04A81 		beq	.L281
 5129              	.LBB1727:
 5130              	.LBB1728:
 142:../USER/main_01aa.c ****   while( (hd=ishex(**buf)) != -1){ num = num * 16 + hd; (*buf)++; }
 5131              		.loc 1 142 8 view .LVU1348
 5132 03d6 202B     		cmp	r3, #32
 5133              	.LBE1728:
 5134              	.LBE1727:
 5135              	.LBE1726:
 5136              	.LBE1725:
 168:../USER/main_01aa.c **** 		  switch(cmd){
 5137              		.loc 1 168 24 view .LVU1349
 5138 03d8 0DF11101 		add	r1, sp, #17
 5139              	.LVL350:
 5140              	.LBB1742:
 5141              	.LBB1741:
 5142              	.LBB1740:
 5143              	.LBB1739:
 142:../USER/main_01aa.c ****   while( (hd=ishex(**buf)) != -1){ num = num * 16 + hd; (*buf)++; }
 5144              		.loc 1 142 8 view .LVU1350
 5145 03dc 03D1     		bne	.L165
 5146              	.LVL351:
 5147              	.L166:
 142:../USER/main_01aa.c ****   while( (hd=ishex(**buf)) != -1){ num = num * 16 + hd; (*buf)++; }
 5148              		.loc 1 142 21 is_stmt 1 view .LVU1351
 142:../USER/main_01aa.c ****   while( (hd=ishex(**buf)) != -1){ num = num * 16 + hd; (*buf)++; }
 5149              		.loc 1 142 9 is_stmt 0 view .LVU1352
 5150 03de 11F9013F 		ldrsb	r3, [r1, #1]!
 5151              	.LVL352:
 142:../USER/main_01aa.c ****   while( (hd=ishex(**buf)) != -1){ num = num * 16 + hd; (*buf)++; }
 5152              		.loc 1 142 8 view .LVU1353
 5153 03e2 202B     		cmp	r3, #32
 5154 03e4 FBD0     		beq	.L166
 5155              	.LVL353:
 5156              	.L165:
 142:../USER/main_01aa.c ****   while( (hd=ishex(**buf)) != -1){ num = num * 16 + hd; (*buf)++; }
 5157              		.loc 1 142 8 view .LVU1354
 5158 03e6 0139     		subs	r1, r1, #1
 140:../USER/main_01aa.c ****   if(**buf==0x0d) return -1;
 5159              		.loc 1 140 8 view .LVU1355
 5160 03e8 4FF00008 		mov	r8, #0
 5161 03ec 04E0     		b	.L167
 5162              	.LVL354:
 5163              	.L345:
 5164              	.LBB1729:
 5165              	.LBB1730:
 131:../USER/main_01aa.c ****   else if(ch>='A' && ch<='F') hd = ch - 0x37;
 5166              		.loc 1 131 29 view .LVU1356
 5167 03ee 303B     		subs	r3, r3, #48
 5168              	.LVL355:
 131:../USER/main_01aa.c ****   else if(ch>='A' && ch<='F') hd = ch - 0x37;
 5169              		.loc 1 131 29 view .LVU1357
 5170              	.LBE1730:
 5171              	.LBE1729:
 143:../USER/main_01aa.c ****   return num;
 5172              		.loc 1 143 36 is_stmt 1 view .LVU1358
 5173              	.LBB1735:
 5174              	.LBB1731:
 134:../USER/main_01aa.c **** }
 5175              		.loc 1 134 3 view .LVU1359
 134:../USER/main_01aa.c **** }
 5176              		.loc 1 134 3 is_stmt 0 view .LVU1360
 5177              	.LBE1731:
 5178              	.LBE1735:
 143:../USER/main_01aa.c ****   return num;
 5179              		.loc 1 143 8 view .LVU1361
 5180 03f0 5F1C     		adds	r7, r3, #1
 5181 03f2 0FD0     		beq	.L170
 5182              	.L171:
 143:../USER/main_01aa.c ****   return num;
 5183              		.loc 1 143 40 view .LVU1362
 5184 03f4 03EB0818 		add	r8, r3, r8, lsl #4
 5185              	.LVL356:
 143:../USER/main_01aa.c ****   return num;
 5186              		.loc 1 143 57 is_stmt 1 view .LVU1363
 5187              	.L167:
 5188              	.LBB1736:
 5189              	.LBB1732:
 131:../USER/main_01aa.c ****   else if(ch>='A' && ch<='F') hd = ch - 0x37;
 5190              		.loc 1 131 26 view .LVU1364
 132:../USER/main_01aa.c ****   else hd = -1;
 5191              		.loc 1 132 8 view .LVU1365
 132:../USER/main_01aa.c ****   else hd = -1;
 5192              		.loc 1 132 31 view .LVU1366
 5193              	.LBE1732:
 5194              	.LBE1736:
 143:../USER/main_01aa.c ****   return num;
 5195              		.loc 1 143 20 is_stmt 0 view .LVU1367
 5196 03f8 11F9013F 		ldrsb	r3, [r1, #1]!
 5197              	.LVL357:
 5198              	.LBB1737:
 5199              	.LBI1729:
 129:../USER/main_01aa.c ****   int hd;
 5200              		.loc 1 129 5 is_stmt 1 view .LVU1368
 5201              	.LBB1733:
 130:../USER/main_01aa.c ****   if(ch>='0' && ch<='9') hd = ch - 0x30;
 5202              		.loc 1 130 3 view .LVU1369
 131:../USER/main_01aa.c ****   else if(ch>='A' && ch<='F') hd = ch - 0x37;
 5203              		.loc 1 131 3 view .LVU1370
 131:../USER/main_01aa.c ****   else if(ch>='A' && ch<='F') hd = ch - 0x37;
 5204              		.loc 1 131 14 is_stmt 0 view .LVU1371
 5205 03fc DAB2     		uxtb	r2, r3
 131:../USER/main_01aa.c ****   else if(ch>='A' && ch<='F') hd = ch - 0x37;
 5206              		.loc 1 131 5 view .LVU1372
 5207 03fe A2F13000 		sub	r0, r2, #48
 5208 0402 0928     		cmp	r0, #9
 132:../USER/main_01aa.c ****   else hd = -1;
 5209              		.loc 1 132 10 view .LVU1373
 5210 0404 A2F14102 		sub	r2, r2, #65
 131:../USER/main_01aa.c ****   else if(ch>='A' && ch<='F') hd = ch - 0x37;
 5211              		.loc 1 131 5 view .LVU1374
 5212 0408 F1D9     		bls	.L345
 132:../USER/main_01aa.c ****   else hd = -1;
 5213              		.loc 1 132 10 view .LVU1375
 5214 040a 052A     		cmp	r2, #5
 5215 040c 02D8     		bhi	.L170
 132:../USER/main_01aa.c ****   else hd = -1;
 5216              		.loc 1 132 34 view .LVU1376
 5217 040e 373B     		subs	r3, r3, #55
 5218              	.LVL358:
 132:../USER/main_01aa.c ****   else hd = -1;
 5219              		.loc 1 132 34 view .LVU1377
 5220              	.LBE1733:
 5221              	.LBE1737:
 143:../USER/main_01aa.c ****   return num;
 5222              		.loc 1 143 36 is_stmt 1 view .LVU1378
 5223              	.LBB1738:
 5224              	.LBB1734:
 134:../USER/main_01aa.c **** }
 5225              		.loc 1 134 3 view .LVU1379
 134:../USER/main_01aa.c **** }
 5226              		.loc 1 134 3 is_stmt 0 view .LVU1380
 5227              	.LBE1734:
 5228              	.LBE1738:
 143:../USER/main_01aa.c ****   return num;
 5229              		.loc 1 143 8 view .LVU1381
 5230 0410 5F1C     		adds	r7, r3, #1
 5231 0412 EFD1     		bne	.L171
 5232              	.LVL359:
 5233              	.L170:
 143:../USER/main_01aa.c ****   return num;
 5234              		.loc 1 143 8 view .LVU1382
 5235              	.LBE1739:
 5236              	.LBE1740:
 5237              	.LBE1741:
 5238              	.LBE1742:
 172:../USER/main_01aa.c **** 	        for(i=0; i<8; i++){
 5239              		.loc 1 172 10 is_stmt 1 view .LVU1383
 172:../USER/main_01aa.c **** 	        for(i=0; i<8; i++){
 5240              		.loc 1 172 26 is_stmt 0 view .LVU1384
 5241 0414 039B     		ldr	r3, [sp, #12]
 5242 0416 B8F1FF3F 		cmp	r8, #-1
 5243 041a 08BF     		it	eq
 5244 041c 9846     		moveq	r8, r3
 5245              	.LVL360:
 5246              	.L164:
 172:../USER/main_01aa.c **** 	        for(i=0; i<8; i++){
 5247              		.loc 1 172 26 view .LVU1385
 5248 041e 4746     		mov	r7, r8
 5249 0420 08F11006 		add	r6, r8, #16
 5250 0424 08F18008 		add	r8, r8, #128
 5251              	.LVL361:
 5252              	.L193:
 174:../USER/main_01aa.c **** 	          for(j=0; j<16; j++) { putch(' '); puth2(mbase[adr++]); }
 5253              		.loc 1 174 12 is_stmt 1 view .LVU1386
 5254              	.LBB1743:
 5255              	.LBI1743:
 137:../USER/main_01aa.c **** 
 5256              		.loc 1 137 6 view .LVU1387
 5257              	.LBE1743:
 137:../USER/main_01aa.c **** 
 5258              		.loc 1 137 30 view .LVU1388
 5259              	.LBB1903:
 5260              	.LBB1744:
 5261              	.LBI1744:
 110:../USER/main_01aa.c **** void puth(dt) int dt;{ if(dt<10) putch(0x30+dt); else putch(0x37+dt); }
 5262              		.loc 1 110 6 view .LVU1389
 5263              	.LBB1745:
 110:../USER/main_01aa.c **** void puth(dt) int dt;{ if(dt<10) putch(0x30+dt); else putch(0x37+dt); }
 5264              		.loc 1 110 26 view .LVU1390
 5265 0428 0A21     		movs	r1, #10
 5266 042a 4FF04020 		mov	r0, #1073758208
 5267 042e 4FEA1769 		lsr	r9, r7, #24
 5268 0432 FFF7FEFF 		bl	UART_SendChar
 5269              	.LVL362:
 110:../USER/main_01aa.c **** void puth(dt) int dt;{ if(dt<10) putch(0x30+dt); else putch(0x37+dt); }
 5270              		.loc 1 110 26 is_stmt 0 view .LVU1391
 5271              	.LBE1745:
 5272              	.LBE1744:
 5273              	.LBE1903:
 137:../USER/main_01aa.c **** 
 5274              		.loc 1 137 43 is_stmt 1 view .LVU1392
 5275              	.LBB1904:
 5276              	.LBB1746:
 5277              	.LBI1746:
 115:../USER/main_01aa.c **** void putsuart(char *buf){
 5278              		.loc 1 115 6 view .LVU1393
 5279              	.LBB1747:
 115:../USER/main_01aa.c **** void putsuart(char *buf){
 5280              		.loc 1 115 26 view .LVU1394
 115:../USER/main_01aa.c **** void putsuart(char *buf){
 5281              		.loc 1 115 37 view .LVU1395
 5282              	.LBB1748:
 5283              	.LBB1749:
 5284              	.LBB1750:
 112:../USER/main_01aa.c **** void puth4(dt) int dt;{ puth2((dt >> 8) & 0xff); puth2(dt & 0xff); }
 5285              		.loc 1 112 34 is_stmt 0 view .LVU1396
 5286 0436 4FEA2913 		asr	r3, r9, #4
 5287 043a D9B2     		uxtb	r1, r3
 5288              	.LBB1751:
 5289              	.LBB1752:
 111:../USER/main_01aa.c **** void puth2(dt) int dt;{ puth((dt >> 4) & 0xf); puth(dt & 0xf); }
 5290              		.loc 1 111 26 view .LVU1397
 5291 043c 092B     		cmp	r3, #9
 5292              	.LBB1753:
 5293              	.LBB1754:
 5294              	.LBB1755:
 5295              	.LBB1756:
 110:../USER/main_01aa.c **** void puth(dt) int dt;{ if(dt<10) putch(0x30+dt); else putch(0x37+dt); }
 5296              		.loc 1 110 26 view .LVU1398
 5297 043e D4BF     		ite	le
 5298 0440 3031     		addle	r1, r1, #48
 5299              	.LBE1756:
 5300              	.LBE1755:
 5301              	.LBE1754:
 5302              	.LBE1753:
 5303              	.LBB1760:
 5304              	.LBB1761:
 5305 0442 3731     		addgt	r1, r1, #55
 5306 0444 4FF04020 		mov	r0, #1073758208
 5307              	.LBE1761:
 5308              	.LBE1760:
 5309              	.LBE1752:
 5310              	.LBE1751:
 112:../USER/main_01aa.c **** void puth4(dt) int dt;{ puth2((dt >> 8) & 0xff); puth2(dt & 0xff); }
 5311              		.loc 1 112 48 view .LVU1399
 5312 0448 09F00F09 		and	r9, r9, #15
 5313              	.LBB1769:
 5314              	.LBB1767:
 5315              	.LBB1764:
 5316              	.LBB1762:
 110:../USER/main_01aa.c **** void puth(dt) int dt;{ if(dt<10) putch(0x30+dt); else putch(0x37+dt); }
 5317              		.loc 1 110 26 view .LVU1400
 5318 044c FFF7FEFF 		bl	UART_SendChar
 5319              	.LVL363:
 5320 0450 5FFA89F1 		uxtb	r1, r9
 5321              	.LBE1762:
 5322              	.LBE1764:
 5323              	.LBE1767:
 5324              	.LBE1769:
 5325              	.LBB1770:
 5326              	.LBB1771:
 111:../USER/main_01aa.c **** void puth2(dt) int dt;{ puth((dt >> 4) & 0xf); puth(dt & 0xf); }
 5327              		.loc 1 111 26 view .LVU1401
 5328 0454 B9F1090F 		cmp	r9, #9
 5329              	.LBB1772:
 5330              	.LBB1773:
 5331              	.LBB1774:
 5332              	.LBB1775:
 110:../USER/main_01aa.c **** void puth(dt) int dt;{ if(dt<10) putch(0x30+dt); else putch(0x37+dt); }
 5333              		.loc 1 110 26 view .LVU1402
 5334 0458 D4BF     		ite	le
 5335 045a 3031     		addle	r1, r1, #48
 5336              	.LBE1775:
 5337              	.LBE1774:
 5338              	.LBE1773:
 5339              	.LBE1772:
 5340              	.LBB1779:
 5341              	.LBB1780:
 5342 045c 3731     		addgt	r1, r1, #55
 5343 045e 4FF04020 		mov	r0, #1073758208
 5344 0462 FFF7FEFF 		bl	UART_SendChar
 5345              	.LVL364:
 5346              	.LBE1780:
 5347              	.LBE1779:
 5348              	.LBE1771:
 5349              	.LBE1770:
 5350              	.LBE1750:
 5351              	.LBE1749:
 5352              	.LBB1788:
 5353              	.LBB1789:
 112:../USER/main_01aa.c **** void puth4(dt) int dt;{ puth2((dt >> 8) & 0xff); puth2(dt & 0xff); }
 5354              		.loc 1 112 34 view .LVU1403
 5355 0466 C7F30353 		ubfx	r3, r7, #20, #4
 5356 046a D9B2     		uxtb	r1, r3
 5357              	.LBB1790:
 5358              	.LBB1791:
 111:../USER/main_01aa.c **** void puth2(dt) int dt;{ puth((dt >> 4) & 0xf); puth(dt & 0xf); }
 5359              		.loc 1 111 26 view .LVU1404
 5360 046c 092B     		cmp	r3, #9
 5361              	.LBB1792:
 5362              	.LBB1793:
 5363              	.LBB1794:
 5364              	.LBB1795:
 110:../USER/main_01aa.c **** void puth(dt) int dt;{ if(dt<10) putch(0x30+dt); else putch(0x37+dt); }
 5365              		.loc 1 110 26 view .LVU1405
 5366 046e D4BF     		ite	le
 5367 0470 3031     		addle	r1, r1, #48
 5368              	.LBE1795:
 5369              	.LBE1794:
 5370              	.LBE1793:
 5371              	.LBE1792:
 5372              	.LBB1799:
 5373              	.LBB1800:
 5374 0472 3731     		addgt	r1, r1, #55
 5375 0474 4FF04020 		mov	r0, #1073758208
 5376              	.LBE1800:
 5377              	.LBE1799:
 5378              	.LBE1791:
 5379              	.LBE1790:
 5380              	.LBE1789:
 5381              	.LBE1788:
 5382              	.LBE1748:
 115:../USER/main_01aa.c **** void putsuart(char *buf){
 5383              		.loc 1 115 40 view .LVU1406
 5384 0478 4FEA274A 		asr	r10, r7, #16
 5385              	.LVL365:
 115:../USER/main_01aa.c **** void putsuart(char *buf){
 5386              		.loc 1 115 52 is_stmt 1 view .LVU1407
 5387              	.LBB1831:
 5388              	.LBB1828:
 5389              	.LBB1826:
 5390              	.LBB1808:
 5391              	.LBB1806:
 5392              	.LBB1803:
 5393              	.LBB1801:
 110:../USER/main_01aa.c **** void puth(dt) int dt;{ if(dt<10) putch(0x30+dt); else putch(0x37+dt); }
 5394              		.loc 1 110 26 is_stmt 0 view .LVU1408
 5395 047c FFF7FEFF 		bl	UART_SendChar
 5396              	.LVL366:
 5397              	.LBE1801:
 5398              	.LBE1803:
 5399              	.LBE1806:
 5400              	.LBE1808:
 112:../USER/main_01aa.c **** void puth4(dt) int dt;{ puth2((dt >> 8) & 0xff); puth2(dt & 0xff); }
 5401              		.loc 1 112 48 view .LVU1409
 5402 0480 0AF00F03 		and	r3, r10, #15
 5403 0484 D9B2     		uxtb	r1, r3
 5404              	.LBB1809:
 5405              	.LBB1810:
 111:../USER/main_01aa.c **** void puth2(dt) int dt;{ puth((dt >> 4) & 0xf); puth(dt & 0xf); }
 5406              		.loc 1 111 26 view .LVU1410
 5407 0486 092B     		cmp	r3, #9
 5408              	.LBB1811:
 5409              	.LBB1812:
 5410              	.LBB1813:
 5411              	.LBB1814:
 110:../USER/main_01aa.c **** void puth(dt) int dt;{ if(dt<10) putch(0x30+dt); else putch(0x37+dt); }
 5412              		.loc 1 110 26 view .LVU1411
 5413 0488 D4BF     		ite	le
 5414 048a 3031     		addle	r1, r1, #48
 5415              	.LBE1814:
 5416              	.LBE1813:
 5417              	.LBE1812:
 5418              	.LBE1811:
 5419              	.LBB1818:
 5420              	.LBB1819:
 5421 048c 3731     		addgt	r1, r1, #55
 5422              	.LBE1819:
 5423              	.LBE1818:
 5424              	.LBE1810:
 5425              	.LBE1809:
 5426              	.LBE1826:
 5427              	.LBE1828:
 5428              	.LBE1831:
 115:../USER/main_01aa.c **** void putsuart(char *buf){
 5429              		.loc 1 115 55 view .LVU1412
 5430 048e BCB2     		uxth	r4, r7
 5431              	.LVL367:
 115:../USER/main_01aa.c **** void putsuart(char *buf){
 5432              		.loc 1 115 70 is_stmt 1 view .LVU1413
 5433              	.LBB1832:
 5434              	.LBI1748:
 113:../USER/main_01aa.c **** void puth6(dt) long dt;{ int dh,dl; dh = dt >> 16; dl = dt & 0xffff; puth2(dh); puth4(dl); }
 5435              		.loc 1 113 6 view .LVU1414
 5436              	.LBE1832:
 5437              	.LBE1747:
 5438              	.LBE1746:
 5439              	.LBE1904:
 113:../USER/main_01aa.c **** void puth6(dt) long dt;{ int dh,dl; dh = dt >> 16; dl = dt & 0xffff; puth2(dh); puth4(dl); }
 5440              		.loc 1 113 25 view .LVU1415
 5441              	.LBB1905:
 5442              	.LBB1899:
 5443              	.LBB1897:
 5444              	.LBB1833:
 5445              	.LBB1829:
 5446              	.LBI1749:
 112:../USER/main_01aa.c **** void puth4(dt) int dt;{ puth2((dt >> 8) & 0xff); puth2(dt & 0xff); }
 5447              		.loc 1 112 6 view .LVU1416
 5448              	.LBB1787:
 112:../USER/main_01aa.c **** void puth4(dt) int dt;{ puth2((dt >> 8) & 0xff); puth2(dt & 0xff); }
 5449              		.loc 1 112 25 view .LVU1417
 5450              	.LBB1785:
 5451              	.LBI1751:
 111:../USER/main_01aa.c **** void puth2(dt) int dt;{ puth((dt >> 4) & 0xf); puth(dt & 0xf); }
 5452              		.loc 1 111 6 view .LVU1418
 5453              	.LBB1768:
 111:../USER/main_01aa.c **** void puth2(dt) int dt;{ puth((dt >> 4) & 0xf); puth(dt & 0xf); }
 5454              		.loc 1 111 24 view .LVU1419
 5455              	.LBB1765:
 5456              	.LBI1753:
 111:../USER/main_01aa.c **** void puth2(dt) int dt;{ puth((dt >> 4) & 0xf); puth(dt & 0xf); }
 5457              		.loc 1 111 6 view .LVU1420
 5458              	.LBB1759:
 111:../USER/main_01aa.c **** void puth2(dt) int dt;{ puth((dt >> 4) & 0xf); puth(dt & 0xf); }
 5459              		.loc 1 111 34 view .LVU1421
 5460              	.LBB1758:
 5461              	.LBI1755:
 110:../USER/main_01aa.c **** void puth(dt) int dt;{ if(dt<10) putch(0x30+dt); else putch(0x37+dt); }
 5462              		.loc 1 110 6 view .LVU1422
 5463              	.LBB1757:
 110:../USER/main_01aa.c **** void puth(dt) int dt;{ if(dt<10) putch(0x30+dt); else putch(0x37+dt); }
 5464              		.loc 1 110 26 view .LVU1423
 5465              	.LBE1757:
 5466              	.LBE1758:
 5467              	.LBE1759:
 5468              	.LBE1765:
 111:../USER/main_01aa.c **** void puth2(dt) int dt;{ puth((dt >> 4) & 0xf); puth(dt & 0xf); }
 5469              		.loc 1 111 55 view .LVU1424
 5470              	.LBB1766:
 5471              	.LBI1760:
 110:../USER/main_01aa.c **** void puth(dt) int dt;{ if(dt<10) putch(0x30+dt); else putch(0x37+dt); }
 5472              		.loc 1 110 6 view .LVU1425
 5473              	.LBB1763:
 110:../USER/main_01aa.c **** void puth(dt) int dt;{ if(dt<10) putch(0x30+dt); else putch(0x37+dt); }
 5474              		.loc 1 110 26 view .LVU1426
 110:../USER/main_01aa.c **** void puth(dt) int dt;{ if(dt<10) putch(0x30+dt); else putch(0x37+dt); }
 5475              		.loc 1 110 26 is_stmt 0 view .LVU1427
 5476              	.LBE1763:
 5477              	.LBE1766:
 5478              	.LBE1768:
 5479              	.LBE1785:
 112:../USER/main_01aa.c **** void puth4(dt) int dt;{ puth2((dt >> 8) & 0xff); puth2(dt & 0xff); }
 5480              		.loc 1 112 48 is_stmt 1 view .LVU1428
 5481              	.LBB1786:
 5482              	.LBI1770:
 111:../USER/main_01aa.c **** void puth2(dt) int dt;{ puth((dt >> 4) & 0xf); puth(dt & 0xf); }
 5483              		.loc 1 111 6 view .LVU1429
 5484              	.LBB1784:
 111:../USER/main_01aa.c **** void puth2(dt) int dt;{ puth((dt >> 4) & 0xf); puth(dt & 0xf); }
 5485              		.loc 1 111 24 view .LVU1430
 5486              	.LBB1782:
 5487              	.LBI1772:
 111:../USER/main_01aa.c **** void puth2(dt) int dt;{ puth((dt >> 4) & 0xf); puth(dt & 0xf); }
 5488              		.loc 1 111 6 view .LVU1431
 5489              	.LBB1778:
 111:../USER/main_01aa.c **** void puth2(dt) int dt;{ puth((dt >> 4) & 0xf); puth(dt & 0xf); }
 5490              		.loc 1 111 34 view .LVU1432
 5491              	.LBB1777:
 5492              	.LBI1774:
 110:../USER/main_01aa.c **** void puth(dt) int dt;{ if(dt<10) putch(0x30+dt); else putch(0x37+dt); }
 5493              		.loc 1 110 6 view .LVU1433
 5494              	.LBB1776:
 110:../USER/main_01aa.c **** void puth(dt) int dt;{ if(dt<10) putch(0x30+dt); else putch(0x37+dt); }
 5495              		.loc 1 110 26 view .LVU1434
 5496              	.LBE1776:
 5497              	.LBE1777:
 5498              	.LBE1778:
 5499              	.LBE1782:
 111:../USER/main_01aa.c **** void puth2(dt) int dt;{ puth((dt >> 4) & 0xf); puth(dt & 0xf); }
 5500              		.loc 1 111 55 view .LVU1435
 5501              	.LBB1783:
 5502              	.LBI1779:
 110:../USER/main_01aa.c **** void puth(dt) int dt;{ if(dt<10) putch(0x30+dt); else putch(0x37+dt); }
 5503              		.loc 1 110 6 view .LVU1436
 5504              	.LBB1781:
 110:../USER/main_01aa.c **** void puth(dt) int dt;{ if(dt<10) putch(0x30+dt); else putch(0x37+dt); }
 5505              		.loc 1 110 26 view .LVU1437
 110:../USER/main_01aa.c **** void puth(dt) int dt;{ if(dt<10) putch(0x30+dt); else putch(0x37+dt); }
 5506              		.loc 1 110 26 is_stmt 0 view .LVU1438
 5507              	.LBE1781:
 5508              	.LBE1783:
 5509              	.LBE1784:
 5510              	.LBE1786:
 5511              	.LBE1787:
 5512              	.LBE1829:
 5513              	.LBE1833:
 5514              	.LBE1897:
 5515              	.LBE1899:
 5516              	.LBE1905:
 113:../USER/main_01aa.c **** void puth6(dt) long dt;{ int dh,dl; dh = dt >> 16; dl = dt & 0xffff; puth2(dh); puth4(dl); }
 5517              		.loc 1 113 50 is_stmt 1 view .LVU1439
 5518              	.LBB1906:
 5519              	.LBB1900:
 5520              	.LBB1898:
 5521              	.LBB1834:
 5522              	.LBB1830:
 5523              	.LBI1788:
 112:../USER/main_01aa.c **** void puth4(dt) int dt;{ puth2((dt >> 8) & 0xff); puth2(dt & 0xff); }
 5524              		.loc 1 112 6 view .LVU1440
 5525              	.LBB1827:
 112:../USER/main_01aa.c **** void puth4(dt) int dt;{ puth2((dt >> 8) & 0xff); puth2(dt & 0xff); }
 5526              		.loc 1 112 25 view .LVU1441
 5527              	.LBB1824:
 5528              	.LBI1790:
 111:../USER/main_01aa.c **** void puth2(dt) int dt;{ puth((dt >> 4) & 0xf); puth(dt & 0xf); }
 5529              		.loc 1 111 6 view .LVU1442
 5530              	.LBB1807:
 111:../USER/main_01aa.c **** void puth2(dt) int dt;{ puth((dt >> 4) & 0xf); puth(dt & 0xf); }
 5531              		.loc 1 111 24 view .LVU1443
 5532              	.LBB1804:
 5533              	.LBI1792:
 111:../USER/main_01aa.c **** void puth2(dt) int dt;{ puth((dt >> 4) & 0xf); puth(dt & 0xf); }
 5534              		.loc 1 111 6 view .LVU1444
 5535              	.LBB1798:
 111:../USER/main_01aa.c **** void puth2(dt) int dt;{ puth((dt >> 4) & 0xf); puth(dt & 0xf); }
 5536              		.loc 1 111 34 view .LVU1445
 5537              	.LBB1797:
 5538              	.LBI1794:
 110:../USER/main_01aa.c **** void puth(dt) int dt;{ if(dt<10) putch(0x30+dt); else putch(0x37+dt); }
 5539              		.loc 1 110 6 view .LVU1446
 5540              	.LBB1796:
 110:../USER/main_01aa.c **** void puth(dt) int dt;{ if(dt<10) putch(0x30+dt); else putch(0x37+dt); }
 5541              		.loc 1 110 26 view .LVU1447
 5542              	.LBE1796:
 5543              	.LBE1797:
 5544              	.LBE1798:
 5545              	.LBE1804:
 111:../USER/main_01aa.c **** void puth2(dt) int dt;{ puth((dt >> 4) & 0xf); puth(dt & 0xf); }
 5546              		.loc 1 111 55 view .LVU1448
 5547              	.LBB1805:
 5548              	.LBI1799:
 110:../USER/main_01aa.c **** void puth(dt) int dt;{ if(dt<10) putch(0x30+dt); else putch(0x37+dt); }
 5549              		.loc 1 110 6 view .LVU1449
 5550              	.LBB1802:
 110:../USER/main_01aa.c **** void puth(dt) int dt;{ if(dt<10) putch(0x30+dt); else putch(0x37+dt); }
 5551              		.loc 1 110 26 view .LVU1450
 110:../USER/main_01aa.c **** void puth(dt) int dt;{ if(dt<10) putch(0x30+dt); else putch(0x37+dt); }
 5552              		.loc 1 110 26 is_stmt 0 view .LVU1451
 5553              	.LBE1802:
 5554              	.LBE1805:
 5555              	.LBE1807:
 5556              	.LBE1824:
 112:../USER/main_01aa.c **** void puth4(dt) int dt;{ puth2((dt >> 8) & 0xff); puth2(dt & 0xff); }
 5557              		.loc 1 112 48 is_stmt 1 view .LVU1452
 5558              	.LBB1825:
 5559              	.LBI1809:
 111:../USER/main_01aa.c **** void puth2(dt) int dt;{ puth((dt >> 4) & 0xf); puth(dt & 0xf); }
 5560              		.loc 1 111 6 view .LVU1453
 5561              	.LBB1823:
 111:../USER/main_01aa.c **** void puth2(dt) int dt;{ puth((dt >> 4) & 0xf); puth(dt & 0xf); }
 5562              		.loc 1 111 24 view .LVU1454
 5563              	.LBB1821:
 5564              	.LBI1811:
 111:../USER/main_01aa.c **** void puth2(dt) int dt;{ puth((dt >> 4) & 0xf); puth(dt & 0xf); }
 5565              		.loc 1 111 6 view .LVU1455
 5566              	.LBB1817:
 111:../USER/main_01aa.c **** void puth2(dt) int dt;{ puth((dt >> 4) & 0xf); puth(dt & 0xf); }
 5567              		.loc 1 111 34 view .LVU1456
 5568              	.LBB1816:
 5569              	.LBI1813:
 110:../USER/main_01aa.c **** void puth(dt) int dt;{ if(dt<10) putch(0x30+dt); else putch(0x37+dt); }
 5570              		.loc 1 110 6 view .LVU1457
 5571              	.LBB1815:
 110:../USER/main_01aa.c **** void puth(dt) int dt;{ if(dt<10) putch(0x30+dt); else putch(0x37+dt); }
 5572              		.loc 1 110 26 view .LVU1458
 5573              	.LBE1815:
 5574              	.LBE1816:
 5575              	.LBE1817:
 5576              	.LBE1821:
 111:../USER/main_01aa.c **** void puth2(dt) int dt;{ puth((dt >> 4) & 0xf); puth(dt & 0xf); }
 5577              		.loc 1 111 55 view .LVU1459
 5578              	.LBB1822:
 5579              	.LBI1818:
 110:../USER/main_01aa.c **** void puth(dt) int dt;{ if(dt<10) putch(0x30+dt); else putch(0x37+dt); }
 5580              		.loc 1 110 6 view .LVU1460
 5581              	.LBB1820:
 110:../USER/main_01aa.c **** void puth(dt) int dt;{ if(dt<10) putch(0x30+dt); else putch(0x37+dt); }
 5582              		.loc 1 110 26 view .LVU1461
 5583 0490 4FF04020 		mov	r0, #1073758208
 5584 0494 FFF7FEFF 		bl	UART_SendChar
 5585              	.LVL368:
 110:../USER/main_01aa.c **** void puth(dt) int dt;{ if(dt<10) putch(0x30+dt); else putch(0x37+dt); }
 5586              		.loc 1 110 26 is_stmt 0 view .LVU1462
 5587              	.LBE1820:
 5588              	.LBE1822:
 5589              	.LBE1823:
 5590              	.LBE1825:
 5591              	.LBE1827:
 5592              	.LBE1830:
 5593              	.LBE1834:
 115:../USER/main_01aa.c **** void putsuart(char *buf){
 5594              		.loc 1 115 81 is_stmt 1 view .LVU1463
 5595              	.LBB1835:
 5596              	.LBI1835:
 113:../USER/main_01aa.c **** void puth6(dt) long dt;{ int dh,dl; dh = dt >> 16; dl = dt & 0xffff; puth2(dh); puth4(dl); }
 5597              		.loc 1 113 6 view .LVU1464
 5598              	.LBB1836:
 113:../USER/main_01aa.c **** void puth6(dt) long dt;{ int dh,dl; dh = dt >> 16; dl = dt & 0xffff; puth2(dh); puth4(dl); }
 5599              		.loc 1 113 25 view .LVU1465
 5600              	.LBB1837:
 5601              	.LBB1838:
 112:../USER/main_01aa.c **** void puth4(dt) int dt;{ puth2((dt >> 8) & 0xff); puth2(dt & 0xff); }
 5602              		.loc 1 112 34 is_stmt 0 view .LVU1466
 5603 0498 2313     		asrs	r3, r4, #12
 5604 049a D9B2     		uxtb	r1, r3
 5605              	.LBB1839:
 5606              	.LBB1840:
 111:../USER/main_01aa.c **** void puth2(dt) int dt;{ puth((dt >> 4) & 0xf); puth(dt & 0xf); }
 5607              		.loc 1 111 26 view .LVU1467
 5608 049c 092B     		cmp	r3, #9
 5609              	.LBE1840:
 5610              	.LBE1839:
 5611              	.LBE1838:
 5612              	.LBE1837:
 113:../USER/main_01aa.c **** void puth6(dt) long dt;{ int dh,dl; dh = dt >> 16; dl = dt & 0xffff; puth2(dh); puth4(dl); }
 5613              		.loc 1 113 35 view .LVU1468
 5614 049e 4FEA2424 		asr	r4, r4, #8
 5615              	.LVL369:
 5616              	.LBB1870:
 5617              	.LBI1837:
 112:../USER/main_01aa.c **** void puth4(dt) int dt;{ puth2((dt >> 8) & 0xff); puth2(dt & 0xff); }
 5618              		.loc 1 112 6 is_stmt 1 view .LVU1469
 5619              	.LBB1869:
 112:../USER/main_01aa.c **** void puth4(dt) int dt;{ puth2((dt >> 8) & 0xff); puth2(dt & 0xff); }
 5620              		.loc 1 112 25 view .LVU1470
 5621              	.LBB1855:
 5622              	.LBI1839:
 111:../USER/main_01aa.c **** void puth2(dt) int dt;{ puth((dt >> 4) & 0xf); puth(dt & 0xf); }
 5623              		.loc 1 111 6 view .LVU1471
 5624              	.LBB1853:
 111:../USER/main_01aa.c **** void puth2(dt) int dt;{ puth((dt >> 4) & 0xf); puth(dt & 0xf); }
 5625              		.loc 1 111 24 view .LVU1472
 5626              	.LBB1841:
 5627              	.LBI1841:
 111:../USER/main_01aa.c **** void puth2(dt) int dt;{ puth((dt >> 4) & 0xf); puth(dt & 0xf); }
 5628              		.loc 1 111 6 view .LVU1473
 5629              	.LBB1842:
 111:../USER/main_01aa.c **** void puth2(dt) int dt;{ puth((dt >> 4) & 0xf); puth(dt & 0xf); }
 5630              		.loc 1 111 34 view .LVU1474
 5631              	.LBB1843:
 5632              	.LBI1843:
 110:../USER/main_01aa.c **** void puth(dt) int dt;{ if(dt<10) putch(0x30+dt); else putch(0x37+dt); }
 5633              		.loc 1 110 6 view .LVU1475
 5634              	.LBB1844:
 110:../USER/main_01aa.c **** void puth(dt) int dt;{ if(dt<10) putch(0x30+dt); else putch(0x37+dt); }
 5635              		.loc 1 110 26 view .LVU1476
 5636              	.LBE1844:
 5637              	.LBE1843:
 5638              	.LBE1842:
 5639              	.LBE1841:
 111:../USER/main_01aa.c **** void puth2(dt) int dt;{ puth((dt >> 4) & 0xf); puth(dt & 0xf); }
 5640              		.loc 1 111 55 view .LVU1477
 5641              	.LBB1848:
 5642              	.LBB1847:
 5643              	.LBB1846:
 5644              	.LBB1845:
 110:../USER/main_01aa.c **** void puth(dt) int dt;{ if(dt<10) putch(0x30+dt); else putch(0x37+dt); }
 5645              		.loc 1 110 26 is_stmt 0 view .LVU1478
 5646 04a2 D4BF     		ite	le
 5647 04a4 3031     		addle	r1, r1, #48
 5648              	.LVL370:
 110:../USER/main_01aa.c **** void puth(dt) int dt;{ if(dt<10) putch(0x30+dt); else putch(0x37+dt); }
 5649              		.loc 1 110 26 view .LVU1479
 5650              	.LBE1845:
 5651              	.LBE1846:
 5652              	.LBE1847:
 5653              	.LBE1848:
 5654              	.LBB1849:
 5655              	.LBI1849:
 110:../USER/main_01aa.c **** void puth(dt) int dt;{ if(dt<10) putch(0x30+dt); else putch(0x37+dt); }
 5656              		.loc 1 110 6 is_stmt 1 view .LVU1480
 5657              	.LBB1850:
 110:../USER/main_01aa.c **** void puth(dt) int dt;{ if(dt<10) putch(0x30+dt); else putch(0x37+dt); }
 5658              		.loc 1 110 26 view .LVU1481
 5659 04a6 3731     		addgt	r1, r1, #55
 5660              	.LVL371:
 110:../USER/main_01aa.c **** void puth(dt) int dt;{ if(dt<10) putch(0x30+dt); else putch(0x37+dt); }
 5661              		.loc 1 110 26 is_stmt 0 view .LVU1482
 5662 04a8 4FF04020 		mov	r0, #1073758208
 5663              	.LBE1850:
 5664              	.LBE1849:
 5665              	.LBE1853:
 5666              	.LBE1855:
 112:../USER/main_01aa.c **** void puth4(dt) int dt;{ puth2((dt >> 8) & 0xff); puth2(dt & 0xff); }
 5667              		.loc 1 112 48 view .LVU1483
 5668 04ac 04F00F04 		and	r4, r4, #15
 5669              	.LVL372:
 5670              	.LBB1856:
 5671              	.LBB1854:
 5672              	.LBB1852:
 5673              	.LBB1851:
 110:../USER/main_01aa.c **** void puth(dt) int dt;{ if(dt<10) putch(0x30+dt); else putch(0x37+dt); }
 5674              		.loc 1 110 26 view .LVU1484
 5675 04b0 FFF7FEFF 		bl	UART_SendChar
 5676              	.LVL373:
 110:../USER/main_01aa.c **** void puth(dt) int dt;{ if(dt<10) putch(0x30+dt); else putch(0x37+dt); }
 5677              		.loc 1 110 26 view .LVU1485
 5678              	.LBE1851:
 5679              	.LBE1852:
 5680              	.LBE1854:
 5681              	.LBE1856:
 112:../USER/main_01aa.c **** void puth4(dt) int dt;{ puth2((dt >> 8) & 0xff); puth2(dt & 0xff); }
 5682              		.loc 1 112 48 is_stmt 1 view .LVU1486
 5683              	.LBB1857:
 5684              	.LBI1857:
 111:../USER/main_01aa.c **** void puth2(dt) int dt;{ puth((dt >> 4) & 0xf); puth(dt & 0xf); }
 5685              		.loc 1 111 6 view .LVU1487
 5686              	.LBB1858:
 111:../USER/main_01aa.c **** void puth2(dt) int dt;{ puth((dt >> 4) & 0xf); puth(dt & 0xf); }
 5687              		.loc 1 111 24 view .LVU1488
 5688              	.LBB1859:
 5689              	.LBI1859:
 111:../USER/main_01aa.c **** void puth2(dt) int dt;{ puth((dt >> 4) & 0xf); puth(dt & 0xf); }
 5690              		.loc 1 111 6 view .LVU1489
 5691              	.LBB1860:
 111:../USER/main_01aa.c **** void puth2(dt) int dt;{ puth((dt >> 4) & 0xf); puth(dt & 0xf); }
 5692              		.loc 1 111 34 view .LVU1490
 5693 04b4 E1B2     		uxtb	r1, r4
 5694              	.LVL374:
 5695              	.LBB1861:
 5696              	.LBI1861:
 110:../USER/main_01aa.c **** void puth(dt) int dt;{ if(dt<10) putch(0x30+dt); else putch(0x37+dt); }
 5697              		.loc 1 110 6 view .LVU1491
 5698              	.LBB1862:
 110:../USER/main_01aa.c **** void puth(dt) int dt;{ if(dt<10) putch(0x30+dt); else putch(0x37+dt); }
 5699              		.loc 1 110 26 view .LVU1492
 5700              	.LBE1862:
 5701              	.LBE1861:
 5702              	.LBE1860:
 5703              	.LBE1859:
 111:../USER/main_01aa.c **** void puth2(dt) int dt;{ puth((dt >> 4) & 0xf); puth(dt & 0xf); }
 5704              		.loc 1 111 55 view .LVU1493
 111:../USER/main_01aa.c **** void puth2(dt) int dt;{ puth((dt >> 4) & 0xf); puth(dt & 0xf); }
 5705              		.loc 1 111 26 is_stmt 0 view .LVU1494
 5706 04b6 092C     		cmp	r4, #9
 5707              	.LBB1866:
 5708              	.LBB1865:
 5709              	.LBB1864:
 5710              	.LBB1863:
 110:../USER/main_01aa.c **** void puth(dt) int dt;{ if(dt<10) putch(0x30+dt); else putch(0x37+dt); }
 5711              		.loc 1 110 26 view .LVU1495
 5712 04b8 D4BF     		ite	le
 5713 04ba 3031     		addle	r1, r1, #48
 5714              	.LVL375:
 110:../USER/main_01aa.c **** void puth(dt) int dt;{ if(dt<10) putch(0x30+dt); else putch(0x37+dt); }
 5715              		.loc 1 110 26 view .LVU1496
 5716              	.LBE1863:
 5717              	.LBE1864:
 5718              	.LBE1865:
 5719              	.LBE1866:
 5720              	.LBB1867:
 5721              	.LBI1867:
 110:../USER/main_01aa.c **** void puth(dt) int dt;{ if(dt<10) putch(0x30+dt); else putch(0x37+dt); }
 5722              		.loc 1 110 6 is_stmt 1 view .LVU1497
 5723              	.LBB1868:
 110:../USER/main_01aa.c **** void puth(dt) int dt;{ if(dt<10) putch(0x30+dt); else putch(0x37+dt); }
 5724              		.loc 1 110 26 view .LVU1498
 5725 04bc 3731     		addgt	r1, r1, #55
 5726              	.LVL376:
 110:../USER/main_01aa.c **** void puth(dt) int dt;{ if(dt<10) putch(0x30+dt); else putch(0x37+dt); }
 5727              		.loc 1 110 26 is_stmt 0 view .LVU1499
 5728 04be 4FF04020 		mov	r0, #1073758208
 5729 04c2 FFF7FEFF 		bl	UART_SendChar
 5730              	.LVL377:
 110:../USER/main_01aa.c **** void puth(dt) int dt;{ if(dt<10) putch(0x30+dt); else putch(0x37+dt); }
 5731              		.loc 1 110 26 view .LVU1500
 5732              	.LBE1868:
 5733              	.LBE1867:
 5734              	.LBE1858:
 5735              	.LBE1857:
 5736              	.LBE1869:
 5737              	.LBE1870:
 113:../USER/main_01aa.c **** void puth6(dt) long dt;{ int dh,dl; dh = dt >> 16; dl = dt & 0xffff; puth2(dh); puth4(dl); }
 5738              		.loc 1 113 50 is_stmt 1 view .LVU1501
 5739              	.LBB1871:
 5740              	.LBI1871:
 112:../USER/main_01aa.c **** void puth4(dt) int dt;{ puth2((dt >> 8) & 0xff); puth2(dt & 0xff); }
 5741              		.loc 1 112 6 view .LVU1502
 5742              	.LBB1872:
 112:../USER/main_01aa.c **** void puth4(dt) int dt;{ puth2((dt >> 8) & 0xff); puth2(dt & 0xff); }
 5743              		.loc 1 112 25 view .LVU1503
 112:../USER/main_01aa.c **** void puth4(dt) int dt;{ puth2((dt >> 8) & 0xff); puth2(dt & 0xff); }
 5744              		.loc 1 112 34 is_stmt 0 view .LVU1504
 5745 04c6 C7F30313 		ubfx	r3, r7, #4, #4
 5746              	.LVL378:
 5747              	.LBB1873:
 5748              	.LBI1873:
 111:../USER/main_01aa.c **** void puth2(dt) int dt;{ puth((dt >> 4) & 0xf); puth(dt & 0xf); }
 5749              		.loc 1 111 6 is_stmt 1 view .LVU1505
 5750              	.LBB1874:
 111:../USER/main_01aa.c **** void puth2(dt) int dt;{ puth((dt >> 4) & 0xf); puth(dt & 0xf); }
 5751              		.loc 1 111 24 view .LVU1506
 5752              	.LBB1875:
 5753              	.LBI1875:
 111:../USER/main_01aa.c **** void puth2(dt) int dt;{ puth((dt >> 4) & 0xf); puth(dt & 0xf); }
 5754              		.loc 1 111 6 view .LVU1507
 5755              	.LBB1876:
 111:../USER/main_01aa.c **** void puth2(dt) int dt;{ puth((dt >> 4) & 0xf); puth(dt & 0xf); }
 5756              		.loc 1 111 34 view .LVU1508
 5757 04ca D9B2     		uxtb	r1, r3
 5758              	.LVL379:
 5759              	.LBB1877:
 5760              	.LBI1877:
 110:../USER/main_01aa.c **** void puth(dt) int dt;{ if(dt<10) putch(0x30+dt); else putch(0x37+dt); }
 5761              		.loc 1 110 6 view .LVU1509
 5762              	.LBB1878:
 110:../USER/main_01aa.c **** void puth(dt) int dt;{ if(dt<10) putch(0x30+dt); else putch(0x37+dt); }
 5763              		.loc 1 110 26 view .LVU1510
 5764              	.LBE1878:
 5765              	.LBE1877:
 5766              	.LBE1876:
 5767              	.LBE1875:
 111:../USER/main_01aa.c **** void puth2(dt) int dt;{ puth((dt >> 4) & 0xf); puth(dt & 0xf); }
 5768              		.loc 1 111 55 view .LVU1511
 111:../USER/main_01aa.c **** void puth2(dt) int dt;{ puth((dt >> 4) & 0xf); puth(dt & 0xf); }
 5769              		.loc 1 111 26 is_stmt 0 view .LVU1512
 5770 04cc 092B     		cmp	r3, #9
 5771              	.LBB1882:
 5772              	.LBB1881:
 5773              	.LBB1880:
 5774              	.LBB1879:
 110:../USER/main_01aa.c **** void puth(dt) int dt;{ if(dt<10) putch(0x30+dt); else putch(0x37+dt); }
 5775              		.loc 1 110 26 view .LVU1513
 5776 04ce D4BF     		ite	le
 5777 04d0 3031     		addle	r1, r1, #48
 5778              	.LVL380:
 110:../USER/main_01aa.c **** void puth(dt) int dt;{ if(dt<10) putch(0x30+dt); else putch(0x37+dt); }
 5779              		.loc 1 110 26 view .LVU1514
 5780              	.LBE1879:
 5781              	.LBE1880:
 5782              	.LBE1881:
 5783              	.LBE1882:
 5784              	.LBB1883:
 5785              	.LBI1883:
 110:../USER/main_01aa.c **** void puth(dt) int dt;{ if(dt<10) putch(0x30+dt); else putch(0x37+dt); }
 5786              		.loc 1 110 6 is_stmt 1 view .LVU1515
 5787              	.LBB1884:
 110:../USER/main_01aa.c **** void puth(dt) int dt;{ if(dt<10) putch(0x30+dt); else putch(0x37+dt); }
 5788              		.loc 1 110 26 view .LVU1516
 5789 04d2 3731     		addgt	r1, r1, #55
 5790              	.LVL381:
 110:../USER/main_01aa.c **** void puth(dt) int dt;{ if(dt<10) putch(0x30+dt); else putch(0x37+dt); }
 5791              		.loc 1 110 26 is_stmt 0 view .LVU1517
 5792 04d4 4FF04020 		mov	r0, #1073758208
 5793 04d8 FFF7FEFF 		bl	UART_SendChar
 5794              	.LVL382:
 110:../USER/main_01aa.c **** void puth(dt) int dt;{ if(dt<10) putch(0x30+dt); else putch(0x37+dt); }
 5795              		.loc 1 110 26 view .LVU1518
 5796              	.LBE1884:
 5797              	.LBE1883:
 5798              	.LBE1874:
 5799              	.LBE1873:
 112:../USER/main_01aa.c **** void puth4(dt) int dt;{ puth2((dt >> 8) & 0xff); puth2(dt & 0xff); }
 5800              		.loc 1 112 48 is_stmt 1 view .LVU1519
 5801 04dc 07F00F03 		and	r3, r7, #15
 5802              	.LVL383:
 5803              	.LBB1885:
 5804              	.LBI1885:
 111:../USER/main_01aa.c **** void puth2(dt) int dt;{ puth((dt >> 4) & 0xf); puth(dt & 0xf); }
 5805              		.loc 1 111 6 view .LVU1520
 5806              	.LBB1886:
 111:../USER/main_01aa.c **** void puth2(dt) int dt;{ puth((dt >> 4) & 0xf); puth(dt & 0xf); }
 5807              		.loc 1 111 24 view .LVU1521
 5808              	.LBB1887:
 5809              	.LBI1887:
 111:../USER/main_01aa.c **** void puth2(dt) int dt;{ puth((dt >> 4) & 0xf); puth(dt & 0xf); }
 5810              		.loc 1 111 6 view .LVU1522
 5811              	.LBB1888:
 111:../USER/main_01aa.c **** void puth2(dt) int dt;{ puth((dt >> 4) & 0xf); puth(dt & 0xf); }
 5812              		.loc 1 111 34 view .LVU1523
 5813 04e0 D9B2     		uxtb	r1, r3
 5814              	.LVL384:
 5815              	.LBB1889:
 5816              	.LBI1889:
 110:../USER/main_01aa.c **** void puth(dt) int dt;{ if(dt<10) putch(0x30+dt); else putch(0x37+dt); }
 5817              		.loc 1 110 6 view .LVU1524
 5818              	.LBB1890:
 110:../USER/main_01aa.c **** void puth(dt) int dt;{ if(dt<10) putch(0x30+dt); else putch(0x37+dt); }
 5819              		.loc 1 110 26 view .LVU1525
 5820              	.LBE1890:
 5821              	.LBE1889:
 5822              	.LBE1888:
 5823              	.LBE1887:
 111:../USER/main_01aa.c **** void puth2(dt) int dt;{ puth((dt >> 4) & 0xf); puth(dt & 0xf); }
 5824              		.loc 1 111 55 view .LVU1526
 111:../USER/main_01aa.c **** void puth2(dt) int dt;{ puth((dt >> 4) & 0xf); puth(dt & 0xf); }
 5825              		.loc 1 111 26 is_stmt 0 view .LVU1527
 5826 04e2 092B     		cmp	r3, #9
 5827              	.LBB1894:
 5828              	.LBB1893:
 5829              	.LBB1892:
 5830              	.LBB1891:
 110:../USER/main_01aa.c **** void puth(dt) int dt;{ if(dt<10) putch(0x30+dt); else putch(0x37+dt); }
 5831              		.loc 1 110 26 view .LVU1528
 5832 04e4 D4BF     		ite	le
 5833 04e6 3031     		addle	r1, r1, #48
 5834              	.LVL385:
 110:../USER/main_01aa.c **** void puth(dt) int dt;{ if(dt<10) putch(0x30+dt); else putch(0x37+dt); }
 5835              		.loc 1 110 26 view .LVU1529
 5836              	.LBE1891:
 5837              	.LBE1892:
 5838              	.LBE1893:
 5839              	.LBE1894:
 5840              	.LBB1895:
 5841              	.LBI1895:
 110:../USER/main_01aa.c **** void puth(dt) int dt;{ if(dt<10) putch(0x30+dt); else putch(0x37+dt); }
 5842              		.loc 1 110 6 is_stmt 1 view .LVU1530
 5843              	.LBB1896:
 110:../USER/main_01aa.c **** void puth(dt) int dt;{ if(dt<10) putch(0x30+dt); else putch(0x37+dt); }
 5844              		.loc 1 110 26 view .LVU1531
 5845 04e8 3731     		addgt	r1, r1, #55
 5846              	.LVL386:
 110:../USER/main_01aa.c **** void puth(dt) int dt;{ if(dt<10) putch(0x30+dt); else putch(0x37+dt); }
 5847              		.loc 1 110 26 is_stmt 0 view .LVU1532
 5848 04ea 4FF04020 		mov	r0, #1073758208
 5849 04ee FFF7FEFF 		bl	UART_SendChar
 5850              	.LVL387:
 110:../USER/main_01aa.c **** void puth(dt) int dt;{ if(dt<10) putch(0x30+dt); else putch(0x37+dt); }
 5851              		.loc 1 110 26 view .LVU1533
 5852              	.LBE1896:
 5853              	.LBE1895:
 5854              	.LBE1886:
 5855              	.LBE1885:
 5856              	.LBE1872:
 5857              	.LBE1871:
 5858              	.LBE1836:
 5859              	.LBE1835:
 5860              	.LBE1898:
 5861              	.LBE1900:
 5862              	.LBE1906:
 137:../USER/main_01aa.c **** 
 5863              		.loc 1 137 55 is_stmt 1 view .LVU1534
 5864              	.LBB1907:
 5865              	.LBB1901:
 5866              	.LBI1901:
 110:../USER/main_01aa.c **** void puth(dt) int dt;{ if(dt<10) putch(0x30+dt); else putch(0x37+dt); }
 5867              		.loc 1 110 6 view .LVU1535
 5868              	.LBB1902:
 110:../USER/main_01aa.c **** void puth(dt) int dt;{ if(dt<10) putch(0x30+dt); else putch(0x37+dt); }
 5869              		.loc 1 110 26 view .LVU1536
 5870 04f2 3A21     		movs	r1, #58
 5871 04f4 4FF04020 		mov	r0, #1073758208
 5872 04f8 3D46     		mov	r5, r7
 5873 04fa FFF7FEFF 		bl	UART_SendChar
 5874              	.LVL388:
 5875              	.L192:
 110:../USER/main_01aa.c **** void puth(dt) int dt;{ if(dt<10) putch(0x30+dt); else putch(0x37+dt); }
 5876              		.loc 1 110 26 is_stmt 0 view .LVU1537
 5877              	.LBE1902:
 5878              	.LBE1901:
 5879              	.LBE1907:
 175:../USER/main_01aa.c **** 	        }
 5880              		.loc 1 175 34 is_stmt 1 view .LVU1538
 5881              	.LBB1908:
 5882              	.LBI1908:
 110:../USER/main_01aa.c **** void puth(dt) int dt;{ if(dt<10) putch(0x30+dt); else putch(0x37+dt); }
 5883              		.loc 1 110 6 view .LVU1539
 5884              	.LBB1909:
 110:../USER/main_01aa.c **** void puth(dt) int dt;{ if(dt<10) putch(0x30+dt); else putch(0x37+dt); }
 5885              		.loc 1 110 26 view .LVU1540
 5886 04fe 2021     		movs	r1, #32
 5887 0500 4FF04020 		mov	r0, #1073758208
 5888 0504 FFF7FEFF 		bl	UART_SendChar
 5889              	.LVL389:
 110:../USER/main_01aa.c **** void puth(dt) int dt;{ if(dt<10) putch(0x30+dt); else putch(0x37+dt); }
 5890              		.loc 1 110 26 is_stmt 0 view .LVU1541
 5891              	.LBE1909:
 5892              	.LBE1908:
 175:../USER/main_01aa.c **** 	        }
 5893              		.loc 1 175 46 is_stmt 1 view .LVU1542
 5894              	.LBB1910:
 5895              	.LBB1911:
 5896              	.LBB1912:
 5897              	.LBB1913:
 111:../USER/main_01aa.c **** void puth2(dt) int dt;{ puth((dt >> 4) & 0xf); puth(dt & 0xf); }
 5898              		.loc 1 111 55 view .LVU1543
 5899              	.LBE1913:
 5900              	.LBE1912:
 5901              	.LBE1911:
 5902              	.LBE1910:
 175:../USER/main_01aa.c **** 	        }
 5903              		.loc 1 175 57 is_stmt 0 view .LVU1544
 5904 0508 2C78     		ldrb	r4, [r5]	@ zero_extendqisi2
 5905              	.LVL390:
 5906              	.LBB1952:
 5907              	.LBI1910:
 112:../USER/main_01aa.c **** void puth4(dt) int dt;{ puth2((dt >> 8) & 0xff); puth2(dt & 0xff); }
 5908              		.loc 1 112 6 is_stmt 1 view .LVU1545
 5909              	.LBB1951:
 112:../USER/main_01aa.c **** void puth4(dt) int dt;{ puth2((dt >> 8) & 0xff); puth2(dt & 0xff); }
 5910              		.loc 1 112 25 view .LVU1546
 5911              	.LBB1932:
 5912              	.LBB1930:
 5913              	.LBB1914:
 5914              	.LBB1915:
 110:../USER/main_01aa.c **** void puth(dt) int dt;{ if(dt<10) putch(0x30+dt); else putch(0x37+dt); }
 5915              		.loc 1 110 26 is_stmt 0 view .LVU1547
 5916 050a 4FF04020 		mov	r0, #1073758208
 5917              	.LBE1915:
 5918              	.LBE1914:
 5919              	.LBE1930:
 5920              	.LBE1932:
 112:../USER/main_01aa.c **** void puth4(dt) int dt;{ puth2((dt >> 8) & 0xff); puth2(dt & 0xff); }
 5921              		.loc 1 112 34 view .LVU1548
 5922 050e 2311     		asrs	r3, r4, #4
 5923              	.LVL391:
 5924              	.LBB1933:
 5925              	.LBI1912:
 111:../USER/main_01aa.c **** void puth2(dt) int dt;{ puth((dt >> 4) & 0xf); puth(dt & 0xf); }
 5926              		.loc 1 111 6 is_stmt 1 view .LVU1549
 5927              	.LBB1931:
 111:../USER/main_01aa.c **** void puth2(dt) int dt;{ puth((dt >> 4) & 0xf); puth(dt & 0xf); }
 5928              		.loc 1 111 24 view .LVU1550
 5929              	.LBB1919:
 5930              	.LBI1919:
 111:../USER/main_01aa.c **** void puth2(dt) int dt;{ puth((dt >> 4) & 0xf); puth(dt & 0xf); }
 5931              		.loc 1 111 6 view .LVU1551
 5932              	.LBB1920:
 111:../USER/main_01aa.c **** void puth2(dt) int dt;{ puth((dt >> 4) & 0xf); puth(dt & 0xf); }
 5933              		.loc 1 111 34 view .LVU1552
 5934              	.LBB1921:
 5935              	.LBI1921:
 110:../USER/main_01aa.c **** void puth(dt) int dt;{ if(dt<10) putch(0x30+dt); else putch(0x37+dt); }
 5936              		.loc 1 110 6 view .LVU1553
 5937              	.LBB1922:
 110:../USER/main_01aa.c **** void puth(dt) int dt;{ if(dt<10) putch(0x30+dt); else putch(0x37+dt); }
 5938              		.loc 1 110 26 view .LVU1554
 110:../USER/main_01aa.c **** void puth(dt) int dt;{ if(dt<10) putch(0x30+dt); else putch(0x37+dt); }
 5939              		.loc 1 110 26 is_stmt 0 view .LVU1555
 5940              	.LBE1922:
 5941              	.LBE1921:
 5942              	.LBE1920:
 5943              	.LBE1919:
 5944              	.LBB1926:
 5945              	.LBI1914:
 110:../USER/main_01aa.c **** void puth(dt) int dt;{ if(dt<10) putch(0x30+dt); else putch(0x37+dt); }
 5946              		.loc 1 110 6 is_stmt 1 view .LVU1556
 5947              	.LBB1916:
 110:../USER/main_01aa.c **** void puth(dt) int dt;{ if(dt<10) putch(0x30+dt); else putch(0x37+dt); }
 5948              		.loc 1 110 26 view .LVU1557
 5949              	.LBE1916:
 5950              	.LBE1926:
 111:../USER/main_01aa.c **** void puth2(dt) int dt;{ puth((dt >> 4) & 0xf); puth(dt & 0xf); }
 5951              		.loc 1 111 26 is_stmt 0 view .LVU1558
 5952 0510 092B     		cmp	r3, #9
 5953              	.LBB1927:
 5954              	.LBB1917:
 110:../USER/main_01aa.c **** void puth(dt) int dt;{ if(dt<10) putch(0x30+dt); else putch(0x37+dt); }
 5955              		.loc 1 110 26 view .LVU1559
 5956 0512 03F13701 		add	r1, r3, #55
 5957 0516 04F00F04 		and	r4, r4, #15
 5958              	.LVL392:
 110:../USER/main_01aa.c **** void puth(dt) int dt;{ if(dt<10) putch(0x30+dt); else putch(0x37+dt); }
 5959              		.loc 1 110 26 view .LVU1560
 5960              	.LBE1917:
 5961              	.LBE1927:
 5962              	.LBB1928:
 5963              	.LBB1925:
 5964              	.LBB1924:
 5965              	.LBB1923:
 5966 051a D8BF     		it	le
 5967 051c 03F13001 		addle	r1, r3, #48
 5968              	.LBE1923:
 5969              	.LBE1924:
 5970              	.LBE1925:
 5971              	.LBE1928:
 5972              	.LBB1929:
 5973              	.LBB1918:
 5974 0520 FFF7FEFF 		bl	UART_SendChar
 5975              	.LVL393:
 110:../USER/main_01aa.c **** void puth(dt) int dt;{ if(dt<10) putch(0x30+dt); else putch(0x37+dt); }
 5976              		.loc 1 110 26 view .LVU1561
 5977              	.LBE1918:
 5978              	.LBE1929:
 5979              	.LBE1931:
 5980              	.LBE1933:
 112:../USER/main_01aa.c **** void puth4(dt) int dt;{ puth2((dt >> 8) & 0xff); puth2(dt & 0xff); }
 5981              		.loc 1 112 48 is_stmt 1 view .LVU1562
 5982              	.LBB1934:
 5983              	.LBB1935:
 5984              	.LBB1936:
 5985              	.LBI1936:
 111:../USER/main_01aa.c **** void puth2(dt) int dt;{ puth((dt >> 4) & 0xf); puth(dt & 0xf); }
 5986              		.loc 1 111 6 view .LVU1563
 5987              	.LBB1937:
 111:../USER/main_01aa.c **** void puth2(dt) int dt;{ puth((dt >> 4) & 0xf); puth(dt & 0xf); }
 5988              		.loc 1 111 34 view .LVU1564
 5989              	.LBE1937:
 5990              	.LBE1936:
 111:../USER/main_01aa.c **** void puth2(dt) int dt;{ puth((dt >> 4) & 0xf); puth(dt & 0xf); }
 5991              		.loc 1 111 55 view .LVU1565
 111:../USER/main_01aa.c **** void puth2(dt) int dt;{ puth((dt >> 4) & 0xf); puth(dt & 0xf); }
 5992              		.loc 1 111 55 is_stmt 0 view .LVU1566
 5993              	.LBE1935:
 5994              	.LBI1934:
 111:../USER/main_01aa.c **** void puth2(dt) int dt;{ puth((dt >> 4) & 0xf); puth(dt & 0xf); }
 5995              		.loc 1 111 6 is_stmt 1 view .LVU1567
 5996              	.LBB1950:
 111:../USER/main_01aa.c **** void puth2(dt) int dt;{ puth((dt >> 4) & 0xf); puth(dt & 0xf); }
 5997              		.loc 1 111 24 view .LVU1568
 5998              	.LBB1944:
 5999              	.LBB1942:
 6000              	.LBB1938:
 6001              	.LBI1938:
 110:../USER/main_01aa.c **** void puth(dt) int dt;{ if(dt<10) putch(0x30+dt); else putch(0x37+dt); }
 6002              		.loc 1 110 6 view .LVU1569
 6003              	.LBB1939:
 110:../USER/main_01aa.c **** void puth(dt) int dt;{ if(dt<10) putch(0x30+dt); else putch(0x37+dt); }
 6004              		.loc 1 110 26 view .LVU1570
 110:../USER/main_01aa.c **** void puth(dt) int dt;{ if(dt<10) putch(0x30+dt); else putch(0x37+dt); }
 6005              		.loc 1 110 26 is_stmt 0 view .LVU1571
 6006              	.LBE1939:
 6007              	.LBE1938:
 6008              	.LBE1942:
 6009              	.LBE1944:
 6010              	.LBB1945:
 6011              	.LBI1945:
 110:../USER/main_01aa.c **** void puth(dt) int dt;{ if(dt<10) putch(0x30+dt); else putch(0x37+dt); }
 6012              		.loc 1 110 6 is_stmt 1 view .LVU1572
 6013              	.LBB1946:
 110:../USER/main_01aa.c **** void puth(dt) int dt;{ if(dt<10) putch(0x30+dt); else putch(0x37+dt); }
 6014              		.loc 1 110 26 view .LVU1573
 6015              	.LBE1946:
 6016              	.LBE1945:
 111:../USER/main_01aa.c **** void puth2(dt) int dt;{ puth((dt >> 4) & 0xf); puth(dt & 0xf); }
 6017              		.loc 1 111 26 is_stmt 0 view .LVU1574
 6018 0524 092C     		cmp	r4, #9
 6019              	.LBB1948:
 6020              	.LBB1943:
 6021              	.LBB1941:
 6022              	.LBB1940:
 110:../USER/main_01aa.c **** void puth(dt) int dt;{ if(dt<10) putch(0x30+dt); else putch(0x37+dt); }
 6023              		.loc 1 110 26 view .LVU1575
 6024 0526 04F13001 		add	r1, r4, #48
 6025              	.LBE1940:
 6026              	.LBE1941:
 6027              	.LBE1943:
 6028              	.LBE1948:
 6029              	.LBB1949:
 6030              	.LBB1947:
 6031 052a 4FF04020 		mov	r0, #1073758208
 6032 052e 88BF     		it	hi
 6033 0530 04F13701 		addhi	r1, r4, #55
 6034 0534 0135     		adds	r5, r5, #1
 6035              	.LVL394:
 110:../USER/main_01aa.c **** void puth(dt) int dt;{ if(dt<10) putch(0x30+dt); else putch(0x37+dt); }
 6036              		.loc 1 110 26 view .LVU1576
 6037 0536 FFF7FEFF 		bl	UART_SendChar
 6038              	.LVL395:
 110:../USER/main_01aa.c **** void puth(dt) int dt;{ if(dt<10) putch(0x30+dt); else putch(0x37+dt); }
 6039              		.loc 1 110 26 view .LVU1577
 6040              	.LBE1947:
 6041              	.LBE1949:
 6042              	.LBE1950:
 6043              	.LBE1934:
 6044              	.LBE1951:
 6045              	.LBE1952:
 175:../USER/main_01aa.c **** 	        }
 6046              		.loc 1 175 12 view .LVU1578
 6047 053a AE42     		cmp	r6, r5
 6048 053c DFD1     		bne	.L192
 6049 053e 1037     		adds	r7, r7, #16
 6050              	.LVL396:
 173:../USER/main_01aa.c **** 	          putadrhd(adr);
 6051              		.loc 1 173 10 discriminator 2 view .LVU1579
 6052 0540 4745     		cmp	r7, r8
 6053 0542 06F11006 		add	r6, r6, #16
 6054 0546 7FF46FAF 		bne	.L193
 6055 054a 0397     		str	r7, [sp, #12]
 6056              	.LVL397:
 173:../USER/main_01aa.c **** 	          putadrhd(adr);
 6057              		.loc 1 173 10 discriminator 2 view .LVU1580
 6058 054c 7EE5     		b	.L150
 6059              	.LVL398:
 6060              	.L154:
 6061              	.LBB1953:
 6062              	.LBB1954:
 117:../USER/main_01aa.c **** 		if(*buf==0) break;
 6063              		.loc 1 117 2 is_stmt 1 view .LVU1581
 118:../USER/main_01aa.c **** 		else        putch(*buf++);
 6064              		.loc 1 118 3 view .LVU1582
 118:../USER/main_01aa.c **** 		else        putch(*buf++);
 6065              		.loc 1 118 6 is_stmt 0 view .LVU1583
 6066 054e 3F21     		movs	r1, #63
 6067 0550 4B4C     		ldr	r4, .L351
 6068              	.LVL399:
 6069              	.L279:
 119:../USER/main_01aa.c **** 	}
 6070              		.loc 1 119 15 is_stmt 1 view .LVU1584
 6071              	.LBB1955:
 6072              	.LBI1955:
 110:../USER/main_01aa.c **** void puth(dt) int dt;{ if(dt<10) putch(0x30+dt); else putch(0x37+dt); }
 6073              		.loc 1 110 6 view .LVU1585
 6074              	.LBB1956:
 110:../USER/main_01aa.c **** void puth(dt) int dt;{ if(dt<10) putch(0x30+dt); else putch(0x37+dt); }
 6075              		.loc 1 110 26 view .LVU1586
 6076 0552 4FF04020 		mov	r0, #1073758208
 6077 0556 FFF7FEFF 		bl	UART_SendChar
 6078              	.LVL400:
 110:../USER/main_01aa.c **** void puth(dt) int dt;{ if(dt<10) putch(0x30+dt); else putch(0x37+dt); }
 6079              		.loc 1 110 26 is_stmt 0 view .LVU1587
 6080              	.LBE1956:
 6081              	.LBE1955:
 117:../USER/main_01aa.c **** 		if(*buf==0) break;
 6082              		.loc 1 117 2 is_stmt 1 view .LVU1588
 118:../USER/main_01aa.c **** 		else        putch(*buf++);
 6083              		.loc 1 118 3 view .LVU1589
 118:../USER/main_01aa.c **** 		else        putch(*buf++);
 6084              		.loc 1 118 6 is_stmt 0 view .LVU1590
 6085 055a 14F9011F 		ldrsb	r1, [r4, #1]!
 6086              	.LVL401:
 118:../USER/main_01aa.c **** 		else        putch(*buf++);
 6087              		.loc 1 118 5 view .LVU1591
 6088 055e 0029     		cmp	r1, #0
 6089 0560 F7D1     		bne	.L279
 6090 0562 73E5     		b	.L150
 6091              	.LVL402:
 6092              	.L261:
 118:../USER/main_01aa.c **** 		else        putch(*buf++);
 6093              		.loc 1 118 5 view .LVU1592
 6094              	.LBE1954:
 6095              	.LBE1953:
 6096              	.LBB1957:
 6097              	.LBB1704:
 6098              	.LBB1703:
 104:../USER/main_01aa.c ****    if( *buf>='a' && *buf<='z') *buf = *buf - 0x20;
 6099              		.loc 1 104 9 view .LVU1593
 6100 0564 12F9013F 		ldrsb	r3, [r2, #1]!
 6101              	.LVL403:
 104:../USER/main_01aa.c ****    if( *buf>='a' && *buf<='z') *buf = *buf - 0x20;
 6102              		.loc 1 104 8 view .LVU1594
 6103 0568 0D2B     		cmp	r3, #13
 6104 056a 7FF4F2AE 		bne	.L264
 6105 056e FCE6     		b	.L263
 6106              	.LVL404:
 6107              	.L155:
 104:../USER/main_01aa.c ****    if( *buf>='a' && *buf<='z') *buf = *buf - 0x20;
 6108              		.loc 1 104 8 view .LVU1595
 6109              	.LBE1703:
 6110              	.LBE1704:
 6111              	.LBE1957:
 6112              	.LBB1958:
 6113              	.LBB1415:
 6114              	.LBB1414:
 104:../USER/main_01aa.c ****    if( *buf>='a' && *buf<='z') *buf = *buf - 0x20;
 6115              		.loc 1 104 9 view .LVU1596
 6116 0570 12F9013F 		ldrsb	r3, [r2, #1]!
 6117              	.LVL405:
 104:../USER/main_01aa.c ****    if( *buf>='a' && *buf<='z') *buf = *buf - 0x20;
 6118              		.loc 1 104 8 view .LVU1597
 6119 0574 0D2B     		cmp	r3, #13
 6120 0576 7FF488AD 		bne	.L158
 6121 057a 92E5     		b	.L157
 6122              	.LVL406:
 6123              	.L344:
 104:../USER/main_01aa.c ****    if( *buf>='a' && *buf<='z') *buf = *buf - 0x20;
 6124              		.loc 1 104 8 view .LVU1598
 6125              	.LBE1414:
 6126              	.LBE1415:
 6127              	.LBE1958:
 212:../USER/main_01aa.c **** 	          else         adr = adr + mmd;
 6128              		.loc 1 212 25 is_stmt 1 discriminator 1 view .LVU1599
 212:../USER/main_01aa.c **** 	          else         adr = adr + mmd;
 6129              		.loc 1 212 29 is_stmt 0 discriminator 1 view .LVU1600
 6130 057c A4EB0804 		sub	r4, r4, r8
 6131              	.LVL407:
 212:../USER/main_01aa.c **** 	          else         adr = adr + mmd;
 6132              		.loc 1 212 29 discriminator 1 view .LVU1601
 6133 0580 3FE6     		b	.L335
 6134              	.LVL408:
 6135              	.L343:
 197:../USER/main_01aa.c **** 	            if(mmd==1){
 6136              		.loc 1 197 25 discriminator 1 view .LVU1602
 6137 0582 0028     		cmp	r0, #0
 6138 0584 FFF620AF 		blt	.L267
 198:../USER/main_01aa.c **** 	              if(dt>=0) {
 6139              		.loc 1 198 14 is_stmt 1 view .LVU1603
 198:../USER/main_01aa.c **** 	              if(dt>=0) {
 6140              		.loc 1 198 16 is_stmt 0 view .LVU1604
 6141 0588 B8F1010F 		cmp	r8, #1
 6142 058c 1AD0     		beq	.L346
 204:../USER/main_01aa.c **** 	              if(dt>=0) {
 6143              		.loc 1 204 16 is_stmt 1 view .LVU1605
 6144              	.LVL409:
 205:../USER/main_01aa.c **** 	                *wrp = dt; dtr = *wrp;
 6145              		.loc 1 205 16 view .LVU1606
 206:../USER/main_01aa.c **** 	                if(dt!=dtr) wrp--;
 6146              		.loc 1 206 18 view .LVU1607
 206:../USER/main_01aa.c **** 	                if(dt!=dtr) wrp--;
 6147              		.loc 1 206 23 is_stmt 0 view .LVU1608
 6148 058e 44F8020B 		str	r0, [r4], #2
 6149              	.LVL410:
 206:../USER/main_01aa.c **** 	                if(dt!=dtr) wrp--;
 6150              		.loc 1 206 29 is_stmt 1 view .LVU1609
 207:../USER/main_01aa.c **** 	              }
 6151              		.loc 1 207 18 view .LVU1610
 209:../USER/main_01aa.c **** 	            }
 6152              		.loc 1 209 16 view .LVU1611
 6153              		.loc 1 213 25 view .LVU1612
 6154              		.loc 1 213 25 is_stmt 0 view .LVU1613
 6155 0592 36E6     		b	.L335
 6156              	.LVL411:
 6157              	.L341:
 193:../USER/main_01aa.c **** 	          putch(' ');
 6158              		.loc 1 193 54 is_stmt 1 discriminator 1 view .LVU1614
 193:../USER/main_01aa.c **** 	          putch(' ');
 6159              		.loc 1 193 65 is_stmt 0 discriminator 1 view .LVU1615
 6160 0594 94F80190 		ldrb	r9, [r4, #1]	@ zero_extendqisi2
 6161              	.LVL412:
 6162              	.LBB1959:
 6163              	.LBI1959:
 112:../USER/main_01aa.c **** void puth4(dt) int dt;{ puth2((dt >> 8) & 0xff); puth2(dt & 0xff); }
 6164              		.loc 1 112 6 is_stmt 1 discriminator 1 view .LVU1616
 6165              	.LBB1960:
 112:../USER/main_01aa.c **** void puth4(dt) int dt;{ puth2((dt >> 8) & 0xff); puth2(dt & 0xff); }
 6166              		.loc 1 112 25 discriminator 1 view .LVU1617
 6167              	.LBB1961:
 6168              	.LBB1962:
 6169              	.LBB1963:
 6170              	.LBB1964:
 110:../USER/main_01aa.c **** void puth(dt) int dt;{ if(dt<10) putch(0x30+dt); else putch(0x37+dt); }
 6171              		.loc 1 110 26 is_stmt 0 discriminator 1 view .LVU1618
 6172 0598 4FF04020 		mov	r0, #1073758208
 6173              	.LBE1964:
 6174              	.LBE1963:
 6175              	.LBE1962:
 6176              	.LBE1961:
 112:../USER/main_01aa.c **** void puth4(dt) int dt;{ puth2((dt >> 8) & 0xff); puth2(dt & 0xff); }
 6177              		.loc 1 112 34 discriminator 1 view .LVU1619
 6178 059c 4FEA2912 		asr	r2, r9, #4
 6179              	.LVL413:
 6180              	.LBB1976:
 6181              	.LBI1961:
 111:../USER/main_01aa.c **** void puth2(dt) int dt;{ puth((dt >> 4) & 0xf); puth(dt & 0xf); }
 6182              		.loc 1 111 6 is_stmt 1 discriminator 1 view .LVU1620
 6183              	.LBB1975:
 111:../USER/main_01aa.c **** void puth2(dt) int dt;{ puth((dt >> 4) & 0xf); puth(dt & 0xf); }
 6184              		.loc 1 111 24 discriminator 1 view .LVU1621
 6185              	.LBB1966:
 6186              	.LBI1966:
 111:../USER/main_01aa.c **** void puth2(dt) int dt;{ puth((dt >> 4) & 0xf); puth(dt & 0xf); }
 6187              		.loc 1 111 6 discriminator 1 view .LVU1622
 6188              	.LBB1967:
 111:../USER/main_01aa.c **** void puth2(dt) int dt;{ puth((dt >> 4) & 0xf); puth(dt & 0xf); }
 6189              		.loc 1 111 34 discriminator 1 view .LVU1623
 6190 05a0 D1B2     		uxtb	r1, r2
 6191              	.LVL414:
 6192              	.LBB1968:
 6193              	.LBI1968:
 110:../USER/main_01aa.c **** void puth(dt) int dt;{ if(dt<10) putch(0x30+dt); else putch(0x37+dt); }
 6194              		.loc 1 110 6 discriminator 1 view .LVU1624
 6195              	.LBB1969:
 110:../USER/main_01aa.c **** void puth(dt) int dt;{ if(dt<10) putch(0x30+dt); else putch(0x37+dt); }
 6196              		.loc 1 110 26 discriminator 1 view .LVU1625
 6197              	.LBE1969:
 6198              	.LBE1968:
 6199              	.LBE1967:
 6200              	.LBE1966:
 111:../USER/main_01aa.c **** void puth2(dt) int dt;{ puth((dt >> 4) & 0xf); puth(dt & 0xf); }
 6201              		.loc 1 111 55 discriminator 1 view .LVU1626
 111:../USER/main_01aa.c **** void puth2(dt) int dt;{ puth((dt >> 4) & 0xf); puth(dt & 0xf); }
 6202              		.loc 1 111 26 is_stmt 0 discriminator 1 view .LVU1627
 6203 05a2 092A     		cmp	r2, #9
 6204              	.LBB1973:
 6205              	.LBB1972:
 6206              	.LBB1971:
 6207              	.LBB1970:
 110:../USER/main_01aa.c **** void puth(dt) int dt;{ if(dt<10) putch(0x30+dt); else putch(0x37+dt); }
 6208              		.loc 1 110 26 discriminator 1 view .LVU1628
 6209 05a4 D4BF     		ite	le
 6210 05a6 3031     		addle	r1, r1, #48
 6211              	.LVL415:
 110:../USER/main_01aa.c **** void puth(dt) int dt;{ if(dt<10) putch(0x30+dt); else putch(0x37+dt); }
 6212              		.loc 1 110 26 discriminator 1 view .LVU1629
 6213              	.LBE1970:
 6214              	.LBE1971:
 6215              	.LBE1972:
 6216              	.LBE1973:
 6217              	.LBB1974:
 6218              	.LBI1963:
 110:../USER/main_01aa.c **** void puth(dt) int dt;{ if(dt<10) putch(0x30+dt); else putch(0x37+dt); }
 6219              		.loc 1 110 6 is_stmt 1 discriminator 1 view .LVU1630
 6220              	.LBB1965:
 110:../USER/main_01aa.c **** void puth(dt) int dt;{ if(dt<10) putch(0x30+dt); else putch(0x37+dt); }
 6221              		.loc 1 110 26 discriminator 1 view .LVU1631
 6222 05a8 3731     		addgt	r1, r1, #55
 6223              	.LVL416:
 110:../USER/main_01aa.c **** void puth(dt) int dt;{ if(dt<10) putch(0x30+dt); else putch(0x37+dt); }
 6224              		.loc 1 110 26 is_stmt 0 discriminator 1 view .LVU1632
 6225 05aa FFF7FEFF 		bl	UART_SendChar
 6226              	.LVL417:
 110:../USER/main_01aa.c **** void puth(dt) int dt;{ if(dt<10) putch(0x30+dt); else putch(0x37+dt); }
 6227              		.loc 1 110 26 discriminator 1 view .LVU1633
 6228              	.LBE1965:
 6229              	.LBE1974:
 6230              	.LBE1975:
 6231              	.LBE1976:
 112:../USER/main_01aa.c **** void puth4(dt) int dt;{ puth2((dt >> 8) & 0xff); puth2(dt & 0xff); }
 6232              		.loc 1 112 48 is_stmt 1 discriminator 1 view .LVU1634
 6233 05ae 09F00F01 		and	r1, r9, #15
 6234              	.LVL418:
 6235              	.LBB1977:
 6236              	.LBI1977:
 111:../USER/main_01aa.c **** void puth2(dt) int dt;{ puth((dt >> 4) & 0xf); puth(dt & 0xf); }
 6237              		.loc 1 111 6 discriminator 1 view .LVU1635
 6238              	.LBB1978:
 111:../USER/main_01aa.c **** void puth2(dt) int dt;{ puth((dt >> 4) & 0xf); puth(dt & 0xf); }
 6239              		.loc 1 111 24 discriminator 1 view .LVU1636
 6240              	.LBB1979:
 6241              	.LBI1979:
 111:../USER/main_01aa.c **** void puth2(dt) int dt;{ puth((dt >> 4) & 0xf); puth(dt & 0xf); }
 6242              		.loc 1 111 6 discriminator 1 view .LVU1637
 6243              	.LBB1980:
 111:../USER/main_01aa.c **** void puth2(dt) int dt;{ puth((dt >> 4) & 0xf); puth(dt & 0xf); }
 6244              		.loc 1 111 34 discriminator 1 view .LVU1638
 6245              	.LBB1981:
 6246              	.LBI1981:
 110:../USER/main_01aa.c **** void puth(dt) int dt;{ if(dt<10) putch(0x30+dt); else putch(0x37+dt); }
 6247              		.loc 1 110 6 discriminator 1 view .LVU1639
 6248              	.LBB1982:
 110:../USER/main_01aa.c **** void puth(dt) int dt;{ if(dt<10) putch(0x30+dt); else putch(0x37+dt); }
 6249              		.loc 1 110 26 discriminator 1 view .LVU1640
 6250              	.LBE1982:
 6251              	.LBE1981:
 6252              	.LBE1980:
 6253              	.LBE1979:
 111:../USER/main_01aa.c **** void puth2(dt) int dt;{ puth((dt >> 4) & 0xf); puth(dt & 0xf); }
 6254              		.loc 1 111 55 discriminator 1 view .LVU1641
 111:../USER/main_01aa.c **** void puth2(dt) int dt;{ puth((dt >> 4) & 0xf); puth(dt & 0xf); }
 6255              		.loc 1 111 26 is_stmt 0 discriminator 1 view .LVU1642
 6256 05b2 0929     		cmp	r1, #9
 6257              	.LBB1986:
 6258              	.LBB1985:
 6259              	.LBB1984:
 6260              	.LBB1983:
 110:../USER/main_01aa.c **** void puth(dt) int dt;{ if(dt<10) putch(0x30+dt); else putch(0x37+dt); }
 6261              		.loc 1 110 26 discriminator 1 view .LVU1643
 6262 05b4 94BF     		ite	ls
 6263 05b6 3031     		addls	r1, r1, #48
 6264              	.LVL419:
 110:../USER/main_01aa.c **** void puth(dt) int dt;{ if(dt<10) putch(0x30+dt); else putch(0x37+dt); }
 6265              		.loc 1 110 26 discriminator 1 view .LVU1644
 6266              	.LBE1983:
 6267              	.LBE1984:
 6268              	.LBE1985:
 6269              	.LBE1986:
 6270              	.LBB1987:
 6271              	.LBI1987:
 110:../USER/main_01aa.c **** void puth(dt) int dt;{ if(dt<10) putch(0x30+dt); else putch(0x37+dt); }
 6272              		.loc 1 110 6 is_stmt 1 discriminator 1 view .LVU1645
 6273              	.LBB1988:
 110:../USER/main_01aa.c **** void puth(dt) int dt;{ if(dt<10) putch(0x30+dt); else putch(0x37+dt); }
 6274              		.loc 1 110 26 discriminator 1 view .LVU1646
 6275 05b8 3731     		addhi	r1, r1, #55
 6276              	.LVL420:
 110:../USER/main_01aa.c **** void puth(dt) int dt;{ if(dt<10) putch(0x30+dt); else putch(0x37+dt); }
 6277              		.loc 1 110 26 is_stmt 0 discriminator 1 view .LVU1647
 6278 05ba 4FF04020 		mov	r0, #1073758208
 6279 05be FFF7FEFF 		bl	UART_SendChar
 6280              	.LVL421:
 110:../USER/main_01aa.c **** void puth(dt) int dt;{ if(dt<10) putch(0x30+dt); else putch(0x37+dt); }
 6281              		.loc 1 110 26 discriminator 1 view .LVU1648
 6282 05c2 ABE6     		b	.L255
 6283              	.LVL422:
 6284              	.L346:
 110:../USER/main_01aa.c **** void puth(dt) int dt;{ if(dt<10) putch(0x30+dt); else putch(0x37+dt); }
 6285              		.loc 1 110 26 discriminator 1 view .LVU1649
 6286              	.LBE1988:
 6287              	.LBE1987:
 6288              	.LBE1978:
 6289              	.LBE1977:
 6290              	.LBE1960:
 6291              	.LBE1959:
 199:../USER/main_01aa.c **** 	                mbase[adr] = dt; dtr = mbase[adr];
 6292              		.loc 1 199 16 is_stmt 1 view .LVU1650
 200:../USER/main_01aa.c **** 	                if(dt!=dtr) adr--;
 6293              		.loc 1 200 18 view .LVU1651
 201:../USER/main_01aa.c **** 	              }
 6294              		.loc 1 201 20 is_stmt 0 view .LVU1652
 6295 05c4 30F0FF03 		bics	r3, r0, #255
 200:../USER/main_01aa.c **** 	                if(dt!=dtr) adr--;
 6296              		.loc 1 200 29 view .LVU1653
 6297 05c8 2070     		strb	r0, [r4]
 200:../USER/main_01aa.c **** 	                if(dt!=dtr) adr--;
 6298              		.loc 1 200 35 is_stmt 1 view .LVU1654
 201:../USER/main_01aa.c **** 	              }
 6299              		.loc 1 201 18 view .LVU1655
 201:../USER/main_01aa.c **** 	              }
 6300              		.loc 1 201 20 is_stmt 0 view .LVU1656
 6301 05ca 7FF424AE 		bne	.L230
 6302              	.LVL423:
 6303              		.loc 1 213 25 is_stmt 1 view .LVU1657
 6304              		.loc 1 213 29 is_stmt 0 view .LVU1658
 6305 05ce 0134     		adds	r4, r4, #1
 6306              	.LVL424:
 6307              		.loc 1 213 29 view .LVU1659
 6308 05d0 17E6     		b	.L335
 6309              	.LVL425:
 6310              	.L339:
 189:../USER/main_01aa.c **** 	        adr = getsh(cbpp);
 6311              		.loc 1 189 25 is_stmt 1 discriminator 1 view .LVU1660
 189:../USER/main_01aa.c **** 	        adr = getsh(cbpp);
 6312              		.loc 1 189 34 discriminator 1 view .LVU1661
 189:../USER/main_01aa.c **** 	        adr = getsh(cbpp);
 6313              		.loc 1 189 34 is_stmt 0 discriminator 1 view .LVU1662
 6314 05d2 9DF91230 		ldrsb	r3, [sp, #18]
 189:../USER/main_01aa.c **** 	        adr = getsh(cbpp);
 6315              		.loc 1 189 37 discriminator 1 view .LVU1663
 6316 05d6 0DF11201 		add	r1, sp, #18
 6317              	.LVL426:
 6318              	.LBB1989:
 6319              	.LBB1513:
 141:../USER/main_01aa.c ****   while(**buf==' ') (*buf)++; /* spip sp*/
 6320              		.loc 1 141 5 discriminator 1 view .LVU1664
 6321 05da 0D2B     		cmp	r3, #13
 6322              	.LBE1513:
 6323              	.LBE1989:
 189:../USER/main_01aa.c **** 	        adr = getsh(cbpp);
 6324              		.loc 1 189 29 discriminator 1 view .LVU1665
 6325 05dc 4FF00208 		mov	r8, #2
 6326              	.LVL427:
 190:../USER/main_01aa.c **** 	        while(cmd!='.'){
 6327              		.loc 1 190 10 is_stmt 1 discriminator 1 view .LVU1666
 6328              	.LBB1990:
 139:../USER/main_01aa.c ****   long num = 0; int hd;
 6329              		.loc 1 139 6 discriminator 1 view .LVU1667
 6330              	.LBB1514:
 140:../USER/main_01aa.c ****   if(**buf==0x0d) return -1;
 6331              		.loc 1 140 3 discriminator 1 view .LVU1668
 140:../USER/main_01aa.c ****   if(**buf==0x0d) return -1;
 6332              		.loc 1 140 17 discriminator 1 view .LVU1669
 141:../USER/main_01aa.c ****   while(**buf==' ') (*buf)++; /* spip sp*/
 6333              		.loc 1 141 3 discriminator 1 view .LVU1670
 141:../USER/main_01aa.c ****   while(**buf==' ') (*buf)++; /* spip sp*/
 6334              		.loc 1 141 5 is_stmt 0 discriminator 1 view .LVU1671
 6335 05e0 7FF4F0AD 		bne	.L334
 6336              	.L287:
 141:../USER/main_01aa.c ****   while(**buf==' ') (*buf)++; /* spip sp*/
 6337              		.loc 1 141 26 view .LVU1672
 6338 05e4 4FF0FF34 		mov	r4, #-1
 6339 05e8 0BE6     		b	.L335
 6340              	.LVL428:
 6341              	.L336:
 141:../USER/main_01aa.c ****   while(**buf==' ') (*buf)++; /* spip sp*/
 6342              		.loc 1 141 26 view .LVU1673
 6343              	.LBE1514:
 6344              	.LBE1990:
 180:../USER/main_01aa.c **** 			if(*cbp=='G'){ cbp++; dt = getsh(cbpp); GPIO_WriteBits(GPIO0,dt); }
 6345              		.loc 1 180 22 is_stmt 1 discriminator 1 view .LVU1674
 180:../USER/main_01aa.c **** 			if(*cbp=='G'){ cbp++; dt = getsh(cbpp); GPIO_WriteBits(GPIO0,dt); }
 6346              		.loc 1 180 29 discriminator 1 view .LVU1675
 6347              	.LBB1991:
 6348              	.LBI1991:
 139:../USER/main_01aa.c ****   long num = 0; int hd;
 6349              		.loc 1 139 6 discriminator 1 view .LVU1676
 6350              	.LBB1992:
 140:../USER/main_01aa.c ****   if(**buf==0x0d) return -1;
 6351              		.loc 1 140 3 discriminator 1 view .LVU1677
 140:../USER/main_01aa.c ****   if(**buf==0x0d) return -1;
 6352              		.loc 1 140 17 discriminator 1 view .LVU1678
 141:../USER/main_01aa.c ****   while(**buf==' ') (*buf)++; /* spip sp*/
 6353              		.loc 1 141 3 discriminator 1 view .LVU1679
 141:../USER/main_01aa.c ****   while(**buf==' ') (*buf)++; /* spip sp*/
 6354              		.loc 1 141 6 is_stmt 0 discriminator 1 view .LVU1680
 6355 05ea 9DF91230 		ldrsb	r3, [sp, #18]
 141:../USER/main_01aa.c ****   while(**buf==' ') (*buf)++; /* spip sp*/
 6356              		.loc 1 141 5 discriminator 1 view .LVU1681
 6357 05ee 0D2B     		cmp	r3, #13
 6358 05f0 3ED0     		beq	.L347
 6359              	.LBB1993:
 6360              	.LBB1994:
 142:../USER/main_01aa.c ****   while( (hd=ishex(**buf)) != -1){ num = num * 16 + hd; (*buf)++; }
 6361              		.loc 1 142 8 view .LVU1682
 6362 05f2 202B     		cmp	r3, #32
 6363              	.LBE1994:
 6364              	.LBE1993:
 6365              	.LBE1992:
 6366              	.LBE1991:
 180:../USER/main_01aa.c **** 			if(*cbp=='G'){ cbp++; dt = getsh(cbpp); GPIO_WriteBits(GPIO0,dt); }
 6367              		.loc 1 180 25 view .LVU1683
 6368 05f4 0DF11202 		add	r2, sp, #18
 6369              	.LVL429:
 6370              	.LBB2008:
 6371              	.LBB2007:
 6372              	.LBB2006:
 6373              	.LBB2005:
 142:../USER/main_01aa.c ****   while( (hd=ishex(**buf)) != -1){ num = num * 16 + hd; (*buf)++; }
 6374              		.loc 1 142 8 view .LVU1684
 6375 05f8 03D1     		bne	.L198
 6376              	.LVL430:
 6377              	.L199:
 142:../USER/main_01aa.c ****   while( (hd=ishex(**buf)) != -1){ num = num * 16 + hd; (*buf)++; }
 6378              		.loc 1 142 21 is_stmt 1 view .LVU1685
 142:../USER/main_01aa.c ****   while( (hd=ishex(**buf)) != -1){ num = num * 16 + hd; (*buf)++; }
 6379              		.loc 1 142 9 is_stmt 0 view .LVU1686
 6380 05fa 12F9013F 		ldrsb	r3, [r2, #1]!
 6381              	.LVL431:
 142:../USER/main_01aa.c ****   while( (hd=ishex(**buf)) != -1){ num = num * 16 + hd; (*buf)++; }
 6382              		.loc 1 142 8 view .LVU1687
 6383 05fe 202B     		cmp	r3, #32
 6384 0600 FBD0     		beq	.L199
 6385              	.LVL432:
 6386              	.L198:
 140:../USER/main_01aa.c ****   if(**buf==0x0d) return -1;
 6387              		.loc 1 140 8 view .LVU1688
 6388 0602 0020     		movs	r0, #0
 6389 0604 05E0     		b	.L200
 6390              	.LVL433:
 6391              	.L348:
 6392              	.LBB1995:
 6393              	.LBB1996:
 131:../USER/main_01aa.c ****   else if(ch>='A' && ch<='F') hd = ch - 0x37;
 6394              		.loc 1 131 29 view .LVU1689
 6395 0606 A5F13003 		sub	r3, r5, #48
 6396              	.LVL434:
 131:../USER/main_01aa.c ****   else if(ch>='A' && ch<='F') hd = ch - 0x37;
 6397              		.loc 1 131 29 view .LVU1690
 6398              	.LBE1996:
 6399              	.LBE1995:
 143:../USER/main_01aa.c ****   return num;
 6400              		.loc 1 143 36 is_stmt 1 view .LVU1691
 6401              	.LBB2001:
 6402              	.LBB1997:
 134:../USER/main_01aa.c **** }
 6403              		.loc 1 134 3 view .LVU1692
 134:../USER/main_01aa.c **** }
 6404              		.loc 1 134 3 is_stmt 0 view .LVU1693
 6405              	.LBE1997:
 6406              	.LBE2001:
 143:../USER/main_01aa.c ****   return num;
 6407              		.loc 1 143 8 view .LVU1694
 6408 060a 5E1C     		adds	r6, r3, #1
 6409 060c 11D0     		beq	.L331
 6410              	.L205:
 143:../USER/main_01aa.c ****   return num;
 6411              		.loc 1 143 40 view .LVU1695
 6412 060e 03EB0010 		add	r0, r3, r0, lsl #4
 6413              	.LVL435:
 143:../USER/main_01aa.c ****   return num;
 6414              		.loc 1 143 57 is_stmt 1 view .LVU1696
 6415              	.L200:
 6416              	.LBB2002:
 6417              	.LBB1998:
 131:../USER/main_01aa.c ****   else if(ch>='A' && ch<='F') hd = ch - 0x37;
 6418              		.loc 1 131 26 view .LVU1697
 132:../USER/main_01aa.c ****   else hd = -1;
 6419              		.loc 1 132 8 view .LVU1698
 132:../USER/main_01aa.c ****   else hd = -1;
 6420              		.loc 1 132 31 view .LVU1699
 6421 0612 1446     		mov	r4, r2
 6422              	.LVL436:
 132:../USER/main_01aa.c ****   else hd = -1;
 6423              		.loc 1 132 31 is_stmt 0 view .LVU1700
 6424              	.LBE1998:
 6425              	.LBE2002:
 143:../USER/main_01aa.c ****   return num;
 6426              		.loc 1 143 20 view .LVU1701
 6427 0614 12F9015B 		ldrsb	r5, [r2], #1
 6428              	.LVL437:
 6429              	.LBB2003:
 6430              	.LBI1995:
 129:../USER/main_01aa.c ****   int hd;
 6431              		.loc 1 129 5 is_stmt 1 view .LVU1702
 6432              	.LBB1999:
 130:../USER/main_01aa.c ****   if(ch>='0' && ch<='9') hd = ch - 0x30;
 6433              		.loc 1 130 3 view .LVU1703
 131:../USER/main_01aa.c ****   else if(ch>='A' && ch<='F') hd = ch - 0x37;
 6434              		.loc 1 131 3 view .LVU1704
 131:../USER/main_01aa.c ****   else if(ch>='A' && ch<='F') hd = ch - 0x37;
 6435              		.loc 1 131 14 is_stmt 0 view .LVU1705
 6436 0618 EBB2     		uxtb	r3, r5
 131:../USER/main_01aa.c ****   else if(ch>='A' && ch<='F') hd = ch - 0x37;
 6437              		.loc 1 131 5 view .LVU1706
 6438 061a A3F13001 		sub	r1, r3, #48
 6439 061e 0929     		cmp	r1, #9
 132:../USER/main_01aa.c ****   else hd = -1;
 6440              		.loc 1 132 10 view .LVU1707
 6441 0620 A3F14103 		sub	r3, r3, #65
 131:../USER/main_01aa.c ****   else if(ch>='A' && ch<='F') hd = ch - 0x37;
 6442              		.loc 1 131 5 view .LVU1708
 6443 0624 EFD9     		bls	.L348
 132:../USER/main_01aa.c ****   else hd = -1;
 6444              		.loc 1 132 10 view .LVU1709
 6445 0626 052B     		cmp	r3, #5
 6446 0628 03D8     		bhi	.L331
 132:../USER/main_01aa.c ****   else hd = -1;
 6447              		.loc 1 132 34 view .LVU1710
 6448 062a A5F13703 		sub	r3, r5, #55
 6449              	.LVL438:
 132:../USER/main_01aa.c ****   else hd = -1;
 6450              		.loc 1 132 34 view .LVU1711
 6451              	.LBE1999:
 6452              	.LBE2003:
 143:../USER/main_01aa.c ****   return num;
 6453              		.loc 1 143 36 is_stmt 1 view .LVU1712
 6454              	.LBB2004:
 6455              	.LBB2000:
 134:../USER/main_01aa.c **** }
 6456              		.loc 1 134 3 view .LVU1713
 134:../USER/main_01aa.c **** }
 6457              		.loc 1 134 3 is_stmt 0 view .LVU1714
 6458              	.LBE2000:
 6459              	.LBE2004:
 143:../USER/main_01aa.c ****   return num;
 6460              		.loc 1 143 8 view .LVU1715
 6461 062e 5E1C     		adds	r6, r3, #1
 6462 0630 EDD1     		bne	.L205
 6463              	.LVL439:
 6464              	.L331:
 143:../USER/main_01aa.c ****   return num;
 6465              		.loc 1 143 8 view .LVU1716
 6466 0632 C0B2     		uxtb	r0, r0
 6467              	.LVL440:
 143:../USER/main_01aa.c ****   return num;
 6468              		.loc 1 143 8 view .LVU1717
 6469              	.LBE2005:
 6470              	.LBE2006:
 6471              	.LBE2007:
 6472              	.LBE2008:
 180:../USER/main_01aa.c **** 			if(*cbp=='G'){ cbp++; dt = getsh(cbpp); GPIO_WriteBits(GPIO0,dt); }
 6473              		.loc 1 180 47 is_stmt 1 view .LVU1718
 6474 0634 FFF7FEFF 		bl	SPI_WriteData
 6475              	.LVL441:
 180:../USER/main_01aa.c **** 			if(*cbp=='G'){ cbp++; dt = getsh(cbpp); GPIO_WriteBits(GPIO0,dt); }
 6476              		.loc 1 180 47 is_stmt 0 view .LVU1719
 6477 0638 56E5     		b	.L195
 6478              	.LVL442:
 6479              	.L338:
 184:../USER/main_01aa.c **** 	    	if(*cbp=='G'){ dt = GPIO_ReadBits(GPIO0); puth4(dt); }
 6480              		.loc 1 184 22 is_stmt 1 discriminator 1 view .LVU1720
 184:../USER/main_01aa.c **** 	    	if(*cbp=='G'){ dt = GPIO_ReadBits(GPIO0); puth4(dt); }
 6481              		.loc 1 184 27 is_stmt 0 discriminator 1 view .LVU1721
 6482 063a FFF7FEFF 		bl	SPI_ReadData
 6483              	.LVL443:
 184:../USER/main_01aa.c **** 	    	if(*cbp=='G'){ dt = GPIO_ReadBits(GPIO0); puth4(dt); }
 6484              		.loc 1 184 27 discriminator 1 view .LVU1722
 6485 063e 0446     		mov	r4, r0
 6486              	.LVL444:
 184:../USER/main_01aa.c **** 	    	if(*cbp=='G'){ dt = GPIO_ReadBits(GPIO0); puth4(dt); }
 6487              		.loc 1 184 43 is_stmt 1 discriminator 1 view .LVU1723
 6488              	.LBB2009:
 6489              	.LBI2009:
 112:../USER/main_01aa.c **** void puth4(dt) int dt;{ puth2((dt >> 8) & 0xff); puth2(dt & 0xff); }
 6490              		.loc 1 112 6 discriminator 1 view .LVU1724
 6491              	.LBB2010:
 112:../USER/main_01aa.c **** void puth4(dt) int dt;{ puth2((dt >> 8) & 0xff); puth2(dt & 0xff); }
 6492              		.loc 1 112 25 discriminator 1 view .LVU1725
 112:../USER/main_01aa.c **** void puth4(dt) int dt;{ puth2((dt >> 8) & 0xff); puth2(dt & 0xff); }
 6493              		.loc 1 112 34 is_stmt 0 discriminator 1 view .LVU1726
 6494 0640 0311     		asrs	r3, r0, #4
 6495              	.LVL445:
 6496              	.LBB2011:
 6497              	.LBI2011:
 111:../USER/main_01aa.c **** void puth2(dt) int dt;{ puth((dt >> 4) & 0xf); puth(dt & 0xf); }
 6498              		.loc 1 111 6 is_stmt 1 discriminator 1 view .LVU1727
 6499              	.LBB2012:
 111:../USER/main_01aa.c **** void puth2(dt) int dt;{ puth((dt >> 4) & 0xf); puth(dt & 0xf); }
 6500              		.loc 1 111 24 discriminator 1 view .LVU1728
 6501              	.LBB2013:
 6502              	.LBI2013:
 111:../USER/main_01aa.c **** void puth2(dt) int dt;{ puth((dt >> 4) & 0xf); puth(dt & 0xf); }
 6503              		.loc 1 111 6 discriminator 1 view .LVU1729
 6504              	.LBB2014:
 111:../USER/main_01aa.c **** void puth2(dt) int dt;{ puth((dt >> 4) & 0xf); puth(dt & 0xf); }
 6505              		.loc 1 111 34 discriminator 1 view .LVU1730
 6506              	.LBB2015:
 6507              	.LBI2015:
 110:../USER/main_01aa.c **** void puth(dt) int dt;{ if(dt<10) putch(0x30+dt); else putch(0x37+dt); }
 6508              		.loc 1 110 6 discriminator 1 view .LVU1731
 6509              	.LBB2016:
 110:../USER/main_01aa.c **** void puth(dt) int dt;{ if(dt<10) putch(0x30+dt); else putch(0x37+dt); }
 6510              		.loc 1 110 26 discriminator 1 view .LVU1732
 6511              	.LBE2016:
 6512              	.LBE2015:
 6513              	.LBE2014:
 6514              	.LBE2013:
 111:../USER/main_01aa.c **** void puth2(dt) int dt;{ puth((dt >> 4) & 0xf); puth(dt & 0xf); }
 6515              		.loc 1 111 55 discriminator 1 view .LVU1733
 111:../USER/main_01aa.c **** void puth2(dt) int dt;{ puth((dt >> 4) & 0xf); puth(dt & 0xf); }
 6516              		.loc 1 111 26 is_stmt 0 discriminator 1 view .LVU1734
 6517 0642 092B     		cmp	r3, #9
 6518              	.LBB2018:
 6519              	.LBB2017:
 111:../USER/main_01aa.c **** void puth2(dt) int dt;{ puth((dt >> 4) & 0xf); puth(dt & 0xf); }
 6520              		.loc 1 111 44 discriminator 1 view .LVU1735
 6521 0644 D4BF     		ite	le
 6522 0646 3033     		addle	r3, r3, #48
 6523              	.LVL446:
 111:../USER/main_01aa.c **** void puth2(dt) int dt;{ puth((dt >> 4) & 0xf); puth(dt & 0xf); }
 6524              		.loc 1 111 44 discriminator 1 view .LVU1736
 6525              	.LBE2017:
 6526              	.LBE2018:
 6527              	.LBB2019:
 6528              	.LBI2019:
 110:../USER/main_01aa.c **** void puth(dt) int dt;{ if(dt<10) putch(0x30+dt); else putch(0x37+dt); }
 6529              		.loc 1 110 6 is_stmt 1 discriminator 1 view .LVU1737
 6530              	.LBB2020:
 110:../USER/main_01aa.c **** void puth(dt) int dt;{ if(dt<10) putch(0x30+dt); else putch(0x37+dt); }
 6531              		.loc 1 110 26 discriminator 1 view .LVU1738
 6532              	.LBE2020:
 6533              	.LBE2019:
 111:../USER/main_01aa.c **** void puth2(dt) int dt;{ puth((dt >> 4) & 0xf); puth(dt & 0xf); }
 6534              		.loc 1 111 65 is_stmt 0 discriminator 1 view .LVU1739
 6535 0648 3733     		addgt	r3, r3, #55
 6536              	.LVL447:
 6537              	.LBB2022:
 6538              	.LBB2021:
 110:../USER/main_01aa.c **** void puth(dt) int dt;{ if(dt<10) putch(0x30+dt); else putch(0x37+dt); }
 6539              		.loc 1 110 26 discriminator 1 view .LVU1740
 6540 064a 59B2     		sxtb	r1, r3
 6541 064c 4FF04020 		mov	r0, #1073758208
 6542              	.LVL448:
 110:../USER/main_01aa.c **** void puth(dt) int dt;{ if(dt<10) putch(0x30+dt); else putch(0x37+dt); }
 6543              		.loc 1 110 26 discriminator 1 view .LVU1741
 6544 0650 FFF7FEFF 		bl	UART_SendChar
 6545              	.LVL449:
 110:../USER/main_01aa.c **** void puth(dt) int dt;{ if(dt<10) putch(0x30+dt); else putch(0x37+dt); }
 6546              		.loc 1 110 26 discriminator 1 view .LVU1742
 6547              	.LBE2021:
 6548              	.LBE2022:
 6549              	.LBE2012:
 6550              	.LBE2011:
 112:../USER/main_01aa.c **** void puth4(dt) int dt;{ puth2((dt >> 8) & 0xff); puth2(dt & 0xff); }
 6551              		.loc 1 112 48 is_stmt 1 discriminator 1 view .LVU1743
 6552 0654 04F00F01 		and	r1, r4, #15
 6553              	.LVL450:
 6554              	.LBB2023:
 6555              	.LBI2023:
 111:../USER/main_01aa.c **** void puth2(dt) int dt;{ puth((dt >> 4) & 0xf); puth(dt & 0xf); }
 6556              		.loc 1 111 6 discriminator 1 view .LVU1744
 6557              	.LBB2024:
 111:../USER/main_01aa.c **** void puth2(dt) int dt;{ puth((dt >> 4) & 0xf); puth(dt & 0xf); }
 6558              		.loc 1 111 24 discriminator 1 view .LVU1745
 111:../USER/main_01aa.c **** void puth2(dt) int dt;{ puth((dt >> 4) & 0xf); puth(dt & 0xf); }
 6559              		.loc 1 111 26 is_stmt 0 discriminator 1 view .LVU1746
 6560 0658 0929     		cmp	r1, #9
 6561 065a 7FF69FAD 		bls	.L329
 6562              	.LVL451:
 6563              	.L225:
 111:../USER/main_01aa.c **** void puth2(dt) int dt;{ puth((dt >> 4) & 0xf); puth(dt & 0xf); }
 6564              		.loc 1 111 26 discriminator 1 view .LVU1747
 6565              	.LBE2024:
 6566              	.LBE2023:
 6567              	.LBE2010:
 6568              	.LBE2009:
 6569              	.LBB2025:
 6570              	.LBB1497:
 6571              	.LBB1496:
 6572              	.LBB1495:
 6573              	.LBB1494:
 6574              	.LBB1493:
 111:../USER/main_01aa.c **** void puth2(dt) int dt;{ puth((dt >> 4) & 0xf); puth(dt & 0xf); }
 6575              		.loc 1 111 55 is_stmt 1 view .LVU1748
 6576              	.LBB1491:
 6577              	.LBI1491:
 110:../USER/main_01aa.c **** void puth(dt) int dt;{ if(dt<10) putch(0x30+dt); else putch(0x37+dt); }
 6578              		.loc 1 110 6 view .LVU1749
 6579              	.LBB1492:
 110:../USER/main_01aa.c **** void puth(dt) int dt;{ if(dt<10) putch(0x30+dt); else putch(0x37+dt); }
 6580              		.loc 1 110 26 view .LVU1750
 6581 065e 3731     		adds	r1, r1, #55
 6582              	.LVL452:
 110:../USER/main_01aa.c **** void puth(dt) int dt;{ if(dt<10) putch(0x30+dt); else putch(0x37+dt); }
 6583              		.loc 1 110 26 is_stmt 0 view .LVU1751
 6584 0660 4FF04020 		mov	r0, #1073758208
 6585 0664 FFF7FEFF 		bl	UART_SendChar
 6586              	.LVL453:
 6587 0668 F0E4     		b	.L150
 6588              	.LVL454:
 6589              	.L281:
 110:../USER/main_01aa.c **** void puth(dt) int dt;{ if(dt<10) putch(0x30+dt); else putch(0x37+dt); }
 6590              		.loc 1 110 26 view .LVU1752
 6591              	.LBE1492:
 6592              	.LBE1491:
 6593              	.LBE1493:
 6594              	.LBE1494:
 6595              	.LBE1495:
 6596              	.LBE1496:
 6597              	.LBE1497:
 6598              	.LBE2025:
 172:../USER/main_01aa.c **** 	        for(i=0; i<8; i++){
 6599              		.loc 1 172 26 view .LVU1753
 6600 066a DDF80C80 		ldr	r8, [sp, #12]
 6601 066e D6E6     		b	.L164
 6602              	.LVL455:
 6603              	.L347:
 180:../USER/main_01aa.c **** 			if(*cbp=='G'){ cbp++; dt = getsh(cbpp); GPIO_WriteBits(GPIO0,dt); }
 6604              		.loc 1 180 47 is_stmt 1 view .LVU1754
 6605 0670 FF20     		movs	r0, #255
 6606 0672 FFF7FEFF 		bl	SPI_WriteData
 6607              	.LVL456:
 181:../USER/main_01aa.c **** 	    	break;
 6608              		.loc 1 181 4 view .LVU1755
 6609 0676 E9E4     		b	.L150
 6610              	.LVL457:
 6611              	.L285:
 6612              	.LBB2026:
 6613              	.LBB1431:
 141:../USER/main_01aa.c ****   while(**buf==' ') (*buf)++; /* spip sp*/
 6614              		.loc 1 141 5 is_stmt 0 view .LVU1756
 6615 0678 4FF0FF31 		mov	r1, #-1
 6616              	.LVL458:
 141:../USER/main_01aa.c ****   while(**buf==' ') (*buf)++; /* spip sp*/
 6617              		.loc 1 141 5 view .LVU1757
 6618 067c 57E5     		b	.L206
 6619              	.L352:
 6620 067e 00BF     		.align	2
 6621              	.L351:
 6622 0680 10000000 		.word	.LC2
 6623              	.LBE1431:
 6624              	.LBE2026:
 6625              		.cfi_endproc
 6626              	.LFE51:
 6628              		.section	.bss.vb.6688,"aw",%nobits
 6629              		.align	2
 6630              		.set	.LANCHOR0,. + 0
 6633              	vb.6688:
 6634 0000 00000000 		.space	4
 6635              		.section	.rodata.main.str1.4,"aMS",%progbits,1
 6636              		.align	2
 6637              	.LC0:
 6638 0000 0A4D6F6E 		.ascii	"\012Mon_TN4K\000"
 6638      5F544E34 
 6638      4B00
 6639 000a 0000     		.space	2
 6640              	.LC1:
 6641 000c 0A3E00   		.ascii	"\012>\000"
 6642 000f 00       		.space	1
 6643              	.LC2:
 6644 0010 3F3F0A00 		.ascii	"??\012\000"
 6645              		.text
 6646              	.Letext0:
 6647              		.file 2 "c:\\app\\gowin\\gmd\\toolchain\\arm_toolchain\\arm-none-eabi\\include\\machine\\_default_
 6648              		.file 3 "c:\\app\\gowin\\gmd\\toolchain\\arm_toolchain\\arm-none-eabi\\include\\sys\\_stdint.h"
 6649              		.file 4 "C:\\kitaprg\\GMD_RefDesign\\cm3_mon\\CORE/core_cm3.h"
 6650              		.file 5 "C:\\kitaprg\\GMD_RefDesign\\cm3_mon\\SYSTEM/system_gw1ns4c.h"
 6651              		.file 6 "C:\\kitaprg\\GMD_RefDesign\\cm3_mon\\SYSTEM/gw1ns4c.h"
 6652              		.file 7 "C:\\kitaprg\\GMD_RefDesign\\cm3_mon\\PERIPHERAL\\Includes/gw1ns4c_gpio.h"
 6653              		.file 8 "C:\\kitaprg\\GMD_RefDesign\\cm3_mon\\PERIPHERAL\\Includes/gw1ns4c_uart.h"
 6654              		.file 9 "C:\\kitaprg\\GMD_RefDesign\\cm3_mon\\PERIPHERAL\\Includes/gw1ns4c_spi.h"
 6655              		.file 10 "c:\\app\\gowin\\gmd\\toolchain\\arm_toolchain\\lib\\gcc\\arm-none-eabi\\8.3.1\\include\\
 6656              		.file 11 "c:\\app\\gowin\\gmd\\toolchain\\arm_toolchain\\arm-none-eabi\\include\\sys\\_types.h"
 6657              		.file 12 "c:\\app\\gowin\\gmd\\toolchain\\arm_toolchain\\arm-none-eabi\\include\\sys\\reent.h"
 6658              		.file 13 "c:\\app\\gowin\\gmd\\toolchain\\arm_toolchain\\arm-none-eabi\\include\\sys\\lock.h"
 6659              		.file 14 "c:\\app\\gowin\\gmd\\toolchain\\arm_toolchain\\arm-none-eabi\\include\\stdlib.h"
DEFINED SYMBOLS
                            *ABS*:00000000 main_01aa.c
d:\wintmp\ccQI6DOa.s:16     .text:00000000 add3_embasm
d:\wintmp\ccQI6DOa.s:17     .text:00000000 $t
d:\wintmp\ccQI6DOa.s:23     .text.GPIOInit:00000000 $t
d:\wintmp\ccQI6DOa.s:32     .text.GPIOInit:00000000 GPIOInit
d:\wintmp\ccQI6DOa.s:85     .text.GPIOInit:00000024 $d
d:\wintmp\ccQI6DOa.s:90     .text.UartInit:00000000 $t
d:\wintmp\ccQI6DOa.s:98     .text.UartInit:00000000 UartInit
d:\wintmp\ccQI6DOa.s:148    .text.SPIInit:00000000 $t
d:\wintmp\ccQI6DOa.s:156    .text.SPIInit:00000000 SPIInit
d:\wintmp\ccQI6DOa.s:191    .text.delay_ms:00000000 $t
d:\wintmp\ccQI6DOa.s:199    .text.delay_ms:00000000 delay_ms
d:\wintmp\ccQI6DOa.s:249    .text.delay_ms:00000028 $d
d:\wintmp\ccQI6DOa.s:254    .text.c2asm:00000000 $t
d:\wintmp\ccQI6DOa.s:262    .text.c2asm:00000000 c2asm
d:\wintmp\ccQI6DOa.s:293    .text.c2asm:0000000c $d
d:\wintmp\ccQI6DOa.s:298    .text.setsup:00000000 $t
d:\wintmp\ccQI6DOa.s:306    .text.setsup:00000000 setsup
d:\wintmp\ccQI6DOa.s:359    .text.getchuart:00000000 $t
d:\wintmp\ccQI6DOa.s:367    .text.getchuart:00000000 getchuart
d:\wintmp\ccQI6DOa.s:383    .text.putchuart:00000000 $t
d:\wintmp\ccQI6DOa.s:391    .text.putchuart:00000000 putchuart
d:\wintmp\ccQI6DOa.s:410    .text.puth:00000000 $t
d:\wintmp\ccQI6DOa.s:418    .text.puth:00000000 puth
d:\wintmp\ccQI6DOa.s:490    .text.puth2:00000000 $t
d:\wintmp\ccQI6DOa.s:498    .text.puth2:00000000 puth2
d:\wintmp\ccQI6DOa.s:669    .text.puth4:00000000 $t
d:\wintmp\ccQI6DOa.s:677    .text.puth4:00000000 puth4
d:\wintmp\ccQI6DOa.s:1001   .text.puth6:00000000 $t
d:\wintmp\ccQI6DOa.s:1009   .text.puth6:00000000 puth6
d:\wintmp\ccQI6DOa.s:1500   .text.puth8:00000000 $t
d:\wintmp\ccQI6DOa.s:1508   .text.puth8:00000000 puth8
d:\wintmp\ccQI6DOa.s:2149   .text.putsuart:00000000 $t
d:\wintmp\ccQI6DOa.s:2157   .text.putsuart:00000000 putsuart
d:\wintmp\ccQI6DOa.s:2211   .text.getsuart:00000000 $t
d:\wintmp\ccQI6DOa.s:2219   .text.getsuart:00000000 getsuart
d:\wintmp\ccQI6DOa.s:2284   .text.ishex:00000000 $t
d:\wintmp\ccQI6DOa.s:2292   .text.ishex:00000000 ishex
d:\wintmp\ccQI6DOa.s:2337   .text.getssu:00000000 $t
d:\wintmp\ccQI6DOa.s:2345   .text.getssu:00000000 getssu
d:\wintmp\ccQI6DOa.s:2473   .text.putadrhd:00000000 $t
d:\wintmp\ccQI6DOa.s:2481   .text.putadrhd:00000000 putadrhd
d:\wintmp\ccQI6DOa.s:3139   .text.getsh:00000000 $t
d:\wintmp\ccQI6DOa.s:3147   .text.getsh:00000000 getsh
d:\wintmp\ccQI6DOa.s:3289   .text.startup.main:00000000 $t
d:\wintmp\ccQI6DOa.s:3297   .text.startup.main:00000000 main
d:\wintmp\ccQI6DOa.s:3548   .text.startup.main:000000b2 $d
d:\wintmp\ccQI6DOa.s:3568   .text.startup.main:000000da $t
d:\wintmp\ccQI6DOa.s:4030   .text.startup.main:000001d0 $d
d:\wintmp\ccQI6DOa.s:4038   .text.startup.main:000001dc $t
d:\wintmp\ccQI6DOa.s:6622   .text.startup.main:00000680 $d
d:\wintmp\ccQI6DOa.s:6629   .bss.vb.6688:00000000 $d
d:\wintmp\ccQI6DOa.s:6633   .bss.vb.6688:00000000 vb.6688
d:\wintmp\ccQI6DOa.s:6636   .rodata.main.str1.4:00000000 $d
                           .group:00000000 wm4.0.881e6aea30f26d002fa34da4862e4bcf
                           .group:00000000 wm4.gw1ns4c.h.42.b574272a1988cda7506b1103a6ee000e
                           .group:00000000 wm4.core_cm3.h.25.d35e9a9b04ec4aaebae9bf79fff061f9
                           .group:00000000 wm4._newlib_version.h.4.9ba035841e762c3308916a0ce96032e7
                           .group:00000000 wm4.features.h.33.318b64d71e0957639cfb30f1db1f7ec8
                           .group:00000000 wm4._default_types.h.15.247e5cd201eca3442cbf5404108c4935
                           .group:00000000 wm4._intsup.h.10.48bafbb683905c4daa4565a85aeeb264
                           .group:00000000 wm4._stdint.h.10.c24fa3af3bc1706662bb5593a907e841
                           .group:00000000 wm4.stdint.h.23.d53047a68f4a85177f80b422d52785ed
                           .group:00000000 wm4.core_cm3.h.113.418486a6827cd861c086288012ae5e2b
                           .group:00000000 wm4.gw1ns4c.h.318.1c2396dae4397f7395410f9554aa71af
                           .group:00000000 wm4.gw1ns4c_gpio.h.80.0c581660eee051be7914b6ea1f39cc1a
                           .group:00000000 wm4.gw1ns4c_wdog.h.16.8a3a0f1d8c60adc0580b7852c78f55c8
                           .group:00000000 wm4.gw1ns4c_uart.h.16.3be05e6b03c62d460c8c05b141d1c023
                           .group:00000000 wm4.gw1ns4c_timer.h.16.f5209a1e64a528f95e8d85c71081528f
                           .group:00000000 wm4.gw1ns4c_spi.h.16.810014cb7f012daf88d29d7d2b7aba9e
                           .group:00000000 wm4.gw1ns4c_i2c.h.16.05421c18011a5a09c18d5f4cc6da69a8
                           .group:00000000 wm4.gw1ns4c_misc.h.16.65dc2339a60ecdd9b90897e72d3b061a
                           .group:00000000 wm4.gw1ns4c_syscon.h.16.40f8fc44d5bd6529877ce8d20de4e3a1
                           .group:00000000 wm4.newlib.h.8.f6e543eac3f2f65163ba2ffe3b04987b
                           .group:00000000 wm4.ieeefp.h.77.5499ed899a78229fbaf6d102924f4714
                           .group:00000000 wm4.config.h.224.c701144a7b0518c6ee9b9b5465b79f81
                           .group:00000000 wm4._ansi.h.31.de524f58584151836e90d8620a16f8e8
                           .group:00000000 wm4.stdio.h.31.7c0e28c411445f3f9c5b11accf882760
                           .group:00000000 wm4.stddef.h.187.2ff233552538c6ff9b8575ca8ea52cb3
                           .group:00000000 wm4.cdefs.h.49.6260d97adb8d27534cbdc0f868b8ea87
                           .group:00000000 wm4.stddef.h.39.ec95e8feac892e292b69dc7ae75b0d64
                           .group:00000000 wm4.stdarg.h.34.3a23a216c0c293b3d2ea2e89281481e6
                           .group:00000000 wm4._types.h.20.dd0d04dca3800a0d2a6129b87f3adbb2
                           .group:00000000 wm4.stddef.h.161.5349cb105733e8777bfb0cf53c4e3f34
                           .group:00000000 wm4._types.h.127.34941de1b2539d59d5cac00e0dd27a45
                           .group:00000000 wm4.reent.h.17.e292bf8b0bec6c96e131a54347145a30
                           .group:00000000 wm4.lock.h.2.1461d1fff82dffe8bfddc23307f6484f
                           .group:00000000 wm4.reent.h.77.dcd6129ff07fe81bd5636db29abe53b2
                           .group:00000000 wm4.types.h.40.8b6acba56cefbb11746718204edc8f5e
                           .group:00000000 wm4._endian.h.31.65a10590763c3dde1ac4a7f66d7d4891
                           .group:00000000 wm4.endian.h.9.49f3a4695c1b61e8a0808de3c4a106cb
                           .group:00000000 wm4._timeval.h.30.0e8bfd94e85db17dda3286ee81496fe6
                           .group:00000000 wm4.timespec.h.41.d855182eb0e690443ab8651bcedca6e1
                           .group:00000000 wm4.select.h.19.97ca6fd0c752a0f3b6719fd314d361e6
                           .group:00000000 wm4.types.h.51.5571ec98f267d17d3c670b7a3ba33afa
                           .group:00000000 wm4.sched.h.22.c60982713a5c428609783c78f9c78d95
                           .group:00000000 wm4._pthreadtypes.h.36.fcee9961c35163dde6267ef772ad1972
                           .group:00000000 wm4.stdio.h.2.4aa87247282eca6c8f36f9de33d8df1a
                           .group:00000000 wm4.stdio.h.81.932d0c162786b883f622b8d05c120c78
                           .group:00000000 wm4.stdlib.h.13.4ed386f5c1a80d71e72172885d946ef2
                           .group:00000000 wm4.stddef.h.161.19e15733342b50ead2919490b095303e
                           .group:00000000 wm4.alloca.h.8.dfc0c703c47ec3e69746825b17d9e66d
                           .group:00000000 wm4.stdlib.h.56.f4862cfbf4363a1db01842d5bdf72c18
                           .group:00000000 wm4.string.h.8.c4b8571ce60dff2817f43fec8b86aecd

UNDEFINED SYMBOLS
GPIO_Init
GPIO_SetBit
UART_Init
SPI_Init
SystemCoreClock
UART_ReceiveChar
UART_SendChar
SystemInit
GPIO_ResetBit
GPIO_WriteBits
GPIO_ReadBits
SPI_WriteData
SPI_ReadData
