   1              		.cpu cortex-m3
   2              		.eabi_attribute 20, 1
   3              		.eabi_attribute 21, 1
   4              		.eabi_attribute 23, 3
   5              		.eabi_attribute 24, 1
   6              		.eabi_attribute 25, 1
   7              		.eabi_attribute 26, 1
   8              		.eabi_attribute 30, 2
   9              		.eabi_attribute 34, 1
  10              		.eabi_attribute 18, 4
  11              		.file	"main.c"
  12              		.text
  13              	.Ltext0:
  14              		.cfi_sections	.debug_frame
  15              		.section	.text.getsh.part.0,"ax",%progbits
  16              		.align	1
  17              		.p2align 2,,3
  18              		.arch armv7-m
  19              		.syntax unified
  20              		.thumb
  21              		.thumb_func
  22              		.fpu softvfp
  24              	getsh.part.0:
  25              	.LVL0:
  26              	.LFB53:
  27              		.file 1 "../USER/main.c"
   1:../USER/main.c **** 
   2:../USER/main.c **** /*
   3:../USER/main.c ****  * *****************************************************************************************
   4:../USER/main.c ****  *
   5:../USER/main.c ****  * 		Copyright (C) 2014-2021 Gowin Semiconductor Technology Co.,Ltd.
   6:../USER/main.c ****  * 		
   7:../USER/main.c ****  * @file			main.c
   8:../USER/main.c ****  * @author		Embedded Development Team
   9:../USER/main.c ****  * @version		V1.x.x
  10:../USER/main.c ****  * @date			2021-01-01 09:00:00
  11:../USER/main.c ****  * @brief			Main program body.
  12:../USER/main.c ****  ******************************************************************************************
  13:../USER/main.c ****  */
  14:../USER/main.c **** 
  15:../USER/main.c **** /* Includes ------------------------------------------------------------------*/
  16:../USER/main.c **** #include "gw1ns4c.h"
  17:../USER/main.c **** //#include "GOWIN_M3.h"
  18:../USER/main.c **** #include "gw1ns4c_uart.h"
  19:../USER/main.c **** 
  20:../USER/main.c **** #include <stdio.h>
  21:../USER/main.c **** #include <stdlib.h>
  22:../USER/main.c **** #include <string.h>
  23:../USER/main.c **** /* Declarations ------------------------------------------------------------------*/
  24:../USER/main.c **** void delay_ms(__IO uint32_t delay_ms);
  25:../USER/main.c **** void GPIOInit(uint32_t pin);
  26:../USER/main.c **** void UartInit(void);
  27:../USER/main.c **** //
  28:../USER/main.c **** void get_vram(int adry, int adrx);
  29:../USER/main.c **** void set_vram(int adry, int adrx);
  30:../USER/main.c **** void set_char(int adry, int adrx, int ptn, int ccd);
  31:../USER/main.c **** void set_vramm(int adry, int adrx, int ptn, int mask, int loopy, int loopx);
  32:../USER/main.c **** void dispfull(int adry, int adrx, int ptn, int ccd, int len);
  33:../USER/main.c **** void move_vram(int sadr, int dadr, int dlen, int mode);
  34:../USER/main.c **** void dispscroll(int adry, int adrx);
  35:../USER/main.c **** int  disp_vram(char chd);
  36:../USER/main.c **** void pset(int xp, int yp, int ptn);
  37:../USER/main.c **** int pget(int xp, int yp);
  38:../USER/main.c **** void basic();
  39:../USER/main.c **** 
  40:../USER/main.c **** #define u16 unsigned short
  41:../USER/main.c **** void DLine(u16 x1, u16 y1, u16 x2, u16 y2, u16 ptn);
  42:../USER/main.c **** void DCircle(u16 x0,u16 y0,u16 r,u16 ptn);
  43:../USER/main.c **** void DPaint(int xp, int yp, int ptn);
  44:../USER/main.c **** 
  45:../USER/main.c **** extern union wddt_t {
  46:../USER/main.c **** 	unsigned char b[37];
  47:../USER/main.c **** 	short         s[18];
  48:../USER/main.c **** 	unsigned int  i[9];
  49:../USER/main.c **** } wddt;
  50:../USER/main.c **** //extern wddt_t wddt;
  51:../USER/main.c **** /* Functions ------------------------------------------------------------------*/
  52:../USER/main.c **** //Initializes GPIO
  53:../USER/main.c **** void GPIOInit(uint32_t pin)
  54:../USER/main.c **** {
  55:../USER/main.c **** 	GPIO_InitTypeDef GPIO_InitType;
  56:../USER/main.c **** 	GPIO_InitType.GPIO_Pin = pin;
  57:../USER/main.c **** 	GPIO_InitType.GPIO_Mode = GPIO_Mode_OUT;
  58:../USER/main.c **** 	GPIO_InitType.GPIO_Int = GPIO_Int_Disable;
  59:../USER/main.c **** 	GPIO_Init(GPIO0,&GPIO_InitType);
  60:../USER/main.c ****   GPIO_SetBit(GPIO0,pin);
  61:../USER/main.c **** }
  62:../USER/main.c **** 
  63:../USER/main.c **** void UartInit(void)
  64:../USER/main.c **** {
  65:../USER/main.c ****   UART_InitTypeDef UART_InitStruct;
  66:../USER/main.c **** 
  67:../USER/main.c ****   UART_InitStruct.UART_Mode.UARTMode_Tx = ENABLE;
  68:../USER/main.c ****   UART_InitStruct.UART_Mode.UARTMode_Rx = ENABLE;
  69:../USER/main.c ****   UART_InitStruct.UART_Int.UARTInt_Tx = DISABLE;
  70:../USER/main.c ****   UART_InitStruct.UART_Int.UARTInt_Rx = DISABLE;
  71:../USER/main.c ****   UART_InitStruct.UART_Ovr.UARTOvr_Tx = DISABLE;
  72:../USER/main.c ****   UART_InitStruct.UART_Ovr.UARTOvr_Rx = DISABLE;
  73:../USER/main.c ****   UART_InitStruct.UART_Hstm = DISABLE;
  74:../USER/main.c ****   UART_InitStruct.UART_BaudRate = 115200*80/72;//Baud Rate
  75:../USER/main.c ****   UART_Init(UART0,&UART_InitStruct);
  76:../USER/main.c **** }
  77:../USER/main.c **** 
  78:../USER/main.c **** //Initializes SPI
  79:../USER/main.c **** void SPIInit(void)
  80:../USER/main.c **** {
  81:../USER/main.c **** 	SPI_InitTypeDef init_spi;
  82:../USER/main.c ****   init_spi.CLKSEL= CLKSEL_CLK_DIV_4;		//80MHZ / 8
  83:../USER/main.c ****   init_spi.DIRECTION = DISABLE;					//MSB First
  84:../USER/main.c ****   init_spi.PHASE =DISABLE;							//ENABLE;//posedge
  85:../USER/main.c ****   init_spi.POLARITY =DISABLE;						//polarity 0
  86:../USER/main.c ****   SPI_Init(&init_spi);
  87:../USER/main.c **** }
  88:../USER/main.c **** //delay ms
  89:../USER/main.c **** void delay_ms(__IO uint32_t delay_ms) {
  90:../USER/main.c **** 	for(delay_ms=(SystemCoreClock>>13)*delay_ms; delay_ms != 0; delay_ms--);
  91:../USER/main.c **** }
  92:../USER/main.c **** 
  93:../USER/main.c **** int mdgpio, mdgpioi;
  94:../USER/main.c **** void check_gpio(){
  95:../USER/main.c **** 	int i;
  96:../USER/main.c **** 	mdgpio = GPIO_ReadBits(GPIO0);	// ukey2 = bit13
  97:../USER/main.c **** 	mdgpioi = mdgpio; mdgpio = mdgpio & 0xdfff;		// bit13.clear
  98:../USER/main.c **** 	for(i=0;i<2;i++){
  99:../USER/main.c **** 		GPIO_WriteBits(GPIO0,0x03); delay_ms(50);
 100:../USER/main.c **** 		GPIO_WriteBits(GPIO0,0x00); delay_ms(50);
 101:../USER/main.c **** 	}
 102:../USER/main.c **** }
 103:../USER/main.c **** 
 104:../USER/main.c **** #define getch getch_uart
 105:../USER/main.c **** #define putch putch_uart
 106:../USER/main.c **** #define gets  getsuart
 107:../USER/main.c **** #define puts  putsuart
 108:../USER/main.c **** void setsup(buf) char *buf;{
 109:../USER/main.c ****   while(*buf!=0x0d){
 110:../USER/main.c ****    if( *buf>='a' && *buf<='z') *buf = *buf - 0x20;
 111:../USER/main.c ****    buf++;
 112:../USER/main.c ****   }
 113:../USER/main.c **** }
 114:../USER/main.c **** char kinbuf[256];
 115:../USER/main.c **** int kinbwp =0, kinbrp = 0;
 116:../USER/main.c **** void key_check() {
 117:../USER/main.c **** 	char ch;
 118:../USER/main.c **** 	//
 119:../USER/main.c **** 	ch = SPI_ReadData();
 120:../USER/main.c **** 	if(ch!=0) kinbuf[kinbwp++] = ch;
 121:../USER/main.c **** 	if(kinbwp>=256) kinbwp = 0;
 122:../USER/main.c **** 	//
 123:../USER/main.c **** 	if((UART0->STATE & UART_STATE_RXBF)) kinbuf[kinbwp++] = UART0->DATA;
 124:../USER/main.c **** 	if(kinbwp>=256) kinbwp = 0;
 125:../USER/main.c **** 	//
 126:../USER/main.c **** }
 127:../USER/main.c **** char getch_uart(void){
 128:../USER/main.c **** 	char dt;
 129:../USER/main.c **** 	while(kinbrp==kinbwp) key_check();
 130:../USER/main.c **** 	dt = kinbuf[kinbrp++];
 131:../USER/main.c **** 	if(kinbrp>=256) kinbrp = 0;
 132:../USER/main.c **** 	return dt;
 133:../USER/main.c **** }
 134:../USER/main.c **** void putch_uart(char ch){
 135:../USER/main.c **** 	volatile uint32_t gpiord;
 136:../USER/main.c **** 	if((mdgpio & 0x2000)==0)
 137:../USER/main.c **** 		UART_SendChar(UART0,ch);
 138:../USER/main.c **** 	else {
 139:../USER/main.c **** 		gpiord = 0x4000;
 140:../USER/main.c **** 		while((gpiord & 0x4000)!=0) {
 141:../USER/main.c **** 			key_check();
 142:../USER/main.c **** 			gpiord = GPIO_ReadBits(GPIO0);
 143:../USER/main.c **** 		}
 144:../USER/main.c **** 		SPI_WriteData(ch);
 145:../USER/main.c **** 	}
 146:../USER/main.c **** 	//
 147:../USER/main.c **** 	int rc;	do{ key_check(); rc = disp_vram(ch); } while(rc!=0);	// VRam Display
 148:../USER/main.c **** }
 149:../USER/main.c **** 
 150:../USER/main.c **** void puth(dt) int dt;{ if(dt<10) putch(0x30+dt); else putch(0x37+dt); }
 151:../USER/main.c **** void puth2(dt) int dt;{ puth((dt >> 4) & 0xf); puth(dt & 0xf); }
 152:../USER/main.c **** void puth4(dt) int dt;{ puth2((dt >> 8) & 0xff); puth2(dt & 0xff); }
 153:../USER/main.c **** void puth6(dt) long dt;{ int dh,dl; dh = dt >> 16; dl = dt & 0xffff; puth2(dh); puth4(dl); }
 154:../USER/main.c **** void puth8(dt) long dt;{ int dh,dl; dh = dt >> 16; dl = dt & 0xffff; puth4(dh); puth4(dl); }
 155:../USER/main.c **** void putsuart(char *buf){
 156:../USER/main.c **** 	while(1){
 157:../USER/main.c **** 		if(*buf==0) break;
 158:../USER/main.c **** 		else        putch(*buf++);
 159:../USER/main.c **** 	}
 160:../USER/main.c **** }
 161:../USER/main.c **** void getsuart(char *buf){
 162:../USER/main.c **** 	char ch;
 163:../USER/main.c **** 	while(1){
 164:../USER/main.c **** 		ch = getch(); putch(ch); *buf++ = ch;
 165:../USER/main.c **** 		if(ch==0x0d) break;
 166:../USER/main.c **** 	}
 167:../USER/main.c **** }
 168:../USER/main.c **** int ishex(ch) char ch;{
 169:../USER/main.c ****   int hd;
 170:../USER/main.c ****   if(ch>='0' && ch<='9') hd = ch - 0x30;
 171:../USER/main.c ****   else if(ch>='A' && ch<='F') hd = ch - 0x37;
 172:../USER/main.c ****   else hd = -1;
 173:../USER/main.c ****   return hd;
 174:../USER/main.c **** }
 175:../USER/main.c **** void getssu(cbuf) char *cbuf;{ gets(cbuf); setsup(cbuf);}
 176:../USER/main.c **** void putadrhd(adr) long adr;{puts("\r\n"); puth8(adr); putch(':');}
 177:../USER/main.c **** 
 178:../USER/main.c **** long getsh(buf) char **buf;{
  28              		.loc 1 178 6 view -0
  29              		.cfi_startproc
  30              		@ args = 0, pretend = 0, frame = 0
  31              		@ frame_needed = 0, uses_anonymous_args = 0
  32              		@ link register save eliminated.
  33              		.loc 1 178 6 is_stmt 0 view .LVU1
  34 0000 30B4     		push	{r4, r5}
  35              		.cfi_def_cfa_offset 8
  36              		.cfi_offset 4, -8
  37              		.cfi_offset 5, -4
 179:../USER/main.c ****   long num = 0; int hd;
 180:../USER/main.c ****   if(**buf==0x0d) return -1;
 181:../USER/main.c ****   while(**buf==' ') (*buf)++; /* spip sp*/
  38              		.loc 1 181 10 view .LVU2
  39 0002 0268     		ldr	r2, [r0]
 178:../USER/main.c ****   long num = 0; int hd;
  40              		.loc 1 178 6 view .LVU3
  41 0004 0546     		mov	r5, r0
  42              		.loc 1 181 9 view .LVU4
  43 0006 92F90030 		ldrsb	r3, [r2]
  44              		.loc 1 181 8 view .LVU5
  45 000a 202B     		cmp	r3, #32
  46 000c 05D1     		bne	.L2
  47              	.L3:
  48              		.loc 1 181 21 is_stmt 1 view .LVU6
  49              		.loc 1 181 27 is_stmt 0 view .LVU7
  50 000e 0132     		adds	r2, r2, #1
  51 0010 2A60     		str	r2, [r5]
  52              		.loc 1 181 9 view .LVU8
  53 0012 92F90030 		ldrsb	r3, [r2]
  54              		.loc 1 181 8 view .LVU9
  55 0016 202B     		cmp	r3, #32
  56 0018 F9D0     		beq	.L3
  57              	.L2:
 179:../USER/main.c ****   long num = 0; int hd;
  58              		.loc 1 179 8 view .LVU10
  59 001a 0020     		movs	r0, #0
  60              	.LVL1:
 179:../USER/main.c ****   long num = 0; int hd;
  61              		.loc 1 179 8 view .LVU11
  62 001c 08E0     		b	.L4
  63              	.LVL2:
  64              	.L13:
  65              	.LBB115:
  66              	.LBB116:
 170:../USER/main.c ****   else if(ch>='A' && ch<='F') hd = ch - 0x37;
  67              		.loc 1 170 29 view .LVU12
  68 001e 303B     		subs	r3, r3, #48
  69              	.LVL3:
 170:../USER/main.c ****   else if(ch>='A' && ch<='F') hd = ch - 0x37;
  70              		.loc 1 170 29 view .LVU13
  71              	.LBE116:
  72              	.LBE115:
 182:../USER/main.c ****   while( (hd=ishex(**buf)) != -1){ num = num * 16 + hd; (*buf)++; }
  73              		.loc 1 182 36 is_stmt 1 view .LVU14
  74              	.LBB120:
  75              	.LBB117:
 173:../USER/main.c **** }
  76              		.loc 1 173 3 view .LVU15
 173:../USER/main.c **** }
  77              		.loc 1 173 3 is_stmt 0 view .LVU16
  78              	.LBE117:
  79              	.LBE120:
  80              		.loc 1 182 8 view .LVU17
  81 0020 591C     		adds	r1, r3, #1
  82 0022 11D0     		beq	.L1
  83              	.L8:
  84              		.loc 1 182 63 view .LVU18
  85 0024 0132     		adds	r2, r2, #1
  86 0026 2A60     		str	r2, [r5]
  87              		.loc 1 182 40 view .LVU19
  88 0028 03EB0010 		add	r0, r3, r0, lsl #4
  89              	.LVL4:
  90              		.loc 1 182 57 is_stmt 1 view .LVU20
  91 002c 92F90030 		ldrsb	r3, [r2]
  92              	.LVL5:
  93              	.L4:
  94              	.LBB121:
  95              	.LBI115:
 168:../USER/main.c ****   int hd;
  96              		.loc 1 168 5 view .LVU21
  97              	.LBB118:
 169:../USER/main.c ****   if(ch>='0' && ch<='9') hd = ch - 0x30;
  98              		.loc 1 169 3 view .LVU22
 170:../USER/main.c ****   else if(ch>='A' && ch<='F') hd = ch - 0x37;
  99              		.loc 1 170 3 view .LVU23
 170:../USER/main.c ****   else if(ch>='A' && ch<='F') hd = ch - 0x37;
 100              		.loc 1 170 26 view .LVU24
 171:../USER/main.c ****   else hd = -1;
 101              		.loc 1 171 8 view .LVU25
 171:../USER/main.c ****   else hd = -1;
 102              		.loc 1 171 31 view .LVU26
 170:../USER/main.c ****   else if(ch>='A' && ch<='F') hd = ch - 0x37;
 103              		.loc 1 170 14 is_stmt 0 view .LVU27
 104 0030 D9B2     		uxtb	r1, r3
 170:../USER/main.c ****   else if(ch>='A' && ch<='F') hd = ch - 0x37;
 105              		.loc 1 170 5 view .LVU28
 106 0032 A1F13004 		sub	r4, r1, #48
 107 0036 092C     		cmp	r4, #9
 171:../USER/main.c ****   else hd = -1;
 108              		.loc 1 171 10 view .LVU29
 109 0038 A1F14101 		sub	r1, r1, #65
 170:../USER/main.c ****   else if(ch>='A' && ch<='F') hd = ch - 0x37;
 110              		.loc 1 170 5 view .LVU30
 111 003c EFD9     		bls	.L13
 171:../USER/main.c ****   else hd = -1;
 112              		.loc 1 171 10 view .LVU31
 113 003e 0529     		cmp	r1, #5
 114 0040 02D8     		bhi	.L1
 171:../USER/main.c ****   else hd = -1;
 115              		.loc 1 171 34 view .LVU32
 116 0042 373B     		subs	r3, r3, #55
 117              	.LVL6:
 171:../USER/main.c ****   else hd = -1;
 118              		.loc 1 171 34 view .LVU33
 119              	.LBE118:
 120              	.LBE121:
 121              		.loc 1 182 36 is_stmt 1 view .LVU34
 122              	.LBB122:
 123              	.LBB119:
 173:../USER/main.c **** }
 124              		.loc 1 173 3 view .LVU35
 173:../USER/main.c **** }
 125              		.loc 1 173 3 is_stmt 0 view .LVU36
 126              	.LBE119:
 127              	.LBE122:
 128              		.loc 1 182 8 view .LVU37
 129 0044 591C     		adds	r1, r3, #1
 130 0046 EDD1     		bne	.L8
 131              	.LVL7:
 132              	.L1:
 183:../USER/main.c ****   return num;
 184:../USER/main.c **** }
 133              		.loc 1 184 1 view .LVU38
 134 0048 30BC     		pop	{r4, r5}
 135              		.cfi_restore 5
 136              		.cfi_restore 4
 137              		.cfi_def_cfa_offset 0
 138              	.LVL8:
 139              		.loc 1 184 1 view .LVU39
 140 004a 7047     		bx	lr
 141              		.cfi_endproc
 142              	.LFE53:
 144              		.section	.text.GPIOInit,"ax",%progbits
 145              		.align	1
 146              		.p2align 2,,3
 147              		.global	GPIOInit
 148              		.syntax unified
 149              		.thumb
 150              		.thumb_func
 151              		.fpu softvfp
 153              	GPIOInit:
 154              	.LVL9:
 155              	.LFB32:
  54:../USER/main.c **** 	GPIO_InitTypeDef GPIO_InitType;
 156              		.loc 1 54 1 is_stmt 1 view -0
 157              		.cfi_startproc
 158              		@ args = 0, pretend = 0, frame = 8
 159              		@ frame_needed = 0, uses_anonymous_args = 0
  55:../USER/main.c **** 	GPIO_InitType.GPIO_Pin = pin;
 160              		.loc 1 55 2 view .LVU41
  56:../USER/main.c **** 	GPIO_InitType.GPIO_Mode = GPIO_Mode_OUT;
 161              		.loc 1 56 2 view .LVU42
  54:../USER/main.c **** 	GPIO_InitTypeDef GPIO_InitType;
 162              		.loc 1 54 1 is_stmt 0 view .LVU43
 163 0000 30B5     		push	{r4, r5, lr}
 164              		.cfi_def_cfa_offset 12
 165              		.cfi_offset 4, -12
 166              		.cfi_offset 5, -8
 167              		.cfi_offset 14, -4
  57:../USER/main.c **** 	GPIO_InitType.GPIO_Int = GPIO_Int_Disable;
 168              		.loc 1 57 26 view .LVU44
 169 0002 0123     		movs	r3, #1
  54:../USER/main.c **** 	GPIO_InitTypeDef GPIO_InitType;
 170              		.loc 1 54 1 view .LVU45
 171 0004 0546     		mov	r5, r0
  59:../USER/main.c ****   GPIO_SetBit(GPIO0,pin);
 172              		.loc 1 59 2 view .LVU46
 173 0006 074C     		ldr	r4, .L16
  54:../USER/main.c **** 	GPIO_InitTypeDef GPIO_InitType;
 174              		.loc 1 54 1 view .LVU47
 175 0008 83B0     		sub	sp, sp, #12
 176              		.cfi_def_cfa_offset 24
  59:../USER/main.c ****   GPIO_SetBit(GPIO0,pin);
 177              		.loc 1 59 2 view .LVU48
 178 000a 6946     		mov	r1, sp
 179 000c 2046     		mov	r0, r4
 180              	.LVL10:
  57:../USER/main.c **** 	GPIO_InitType.GPIO_Int = GPIO_Int_Disable;
 181              		.loc 1 57 26 view .LVU49
 182 000e ADF80430 		strh	r3, [sp, #4]	@ movhi
  56:../USER/main.c **** 	GPIO_InitType.GPIO_Mode = GPIO_Mode_OUT;
 183              		.loc 1 56 25 view .LVU50
 184 0012 0095     		str	r5, [sp]
  57:../USER/main.c **** 	GPIO_InitType.GPIO_Int = GPIO_Int_Disable;
 185              		.loc 1 57 2 is_stmt 1 view .LVU51
  58:../USER/main.c **** 	GPIO_Init(GPIO0,&GPIO_InitType);
 186              		.loc 1 58 2 view .LVU52
  59:../USER/main.c ****   GPIO_SetBit(GPIO0,pin);
 187              		.loc 1 59 2 view .LVU53
 188 0014 FFF7FEFF 		bl	GPIO_Init
 189              	.LVL11:
  60:../USER/main.c **** }
 190              		.loc 1 60 3 view .LVU54
 191 0018 2946     		mov	r1, r5
 192 001a 2046     		mov	r0, r4
 193 001c FFF7FEFF 		bl	GPIO_SetBit
 194              	.LVL12:
  61:../USER/main.c **** 
 195              		.loc 1 61 1 is_stmt 0 view .LVU55
 196 0020 03B0     		add	sp, sp, #12
 197              		.cfi_def_cfa_offset 12
 198              		@ sp needed
 199 0022 30BD     		pop	{r4, r5, pc}
 200              	.LVL13:
 201              	.L17:
  61:../USER/main.c **** 
 202              		.loc 1 61 1 view .LVU56
 203              		.align	2
 204              	.L16:
 205 0024 00000140 		.word	1073807360
 206              		.cfi_endproc
 207              	.LFE32:
 209              		.section	.text.UartInit,"ax",%progbits
 210              		.align	1
 211              		.p2align 2,,3
 212              		.global	UartInit
 213              		.syntax unified
 214              		.thumb
 215              		.thumb_func
 216              		.fpu softvfp
 218              	UartInit:
 219              	.LFB33:
  64:../USER/main.c ****   UART_InitTypeDef UART_InitStruct;
 220              		.loc 1 64 1 is_stmt 1 view -0
 221              		.cfi_startproc
 222              		@ args = 0, pretend = 0, frame = 16
 223              		@ frame_needed = 0, uses_anonymous_args = 0
  65:../USER/main.c **** 
 224              		.loc 1 65 3 view .LVU58
  67:../USER/main.c ****   UART_InitStruct.UART_Mode.UARTMode_Rx = ENABLE;
 225              		.loc 1 67 3 view .LVU59
  68:../USER/main.c ****   UART_InitStruct.UART_Int.UARTInt_Tx = DISABLE;
 226              		.loc 1 68 3 view .LVU60
  69:../USER/main.c ****   UART_InitStruct.UART_Int.UARTInt_Rx = DISABLE;
 227              		.loc 1 69 3 view .LVU61
  70:../USER/main.c ****   UART_InitStruct.UART_Ovr.UARTOvr_Tx = DISABLE;
 228              		.loc 1 70 3 view .LVU62
  71:../USER/main.c ****   UART_InitStruct.UART_Ovr.UARTOvr_Rx = DISABLE;
 229              		.loc 1 71 3 view .LVU63
  72:../USER/main.c ****   UART_InitStruct.UART_Hstm = DISABLE;
 230              		.loc 1 72 3 view .LVU64
  73:../USER/main.c ****   UART_InitStruct.UART_BaudRate = 115200*80/72;//Baud Rate
 231              		.loc 1 73 3 view .LVU65
  74:../USER/main.c ****   UART_Init(UART0,&UART_InitStruct);
 232              		.loc 1 74 3 view .LVU66
  64:../USER/main.c ****   UART_InitTypeDef UART_InitStruct;
 233              		.loc 1 64 1 is_stmt 0 view .LVU67
 234 0000 10B5     		push	{r4, lr}
 235              		.cfi_def_cfa_offset 8
 236              		.cfi_offset 4, -8
 237              		.cfi_offset 14, -4
  71:../USER/main.c ****   UART_InitStruct.UART_Ovr.UARTOvr_Rx = DISABLE;
 238              		.loc 1 71 39 view .LVU68
 239 0002 0023     		movs	r3, #0
  67:../USER/main.c ****   UART_InitStruct.UART_Mode.UARTMode_Rx = ENABLE;
 240              		.loc 1 67 41 view .LVU69
 241 0004 40F20112 		movw	r2, #257
  74:../USER/main.c ****   UART_Init(UART0,&UART_InitStruct);
 242              		.loc 1 74 33 view .LVU70
 243 0008 4FF4FA34 		mov	r4, #128000
  64:../USER/main.c ****   UART_InitTypeDef UART_InitStruct;
 244              		.loc 1 64 1 view .LVU71
 245 000c 84B0     		sub	sp, sp, #16
 246              		.cfi_def_cfa_offset 24
  75:../USER/main.c **** }
 247              		.loc 1 75 3 view .LVU72
 248 000e 01A9     		add	r1, sp, #4
 249 0010 4FF04020 		mov	r0, #1073758208
  67:../USER/main.c ****   UART_InitStruct.UART_Mode.UARTMode_Rx = ENABLE;
 250              		.loc 1 67 41 view .LVU73
 251 0014 CDE90142 		strd	r4, r2, [sp, #4]
  71:../USER/main.c ****   UART_InitStruct.UART_Ovr.UARTOvr_Rx = DISABLE;
 252              		.loc 1 71 39 view .LVU74
 253 0018 ADF80C30 		strh	r3, [sp, #12]	@ movhi
  73:../USER/main.c ****   UART_InitStruct.UART_BaudRate = 115200*80/72;//Baud Rate
 254              		.loc 1 73 29 view .LVU75
 255 001c 8DF80E30 		strb	r3, [sp, #14]
  75:../USER/main.c **** }
 256              		.loc 1 75 3 is_stmt 1 view .LVU76
 257 0020 FFF7FEFF 		bl	UART_Init
 258              	.LVL14:
  76:../USER/main.c **** 
 259              		.loc 1 76 1 is_stmt 0 view .LVU77
 260 0024 04B0     		add	sp, sp, #16
 261              		.cfi_def_cfa_offset 8
 262              		@ sp needed
 263 0026 10BD     		pop	{r4, pc}
 264              		.cfi_endproc
 265              	.LFE33:
 267              		.section	.text.SPIInit,"ax",%progbits
 268              		.align	1
 269              		.p2align 2,,3
 270              		.global	SPIInit
 271              		.syntax unified
 272              		.thumb
 273              		.thumb_func
 274              		.fpu softvfp
 276              	SPIInit:
 277              	.LFB34:
  80:../USER/main.c **** 	SPI_InitTypeDef init_spi;
 278              		.loc 1 80 1 is_stmt 1 view -0
 279              		.cfi_startproc
 280              		@ args = 0, pretend = 0, frame = 8
 281              		@ frame_needed = 0, uses_anonymous_args = 0
  81:../USER/main.c ****   init_spi.CLKSEL= CLKSEL_CLK_DIV_4;		//80MHZ / 8
 282              		.loc 1 81 2 view .LVU79
  82:../USER/main.c ****   init_spi.DIRECTION = DISABLE;					//MSB First
 283              		.loc 1 82 3 view .LVU80
  83:../USER/main.c ****   init_spi.PHASE =DISABLE;							//ENABLE;//posedge
 284              		.loc 1 83 3 view .LVU81
  84:../USER/main.c ****   init_spi.POLARITY =DISABLE;						//polarity 0
 285              		.loc 1 84 3 view .LVU82
  85:../USER/main.c ****   SPI_Init(&init_spi);
 286              		.loc 1 85 3 view .LVU83
  83:../USER/main.c ****   init_spi.PHASE =DISABLE;							//ENABLE;//posedge
 287              		.loc 1 83 22 is_stmt 0 view .LVU84
 288 0000 4FF08073 		mov	r3, #16777216
  80:../USER/main.c **** 	SPI_InitTypeDef init_spi;
 289              		.loc 1 80 1 view .LVU85
 290 0004 00B5     		push	{lr}
 291              		.cfi_def_cfa_offset 4
 292              		.cfi_offset 14, -4
 293 0006 83B0     		sub	sp, sp, #12
 294              		.cfi_def_cfa_offset 16
  86:../USER/main.c **** }
 295              		.loc 1 86 3 view .LVU86
 296 0008 01A8     		add	r0, sp, #4
  83:../USER/main.c ****   init_spi.PHASE =DISABLE;							//ENABLE;//posedge
 297              		.loc 1 83 22 view .LVU87
 298 000a 0193     		str	r3, [sp, #4]
  86:../USER/main.c **** }
 299              		.loc 1 86 3 is_stmt 1 view .LVU88
 300 000c FFF7FEFF 		bl	SPI_Init
 301              	.LVL15:
  87:../USER/main.c **** //delay ms
 302              		.loc 1 87 1 is_stmt 0 view .LVU89
 303 0010 03B0     		add	sp, sp, #12
 304              		.cfi_def_cfa_offset 4
 305              		@ sp needed
 306 0012 5DF804FB 		ldr	pc, [sp], #4
 307              		.cfi_endproc
 308              	.LFE34:
 310 0016 00BF     		.section	.text.delay_ms,"ax",%progbits
 311              		.align	1
 312              		.p2align 2,,3
 313              		.global	delay_ms
 314              		.syntax unified
 315              		.thumb
 316              		.thumb_func
 317              		.fpu softvfp
 319              	delay_ms:
 320              	.LVL16:
 321              	.LFB35:
  89:../USER/main.c **** 	for(delay_ms=(SystemCoreClock>>13)*delay_ms; delay_ms != 0; delay_ms--);
 322              		.loc 1 89 39 is_stmt 1 view -0
 323              		.cfi_startproc
 324              		@ args = 0, pretend = 0, frame = 8
 325              		@ frame_needed = 0, uses_anonymous_args = 0
 326              		@ link register save eliminated.
  90:../USER/main.c **** }
 327              		.loc 1 90 2 view .LVU91
  90:../USER/main.c **** }
 328              		.loc 1 90 31 is_stmt 0 view .LVU92
 329 0000 094B     		ldr	r3, .L30
  89:../USER/main.c **** 	for(delay_ms=(SystemCoreClock>>13)*delay_ms; delay_ms != 0; delay_ms--);
 330              		.loc 1 89 39 view .LVU93
 331 0002 82B0     		sub	sp, sp, #8
 332              		.cfi_def_cfa_offset 8
  89:../USER/main.c **** 	for(delay_ms=(SystemCoreClock>>13)*delay_ms; delay_ms != 0; delay_ms--);
 333              		.loc 1 89 39 view .LVU94
 334 0004 0190     		str	r0, [sp, #4]
  90:../USER/main.c **** }
 335              		.loc 1 90 31 view .LVU95
 336 0006 1A68     		ldr	r2, [r3]
  90:../USER/main.c **** }
 337              		.loc 1 90 36 view .LVU96
 338 0008 019B     		ldr	r3, [sp, #4]
  90:../USER/main.c **** }
 339              		.loc 1 90 31 view .LVU97
 340 000a 520B     		lsrs	r2, r2, #13
  90:../USER/main.c **** }
 341              		.loc 1 90 36 view .LVU98
 342 000c 03FB02F3 		mul	r3, r3, r2
  90:../USER/main.c **** }
 343              		.loc 1 90 14 view .LVU99
 344 0010 0193     		str	r3, [sp, #4]
  90:../USER/main.c **** }
 345              		.loc 1 90 56 view .LVU100
 346 0012 019B     		ldr	r3, [sp, #4]
  90:../USER/main.c **** }
 347              		.loc 1 90 2 view .LVU101
 348 0014 2BB1     		cbz	r3, .L22
 349              	.L24:
  90:../USER/main.c **** }
 350              		.loc 1 90 73 is_stmt 1 discriminator 3 view .LVU102
  90:../USER/main.c **** }
 351              		.loc 1 90 70 is_stmt 0 discriminator 3 view .LVU103
 352 0016 019B     		ldr	r3, [sp, #4]
 353 0018 013B     		subs	r3, r3, #1
 354 001a 0193     		str	r3, [sp, #4]
  90:../USER/main.c **** }
 355              		.loc 1 90 56 discriminator 3 view .LVU104
 356 001c 019B     		ldr	r3, [sp, #4]
  90:../USER/main.c **** }
 357              		.loc 1 90 2 discriminator 3 view .LVU105
 358 001e 002B     		cmp	r3, #0
 359 0020 F9D1     		bne	.L24
 360              	.L22:
  91:../USER/main.c **** 
 361              		.loc 1 91 1 view .LVU106
 362 0022 02B0     		add	sp, sp, #8
 363              		.cfi_def_cfa_offset 0
 364              		@ sp needed
 365 0024 7047     		bx	lr
 366              	.L31:
 367 0026 00BF     		.align	2
 368              	.L30:
 369 0028 00000000 		.word	SystemCoreClock
 370              		.cfi_endproc
 371              	.LFE35:
 373              		.section	.text.check_gpio,"ax",%progbits
 374              		.align	1
 375              		.p2align 2,,3
 376              		.global	check_gpio
 377              		.syntax unified
 378              		.thumb
 379              		.thumb_func
 380              		.fpu softvfp
 382              	check_gpio:
 383              	.LFB36:
  94:../USER/main.c **** 	int i;
 384              		.loc 1 94 18 is_stmt 1 view -0
 385              		.cfi_startproc
 386              		@ args = 0, pretend = 0, frame = 0
 387              		@ frame_needed = 0, uses_anonymous_args = 0
  95:../USER/main.c **** 	mdgpio = GPIO_ReadBits(GPIO0);	// ukey2 = bit13
 388              		.loc 1 95 2 view .LVU108
  96:../USER/main.c **** 	mdgpioi = mdgpio; mdgpio = mdgpio & 0xdfff;		// bit13.clear
 389              		.loc 1 96 2 view .LVU109
  94:../USER/main.c **** 	int i;
 390              		.loc 1 94 18 is_stmt 0 view .LVU110
 391 0000 70B5     		push	{r4, r5, r6, lr}
 392              		.cfi_def_cfa_offset 16
 393              		.cfi_offset 4, -16
 394              		.cfi_offset 5, -12
 395              		.cfi_offset 6, -8
 396              		.cfi_offset 14, -4
  96:../USER/main.c **** 	mdgpioi = mdgpio; mdgpio = mdgpio & 0xdfff;		// bit13.clear
 397              		.loc 1 96 11 view .LVU111
 398 0002 1548     		ldr	r0, .L48
 399 0004 FFF7FEFF 		bl	GPIO_ReadBits
 400              	.LVL17:
  97:../USER/main.c **** 	for(i=0;i<2;i++){
 401              		.loc 1 97 2 is_stmt 1 view .LVU112
  97:../USER/main.c **** 	for(i=0;i<2;i++){
 402              		.loc 1 97 36 is_stmt 0 view .LVU113
 403 0008 4DF6FF73 		movw	r3, #57343
  97:../USER/main.c **** 	for(i=0;i<2;i++){
 404              		.loc 1 97 27 view .LVU114
 405 000c 0225     		movs	r5, #2
  97:../USER/main.c **** 	for(i=0;i<2;i++){
 406              		.loc 1 97 10 view .LVU115
 407 000e 1349     		ldr	r1, .L48+4
  97:../USER/main.c **** 	for(i=0;i<2;i++){
 408              		.loc 1 97 27 view .LVU116
 409 0010 134A     		ldr	r2, .L48+8
  97:../USER/main.c **** 	for(i=0;i<2;i++){
 410              		.loc 1 97 36 view .LVU117
 411 0012 0340     		ands	r3, r3, r0
 412 0014 134E     		ldr	r6, .L48+12
  99:../USER/main.c **** 		GPIO_WriteBits(GPIO0,0x00); delay_ms(50);
 413              		.loc 1 99 3 view .LVU118
 414 0016 104C     		ldr	r4, .L48
  97:../USER/main.c **** 	for(i=0;i<2;i++){
 415              		.loc 1 97 10 view .LVU119
 416 0018 0860     		str	r0, [r1]
  97:../USER/main.c **** 	for(i=0;i<2;i++){
 417              		.loc 1 97 20 is_stmt 1 view .LVU120
  97:../USER/main.c **** 	for(i=0;i<2;i++){
 418              		.loc 1 97 27 is_stmt 0 view .LVU121
 419 001a 1360     		str	r3, [r2]
  98:../USER/main.c **** 		GPIO_WriteBits(GPIO0,0x03); delay_ms(50);
 420              		.loc 1 98 2 is_stmt 1 view .LVU122
 421              	.LVL18:
 422              	.L37:
  99:../USER/main.c **** 		GPIO_WriteBits(GPIO0,0x00); delay_ms(50);
 423              		.loc 1 99 3 discriminator 3 view .LVU123
 424 001c 0321     		movs	r1, #3
 425 001e 2046     		mov	r0, r4
 426 0020 FFF7FEFF 		bl	GPIO_WriteBits
 427              	.LVL19:
  99:../USER/main.c **** 		GPIO_WriteBits(GPIO0,0x00); delay_ms(50);
 428              		.loc 1 99 31 discriminator 3 view .LVU124
 429 0024 3223     		movs	r3, #50
 430              	.LVL20:
 431              	.LBB123:
 432              	.LBI123:
  89:../USER/main.c **** 	for(delay_ms=(SystemCoreClock>>13)*delay_ms; delay_ms != 0; delay_ms--);
 433              		.loc 1 89 6 discriminator 3 view .LVU125
 434              	.LBB124:
  90:../USER/main.c **** }
 435              		.loc 1 90 2 discriminator 3 view .LVU126
  90:../USER/main.c **** }
 436              		.loc 1 90 31 is_stmt 0 discriminator 3 view .LVU127
 437 0026 3268     		ldr	r2, [r6]
 438 0028 520B     		lsrs	r2, r2, #13
  90:../USER/main.c **** }
 439              		.loc 1 90 36 discriminator 3 view .LVU128
 440 002a 03FB02F3 		mul	r3, r3, r2
  90:../USER/main.c **** }
 441              		.loc 1 90 2 discriminator 3 view .LVU129
 442 002e 0BB1     		cbz	r3, .L33
 443              	.L34:
  90:../USER/main.c **** }
 444              		.loc 1 90 73 is_stmt 1 view .LVU130
  90:../USER/main.c **** }
 445              		.loc 1 90 2 is_stmt 0 view .LVU131
 446 0030 013B     		subs	r3, r3, #1
 447 0032 FDD1     		bne	.L34
 448              	.L33:
 449              	.LVL21:
  90:../USER/main.c **** }
 450              		.loc 1 90 2 view .LVU132
 451              	.LBE124:
 452              	.LBE123:
 100:../USER/main.c **** 	}
 453              		.loc 1 100 3 is_stmt 1 view .LVU133
 454 0034 0021     		movs	r1, #0
 455 0036 2046     		mov	r0, r4
 456 0038 FFF7FEFF 		bl	GPIO_WriteBits
 457              	.LVL22:
 100:../USER/main.c **** 	}
 458              		.loc 1 100 31 view .LVU134
 459 003c 3223     		movs	r3, #50
 460              	.LVL23:
 461              	.LBB125:
 462              	.LBI125:
  89:../USER/main.c **** 	for(delay_ms=(SystemCoreClock>>13)*delay_ms; delay_ms != 0; delay_ms--);
 463              		.loc 1 89 6 view .LVU135
 464              	.LBB126:
  90:../USER/main.c **** }
 465              		.loc 1 90 2 view .LVU136
  90:../USER/main.c **** }
 466              		.loc 1 90 31 is_stmt 0 view .LVU137
 467 003e 3268     		ldr	r2, [r6]
 468 0040 520B     		lsrs	r2, r2, #13
  90:../USER/main.c **** }
 469              		.loc 1 90 36 view .LVU138
 470 0042 03FB02F3 		mul	r3, r3, r2
  90:../USER/main.c **** }
 471              		.loc 1 90 2 view .LVU139
 472 0046 0BB1     		cbz	r3, .L35
 473              	.L36:
  90:../USER/main.c **** }
 474              		.loc 1 90 73 is_stmt 1 view .LVU140
  90:../USER/main.c **** }
 475              		.loc 1 90 2 is_stmt 0 view .LVU141
 476 0048 013B     		subs	r3, r3, #1
 477 004a FDD1     		bne	.L36
 478              	.L35:
 479              	.LVL24:
  90:../USER/main.c **** }
 480              		.loc 1 90 2 view .LVU142
 481              	.LBE126:
 482              	.LBE125:
  98:../USER/main.c **** 		GPIO_WriteBits(GPIO0,0x03); delay_ms(50);
 483              		.loc 1 98 2 view .LVU143
 484 004c 012D     		cmp	r5, #1
 485 004e 00D1     		bne	.L38
 102:../USER/main.c **** 
 486              		.loc 1 102 1 view .LVU144
 487 0050 70BD     		pop	{r4, r5, r6, pc}
 488              	.L38:
 489 0052 0125     		movs	r5, #1
 490 0054 E2E7     		b	.L37
 491              	.L49:
 492 0056 00BF     		.align	2
 493              	.L48:
 494 0058 00000140 		.word	1073807360
 495 005c 00000000 		.word	mdgpioi
 496 0060 00000000 		.word	mdgpio
 497 0064 00000000 		.word	SystemCoreClock
 498              		.cfi_endproc
 499              	.LFE36:
 501              		.section	.text.setsup,"ax",%progbits
 502              		.align	1
 503              		.p2align 2,,3
 504              		.global	setsup
 505              		.syntax unified
 506              		.thumb
 507              		.thumb_func
 508              		.fpu softvfp
 510              	setsup:
 511              	.LVL25:
 512              	.LFB37:
 108:../USER/main.c ****   while(*buf!=0x0d){
 513              		.loc 1 108 28 is_stmt 1 view -0
 514              		.cfi_startproc
 515              		@ args = 0, pretend = 0, frame = 0
 516              		@ frame_needed = 0, uses_anonymous_args = 0
 517              		@ link register save eliminated.
 109:../USER/main.c ****    if( *buf>='a' && *buf<='z') *buf = *buf - 0x20;
 518              		.loc 1 109 3 view .LVU146
 109:../USER/main.c ****    if( *buf>='a' && *buf<='z') *buf = *buf - 0x20;
 519              		.loc 1 109 9 is_stmt 0 view .LVU147
 520 0000 90F90030 		ldrsb	r3, [r0]
 109:../USER/main.c ****    if( *buf>='a' && *buf<='z') *buf = *buf - 0x20;
 521              		.loc 1 109 8 view .LVU148
 522 0004 0D2B     		cmp	r3, #13
 523 0006 0FD0     		beq	.L50
 524              	.LVL26:
 525              	.L54:
 110:../USER/main.c ****    buf++;
 526              		.loc 1 110 4 is_stmt 1 view .LVU149
 110:../USER/main.c ****    buf++;
 527              		.loc 1 110 32 view .LVU150
 111:../USER/main.c ****   }
 528              		.loc 1 111 4 view .LVU151
 110:../USER/main.c ****    buf++;
 529              		.loc 1 110 18 is_stmt 0 view .LVU152
 530 0008 DBB2     		uxtb	r3, r3
 110:../USER/main.c ****    buf++;
 531              		.loc 1 110 44 view .LVU153
 532 000a A3F12002 		sub	r2, r3, #32
 110:../USER/main.c ****    buf++;
 533              		.loc 1 110 6 view .LVU154
 534 000e 613B     		subs	r3, r3, #97
 535 0010 192B     		cmp	r3, #25
 536 0012 05D8     		bhi	.L52
 110:../USER/main.c ****    buf++;
 537              		.loc 1 110 37 discriminator 1 view .LVU155
 538 0014 0270     		strb	r2, [r0]
 111:../USER/main.c ****   }
 539              		.loc 1 111 4 is_stmt 1 discriminator 1 view .LVU156
 109:../USER/main.c ****    if( *buf>='a' && *buf<='z') *buf = *buf - 0x20;
 540              		.loc 1 109 9 is_stmt 0 discriminator 1 view .LVU157
 541 0016 10F9013F 		ldrsb	r3, [r0, #1]!
 542              	.LVL27:
 109:../USER/main.c ****    if( *buf>='a' && *buf<='z') *buf = *buf - 0x20;
 543              		.loc 1 109 8 discriminator 1 view .LVU158
 544 001a 0D2B     		cmp	r3, #13
 545 001c F4D1     		bne	.L54
 546 001e 7047     		bx	lr
 547              	.LVL28:
 548              	.L52:
 109:../USER/main.c ****    if( *buf>='a' && *buf<='z') *buf = *buf - 0x20;
 549              		.loc 1 109 9 view .LVU159
 550 0020 10F9013F 		ldrsb	r3, [r0, #1]!
 551              	.LVL29:
 109:../USER/main.c ****    if( *buf>='a' && *buf<='z') *buf = *buf - 0x20;
 552              		.loc 1 109 8 view .LVU160
 553 0024 0D2B     		cmp	r3, #13
 554 0026 EFD1     		bne	.L54
 555              	.LVL30:
 556              	.L50:
 113:../USER/main.c **** char kinbuf[256];
 557              		.loc 1 113 1 view .LVU161
 558 0028 7047     		bx	lr
 559              		.cfi_endproc
 560              	.LFE37:
 562 002a 00BF     		.section	.text.key_check,"ax",%progbits
 563              		.align	1
 564              		.p2align 2,,3
 565              		.global	key_check
 566              		.syntax unified
 567              		.thumb
 568              		.thumb_func
 569              		.fpu softvfp
 571              	key_check:
 572              	.LFB38:
 116:../USER/main.c **** 	char ch;
 573              		.loc 1 116 18 is_stmt 1 view -0
 574              		.cfi_startproc
 575              		@ args = 0, pretend = 0, frame = 0
 576              		@ frame_needed = 0, uses_anonymous_args = 0
 117:../USER/main.c **** 	//
 577              		.loc 1 117 2 view .LVU163
 119:../USER/main.c **** 	if(ch!=0) kinbuf[kinbwp++] = ch;
 578              		.loc 1 119 2 view .LVU164
 116:../USER/main.c **** 	char ch;
 579              		.loc 1 116 18 is_stmt 0 view .LVU165
 580 0000 10B5     		push	{r4, lr}
 581              		.cfi_def_cfa_offset 8
 582              		.cfi_offset 4, -8
 583              		.cfi_offset 14, -4
 119:../USER/main.c **** 	if(ch!=0) kinbuf[kinbwp++] = ch;
 584              		.loc 1 119 7 view .LVU166
 585 0002 FFF7FEFF 		bl	SPI_ReadData
 586              	.LVL31:
 119:../USER/main.c **** 	if(ch!=0) kinbuf[kinbwp++] = ch;
 587              		.loc 1 119 5 view .LVU167
 588 0006 40B2     		sxtb	r0, r0
 589              	.LVL32:
 120:../USER/main.c **** 	if(kinbwp>=256) kinbwp = 0;
 590              		.loc 1 120 2 is_stmt 1 view .LVU168
 120:../USER/main.c **** 	if(kinbwp>=256) kinbwp = 0;
 591              		.loc 1 120 25 is_stmt 0 view .LVU169
 592 0008 0E4A     		ldr	r2, .L70
 120:../USER/main.c **** 	if(kinbwp>=256) kinbwp = 0;
 593              		.loc 1 120 4 view .LVU170
 594 000a A0B9     		cbnz	r0, .L62
 595 000c 1368     		ldr	r3, [r2]
 596              	.L63:
 121:../USER/main.c **** 	//
 597              		.loc 1 121 2 is_stmt 1 view .LVU171
 121:../USER/main.c **** 	//
 598              		.loc 1 121 4 is_stmt 0 view .LVU172
 599 000e FF2B     		cmp	r3, #255
 600 0010 01DD     		ble	.L64
 121:../USER/main.c **** 	//
 601              		.loc 1 121 18 is_stmt 1 discriminator 1 view .LVU173
 121:../USER/main.c **** 	//
 602              		.loc 1 121 25 is_stmt 0 discriminator 1 view .LVU174
 603 0012 0023     		movs	r3, #0
 604 0014 1360     		str	r3, [r2]
 605              	.L64:
 123:../USER/main.c **** 	if(kinbwp>=256) kinbwp = 0;
 606              		.loc 1 123 2 is_stmt 1 view .LVU175
 123:../USER/main.c **** 	if(kinbwp>=256) kinbwp = 0;
 607              		.loc 1 123 11 is_stmt 0 view .LVU176
 608 0016 4FF04021 		mov	r1, #1073758208
 609 001a 4868     		ldr	r0, [r1, #4]
 610              	.LVL33:
 123:../USER/main.c **** 	if(kinbwp>=256) kinbwp = 0;
 611              		.loc 1 123 4 view .LVU177
 612 001c 8007     		lsls	r0, r0, #30
 613 001e 09D5     		bpl	.L61
 123:../USER/main.c **** 	if(kinbwp>=256) kinbwp = 0;
 614              		.loc 1 123 39 is_stmt 1 discriminator 1 view .LVU178
 123:../USER/main.c **** 	if(kinbwp>=256) kinbwp = 0;
 615              		.loc 1 123 63 is_stmt 0 discriminator 1 view .LVU179
 616 0020 0C68     		ldr	r4, [r1]
 123:../USER/main.c **** 	if(kinbwp>=256) kinbwp = 0;
 617              		.loc 1 123 56 discriminator 1 view .LVU180
 618 0022 0948     		ldr	r0, .L70+4
 123:../USER/main.c **** 	if(kinbwp>=256) kinbwp = 0;
 619              		.loc 1 123 52 discriminator 1 view .LVU181
 620 0024 591C     		adds	r1, r3, #1
 124:../USER/main.c **** 	//
 621              		.loc 1 124 4 discriminator 1 view .LVU182
 622 0026 B1F5807F 		cmp	r1, #256
 123:../USER/main.c **** 	if(kinbwp>=256) kinbwp = 0;
 623              		.loc 1 123 56 discriminator 1 view .LVU183
 624 002a C454     		strb	r4, [r0, r3]
 124:../USER/main.c **** 	//
 625              		.loc 1 124 2 is_stmt 1 discriminator 1 view .LVU184
 123:../USER/main.c **** 	if(kinbwp>=256) kinbwp = 0;
 626              		.loc 1 123 52 is_stmt 0 discriminator 1 view .LVU185
 627 002c 1160     		str	r1, [r2]
 124:../USER/main.c **** 	//
 628              		.loc 1 124 4 discriminator 1 view .LVU186
 629 002e 01D1     		bne	.L61
 124:../USER/main.c **** 	//
 630              		.loc 1 124 18 is_stmt 1 discriminator 1 view .LVU187
 124:../USER/main.c **** 	//
 631              		.loc 1 124 25 is_stmt 0 discriminator 1 view .LVU188
 632 0030 0023     		movs	r3, #0
 633 0032 1360     		str	r3, [r2]
 634              	.L61:
 126:../USER/main.c **** char getch_uart(void){
 635              		.loc 1 126 1 view .LVU189
 636 0034 10BD     		pop	{r4, pc}
 637              	.LVL34:
 638              	.L62:
 120:../USER/main.c **** 	if(kinbwp>=256) kinbwp = 0;
 639              		.loc 1 120 12 is_stmt 1 discriminator 1 view .LVU190
 120:../USER/main.c **** 	if(kinbwp>=256) kinbwp = 0;
 640              		.loc 1 120 25 is_stmt 0 discriminator 1 view .LVU191
 641 0036 1168     		ldr	r1, [r2]
 120:../USER/main.c **** 	if(kinbwp>=256) kinbwp = 0;
 642              		.loc 1 120 29 discriminator 1 view .LVU192
 643 0038 034C     		ldr	r4, .L70+4
 120:../USER/main.c **** 	if(kinbwp>=256) kinbwp = 0;
 644              		.loc 1 120 25 discriminator 1 view .LVU193
 645 003a 4B1C     		adds	r3, r1, #1
 120:../USER/main.c **** 	if(kinbwp>=256) kinbwp = 0;
 646              		.loc 1 120 29 discriminator 1 view .LVU194
 647 003c 6054     		strb	r0, [r4, r1]
 120:../USER/main.c **** 	if(kinbwp>=256) kinbwp = 0;
 648              		.loc 1 120 25 discriminator 1 view .LVU195
 649 003e 1360     		str	r3, [r2]
 650 0040 E5E7     		b	.L63
 651              	.L71:
 652 0042 00BF     		.align	2
 653              	.L70:
 654 0044 00000000 		.word	.LANCHOR0
 655 0048 00000000 		.word	kinbuf
 656              		.cfi_endproc
 657              	.LFE38:
 659              		.section	.text.getch_uart,"ax",%progbits
 660              		.align	1
 661              		.p2align 2,,3
 662              		.global	getch_uart
 663              		.syntax unified
 664              		.thumb
 665              		.thumb_func
 666              		.fpu softvfp
 668              	getch_uart:
 669              	.LFB39:
 127:../USER/main.c **** 	char dt;
 670              		.loc 1 127 22 is_stmt 1 view -0
 671              		.cfi_startproc
 672              		@ args = 0, pretend = 0, frame = 0
 673              		@ frame_needed = 0, uses_anonymous_args = 0
 128:../USER/main.c **** 	while(kinbrp==kinbwp) key_check();
 674              		.loc 1 128 2 view .LVU197
 129:../USER/main.c **** 	dt = kinbuf[kinbrp++];
 675              		.loc 1 129 2 view .LVU198
 127:../USER/main.c **** 	char dt;
 676              		.loc 1 127 22 is_stmt 0 view .LVU199
 677 0000 2DE9F041 		push	{r4, r5, r6, r7, r8, lr}
 678              		.cfi_def_cfa_offset 24
 679              		.cfi_offset 4, -24
 680              		.cfi_offset 5, -20
 681              		.cfi_offset 6, -16
 682              		.cfi_offset 7, -12
 683              		.cfi_offset 8, -8
 684              		.cfi_offset 14, -4
 685              	.LBB129:
 686              	.LBB130:
 123:../USER/main.c **** 	if(kinbwp>=256) kinbwp = 0;
 687              		.loc 1 123 11 view .LVU200
 688 0004 4FF04025 		mov	r5, #1073758208
 123:../USER/main.c **** 	if(kinbwp>=256) kinbwp = 0;
 689              		.loc 1 123 52 view .LVU201
 690 0008 4FF00108 		mov	r8, #1
 691 000c 1C4C     		ldr	r4, .L89
 692 000e 1D4F     		ldr	r7, .L89+4
 693 0010 2368     		ldr	r3, [r4]
 694 0012 1D4E     		ldr	r6, .L89+8
 695              	.L80:
 696              	.LBE130:
 697              	.LBE129:
 129:../USER/main.c **** 	dt = kinbuf[kinbrp++];
 698              		.loc 1 129 14 discriminator 1 view .LVU202
 699 0014 3268     		ldr	r2, [r6]
 129:../USER/main.c **** 	dt = kinbuf[kinbrp++];
 700              		.loc 1 129 7 discriminator 1 view .LVU203
 701 0016 9A42     		cmp	r2, r3
 702 0018 29D1     		bne	.L87
 703              	.L81:
 129:../USER/main.c **** 	dt = kinbuf[kinbrp++];
 704              		.loc 1 129 24 is_stmt 1 view .LVU204
 705              	.LBB132:
 706              	.LBI129:
 116:../USER/main.c **** 	char ch;
 707              		.loc 1 116 6 view .LVU205
 708              	.LBB131:
 117:../USER/main.c **** 	//
 709              		.loc 1 117 2 view .LVU206
 119:../USER/main.c **** 	if(ch!=0) kinbuf[kinbwp++] = ch;
 710              		.loc 1 119 2 view .LVU207
 119:../USER/main.c **** 	if(ch!=0) kinbuf[kinbwp++] = ch;
 711              		.loc 1 119 7 is_stmt 0 view .LVU208
 712 001a FFF7FEFF 		bl	SPI_ReadData
 713              	.LVL35:
 119:../USER/main.c **** 	if(ch!=0) kinbuf[kinbwp++] = ch;
 714              		.loc 1 119 5 view .LVU209
 715 001e 40B2     		sxtb	r0, r0
 716              	.LVL36:
 120:../USER/main.c **** 	if(kinbwp>=256) kinbwp = 0;
 717              		.loc 1 120 2 is_stmt 1 view .LVU210
 120:../USER/main.c **** 	if(kinbwp>=256) kinbwp = 0;
 718              		.loc 1 120 4 is_stmt 0 view .LVU211
 719 0020 78B9     		cbnz	r0, .L74
 720 0022 2368     		ldr	r3, [r4]
 121:../USER/main.c **** 	//
 721              		.loc 1 121 2 is_stmt 1 view .LVU212
 121:../USER/main.c **** 	//
 722              		.loc 1 121 4 is_stmt 0 view .LVU213
 723 0024 FF2B     		cmp	r3, #255
 724 0026 12DD     		ble	.L76
 725              	.L88:
 121:../USER/main.c **** 	//
 726              		.loc 1 121 18 is_stmt 1 view .LVU214
 121:../USER/main.c **** 	//
 727              		.loc 1 121 25 is_stmt 0 view .LVU215
 728 0028 0023     		movs	r3, #0
 729 002a 2360     		str	r3, [r4]
 123:../USER/main.c **** 	if(kinbwp>=256) kinbwp = 0;
 730              		.loc 1 123 2 is_stmt 1 view .LVU216
 123:../USER/main.c **** 	if(kinbwp>=256) kinbwp = 0;
 731              		.loc 1 123 11 is_stmt 0 view .LVU217
 732 002c 6B68     		ldr	r3, [r5, #4]
 123:../USER/main.c **** 	if(kinbwp>=256) kinbwp = 0;
 733              		.loc 1 123 4 view .LVU218
 734 002e 13F00203 		ands	r3, r3, #2
 735 0032 EFD0     		beq	.L80
 123:../USER/main.c **** 	if(kinbwp>=256) kinbwp = 0;
 736              		.loc 1 123 39 is_stmt 1 view .LVU219
 123:../USER/main.c **** 	if(kinbwp>=256) kinbwp = 0;
 737              		.loc 1 123 52 is_stmt 0 view .LVU220
 738 0034 0122     		movs	r2, #1
 123:../USER/main.c **** 	if(kinbwp>=256) kinbwp = 0;
 739              		.loc 1 123 63 view .LVU221
 740 0036 2B68     		ldr	r3, [r5]
 123:../USER/main.c **** 	if(kinbwp>=256) kinbwp = 0;
 741              		.loc 1 123 52 view .LVU222
 742 0038 C4F80080 		str	r8, [r4]
 123:../USER/main.c **** 	if(kinbwp>=256) kinbwp = 0;
 743              		.loc 1 123 56 view .LVU223
 744 003c 3B70     		strb	r3, [r7]
 124:../USER/main.c **** 	//
 745              		.loc 1 124 2 is_stmt 1 view .LVU224
 746              	.L84:
 123:../USER/main.c **** 	if(kinbwp>=256) kinbwp = 0;
 747              		.loc 1 123 4 is_stmt 0 view .LVU225
 748 003e 1346     		mov	r3, r2
 749 0040 E8E7     		b	.L80
 750              	.L74:
 120:../USER/main.c **** 	if(kinbwp>=256) kinbwp = 0;
 751              		.loc 1 120 12 is_stmt 1 view .LVU226
 120:../USER/main.c **** 	if(kinbwp>=256) kinbwp = 0;
 752              		.loc 1 120 25 is_stmt 0 view .LVU227
 753 0042 2268     		ldr	r2, [r4]
 754 0044 531C     		adds	r3, r2, #1
 121:../USER/main.c **** 	//
 755              		.loc 1 121 4 view .LVU228
 756 0046 FF2B     		cmp	r3, #255
 120:../USER/main.c **** 	if(kinbwp>=256) kinbwp = 0;
 757              		.loc 1 120 29 view .LVU229
 758 0048 B854     		strb	r0, [r7, r2]
 120:../USER/main.c **** 	if(kinbwp>=256) kinbwp = 0;
 759              		.loc 1 120 25 view .LVU230
 760 004a 2360     		str	r3, [r4]
 121:../USER/main.c **** 	//
 761              		.loc 1 121 2 is_stmt 1 view .LVU231
 121:../USER/main.c **** 	//
 762              		.loc 1 121 4 is_stmt 0 view .LVU232
 763 004c ECDC     		bgt	.L88
 764              	.L76:
 123:../USER/main.c **** 	if(kinbwp>=256) kinbwp = 0;
 765              		.loc 1 123 2 is_stmt 1 view .LVU233
 123:../USER/main.c **** 	if(kinbwp>=256) kinbwp = 0;
 766              		.loc 1 123 11 is_stmt 0 view .LVU234
 767 004e 6A68     		ldr	r2, [r5, #4]
 123:../USER/main.c **** 	if(kinbwp>=256) kinbwp = 0;
 768              		.loc 1 123 4 view .LVU235
 769 0050 9207     		lsls	r2, r2, #30
 770 0052 DFD5     		bpl	.L80
 123:../USER/main.c **** 	if(kinbwp>=256) kinbwp = 0;
 771              		.loc 1 123 39 is_stmt 1 view .LVU236
 123:../USER/main.c **** 	if(kinbwp>=256) kinbwp = 0;
 772              		.loc 1 123 63 is_stmt 0 view .LVU237
 773 0054 2968     		ldr	r1, [r5]
 123:../USER/main.c **** 	if(kinbwp>=256) kinbwp = 0;
 774              		.loc 1 123 52 view .LVU238
 775 0056 5A1C     		adds	r2, r3, #1
 124:../USER/main.c **** 	//
 776              		.loc 1 124 4 view .LVU239
 777 0058 B2F5807F 		cmp	r2, #256
 123:../USER/main.c **** 	if(kinbwp>=256) kinbwp = 0;
 778              		.loc 1 123 56 view .LVU240
 779 005c F954     		strb	r1, [r7, r3]
 124:../USER/main.c **** 	//
 780              		.loc 1 124 2 is_stmt 1 view .LVU241
 123:../USER/main.c **** 	if(kinbwp>=256) kinbwp = 0;
 781              		.loc 1 123 52 is_stmt 0 view .LVU242
 782 005e 2260     		str	r2, [r4]
 124:../USER/main.c **** 	//
 783              		.loc 1 124 4 view .LVU243
 784 0060 EDD1     		bne	.L84
 124:../USER/main.c **** 	//
 785              		.loc 1 124 18 is_stmt 1 view .LVU244
 124:../USER/main.c **** 	//
 786              		.loc 1 124 25 is_stmt 0 view .LVU245
 787 0062 0022     		movs	r2, #0
 788 0064 1346     		mov	r3, r2
 789 0066 2260     		str	r2, [r4]
 790              	.LBE131:
 791              	.LBE132:
 129:../USER/main.c **** 	dt = kinbuf[kinbrp++];
 792              		.loc 1 129 14 view .LVU246
 793 0068 3268     		ldr	r2, [r6]
 129:../USER/main.c **** 	dt = kinbuf[kinbrp++];
 794              		.loc 1 129 7 view .LVU247
 795 006a 9A42     		cmp	r2, r3
 796 006c D5D0     		beq	.L81
 797              	.LVL37:
 798              	.L87:
 130:../USER/main.c **** 	if(kinbrp>=256) kinbrp = 0;
 799              		.loc 1 130 2 is_stmt 1 view .LVU248
 130:../USER/main.c **** 	if(kinbrp>=256) kinbrp = 0;
 800              		.loc 1 130 20 is_stmt 0 view .LVU249
 801 006e 531C     		adds	r3, r2, #1
 131:../USER/main.c **** 	return dt;
 802              		.loc 1 131 4 view .LVU250
 803 0070 FF2B     		cmp	r3, #255
 130:../USER/main.c **** 	if(kinbrp>=256) kinbrp = 0;
 804              		.loc 1 130 5 view .LVU251
 805 0072 B856     		ldrsb	r0, [r7, r2]
 806              	.LVL38:
 131:../USER/main.c **** 	return dt;
 807              		.loc 1 131 2 is_stmt 1 view .LVU252
 130:../USER/main.c **** 	if(kinbrp>=256) kinbrp = 0;
 808              		.loc 1 130 20 is_stmt 0 view .LVU253
 809 0074 3360     		str	r3, [r6]
 131:../USER/main.c **** 	return dt;
 810              		.loc 1 131 4 view .LVU254
 811 0076 01DD     		ble	.L85
 131:../USER/main.c **** 	return dt;
 812              		.loc 1 131 18 is_stmt 1 discriminator 1 view .LVU255
 131:../USER/main.c **** 	return dt;
 813              		.loc 1 131 25 is_stmt 0 discriminator 1 view .LVU256
 814 0078 0023     		movs	r3, #0
 815 007a 3360     		str	r3, [r6]
 132:../USER/main.c **** }
 816              		.loc 1 132 2 is_stmt 1 discriminator 1 view .LVU257
 817              	.L85:
 133:../USER/main.c **** void putch_uart(char ch){
 818              		.loc 1 133 1 is_stmt 0 view .LVU258
 819 007c BDE8F081 		pop	{r4, r5, r6, r7, r8, pc}
 820              	.L90:
 821              		.align	2
 822              	.L89:
 823 0080 00000000 		.word	.LANCHOR0
 824 0084 00000000 		.word	kinbuf
 825 0088 00000000 		.word	.LANCHOR1
 826              		.cfi_endproc
 827              	.LFE39:
 829              		.section	.text.putch_uart,"ax",%progbits
 830              		.align	1
 831              		.p2align 2,,3
 832              		.global	putch_uart
 833              		.syntax unified
 834              		.thumb
 835              		.thumb_func
 836              		.fpu softvfp
 838              	putch_uart:
 839              	.LVL39:
 840              	.LFB40:
 134:../USER/main.c **** 	volatile uint32_t gpiord;
 841              		.loc 1 134 25 is_stmt 1 view -0
 842              		.cfi_startproc
 843              		@ args = 0, pretend = 0, frame = 8
 844              		@ frame_needed = 0, uses_anonymous_args = 0
 135:../USER/main.c **** 	if((mdgpio & 0x2000)==0)
 845              		.loc 1 135 2 view .LVU260
 136:../USER/main.c **** 		UART_SendChar(UART0,ch);
 846              		.loc 1 136 2 view .LVU261
 134:../USER/main.c **** 	volatile uint32_t gpiord;
 847              		.loc 1 134 25 is_stmt 0 view .LVU262
 848 0000 F0B5     		push	{r4, r5, r6, r7, lr}
 849              		.cfi_def_cfa_offset 20
 850              		.cfi_offset 4, -20
 851              		.cfi_offset 5, -16
 852              		.cfi_offset 6, -12
 853              		.cfi_offset 7, -8
 854              		.cfi_offset 14, -4
 136:../USER/main.c **** 		UART_SendChar(UART0,ch);
 855              		.loc 1 136 13 view .LVU263
 856 0002 324B     		ldr	r3, .L120
 134:../USER/main.c **** 	volatile uint32_t gpiord;
 857              		.loc 1 134 25 view .LVU264
 858 0004 83B0     		sub	sp, sp, #12
 859              		.cfi_def_cfa_offset 32
 136:../USER/main.c **** 		UART_SendChar(UART0,ch);
 860              		.loc 1 136 13 view .LVU265
 861 0006 1B68     		ldr	r3, [r3]
 134:../USER/main.c **** 	volatile uint32_t gpiord;
 862              		.loc 1 134 25 view .LVU266
 863 0008 0546     		mov	r5, r0
 136:../USER/main.c **** 		UART_SendChar(UART0,ch);
 864              		.loc 1 136 4 view .LVU267
 865 000a 9904     		lsls	r1, r3, #18
 866 000c 56D5     		bpl	.L116
 139:../USER/main.c **** 		while((gpiord & 0x4000)!=0) {
 867              		.loc 1 139 3 is_stmt 1 view .LVU268
 139:../USER/main.c **** 		while((gpiord & 0x4000)!=0) {
 868              		.loc 1 139 10 is_stmt 0 view .LVU269
 869 000e 4FF48043 		mov	r3, #16384
 870 0012 0193     		str	r3, [sp, #4]
 140:../USER/main.c **** 			key_check();
 871              		.loc 1 140 3 is_stmt 1 view .LVU270
 140:../USER/main.c **** 			key_check();
 872              		.loc 1 140 17 is_stmt 0 view .LVU271
 873 0014 019B     		ldr	r3, [sp, #4]
 874 0016 2E4C     		ldr	r4, .L120+4
 140:../USER/main.c **** 			key_check();
 875              		.loc 1 140 8 view .LVU272
 876 0018 5A04     		lsls	r2, r3, #17
 877 001a 26D5     		bpl	.L101
 878              	.LBB137:
 879              	.LBB138:
 120:../USER/main.c **** 	if(kinbwp>=256) kinbwp = 0;
 880              		.loc 1 120 29 view .LVU273
 881 001c 2D4F     		ldr	r7, .L120+8
 121:../USER/main.c **** 	//
 882              		.loc 1 121 25 view .LVU274
 883 001e 0026     		movs	r6, #0
 884 0020 19E0     		b	.L94
 885              	.LVL40:
 886              	.L117:
 121:../USER/main.c **** 	//
 887              		.loc 1 121 25 view .LVU275
 888 0022 2368     		ldr	r3, [r4]
 889              	.L97:
 121:../USER/main.c **** 	//
 890              		.loc 1 121 2 is_stmt 1 view .LVU276
 121:../USER/main.c **** 	//
 891              		.loc 1 121 18 view .LVU277
 121:../USER/main.c **** 	//
 892              		.loc 1 121 4 is_stmt 0 view .LVU278
 893 0024 FF2B     		cmp	r3, #255
 894 0026 01DD     		ble	.L98
 121:../USER/main.c **** 	//
 895              		.loc 1 121 25 view .LVU279
 896 0028 0023     		movs	r3, #0
 897 002a 2660     		str	r6, [r4]
 898              	.L98:
 123:../USER/main.c **** 	if(kinbwp>=256) kinbwp = 0;
 899              		.loc 1 123 39 is_stmt 1 view .LVU280
 123:../USER/main.c **** 	if(kinbwp>=256) kinbwp = 0;
 900              		.loc 1 123 2 view .LVU281
 123:../USER/main.c **** 	if(kinbwp>=256) kinbwp = 0;
 901              		.loc 1 123 11 is_stmt 0 view .LVU282
 902 002c 4FF04021 		mov	r1, #1073758208
 903 0030 4868     		ldr	r0, [r1, #4]
 904              	.LVL41:
 123:../USER/main.c **** 	if(kinbwp>=256) kinbwp = 0;
 905              		.loc 1 123 52 view .LVU283
 906 0032 5A1C     		adds	r2, r3, #1
 123:../USER/main.c **** 	if(kinbwp>=256) kinbwp = 0;
 907              		.loc 1 123 4 view .LVU284
 908 0034 8007     		lsls	r0, r0, #30
 909 0036 07D5     		bpl	.L100
 124:../USER/main.c **** 	//
 910              		.loc 1 124 25 view .LVU285
 911 0038 B2F5807F 		cmp	r2, #256
 123:../USER/main.c **** 	if(kinbwp>=256) kinbwp = 0;
 912              		.loc 1 123 63 view .LVU286
 913 003c 0868     		ldr	r0, [r1]
 124:../USER/main.c **** 	//
 914              		.loc 1 124 25 view .LVU287
 915 003e 14BF     		ite	ne
 916 0040 1146     		movne	r1, r2
 917 0042 3146     		moveq	r1, r6
 123:../USER/main.c **** 	if(kinbwp>=256) kinbwp = 0;
 918              		.loc 1 123 56 view .LVU288
 919 0044 F854     		strb	r0, [r7, r3]
 124:../USER/main.c **** 	//
 920              		.loc 1 124 2 is_stmt 1 view .LVU289
 124:../USER/main.c **** 	//
 921              		.loc 1 124 25 is_stmt 0 view .LVU290
 922 0046 2160     		str	r1, [r4]
 923              	.L100:
 124:../USER/main.c **** 	//
 924              		.loc 1 124 25 view .LVU291
 925              	.LBE138:
 926              	.LBE137:
 142:../USER/main.c **** 		}
 927              		.loc 1 142 4 is_stmt 1 view .LVU292
 142:../USER/main.c **** 		}
 928              		.loc 1 142 13 is_stmt 0 view .LVU293
 929 0048 2348     		ldr	r0, .L120+12
 930 004a FFF7FEFF 		bl	GPIO_ReadBits
 931              	.LVL42:
 142:../USER/main.c **** 		}
 932              		.loc 1 142 11 view .LVU294
 933 004e 0190     		str	r0, [sp, #4]
 140:../USER/main.c **** 			key_check();
 934              		.loc 1 140 17 view .LVU295
 935 0050 019B     		ldr	r3, [sp, #4]
 140:../USER/main.c **** 			key_check();
 936              		.loc 1 140 8 view .LVU296
 937 0052 5B04     		lsls	r3, r3, #17
 938 0054 09D5     		bpl	.L101
 939              	.L94:
 141:../USER/main.c **** 			gpiord = GPIO_ReadBits(GPIO0);
 940              		.loc 1 141 4 is_stmt 1 view .LVU297
 941              	.LBB140:
 942              	.LBI137:
 116:../USER/main.c **** 	char ch;
 943              		.loc 1 116 6 view .LVU298
 944              	.LBB139:
 117:../USER/main.c **** 	//
 945              		.loc 1 117 2 view .LVU299
 119:../USER/main.c **** 	if(ch!=0) kinbuf[kinbwp++] = ch;
 946              		.loc 1 119 2 view .LVU300
 119:../USER/main.c **** 	if(ch!=0) kinbuf[kinbwp++] = ch;
 947              		.loc 1 119 7 is_stmt 0 view .LVU301
 948 0056 FFF7FEFF 		bl	SPI_ReadData
 949              	.LVL43:
 120:../USER/main.c **** 	if(kinbwp>=256) kinbwp = 0;
 950              		.loc 1 120 12 is_stmt 1 view .LVU302
 119:../USER/main.c **** 	if(ch!=0) kinbuf[kinbwp++] = ch;
 951              		.loc 1 119 5 is_stmt 0 view .LVU303
 952 005a 40B2     		sxtb	r0, r0
 953              	.LVL44:
 120:../USER/main.c **** 	if(kinbwp>=256) kinbwp = 0;
 954              		.loc 1 120 2 is_stmt 1 view .LVU304
 120:../USER/main.c **** 	if(kinbwp>=256) kinbwp = 0;
 955              		.loc 1 120 4 is_stmt 0 view .LVU305
 956 005c 0028     		cmp	r0, #0
 957 005e E0D0     		beq	.L117
 120:../USER/main.c **** 	if(kinbwp>=256) kinbwp = 0;
 958              		.loc 1 120 25 view .LVU306
 959 0060 2268     		ldr	r2, [r4]
 960 0062 531C     		adds	r3, r2, #1
 120:../USER/main.c **** 	if(kinbwp>=256) kinbwp = 0;
 961              		.loc 1 120 29 view .LVU307
 962 0064 B854     		strb	r0, [r7, r2]
 120:../USER/main.c **** 	if(kinbwp>=256) kinbwp = 0;
 963              		.loc 1 120 25 view .LVU308
 964 0066 2360     		str	r3, [r4]
 965 0068 DCE7     		b	.L97
 966              	.LVL45:
 967              	.L101:
 120:../USER/main.c **** 	if(kinbwp>=256) kinbwp = 0;
 968              		.loc 1 120 25 view .LVU309
 969              	.LBE139:
 970              	.LBE140:
 144:../USER/main.c **** 	}
 971              		.loc 1 144 3 is_stmt 1 view .LVU310
 972 006a E8B2     		uxtb	r0, r5
 973 006c FFF7FEFF 		bl	SPI_WriteData
 974              	.LVL46:
 975              	.L95:
 976              	.LBB141:
 977              	.LBB142:
 120:../USER/main.c **** 	if(kinbwp>=256) kinbwp = 0;
 978              		.loc 1 120 29 is_stmt 0 discriminator 1 view .LVU311
 979 0070 184F     		ldr	r7, .L120+8
 121:../USER/main.c **** 	//
 980              		.loc 1 121 25 discriminator 1 view .LVU312
 981 0072 0026     		movs	r6, #0
 982 0074 16E0     		b	.L93
 983              	.LVL47:
 984              	.L119:
 121:../USER/main.c **** 	//
 985              		.loc 1 121 25 discriminator 1 view .LVU313
 986 0076 2368     		ldr	r3, [r4]
 987              	.L103:
 121:../USER/main.c **** 	//
 988              		.loc 1 121 2 is_stmt 1 view .LVU314
 121:../USER/main.c **** 	//
 989              		.loc 1 121 18 view .LVU315
 121:../USER/main.c **** 	//
 990              		.loc 1 121 4 is_stmt 0 view .LVU316
 991 0078 FF2B     		cmp	r3, #255
 992 007a 01DD     		ble	.L104
 121:../USER/main.c **** 	//
 993              		.loc 1 121 25 view .LVU317
 994 007c 0023     		movs	r3, #0
 995 007e 2660     		str	r6, [r4]
 996              	.L104:
 123:../USER/main.c **** 	if(kinbwp>=256) kinbwp = 0;
 997              		.loc 1 123 39 is_stmt 1 view .LVU318
 123:../USER/main.c **** 	if(kinbwp>=256) kinbwp = 0;
 998              		.loc 1 123 2 view .LVU319
 123:../USER/main.c **** 	if(kinbwp>=256) kinbwp = 0;
 999              		.loc 1 123 11 is_stmt 0 view .LVU320
 1000 0080 4FF04021 		mov	r1, #1073758208
 1001 0084 4868     		ldr	r0, [r1, #4]
 1002              	.LVL48:
 123:../USER/main.c **** 	if(kinbwp>=256) kinbwp = 0;
 1003              		.loc 1 123 52 view .LVU321
 1004 0086 5A1C     		adds	r2, r3, #1
 123:../USER/main.c **** 	if(kinbwp>=256) kinbwp = 0;
 1005              		.loc 1 123 4 view .LVU322
 1006 0088 8007     		lsls	r0, r0, #30
 1007 008a 07D5     		bpl	.L106
 124:../USER/main.c **** 	//
 1008              		.loc 1 124 25 view .LVU323
 1009 008c B2F5807F 		cmp	r2, #256
 123:../USER/main.c **** 	if(kinbwp>=256) kinbwp = 0;
 1010              		.loc 1 123 63 view .LVU324
 1011 0090 0868     		ldr	r0, [r1]
 124:../USER/main.c **** 	//
 1012              		.loc 1 124 25 view .LVU325
 1013 0092 14BF     		ite	ne
 1014 0094 1146     		movne	r1, r2
 1015 0096 3146     		moveq	r1, r6
 123:../USER/main.c **** 	if(kinbwp>=256) kinbwp = 0;
 1016              		.loc 1 123 56 view .LVU326
 1017 0098 F854     		strb	r0, [r7, r3]
 124:../USER/main.c **** 	//
 1018              		.loc 1 124 2 is_stmt 1 view .LVU327
 124:../USER/main.c **** 	//
 1019              		.loc 1 124 25 is_stmt 0 view .LVU328
 1020 009a 2160     		str	r1, [r4]
 1021              	.L106:
 124:../USER/main.c **** 	//
 1022              		.loc 1 124 25 view .LVU329
 1023              	.LBE142:
 1024              	.LBE141:
 147:../USER/main.c **** }
 1025              		.loc 1 147 27 is_stmt 1 view .LVU330
 147:../USER/main.c **** }
 1026              		.loc 1 147 32 is_stmt 0 view .LVU331
 1027 009c 2846     		mov	r0, r5
 1028 009e FFF7FEFF 		bl	disp_vram
 1029              	.LVL49:
 147:../USER/main.c **** }
 1030              		.loc 1 147 2 view .LVU332
 1031 00a2 48B1     		cbz	r0, .L118
 1032              	.LVL50:
 1033              	.L93:
 147:../USER/main.c **** }
 1034              		.loc 1 147 2 is_stmt 1 discriminator 1 view .LVU333
 147:../USER/main.c **** }
 1035              		.loc 1 147 10 discriminator 1 view .LVU334
 147:../USER/main.c **** }
 1036              		.loc 1 147 14 discriminator 1 view .LVU335
 1037              	.LBB144:
 1038              	.LBI141:
 116:../USER/main.c **** 	char ch;
 1039              		.loc 1 116 6 discriminator 1 view .LVU336
 1040              	.LBB143:
 117:../USER/main.c **** 	//
 1041              		.loc 1 117 2 discriminator 1 view .LVU337
 119:../USER/main.c **** 	if(ch!=0) kinbuf[kinbwp++] = ch;
 1042              		.loc 1 119 2 discriminator 1 view .LVU338
 119:../USER/main.c **** 	if(ch!=0) kinbuf[kinbwp++] = ch;
 1043              		.loc 1 119 7 is_stmt 0 discriminator 1 view .LVU339
 1044 00a4 FFF7FEFF 		bl	SPI_ReadData
 1045              	.LVL51:
 120:../USER/main.c **** 	if(kinbwp>=256) kinbwp = 0;
 1046              		.loc 1 120 12 is_stmt 1 discriminator 1 view .LVU340
 119:../USER/main.c **** 	if(ch!=0) kinbuf[kinbwp++] = ch;
 1047              		.loc 1 119 5 is_stmt 0 discriminator 1 view .LVU341
 1048 00a8 40B2     		sxtb	r0, r0
 1049              	.LVL52:
 120:../USER/main.c **** 	if(kinbwp>=256) kinbwp = 0;
 1050              		.loc 1 120 2 is_stmt 1 discriminator 1 view .LVU342
 120:../USER/main.c **** 	if(kinbwp>=256) kinbwp = 0;
 1051              		.loc 1 120 4 is_stmt 0 discriminator 1 view .LVU343
 1052 00aa 0028     		cmp	r0, #0
 1053 00ac E3D0     		beq	.L119
 120:../USER/main.c **** 	if(kinbwp>=256) kinbwp = 0;
 1054              		.loc 1 120 25 view .LVU344
 1055 00ae 2268     		ldr	r2, [r4]
 1056 00b0 531C     		adds	r3, r2, #1
 120:../USER/main.c **** 	if(kinbwp>=256) kinbwp = 0;
 1057              		.loc 1 120 29 view .LVU345
 1058 00b2 B854     		strb	r0, [r7, r2]
 120:../USER/main.c **** 	if(kinbwp>=256) kinbwp = 0;
 1059              		.loc 1 120 25 view .LVU346
 1060 00b4 2360     		str	r3, [r4]
 1061 00b6 DFE7     		b	.L103
 1062              	.LVL53:
 1063              	.L118:
 120:../USER/main.c **** 	if(kinbwp>=256) kinbwp = 0;
 1064              		.loc 1 120 25 view .LVU347
 1065              	.LBE143:
 1066              	.LBE144:
 148:../USER/main.c **** 
 1067              		.loc 1 148 1 view .LVU348
 1068 00b8 03B0     		add	sp, sp, #12
 1069              		.cfi_remember_state
 1070              		.cfi_def_cfa_offset 20
 1071              		@ sp needed
 1072 00ba F0BD     		pop	{r4, r5, r6, r7, pc}
 1073              	.LVL54:
 1074              	.L116:
 1075              		.cfi_restore_state
 137:../USER/main.c **** 	else {
 1076              		.loc 1 137 3 is_stmt 1 view .LVU349
 1077 00bc 0146     		mov	r1, r0
 1078 00be 4FF04020 		mov	r0, #1073758208
 1079              	.LVL55:
 137:../USER/main.c **** 	else {
 1080              		.loc 1 137 3 is_stmt 0 view .LVU350
 1081 00c2 FFF7FEFF 		bl	UART_SendChar
 1082              	.LVL56:
 1083 00c6 024C     		ldr	r4, .L120+4
 1084 00c8 D2E7     		b	.L95
 1085              	.L121:
 1086 00ca 00BF     		.align	2
 1087              	.L120:
 1088 00cc 00000000 		.word	mdgpio
 1089 00d0 00000000 		.word	.LANCHOR0
 1090 00d4 00000000 		.word	kinbuf
 1091 00d8 00000140 		.word	1073807360
 1092              		.cfi_endproc
 1093              	.LFE40:
 1095              		.section	.text.puth,"ax",%progbits
 1096              		.align	1
 1097              		.p2align 2,,3
 1098              		.global	puth
 1099              		.syntax unified
 1100              		.thumb
 1101              		.thumb_func
 1102              		.fpu softvfp
 1104              	puth:
 1105              	.LVL57:
 1106              	.LFB41:
 150:../USER/main.c **** void puth2(dt) int dt;{ puth((dt >> 4) & 0xf); puth(dt & 0xf); }
 1107              		.loc 1 150 22 is_stmt 1 view -0
 1108              		.cfi_startproc
 1109              		@ args = 0, pretend = 0, frame = 0
 1110              		@ frame_needed = 0, uses_anonymous_args = 0
 1111              		@ link register save eliminated.
 150:../USER/main.c **** void puth2(dt) int dt;{ puth((dt >> 4) & 0xf); puth(dt & 0xf); }
 1112              		.loc 1 150 24 view .LVU352
 150:../USER/main.c **** void puth2(dt) int dt;{ puth((dt >> 4) & 0xf); puth(dt & 0xf); }
 1113              		.loc 1 150 26 is_stmt 0 view .LVU353
 1114 0000 0928     		cmp	r0, #9
 1115 0002 C3B2     		uxtb	r3, r0
 1116 0004 04DC     		bgt	.L123
 150:../USER/main.c **** void puth2(dt) int dt;{ puth((dt >> 4) & 0xf); puth(dt & 0xf); }
 1117              		.loc 1 150 34 is_stmt 1 discriminator 1 view .LVU354
 150:../USER/main.c **** void puth2(dt) int dt;{ puth((dt >> 4) & 0xf); puth(dt & 0xf); }
 1118              		.loc 1 150 44 is_stmt 0 discriminator 1 view .LVU355
 1119 0006 03F13000 		add	r0, r3, #48
 1120              	.LVL58:
 150:../USER/main.c **** void puth2(dt) int dt;{ puth((dt >> 4) & 0xf); puth(dt & 0xf); }
 1121              		.loc 1 150 34 discriminator 1 view .LVU356
 1122 000a 40B2     		sxtb	r0, r0
 1123 000c FFF7FEBF 		b	putch_uart
 1124              	.LVL59:
 1125              	.L123:
 150:../USER/main.c **** void puth2(dt) int dt;{ puth((dt >> 4) & 0xf); puth(dt & 0xf); }
 1126              		.loc 1 150 55 is_stmt 1 discriminator 2 view .LVU357
 150:../USER/main.c **** void puth2(dt) int dt;{ puth((dt >> 4) & 0xf); puth(dt & 0xf); }
 1127              		.loc 1 150 65 is_stmt 0 discriminator 2 view .LVU358
 1128 0010 03F13700 		add	r0, r3, #55
 1129              	.LVL60:
 150:../USER/main.c **** void puth2(dt) int dt;{ puth((dt >> 4) & 0xf); puth(dt & 0xf); }
 1130              		.loc 1 150 55 discriminator 2 view .LVU359
 1131 0014 40B2     		sxtb	r0, r0
 1132 0016 FFF7FEBF 		b	putch_uart
 1133              	.LVL61:
 1134              		.cfi_endproc
 1135              	.LFE41:
 1137 001a 00BF     		.section	.text.puth2,"ax",%progbits
 1138              		.align	1
 1139              		.p2align 2,,3
 1140              		.global	puth2
 1141              		.syntax unified
 1142              		.thumb
 1143              		.thumb_func
 1144              		.fpu softvfp
 1146              	puth2:
 1147              	.LVL62:
 1148              	.LFB42:
 151:../USER/main.c **** void puth4(dt) int dt;{ puth2((dt >> 8) & 0xff); puth2(dt & 0xff); }
 1149              		.loc 1 151 23 is_stmt 1 view -0
 1150              		.cfi_startproc
 1151              		@ args = 0, pretend = 0, frame = 0
 1152              		@ frame_needed = 0, uses_anonymous_args = 0
 151:../USER/main.c **** void puth4(dt) int dt;{ puth2((dt >> 8) & 0xff); puth2(dt & 0xff); }
 1153              		.loc 1 151 25 view .LVU361
 151:../USER/main.c **** void puth4(dt) int dt;{ puth2((dt >> 8) & 0xff); puth2(dt & 0xff); }
 1154              		.loc 1 151 23 is_stmt 0 view .LVU362
 1155 0000 10B5     		push	{r4, lr}
 1156              		.cfi_def_cfa_offset 8
 1157              		.cfi_offset 4, -8
 1158              		.cfi_offset 14, -4
 151:../USER/main.c **** void puth4(dt) int dt;{ puth2((dt >> 8) & 0xff); puth2(dt & 0xff); }
 1159              		.loc 1 151 23 view .LVU363
 1160 0002 0446     		mov	r4, r0
 151:../USER/main.c **** void puth4(dt) int dt;{ puth2((dt >> 8) & 0xff); puth2(dt & 0xff); }
 1161              		.loc 1 151 25 view .LVU364
 1162 0004 C0F30313 		ubfx	r3, r0, #4, #4
 1163              	.LVL63:
 1164              	.LBB149:
 1165              	.LBI149:
 150:../USER/main.c **** void puth2(dt) int dt;{ puth((dt >> 4) & 0xf); puth(dt & 0xf); }
 1166              		.loc 1 150 6 is_stmt 1 view .LVU365
 1167              	.LBB150:
 150:../USER/main.c **** void puth2(dt) int dt;{ puth((dt >> 4) & 0xf); puth(dt & 0xf); }
 1168              		.loc 1 150 24 view .LVU366
 150:../USER/main.c **** void puth2(dt) int dt;{ puth((dt >> 4) & 0xf); puth(dt & 0xf); }
 1169              		.loc 1 150 34 view .LVU367
 150:../USER/main.c **** void puth2(dt) int dt;{ puth((dt >> 4) & 0xf); puth(dt & 0xf); }
 1170              		.loc 1 150 55 view .LVU368
 1171 0008 D8B2     		uxtb	r0, r3
 1172              	.LVL64:
 150:../USER/main.c **** void puth2(dt) int dt;{ puth((dt >> 4) & 0xf); puth(dt & 0xf); }
 1173              		.loc 1 150 26 is_stmt 0 view .LVU369
 1174 000a 092B     		cmp	r3, #9
 150:../USER/main.c **** void puth2(dt) int dt;{ puth((dt >> 4) & 0xf); puth(dt & 0xf); }
 1175              		.loc 1 150 34 view .LVU370
 1176 000c D4BF     		ite	le
 1177 000e 3030     		addle	r0, r0, #48
 150:../USER/main.c **** void puth2(dt) int dt;{ puth((dt >> 4) & 0xf); puth(dt & 0xf); }
 1178              		.loc 1 150 55 view .LVU371
 1179 0010 3730     		addgt	r0, r0, #55
 1180              	.LBE150:
 1181              	.LBE149:
 151:../USER/main.c **** void puth4(dt) int dt;{ puth2((dt >> 8) & 0xff); puth2(dt & 0xff); }
 1182              		.loc 1 151 48 view .LVU372
 1183 0012 04F00F04 		and	r4, r4, #15
 1184              	.LVL65:
 1185              	.LBB152:
 1186              	.LBB151:
 150:../USER/main.c **** void puth2(dt) int dt;{ puth((dt >> 4) & 0xf); puth(dt & 0xf); }
 1187              		.loc 1 150 55 view .LVU373
 1188 0016 FFF7FEFF 		bl	putch_uart
 1189              	.LVL66:
 150:../USER/main.c **** void puth2(dt) int dt;{ puth((dt >> 4) & 0xf); puth(dt & 0xf); }
 1190              		.loc 1 150 55 view .LVU374
 1191              	.LBE151:
 1192              	.LBE152:
 151:../USER/main.c **** void puth4(dt) int dt;{ puth2((dt >> 8) & 0xff); puth2(dt & 0xff); }
 1193              		.loc 1 151 48 is_stmt 1 view .LVU375
 1194              	.LBB153:
 1195              	.LBI153:
 150:../USER/main.c **** void puth2(dt) int dt;{ puth((dt >> 4) & 0xf); puth(dt & 0xf); }
 1196              		.loc 1 150 6 view .LVU376
 1197              	.LBB154:
 150:../USER/main.c **** void puth2(dt) int dt;{ puth((dt >> 4) & 0xf); puth(dt & 0xf); }
 1198              		.loc 1 150 24 view .LVU377
 150:../USER/main.c **** void puth2(dt) int dt;{ puth((dt >> 4) & 0xf); puth(dt & 0xf); }
 1199              		.loc 1 150 26 is_stmt 0 view .LVU378
 1200 001a 092C     		cmp	r4, #9
 1201 001c E0B2     		uxtb	r0, r4
 1202 001e 04DC     		bgt	.L127
 150:../USER/main.c **** void puth2(dt) int dt;{ puth((dt >> 4) & 0xf); puth(dt & 0xf); }
 1203              		.loc 1 150 34 is_stmt 1 view .LVU379
 1204              	.LBE154:
 1205              	.LBE153:
 151:../USER/main.c **** void puth4(dt) int dt;{ puth2((dt >> 8) & 0xff); puth2(dt & 0xff); }
 1206              		.loc 1 151 1 is_stmt 0 view .LVU380
 1207 0020 BDE81040 		pop	{r4, lr}
 1208              		.cfi_remember_state
 1209              		.cfi_restore 14
 1210              		.cfi_restore 4
 1211              		.cfi_def_cfa_offset 0
 1212              	.LVL67:
 1213              	.LBB157:
 1214              	.LBB155:
 150:../USER/main.c **** void puth2(dt) int dt;{ puth((dt >> 4) & 0xf); puth(dt & 0xf); }
 1215              		.loc 1 150 34 view .LVU381
 1216 0024 3030     		adds	r0, r0, #48
 1217 0026 FFF7FEBF 		b	putch_uart
 1218              	.LVL68:
 1219              	.L127:
 1220              		.cfi_restore_state
 150:../USER/main.c **** void puth2(dt) int dt;{ puth((dt >> 4) & 0xf); puth(dt & 0xf); }
 1221              		.loc 1 150 55 is_stmt 1 view .LVU382
 1222 002a 3730     		adds	r0, r0, #55
 1223              	.LBE155:
 1224              	.LBE157:
 151:../USER/main.c **** void puth4(dt) int dt;{ puth2((dt >> 8) & 0xff); puth2(dt & 0xff); }
 1225              		.loc 1 151 1 is_stmt 0 view .LVU383
 1226 002c BDE81040 		pop	{r4, lr}
 1227              		.cfi_restore 14
 1228              		.cfi_restore 4
 1229              		.cfi_def_cfa_offset 0
 1230              	.LVL69:
 1231              	.LBB158:
 1232              	.LBB156:
 150:../USER/main.c **** void puth2(dt) int dt;{ puth((dt >> 4) & 0xf); puth(dt & 0xf); }
 1233              		.loc 1 150 55 view .LVU384
 1234 0030 FFF7FEBF 		b	putch_uart
 1235              	.LVL70:
 1236              	.LBE156:
 1237              	.LBE158:
 1238              		.cfi_endproc
 1239              	.LFE42:
 1241              		.section	.text.puth4,"ax",%progbits
 1242              		.align	1
 1243              		.p2align 2,,3
 1244              		.global	puth4
 1245              		.syntax unified
 1246              		.thumb
 1247              		.thumb_func
 1248              		.fpu softvfp
 1250              	puth4:
 1251              	.LVL71:
 1252              	.LFB43:
 152:../USER/main.c **** void puth6(dt) long dt;{ int dh,dl; dh = dt >> 16; dl = dt & 0xffff; puth2(dh); puth4(dl); }
 1253              		.loc 1 152 23 is_stmt 1 view -0
 1254              		.cfi_startproc
 1255              		@ args = 0, pretend = 0, frame = 0
 1256              		@ frame_needed = 0, uses_anonymous_args = 0
 152:../USER/main.c **** void puth6(dt) long dt;{ int dh,dl; dh = dt >> 16; dl = dt & 0xffff; puth2(dh); puth4(dl); }
 1257              		.loc 1 152 25 view .LVU386
 152:../USER/main.c **** void puth6(dt) long dt;{ int dh,dl; dh = dt >> 16; dl = dt & 0xffff; puth2(dh); puth4(dl); }
 1258              		.loc 1 152 23 is_stmt 0 view .LVU387
 1259 0000 38B5     		push	{r3, r4, r5, lr}
 1260              		.cfi_def_cfa_offset 16
 1261              		.cfi_offset 3, -16
 1262              		.cfi_offset 4, -12
 1263              		.cfi_offset 5, -8
 1264              		.cfi_offset 14, -4
 152:../USER/main.c **** void puth6(dt) long dt;{ int dh,dl; dh = dt >> 16; dl = dt & 0xffff; puth2(dh); puth4(dl); }
 1265              		.loc 1 152 23 view .LVU388
 1266 0002 0446     		mov	r4, r0
 1267              	.LBB171:
 1268              	.LBB172:
 151:../USER/main.c **** void puth4(dt) int dt;{ puth2((dt >> 8) & 0xff); puth2(dt & 0xff); }
 1269              		.loc 1 151 34 view .LVU389
 1270 0004 C0F30333 		ubfx	r3, r0, #12, #4
 1271 0008 D8B2     		uxtb	r0, r3
 1272              	.LVL72:
 1273              	.LBB173:
 1274              	.LBB174:
 150:../USER/main.c **** void puth2(dt) int dt;{ puth((dt >> 4) & 0xf); puth(dt & 0xf); }
 1275              		.loc 1 150 26 view .LVU390
 1276 000a 092B     		cmp	r3, #9
 150:../USER/main.c **** void puth2(dt) int dt;{ puth((dt >> 4) & 0xf); puth(dt & 0xf); }
 1277              		.loc 1 150 34 view .LVU391
 1278 000c D4BF     		ite	le
 1279 000e 3030     		addle	r0, r0, #48
 150:../USER/main.c **** void puth2(dt) int dt;{ puth((dt >> 4) & 0xf); puth(dt & 0xf); }
 1280              		.loc 1 150 55 view .LVU392
 1281 0010 3730     		addgt	r0, r0, #55
 1282              	.LBE174:
 1283              	.LBE173:
 1284              	.LBE172:
 1285              	.LBE171:
 152:../USER/main.c **** void puth6(dt) long dt;{ int dh,dl; dh = dt >> 16; dl = dt & 0xffff; puth2(dh); puth4(dl); }
 1286              		.loc 1 152 35 view .LVU393
 1287 0012 2512     		asrs	r5, r4, #8
 1288              	.LVL73:
 1289              	.LBB180:
 1290              	.LBI171:
 151:../USER/main.c **** void puth4(dt) int dt;{ puth2((dt >> 8) & 0xff); puth2(dt & 0xff); }
 1291              		.loc 1 151 6 is_stmt 1 view .LVU394
 1292              	.LBB179:
 151:../USER/main.c **** void puth4(dt) int dt;{ puth2((dt >> 8) & 0xff); puth2(dt & 0xff); }
 1293              		.loc 1 151 25 view .LVU395
 1294              	.LBB176:
 1295              	.LBI173:
 150:../USER/main.c **** void puth2(dt) int dt;{ puth((dt >> 4) & 0xf); puth(dt & 0xf); }
 1296              		.loc 1 150 6 view .LVU396
 1297              	.LBB175:
 150:../USER/main.c **** void puth2(dt) int dt;{ puth((dt >> 4) & 0xf); puth(dt & 0xf); }
 1298              		.loc 1 150 24 view .LVU397
 150:../USER/main.c **** void puth2(dt) int dt;{ puth((dt >> 4) & 0xf); puth(dt & 0xf); }
 1299              		.loc 1 150 34 view .LVU398
 150:../USER/main.c **** void puth2(dt) int dt;{ puth((dt >> 4) & 0xf); puth(dt & 0xf); }
 1300              		.loc 1 150 55 view .LVU399
 1301 0014 FFF7FEFF 		bl	putch_uart
 1302              	.LVL74:
 150:../USER/main.c **** void puth2(dt) int dt;{ puth((dt >> 4) & 0xf); puth(dt & 0xf); }
 1303              		.loc 1 150 55 is_stmt 0 view .LVU400
 1304              	.LBE175:
 1305              	.LBE176:
 151:../USER/main.c **** void puth4(dt) int dt;{ puth2((dt >> 8) & 0xff); puth2(dt & 0xff); }
 1306              		.loc 1 151 48 is_stmt 1 view .LVU401
 1307 0018 05F00F03 		and	r3, r5, #15
 1308              	.LVL75:
 1309              	.LBB177:
 1310              	.LBI177:
 150:../USER/main.c **** void puth2(dt) int dt;{ puth((dt >> 4) & 0xf); puth(dt & 0xf); }
 1311              		.loc 1 150 6 view .LVU402
 1312              	.LBB178:
 150:../USER/main.c **** void puth2(dt) int dt;{ puth((dt >> 4) & 0xf); puth(dt & 0xf); }
 1313              		.loc 1 150 24 view .LVU403
 150:../USER/main.c **** void puth2(dt) int dt;{ puth((dt >> 4) & 0xf); puth(dt & 0xf); }
 1314              		.loc 1 150 34 view .LVU404
 150:../USER/main.c **** void puth2(dt) int dt;{ puth((dt >> 4) & 0xf); puth(dt & 0xf); }
 1315              		.loc 1 150 55 view .LVU405
 1316 001c D8B2     		uxtb	r0, r3
 150:../USER/main.c **** void puth2(dt) int dt;{ puth((dt >> 4) & 0xf); puth(dt & 0xf); }
 1317              		.loc 1 150 26 is_stmt 0 view .LVU406
 1318 001e 092B     		cmp	r3, #9
 150:../USER/main.c **** void puth2(dt) int dt;{ puth((dt >> 4) & 0xf); puth(dt & 0xf); }
 1319              		.loc 1 150 34 view .LVU407
 1320 0020 D4BF     		ite	le
 1321 0022 3030     		addle	r0, r0, #48
 150:../USER/main.c **** void puth2(dt) int dt;{ puth((dt >> 4) & 0xf); puth(dt & 0xf); }
 1322              		.loc 1 150 55 view .LVU408
 1323 0024 3730     		addgt	r0, r0, #55
 1324 0026 FFF7FEFF 		bl	putch_uart
 1325              	.LVL76:
 150:../USER/main.c **** void puth2(dt) int dt;{ puth((dt >> 4) & 0xf); puth(dt & 0xf); }
 1326              		.loc 1 150 55 view .LVU409
 1327              	.LBE178:
 1328              	.LBE177:
 1329              	.LBE179:
 1330              	.LBE180:
 152:../USER/main.c **** void puth6(dt) long dt;{ int dh,dl; dh = dt >> 16; dl = dt & 0xffff; puth2(dh); puth4(dl); }
 1331              		.loc 1 152 50 is_stmt 1 view .LVU410
 1332              	.LBB181:
 1333              	.LBI181:
 151:../USER/main.c **** void puth4(dt) int dt;{ puth2((dt >> 8) & 0xff); puth2(dt & 0xff); }
 1334              		.loc 1 151 6 view .LVU411
 1335              	.LBB182:
 151:../USER/main.c **** void puth4(dt) int dt;{ puth2((dt >> 8) & 0xff); puth2(dt & 0xff); }
 1336              		.loc 1 151 25 view .LVU412
 151:../USER/main.c **** void puth4(dt) int dt;{ puth2((dt >> 8) & 0xff); puth2(dt & 0xff); }
 1337              		.loc 1 151 34 is_stmt 0 view .LVU413
 1338 002a C4F30313 		ubfx	r3, r4, #4, #4
 1339              	.LVL77:
 1340              	.LBB183:
 1341              	.LBI183:
 150:../USER/main.c **** void puth2(dt) int dt;{ puth((dt >> 4) & 0xf); puth(dt & 0xf); }
 1342              		.loc 1 150 6 is_stmt 1 view .LVU414
 1343              	.LBB184:
 150:../USER/main.c **** void puth2(dt) int dt;{ puth((dt >> 4) & 0xf); puth(dt & 0xf); }
 1344              		.loc 1 150 24 view .LVU415
 150:../USER/main.c **** void puth2(dt) int dt;{ puth((dt >> 4) & 0xf); puth(dt & 0xf); }
 1345              		.loc 1 150 34 view .LVU416
 150:../USER/main.c **** void puth2(dt) int dt;{ puth((dt >> 4) & 0xf); puth(dt & 0xf); }
 1346              		.loc 1 150 55 view .LVU417
 1347 002e D8B2     		uxtb	r0, r3
 150:../USER/main.c **** void puth2(dt) int dt;{ puth((dt >> 4) & 0xf); puth(dt & 0xf); }
 1348              		.loc 1 150 26 is_stmt 0 view .LVU418
 1349 0030 092B     		cmp	r3, #9
 150:../USER/main.c **** void puth2(dt) int dt;{ puth((dt >> 4) & 0xf); puth(dt & 0xf); }
 1350              		.loc 1 150 34 view .LVU419
 1351 0032 D4BF     		ite	le
 1352 0034 3030     		addle	r0, r0, #48
 150:../USER/main.c **** void puth2(dt) int dt;{ puth((dt >> 4) & 0xf); puth(dt & 0xf); }
 1353              		.loc 1 150 55 view .LVU420
 1354 0036 3730     		addgt	r0, r0, #55
 1355              	.LBE184:
 1356              	.LBE183:
 151:../USER/main.c **** void puth4(dt) int dt;{ puth2((dt >> 8) & 0xff); puth2(dt & 0xff); }
 1357              		.loc 1 151 48 view .LVU421
 1358 0038 04F00F04 		and	r4, r4, #15
 1359              	.LVL78:
 1360              	.LBB186:
 1361              	.LBB185:
 150:../USER/main.c **** void puth2(dt) int dt;{ puth((dt >> 4) & 0xf); puth(dt & 0xf); }
 1362              		.loc 1 150 55 view .LVU422
 1363 003c FFF7FEFF 		bl	putch_uart
 1364              	.LVL79:
 150:../USER/main.c **** void puth2(dt) int dt;{ puth((dt >> 4) & 0xf); puth(dt & 0xf); }
 1365              		.loc 1 150 55 view .LVU423
 1366              	.LBE185:
 1367              	.LBE186:
 151:../USER/main.c **** void puth4(dt) int dt;{ puth2((dt >> 8) & 0xff); puth2(dt & 0xff); }
 1368              		.loc 1 151 48 is_stmt 1 view .LVU424
 1369              	.LBB187:
 1370              	.LBI187:
 150:../USER/main.c **** void puth2(dt) int dt;{ puth((dt >> 4) & 0xf); puth(dt & 0xf); }
 1371              		.loc 1 150 6 view .LVU425
 1372              	.LBB188:
 150:../USER/main.c **** void puth2(dt) int dt;{ puth((dt >> 4) & 0xf); puth(dt & 0xf); }
 1373              		.loc 1 150 24 view .LVU426
 150:../USER/main.c **** void puth2(dt) int dt;{ puth((dt >> 4) & 0xf); puth(dt & 0xf); }
 1374              		.loc 1 150 26 is_stmt 0 view .LVU427
 1375 0040 092C     		cmp	r4, #9
 1376 0042 E0B2     		uxtb	r0, r4
 1377 0044 04DC     		bgt	.L136
 150:../USER/main.c **** void puth2(dt) int dt;{ puth((dt >> 4) & 0xf); puth(dt & 0xf); }
 1378              		.loc 1 150 34 is_stmt 1 view .LVU428
 1379              	.LBE188:
 1380              	.LBE187:
 1381              	.LBE182:
 1382              	.LBE181:
 152:../USER/main.c **** void puth6(dt) long dt;{ int dh,dl; dh = dt >> 16; dl = dt & 0xffff; puth2(dh); puth4(dl); }
 1383              		.loc 1 152 1 is_stmt 0 view .LVU429
 1384 0046 BDE83840 		pop	{r3, r4, r5, lr}
 1385              		.cfi_remember_state
 1386              		.cfi_restore 14
 1387              		.cfi_restore 5
 1388              		.cfi_restore 4
 1389              		.cfi_restore 3
 1390              		.cfi_def_cfa_offset 0
 1391              	.LVL80:
 1392              	.LBB195:
 1393              	.LBB193:
 1394              	.LBB191:
 1395              	.LBB189:
 150:../USER/main.c **** void puth2(dt) int dt;{ puth((dt >> 4) & 0xf); puth(dt & 0xf); }
 1396              		.loc 1 150 34 view .LVU430
 1397 004a 3030     		adds	r0, r0, #48
 1398 004c FFF7FEBF 		b	putch_uart
 1399              	.LVL81:
 1400              	.L136:
 1401              		.cfi_restore_state
 150:../USER/main.c **** void puth2(dt) int dt;{ puth((dt >> 4) & 0xf); puth(dt & 0xf); }
 1402              		.loc 1 150 55 is_stmt 1 view .LVU431
 1403 0050 3730     		adds	r0, r0, #55
 1404              	.LBE189:
 1405              	.LBE191:
 1406              	.LBE193:
 1407              	.LBE195:
 152:../USER/main.c **** void puth6(dt) long dt;{ int dh,dl; dh = dt >> 16; dl = dt & 0xffff; puth2(dh); puth4(dl); }
 1408              		.loc 1 152 1 is_stmt 0 view .LVU432
 1409 0052 BDE83840 		pop	{r3, r4, r5, lr}
 1410              		.cfi_restore 14
 1411              		.cfi_restore 5
 1412              		.cfi_restore 4
 1413              		.cfi_restore 3
 1414              		.cfi_def_cfa_offset 0
 1415              	.LVL82:
 1416              	.LBB196:
 1417              	.LBB194:
 1418              	.LBB192:
 1419              	.LBB190:
 150:../USER/main.c **** void puth2(dt) int dt;{ puth((dt >> 4) & 0xf); puth(dt & 0xf); }
 1420              		.loc 1 150 55 view .LVU433
 1421 0056 FFF7FEBF 		b	putch_uart
 1422              	.LVL83:
 1423              	.LBE190:
 1424              	.LBE192:
 1425              	.LBE194:
 1426              	.LBE196:
 1427              		.cfi_endproc
 1428              	.LFE43:
 1430 005a 00BF     		.section	.text.puth6,"ax",%progbits
 1431              		.align	1
 1432              		.p2align 2,,3
 1433              		.global	puth6
 1434              		.syntax unified
 1435              		.thumb
 1436              		.thumb_func
 1437              		.fpu softvfp
 1439              	puth6:
 1440              	.LVL84:
 1441              	.LFB44:
 153:../USER/main.c **** void puth8(dt) long dt;{ int dh,dl; dh = dt >> 16; dl = dt & 0xffff; puth4(dh); puth4(dl); }
 1442              		.loc 1 153 24 is_stmt 1 view -0
 1443              		.cfi_startproc
 1444              		@ args = 0, pretend = 0, frame = 0
 1445              		@ frame_needed = 0, uses_anonymous_args = 0
 153:../USER/main.c **** void puth8(dt) long dt;{ int dh,dl; dh = dt >> 16; dl = dt & 0xffff; puth4(dh); puth4(dl); }
 1446              		.loc 1 153 26 view .LVU435
 153:../USER/main.c **** void puth8(dt) long dt;{ int dh,dl; dh = dt >> 16; dl = dt & 0xffff; puth4(dh); puth4(dl); }
 1447              		.loc 1 153 37 view .LVU436
 153:../USER/main.c **** void puth8(dt) long dt;{ int dh,dl; dh = dt >> 16; dl = dt & 0xffff; puth4(dh); puth4(dl); }
 1448              		.loc 1 153 24 is_stmt 0 view .LVU437
 1449 0000 70B5     		push	{r4, r5, r6, lr}
 1450              		.cfi_def_cfa_offset 16
 1451              		.cfi_offset 4, -16
 1452              		.cfi_offset 5, -12
 1453              		.cfi_offset 6, -8
 1454              		.cfi_offset 14, -4
 153:../USER/main.c **** void puth8(dt) long dt;{ int dh,dl; dh = dt >> 16; dl = dt & 0xffff; puth4(dh); puth4(dl); }
 1455              		.loc 1 153 24 view .LVU438
 1456 0002 0446     		mov	r4, r0
 1457              	.LBB217:
 1458              	.LBB218:
 151:../USER/main.c **** void puth4(dt) int dt;{ puth2((dt >> 8) & 0xff); puth2(dt & 0xff); }
 1459              		.loc 1 151 25 view .LVU439
 1460 0004 C0F30353 		ubfx	r3, r0, #20, #4
 1461 0008 D8B2     		uxtb	r0, r3
 1462              	.LVL85:
 1463              	.LBB219:
 1464              	.LBB220:
 150:../USER/main.c **** void puth2(dt) int dt;{ puth((dt >> 4) & 0xf); puth(dt & 0xf); }
 1465              		.loc 1 150 26 view .LVU440
 1466 000a 092B     		cmp	r3, #9
 150:../USER/main.c **** void puth2(dt) int dt;{ puth((dt >> 4) & 0xf); puth(dt & 0xf); }
 1467              		.loc 1 150 34 view .LVU441
 1468 000c D4BF     		ite	le
 1469 000e 3030     		addle	r0, r0, #48
 150:../USER/main.c **** void puth2(dt) int dt;{ puth((dt >> 4) & 0xf); puth(dt & 0xf); }
 1470              		.loc 1 150 55 view .LVU442
 1471 0010 3730     		addgt	r0, r0, #55
 1472              	.LBE220:
 1473              	.LBE219:
 1474              	.LBE218:
 1475              	.LBE217:
 153:../USER/main.c **** void puth8(dt) long dt;{ int dh,dl; dh = dt >> 16; dl = dt & 0xffff; puth4(dh); puth4(dl); }
 1476              		.loc 1 153 40 view .LVU443
 1477 0012 2614     		asrs	r6, r4, #16
 1478              	.LVL86:
 153:../USER/main.c **** void puth8(dt) long dt;{ int dh,dl; dh = dt >> 16; dl = dt & 0xffff; puth4(dh); puth4(dl); }
 1479              		.loc 1 153 52 is_stmt 1 view .LVU444
 1480              	.LBB231:
 1481              	.LBB229:
 1482              	.LBB223:
 1483              	.LBB221:
 150:../USER/main.c **** void puth2(dt) int dt;{ puth((dt >> 4) & 0xf); puth(dt & 0xf); }
 1484              		.loc 1 150 55 is_stmt 0 view .LVU445
 1485 0014 FFF7FEFF 		bl	putch_uart
 1486              	.LVL87:
 1487              	.LBE221:
 1488              	.LBE223:
 151:../USER/main.c **** void puth4(dt) int dt;{ puth2((dt >> 8) & 0xff); puth2(dt & 0xff); }
 1489              		.loc 1 151 48 view .LVU446
 1490 0018 06F00F03 		and	r3, r6, #15
 1491 001c D8B2     		uxtb	r0, r3
 1492              	.LBB224:
 1493              	.LBB225:
 150:../USER/main.c **** void puth2(dt) int dt;{ puth((dt >> 4) & 0xf); puth(dt & 0xf); }
 1494              		.loc 1 150 26 view .LVU447
 1495 001e 092B     		cmp	r3, #9
 1496              	.LBE225:
 1497              	.LBE224:
 1498              	.LBE229:
 1499              	.LBE231:
 153:../USER/main.c **** void puth8(dt) long dt;{ int dh,dl; dh = dt >> 16; dl = dt & 0xffff; puth4(dh); puth4(dl); }
 1500              		.loc 1 153 55 view .LVU448
 1501 0020 A5B2     		uxth	r5, r4
 1502              	.LVL88:
 153:../USER/main.c **** void puth8(dt) long dt;{ int dh,dl; dh = dt >> 16; dl = dt & 0xffff; puth4(dh); puth4(dl); }
 1503              		.loc 1 153 70 is_stmt 1 view .LVU449
 1504              	.LBB232:
 1505              	.LBI217:
 151:../USER/main.c **** void puth4(dt) int dt;{ puth2((dt >> 8) & 0xff); puth2(dt & 0xff); }
 1506              		.loc 1 151 6 view .LVU450
 1507              	.LBB230:
 151:../USER/main.c **** void puth4(dt) int dt;{ puth2((dt >> 8) & 0xff); puth2(dt & 0xff); }
 1508              		.loc 1 151 25 view .LVU451
 1509              	.LBB227:
 1510              	.LBI219:
 150:../USER/main.c **** void puth2(dt) int dt;{ puth((dt >> 4) & 0xf); puth(dt & 0xf); }
 1511              		.loc 1 150 6 view .LVU452
 1512              	.LBB222:
 150:../USER/main.c **** void puth2(dt) int dt;{ puth((dt >> 4) & 0xf); puth(dt & 0xf); }
 1513              		.loc 1 150 24 view .LVU453
 150:../USER/main.c **** void puth2(dt) int dt;{ puth((dt >> 4) & 0xf); puth(dt & 0xf); }
 1514              		.loc 1 150 34 view .LVU454
 150:../USER/main.c **** void puth2(dt) int dt;{ puth((dt >> 4) & 0xf); puth(dt & 0xf); }
 1515              		.loc 1 150 55 view .LVU455
 1516              	.LBE222:
 1517              	.LBE227:
 151:../USER/main.c **** void puth4(dt) int dt;{ puth2((dt >> 8) & 0xff); puth2(dt & 0xff); }
 1518              		.loc 1 151 48 view .LVU456
 1519              	.LBB228:
 1520              	.LBI224:
 150:../USER/main.c **** void puth2(dt) int dt;{ puth((dt >> 4) & 0xf); puth(dt & 0xf); }
 1521              		.loc 1 150 6 view .LVU457
 1522              	.LBB226:
 150:../USER/main.c **** void puth2(dt) int dt;{ puth((dt >> 4) & 0xf); puth(dt & 0xf); }
 1523              		.loc 1 150 24 view .LVU458
 150:../USER/main.c **** void puth2(dt) int dt;{ puth((dt >> 4) & 0xf); puth(dt & 0xf); }
 1524              		.loc 1 150 34 view .LVU459
 150:../USER/main.c **** void puth2(dt) int dt;{ puth((dt >> 4) & 0xf); puth(dt & 0xf); }
 1525              		.loc 1 150 55 view .LVU460
 150:../USER/main.c **** void puth2(dt) int dt;{ puth((dt >> 4) & 0xf); puth(dt & 0xf); }
 1526              		.loc 1 150 34 is_stmt 0 view .LVU461
 1527 0022 D4BF     		ite	le
 1528 0024 3030     		addle	r0, r0, #48
 150:../USER/main.c **** void puth2(dt) int dt;{ puth((dt >> 4) & 0xf); puth(dt & 0xf); }
 1529              		.loc 1 150 55 view .LVU462
 1530 0026 3730     		addgt	r0, r0, #55
 1531 0028 FFF7FEFF 		bl	putch_uart
 1532              	.LVL89:
 150:../USER/main.c **** void puth2(dt) int dt;{ puth((dt >> 4) & 0xf); puth(dt & 0xf); }
 1533              		.loc 1 150 55 view .LVU463
 1534              	.LBE226:
 1535              	.LBE228:
 1536              	.LBE230:
 1537              	.LBE232:
 153:../USER/main.c **** void puth8(dt) long dt;{ int dh,dl; dh = dt >> 16; dl = dt & 0xffff; puth4(dh); puth4(dl); }
 1538              		.loc 1 153 81 is_stmt 1 view .LVU464
 1539              	.LBB233:
 1540              	.LBI233:
 152:../USER/main.c **** void puth6(dt) long dt;{ int dh,dl; dh = dt >> 16; dl = dt & 0xffff; puth2(dh); puth4(dl); }
 1541              		.loc 1 152 6 view .LVU465
 1542              	.LBB234:
 152:../USER/main.c **** void puth6(dt) long dt;{ int dh,dl; dh = dt >> 16; dl = dt & 0xffff; puth2(dh); puth4(dl); }
 1543              		.loc 1 152 25 view .LVU466
 1544              	.LBB235:
 1545              	.LBB236:
 151:../USER/main.c **** void puth4(dt) int dt;{ puth2((dt >> 8) & 0xff); puth2(dt & 0xff); }
 1546              		.loc 1 151 34 is_stmt 0 view .LVU467
 1547 002c 2B13     		asrs	r3, r5, #12
 1548 002e D8B2     		uxtb	r0, r3
 1549              	.LBB237:
 1550              	.LBB238:
 150:../USER/main.c **** void puth2(dt) int dt;{ puth((dt >> 4) & 0xf); puth(dt & 0xf); }
 1551              		.loc 1 150 26 view .LVU468
 1552 0030 092B     		cmp	r3, #9
 1553              	.LBE238:
 1554              	.LBE237:
 1555              	.LBE236:
 1556              	.LBE235:
 152:../USER/main.c **** void puth6(dt) long dt;{ int dh,dl; dh = dt >> 16; dl = dt & 0xffff; puth2(dh); puth4(dl); }
 1557              		.loc 1 152 35 view .LVU469
 1558 0032 4FEA2525 		asr	r5, r5, #8
 1559              	.LVL90:
 1560              	.LBB246:
 1561              	.LBI235:
 151:../USER/main.c **** void puth4(dt) int dt;{ puth2((dt >> 8) & 0xff); puth2(dt & 0xff); }
 1562              		.loc 1 151 6 is_stmt 1 view .LVU470
 1563              	.LBB245:
 151:../USER/main.c **** void puth4(dt) int dt;{ puth2((dt >> 8) & 0xff); puth2(dt & 0xff); }
 1564              		.loc 1 151 25 view .LVU471
 1565              	.LBB241:
 1566              	.LBI237:
 150:../USER/main.c **** void puth2(dt) int dt;{ puth((dt >> 4) & 0xf); puth(dt & 0xf); }
 1567              		.loc 1 150 6 view .LVU472
 1568              	.LBB239:
 150:../USER/main.c **** void puth2(dt) int dt;{ puth((dt >> 4) & 0xf); puth(dt & 0xf); }
 1569              		.loc 1 150 24 view .LVU473
 150:../USER/main.c **** void puth2(dt) int dt;{ puth((dt >> 4) & 0xf); puth(dt & 0xf); }
 1570              		.loc 1 150 34 view .LVU474
 150:../USER/main.c **** void puth2(dt) int dt;{ puth((dt >> 4) & 0xf); puth(dt & 0xf); }
 1571              		.loc 1 150 55 view .LVU475
 150:../USER/main.c **** void puth2(dt) int dt;{ puth((dt >> 4) & 0xf); puth(dt & 0xf); }
 1572              		.loc 1 150 34 is_stmt 0 view .LVU476
 1573 0036 D4BF     		ite	le
 1574 0038 3030     		addle	r0, r0, #48
 150:../USER/main.c **** void puth2(dt) int dt;{ puth((dt >> 4) & 0xf); puth(dt & 0xf); }
 1575              		.loc 1 150 55 view .LVU477
 1576 003a 3730     		addgt	r0, r0, #55
 1577              	.LBE239:
 1578              	.LBE241:
 151:../USER/main.c **** void puth4(dt) int dt;{ puth2((dt >> 8) & 0xff); puth2(dt & 0xff); }
 1579              		.loc 1 151 48 view .LVU478
 1580 003c 05F00F05 		and	r5, r5, #15
 1581              	.LVL91:
 1582              	.LBB242:
 1583              	.LBB240:
 150:../USER/main.c **** void puth2(dt) int dt;{ puth((dt >> 4) & 0xf); puth(dt & 0xf); }
 1584              		.loc 1 150 55 view .LVU479
 1585 0040 FFF7FEFF 		bl	putch_uart
 1586              	.LVL92:
 150:../USER/main.c **** void puth2(dt) int dt;{ puth((dt >> 4) & 0xf); puth(dt & 0xf); }
 1587              		.loc 1 150 55 view .LVU480
 1588              	.LBE240:
 1589              	.LBE242:
 151:../USER/main.c **** void puth4(dt) int dt;{ puth2((dt >> 8) & 0xff); puth2(dt & 0xff); }
 1590              		.loc 1 151 48 is_stmt 1 view .LVU481
 1591              	.LBB243:
 1592              	.LBI243:
 150:../USER/main.c **** void puth2(dt) int dt;{ puth((dt >> 4) & 0xf); puth(dt & 0xf); }
 1593              		.loc 1 150 6 view .LVU482
 1594              	.LBB244:
 150:../USER/main.c **** void puth2(dt) int dt;{ puth((dt >> 4) & 0xf); puth(dt & 0xf); }
 1595              		.loc 1 150 24 view .LVU483
 150:../USER/main.c **** void puth2(dt) int dt;{ puth((dt >> 4) & 0xf); puth(dt & 0xf); }
 1596              		.loc 1 150 34 view .LVU484
 150:../USER/main.c **** void puth2(dt) int dt;{ puth((dt >> 4) & 0xf); puth(dt & 0xf); }
 1597              		.loc 1 150 55 view .LVU485
 1598 0044 E8B2     		uxtb	r0, r5
 150:../USER/main.c **** void puth2(dt) int dt;{ puth((dt >> 4) & 0xf); puth(dt & 0xf); }
 1599              		.loc 1 150 26 is_stmt 0 view .LVU486
 1600 0046 092D     		cmp	r5, #9
 150:../USER/main.c **** void puth2(dt) int dt;{ puth((dt >> 4) & 0xf); puth(dt & 0xf); }
 1601              		.loc 1 150 34 view .LVU487
 1602 0048 D4BF     		ite	le
 1603 004a 3030     		addle	r0, r0, #48
 150:../USER/main.c **** void puth2(dt) int dt;{ puth((dt >> 4) & 0xf); puth(dt & 0xf); }
 1604              		.loc 1 150 55 view .LVU488
 1605 004c 3730     		addgt	r0, r0, #55
 1606 004e FFF7FEFF 		bl	putch_uart
 1607              	.LVL93:
 150:../USER/main.c **** void puth2(dt) int dt;{ puth((dt >> 4) & 0xf); puth(dt & 0xf); }
 1608              		.loc 1 150 55 view .LVU489
 1609              	.LBE244:
 1610              	.LBE243:
 1611              	.LBE245:
 1612              	.LBE246:
 152:../USER/main.c **** void puth6(dt) long dt;{ int dh,dl; dh = dt >> 16; dl = dt & 0xffff; puth2(dh); puth4(dl); }
 1613              		.loc 1 152 50 is_stmt 1 view .LVU490
 1614              	.LBB247:
 1615              	.LBI247:
 151:../USER/main.c **** void puth4(dt) int dt;{ puth2((dt >> 8) & 0xff); puth2(dt & 0xff); }
 1616              		.loc 1 151 6 view .LVU491
 1617              	.LBB248:
 151:../USER/main.c **** void puth4(dt) int dt;{ puth2((dt >> 8) & 0xff); puth2(dt & 0xff); }
 1618              		.loc 1 151 25 view .LVU492
 151:../USER/main.c **** void puth4(dt) int dt;{ puth2((dt >> 8) & 0xff); puth2(dt & 0xff); }
 1619              		.loc 1 151 34 is_stmt 0 view .LVU493
 1620 0052 C4F30313 		ubfx	r3, r4, #4, #4
 1621              	.LVL94:
 1622              	.LBB249:
 1623              	.LBI249:
 150:../USER/main.c **** void puth2(dt) int dt;{ puth((dt >> 4) & 0xf); puth(dt & 0xf); }
 1624              		.loc 1 150 6 is_stmt 1 view .LVU494
 1625              	.LBB250:
 150:../USER/main.c **** void puth2(dt) int dt;{ puth((dt >> 4) & 0xf); puth(dt & 0xf); }
 1626              		.loc 1 150 24 view .LVU495
 150:../USER/main.c **** void puth2(dt) int dt;{ puth((dt >> 4) & 0xf); puth(dt & 0xf); }
 1627              		.loc 1 150 34 view .LVU496
 150:../USER/main.c **** void puth2(dt) int dt;{ puth((dt >> 4) & 0xf); puth(dt & 0xf); }
 1628              		.loc 1 150 55 view .LVU497
 1629 0056 D8B2     		uxtb	r0, r3
 150:../USER/main.c **** void puth2(dt) int dt;{ puth((dt >> 4) & 0xf); puth(dt & 0xf); }
 1630              		.loc 1 150 26 is_stmt 0 view .LVU498
 1631 0058 092B     		cmp	r3, #9
 150:../USER/main.c **** void puth2(dt) int dt;{ puth((dt >> 4) & 0xf); puth(dt & 0xf); }
 1632              		.loc 1 150 34 view .LVU499
 1633 005a D4BF     		ite	le
 1634 005c 3030     		addle	r0, r0, #48
 150:../USER/main.c **** void puth2(dt) int dt;{ puth((dt >> 4) & 0xf); puth(dt & 0xf); }
 1635              		.loc 1 150 55 view .LVU500
 1636 005e 3730     		addgt	r0, r0, #55
 1637              	.LBE250:
 1638              	.LBE249:
 151:../USER/main.c **** void puth4(dt) int dt;{ puth2((dt >> 8) & 0xff); puth2(dt & 0xff); }
 1639              		.loc 1 151 48 view .LVU501
 1640 0060 04F00F04 		and	r4, r4, #15
 1641              	.LVL95:
 1642              	.LBB252:
 1643              	.LBB251:
 150:../USER/main.c **** void puth2(dt) int dt;{ puth((dt >> 4) & 0xf); puth(dt & 0xf); }
 1644              		.loc 1 150 55 view .LVU502
 1645 0064 FFF7FEFF 		bl	putch_uart
 1646              	.LVL96:
 150:../USER/main.c **** void puth2(dt) int dt;{ puth((dt >> 4) & 0xf); puth(dt & 0xf); }
 1647              		.loc 1 150 55 view .LVU503
 1648              	.LBE251:
 1649              	.LBE252:
 151:../USER/main.c **** void puth4(dt) int dt;{ puth2((dt >> 8) & 0xff); puth2(dt & 0xff); }
 1650              		.loc 1 151 48 is_stmt 1 view .LVU504
 1651              	.LBB253:
 1652              	.LBI253:
 150:../USER/main.c **** void puth2(dt) int dt;{ puth((dt >> 4) & 0xf); puth(dt & 0xf); }
 1653              		.loc 1 150 6 view .LVU505
 1654              	.LBB254:
 150:../USER/main.c **** void puth2(dt) int dt;{ puth((dt >> 4) & 0xf); puth(dt & 0xf); }
 1655              		.loc 1 150 24 view .LVU506
 150:../USER/main.c **** void puth2(dt) int dt;{ puth((dt >> 4) & 0xf); puth(dt & 0xf); }
 1656              		.loc 1 150 26 is_stmt 0 view .LVU507
 1657 0068 092C     		cmp	r4, #9
 1658 006a E0B2     		uxtb	r0, r4
 1659 006c 04DC     		bgt	.L149
 150:../USER/main.c **** void puth2(dt) int dt;{ puth((dt >> 4) & 0xf); puth(dt & 0xf); }
 1660              		.loc 1 150 34 is_stmt 1 view .LVU508
 1661              	.LBE254:
 1662              	.LBE253:
 1663              	.LBE248:
 1664              	.LBE247:
 1665              	.LBE234:
 1666              	.LBE233:
 153:../USER/main.c **** void puth8(dt) long dt;{ int dh,dl; dh = dt >> 16; dl = dt & 0xffff; puth4(dh); puth4(dl); }
 1667              		.loc 1 153 1 is_stmt 0 view .LVU509
 1668 006e BDE87040 		pop	{r4, r5, r6, lr}
 1669              		.cfi_remember_state
 1670              		.cfi_restore 14
 1671              		.cfi_restore 6
 1672              		.cfi_restore 5
 1673              		.cfi_restore 4
 1674              		.cfi_def_cfa_offset 0
 1675              	.LVL97:
 1676              	.LBB265:
 1677              	.LBB263:
 1678              	.LBB261:
 1679              	.LBB259:
 1680              	.LBB257:
 1681              	.LBB255:
 150:../USER/main.c **** void puth2(dt) int dt;{ puth((dt >> 4) & 0xf); puth(dt & 0xf); }
 1682              		.loc 1 150 34 view .LVU510
 1683 0072 3030     		adds	r0, r0, #48
 1684 0074 FFF7FEBF 		b	putch_uart
 1685              	.LVL98:
 1686              	.L149:
 1687              		.cfi_restore_state
 150:../USER/main.c **** void puth2(dt) int dt;{ puth((dt >> 4) & 0xf); puth(dt & 0xf); }
 1688              		.loc 1 150 55 is_stmt 1 view .LVU511
 1689 0078 3730     		adds	r0, r0, #55
 1690              	.LBE255:
 1691              	.LBE257:
 1692              	.LBE259:
 1693              	.LBE261:
 1694              	.LBE263:
 1695              	.LBE265:
 153:../USER/main.c **** void puth8(dt) long dt;{ int dh,dl; dh = dt >> 16; dl = dt & 0xffff; puth4(dh); puth4(dl); }
 1696              		.loc 1 153 1 is_stmt 0 view .LVU512
 1697 007a BDE87040 		pop	{r4, r5, r6, lr}
 1698              		.cfi_restore 14
 1699              		.cfi_restore 6
 1700              		.cfi_restore 5
 1701              		.cfi_restore 4
 1702              		.cfi_def_cfa_offset 0
 1703              	.LVL99:
 1704              	.LBB266:
 1705              	.LBB264:
 1706              	.LBB262:
 1707              	.LBB260:
 1708              	.LBB258:
 1709              	.LBB256:
 150:../USER/main.c **** void puth2(dt) int dt;{ puth((dt >> 4) & 0xf); puth(dt & 0xf); }
 1710              		.loc 1 150 55 view .LVU513
 1711 007e FFF7FEBF 		b	putch_uart
 1712              	.LVL100:
 1713              	.LBE256:
 1714              	.LBE258:
 1715              	.LBE260:
 1716              	.LBE262:
 1717              	.LBE264:
 1718              	.LBE266:
 1719              		.cfi_endproc
 1720              	.LFE44:
 1722 0082 00BF     		.section	.text.puth8,"ax",%progbits
 1723              		.align	1
 1724              		.p2align 2,,3
 1725              		.global	puth8
 1726              		.syntax unified
 1727              		.thumb
 1728              		.thumb_func
 1729              		.fpu softvfp
 1731              	puth8:
 1732              	.LVL101:
 1733              	.LFB45:
 154:../USER/main.c **** void putsuart(char *buf){
 1734              		.loc 1 154 24 is_stmt 1 view -0
 1735              		.cfi_startproc
 1736              		@ args = 0, pretend = 0, frame = 0
 1737              		@ frame_needed = 0, uses_anonymous_args = 0
 154:../USER/main.c **** void putsuart(char *buf){
 1738              		.loc 1 154 26 view .LVU515
 154:../USER/main.c **** void putsuart(char *buf){
 1739              		.loc 1 154 37 view .LVU516
 154:../USER/main.c **** void putsuart(char *buf){
 1740              		.loc 1 154 24 is_stmt 0 view .LVU517
 1741 0000 F8B5     		push	{r3, r4, r5, r6, r7, lr}
 1742              		.cfi_def_cfa_offset 24
 1743              		.cfi_offset 3, -24
 1744              		.cfi_offset 4, -20
 1745              		.cfi_offset 5, -16
 1746              		.cfi_offset 6, -12
 1747              		.cfi_offset 7, -8
 1748              		.cfi_offset 14, -4
 154:../USER/main.c **** void putsuart(char *buf){
 1749              		.loc 1 154 24 view .LVU518
 1750 0002 0446     		mov	r4, r0
 1751 0004 060E     		lsrs	r6, r0, #24
 1752              	.LBB295:
 1753              	.LBB296:
 1754              	.LBB297:
 151:../USER/main.c **** void puth4(dt) int dt;{ puth2((dt >> 8) & 0xff); puth2(dt & 0xff); }
 1755              		.loc 1 151 34 view .LVU519
 1756 0006 3311     		asrs	r3, r6, #4
 1757 0008 D8B2     		uxtb	r0, r3
 1758              	.LVL102:
 1759              	.LBB298:
 1760              	.LBB299:
 150:../USER/main.c **** void puth2(dt) int dt;{ puth((dt >> 4) & 0xf); puth(dt & 0xf); }
 1761              		.loc 1 150 26 view .LVU520
 1762 000a 092B     		cmp	r3, #9
 150:../USER/main.c **** void puth2(dt) int dt;{ puth((dt >> 4) & 0xf); puth(dt & 0xf); }
 1763              		.loc 1 150 34 view .LVU521
 1764 000c D4BF     		ite	le
 1765 000e 3030     		addle	r0, r0, #48
 150:../USER/main.c **** void puth2(dt) int dt;{ puth((dt >> 4) & 0xf); puth(dt & 0xf); }
 1766              		.loc 1 150 55 view .LVU522
 1767 0010 3730     		addgt	r0, r0, #55
 1768              	.LBE299:
 1769              	.LBE298:
 151:../USER/main.c **** void puth4(dt) int dt;{ puth2((dt >> 8) & 0xff); puth2(dt & 0xff); }
 1770              		.loc 1 151 48 view .LVU523
 1771 0012 06F00F06 		and	r6, r6, #15
 1772              	.LBB302:
 1773              	.LBB300:
 150:../USER/main.c **** void puth2(dt) int dt;{ puth((dt >> 4) & 0xf); puth(dt & 0xf); }
 1774              		.loc 1 150 55 view .LVU524
 1775 0016 FFF7FEFF 		bl	putch_uart
 1776              	.LVL103:
 1777 001a F0B2     		uxtb	r0, r6
 1778              	.LBE300:
 1779              	.LBE302:
 1780              	.LBB303:
 1781              	.LBB304:
 150:../USER/main.c **** void puth2(dt) int dt;{ puth((dt >> 4) & 0xf); puth(dt & 0xf); }
 1782              		.loc 1 150 26 view .LVU525
 1783 001c 092E     		cmp	r6, #9
 150:../USER/main.c **** void puth2(dt) int dt;{ puth((dt >> 4) & 0xf); puth(dt & 0xf); }
 1784              		.loc 1 150 34 view .LVU526
 1785 001e D4BF     		ite	le
 1786 0020 3030     		addle	r0, r0, #48
 150:../USER/main.c **** void puth2(dt) int dt;{ puth((dt >> 4) & 0xf); puth(dt & 0xf); }
 1787              		.loc 1 150 55 view .LVU527
 1788 0022 3730     		addgt	r0, r0, #55
 1789 0024 FFF7FEFF 		bl	putch_uart
 1790              	.LVL104:
 1791              	.LBE304:
 1792              	.LBE303:
 1793              	.LBE297:
 1794              	.LBE296:
 1795              	.LBB309:
 1796              	.LBB310:
 151:../USER/main.c **** void puth4(dt) int dt;{ puth2((dt >> 8) & 0xff); puth2(dt & 0xff); }
 1797              		.loc 1 151 34 view .LVU528
 1798 0028 C4F30353 		ubfx	r3, r4, #20, #4
 1799 002c D8B2     		uxtb	r0, r3
 1800              	.LBB311:
 1801              	.LBB312:
 150:../USER/main.c **** void puth2(dt) int dt;{ puth((dt >> 4) & 0xf); puth(dt & 0xf); }
 1802              		.loc 1 150 26 view .LVU529
 1803 002e 092B     		cmp	r3, #9
 150:../USER/main.c **** void puth2(dt) int dt;{ puth((dt >> 4) & 0xf); puth(dt & 0xf); }
 1804              		.loc 1 150 34 view .LVU530
 1805 0030 D4BF     		ite	le
 1806 0032 3030     		addle	r0, r0, #48
 150:../USER/main.c **** void puth2(dt) int dt;{ puth((dt >> 4) & 0xf); puth(dt & 0xf); }
 1807              		.loc 1 150 55 view .LVU531
 1808 0034 3730     		addgt	r0, r0, #55
 1809              	.LBE312:
 1810              	.LBE311:
 1811              	.LBE310:
 1812              	.LBE309:
 1813              	.LBE295:
 154:../USER/main.c **** void putsuart(char *buf){
 1814              		.loc 1 154 40 view .LVU532
 1815 0036 2714     		asrs	r7, r4, #16
 1816              	.LVL105:
 154:../USER/main.c **** void putsuart(char *buf){
 1817              		.loc 1 154 52 is_stmt 1 view .LVU533
 1818              	.LBB326:
 1819              	.LBB323:
 1820              	.LBB321:
 1821              	.LBB315:
 1822              	.LBB313:
 150:../USER/main.c **** void puth2(dt) int dt;{ puth((dt >> 4) & 0xf); puth(dt & 0xf); }
 1823              		.loc 1 150 55 is_stmt 0 view .LVU534
 1824 0038 FFF7FEFF 		bl	putch_uart
 1825              	.LVL106:
 1826              	.LBE313:
 1827              	.LBE315:
 151:../USER/main.c **** void puth4(dt) int dt;{ puth2((dt >> 8) & 0xff); puth2(dt & 0xff); }
 1828              		.loc 1 151 48 view .LVU535
 1829 003c 07F00F03 		and	r3, r7, #15
 1830 0040 D8B2     		uxtb	r0, r3
 1831              	.LBB316:
 1832              	.LBB317:
 150:../USER/main.c **** void puth2(dt) int dt;{ puth((dt >> 4) & 0xf); puth(dt & 0xf); }
 1833              		.loc 1 150 26 view .LVU536
 1834 0042 092B     		cmp	r3, #9
 1835              	.LBE317:
 1836              	.LBE316:
 1837              	.LBE321:
 1838              	.LBE323:
 1839              	.LBE326:
 154:../USER/main.c **** void putsuart(char *buf){
 1840              		.loc 1 154 55 view .LVU537
 1841 0044 A5B2     		uxth	r5, r4
 1842              	.LVL107:
 154:../USER/main.c **** void putsuart(char *buf){
 1843              		.loc 1 154 70 is_stmt 1 view .LVU538
 1844              	.LBB327:
 1845              	.LBI295:
 152:../USER/main.c **** void puth6(dt) long dt;{ int dh,dl; dh = dt >> 16; dl = dt & 0xffff; puth2(dh); puth4(dl); }
 1846              		.loc 1 152 6 view .LVU539
 1847              	.LBE327:
 152:../USER/main.c **** void puth6(dt) long dt;{ int dh,dl; dh = dt >> 16; dl = dt & 0xffff; puth2(dh); puth4(dl); }
 1848              		.loc 1 152 25 view .LVU540
 1849              	.LBB328:
 1850              	.LBB324:
 1851              	.LBI296:
 151:../USER/main.c **** void puth4(dt) int dt;{ puth2((dt >> 8) & 0xff); puth2(dt & 0xff); }
 1852              		.loc 1 151 6 view .LVU541
 1853              	.LBB308:
 151:../USER/main.c **** void puth4(dt) int dt;{ puth2((dt >> 8) & 0xff); puth2(dt & 0xff); }
 1854              		.loc 1 151 25 view .LVU542
 1855              	.LBB306:
 1856              	.LBI298:
 150:../USER/main.c **** void puth2(dt) int dt;{ puth((dt >> 4) & 0xf); puth(dt & 0xf); }
 1857              		.loc 1 150 6 view .LVU543
 1858              	.LBB301:
 150:../USER/main.c **** void puth2(dt) int dt;{ puth((dt >> 4) & 0xf); puth(dt & 0xf); }
 1859              		.loc 1 150 24 view .LVU544
 150:../USER/main.c **** void puth2(dt) int dt;{ puth((dt >> 4) & 0xf); puth(dt & 0xf); }
 1860              		.loc 1 150 34 view .LVU545
 150:../USER/main.c **** void puth2(dt) int dt;{ puth((dt >> 4) & 0xf); puth(dt & 0xf); }
 1861              		.loc 1 150 55 view .LVU546
 1862              	.LBE301:
 1863              	.LBE306:
 151:../USER/main.c **** void puth4(dt) int dt;{ puth2((dt >> 8) & 0xff); puth2(dt & 0xff); }
 1864              		.loc 1 151 48 view .LVU547
 1865              	.LBB307:
 1866              	.LBI303:
 150:../USER/main.c **** void puth2(dt) int dt;{ puth((dt >> 4) & 0xf); puth(dt & 0xf); }
 1867              		.loc 1 150 6 view .LVU548
 1868              	.LBB305:
 150:../USER/main.c **** void puth2(dt) int dt;{ puth((dt >> 4) & 0xf); puth(dt & 0xf); }
 1869              		.loc 1 150 24 view .LVU549
 150:../USER/main.c **** void puth2(dt) int dt;{ puth((dt >> 4) & 0xf); puth(dt & 0xf); }
 1870              		.loc 1 150 34 view .LVU550
 150:../USER/main.c **** void puth2(dt) int dt;{ puth((dt >> 4) & 0xf); puth(dt & 0xf); }
 1871              		.loc 1 150 55 view .LVU551
 150:../USER/main.c **** void puth2(dt) int dt;{ puth((dt >> 4) & 0xf); puth(dt & 0xf); }
 1872              		.loc 1 150 55 is_stmt 0 view .LVU552
 1873              	.LBE305:
 1874              	.LBE307:
 1875              	.LBE308:
 1876              	.LBE324:
 1877              	.LBE328:
 152:../USER/main.c **** void puth6(dt) long dt;{ int dh,dl; dh = dt >> 16; dl = dt & 0xffff; puth2(dh); puth4(dl); }
 1878              		.loc 1 152 50 is_stmt 1 view .LVU553
 1879              	.LBB329:
 1880              	.LBB325:
 1881              	.LBI309:
 151:../USER/main.c **** void puth4(dt) int dt;{ puth2((dt >> 8) & 0xff); puth2(dt & 0xff); }
 1882              		.loc 1 151 6 view .LVU554
 1883              	.LBB322:
 151:../USER/main.c **** void puth4(dt) int dt;{ puth2((dt >> 8) & 0xff); puth2(dt & 0xff); }
 1884              		.loc 1 151 25 view .LVU555
 1885              	.LBB319:
 1886              	.LBI311:
 150:../USER/main.c **** void puth2(dt) int dt;{ puth((dt >> 4) & 0xf); puth(dt & 0xf); }
 1887              		.loc 1 150 6 view .LVU556
 1888              	.LBB314:
 150:../USER/main.c **** void puth2(dt) int dt;{ puth((dt >> 4) & 0xf); puth(dt & 0xf); }
 1889              		.loc 1 150 24 view .LVU557
 150:../USER/main.c **** void puth2(dt) int dt;{ puth((dt >> 4) & 0xf); puth(dt & 0xf); }
 1890              		.loc 1 150 34 view .LVU558
 150:../USER/main.c **** void puth2(dt) int dt;{ puth((dt >> 4) & 0xf); puth(dt & 0xf); }
 1891              		.loc 1 150 55 view .LVU559
 1892              	.LBE314:
 1893              	.LBE319:
 151:../USER/main.c **** void puth4(dt) int dt;{ puth2((dt >> 8) & 0xff); puth2(dt & 0xff); }
 1894              		.loc 1 151 48 view .LVU560
 1895              	.LBB320:
 1896              	.LBI316:
 150:../USER/main.c **** void puth2(dt) int dt;{ puth((dt >> 4) & 0xf); puth(dt & 0xf); }
 1897              		.loc 1 150 6 view .LVU561
 1898              	.LBB318:
 150:../USER/main.c **** void puth2(dt) int dt;{ puth((dt >> 4) & 0xf); puth(dt & 0xf); }
 1899              		.loc 1 150 24 view .LVU562
 150:../USER/main.c **** void puth2(dt) int dt;{ puth((dt >> 4) & 0xf); puth(dt & 0xf); }
 1900              		.loc 1 150 34 view .LVU563
 150:../USER/main.c **** void puth2(dt) int dt;{ puth((dt >> 4) & 0xf); puth(dt & 0xf); }
 1901              		.loc 1 150 55 view .LVU564
 150:../USER/main.c **** void puth2(dt) int dt;{ puth((dt >> 4) & 0xf); puth(dt & 0xf); }
 1902              		.loc 1 150 34 is_stmt 0 view .LVU565
 1903 0046 D4BF     		ite	le
 1904 0048 3030     		addle	r0, r0, #48
 150:../USER/main.c **** void puth2(dt) int dt;{ puth((dt >> 4) & 0xf); puth(dt & 0xf); }
 1905              		.loc 1 150 55 view .LVU566
 1906 004a 3730     		addgt	r0, r0, #55
 1907 004c FFF7FEFF 		bl	putch_uart
 1908              	.LVL108:
 150:../USER/main.c **** void puth2(dt) int dt;{ puth((dt >> 4) & 0xf); puth(dt & 0xf); }
 1909              		.loc 1 150 55 view .LVU567
 1910              	.LBE318:
 1911              	.LBE320:
 1912              	.LBE322:
 1913              	.LBE325:
 1914              	.LBE329:
 154:../USER/main.c **** void putsuart(char *buf){
 1915              		.loc 1 154 81 is_stmt 1 view .LVU568
 1916              	.LBB330:
 1917              	.LBI330:
 152:../USER/main.c **** void puth6(dt) long dt;{ int dh,dl; dh = dt >> 16; dl = dt & 0xffff; puth2(dh); puth4(dl); }
 1918              		.loc 1 152 6 view .LVU569
 1919              	.LBB331:
 152:../USER/main.c **** void puth6(dt) long dt;{ int dh,dl; dh = dt >> 16; dl = dt & 0xffff; puth2(dh); puth4(dl); }
 1920              		.loc 1 152 25 view .LVU570
 1921              	.LBB332:
 1922              	.LBB333:
 151:../USER/main.c **** void puth4(dt) int dt;{ puth2((dt >> 8) & 0xff); puth2(dt & 0xff); }
 1923              		.loc 1 151 34 is_stmt 0 view .LVU571
 1924 0050 2B13     		asrs	r3, r5, #12
 1925 0052 D8B2     		uxtb	r0, r3
 1926              	.LBB334:
 1927              	.LBB335:
 150:../USER/main.c **** void puth2(dt) int dt;{ puth((dt >> 4) & 0xf); puth(dt & 0xf); }
 1928              		.loc 1 150 26 view .LVU572
 1929 0054 092B     		cmp	r3, #9
 1930              	.LBE335:
 1931              	.LBE334:
 1932              	.LBE333:
 1933              	.LBE332:
 152:../USER/main.c **** void puth6(dt) long dt;{ int dh,dl; dh = dt >> 16; dl = dt & 0xffff; puth2(dh); puth4(dl); }
 1934              		.loc 1 152 35 view .LVU573
 1935 0056 4FEA2525 		asr	r5, r5, #8
 1936              	.LVL109:
 1937              	.LBB343:
 1938              	.LBI332:
 151:../USER/main.c **** void puth4(dt) int dt;{ puth2((dt >> 8) & 0xff); puth2(dt & 0xff); }
 1939              		.loc 1 151 6 is_stmt 1 view .LVU574
 1940              	.LBB342:
 151:../USER/main.c **** void puth4(dt) int dt;{ puth2((dt >> 8) & 0xff); puth2(dt & 0xff); }
 1941              		.loc 1 151 25 view .LVU575
 1942              	.LBB338:
 1943              	.LBI334:
 150:../USER/main.c **** void puth2(dt) int dt;{ puth((dt >> 4) & 0xf); puth(dt & 0xf); }
 1944              		.loc 1 150 6 view .LVU576
 1945              	.LBB336:
 150:../USER/main.c **** void puth2(dt) int dt;{ puth((dt >> 4) & 0xf); puth(dt & 0xf); }
 1946              		.loc 1 150 24 view .LVU577
 150:../USER/main.c **** void puth2(dt) int dt;{ puth((dt >> 4) & 0xf); puth(dt & 0xf); }
 1947              		.loc 1 150 34 view .LVU578
 150:../USER/main.c **** void puth2(dt) int dt;{ puth((dt >> 4) & 0xf); puth(dt & 0xf); }
 1948              		.loc 1 150 55 view .LVU579
 150:../USER/main.c **** void puth2(dt) int dt;{ puth((dt >> 4) & 0xf); puth(dt & 0xf); }
 1949              		.loc 1 150 34 is_stmt 0 view .LVU580
 1950 005a D4BF     		ite	le
 1951 005c 3030     		addle	r0, r0, #48
 150:../USER/main.c **** void puth2(dt) int dt;{ puth((dt >> 4) & 0xf); puth(dt & 0xf); }
 1952              		.loc 1 150 55 view .LVU581
 1953 005e 3730     		addgt	r0, r0, #55
 1954              	.LBE336:
 1955              	.LBE338:
 151:../USER/main.c **** void puth4(dt) int dt;{ puth2((dt >> 8) & 0xff); puth2(dt & 0xff); }
 1956              		.loc 1 151 48 view .LVU582
 1957 0060 05F00F05 		and	r5, r5, #15
 1958              	.LVL110:
 1959              	.LBB339:
 1960              	.LBB337:
 150:../USER/main.c **** void puth2(dt) int dt;{ puth((dt >> 4) & 0xf); puth(dt & 0xf); }
 1961              		.loc 1 150 55 view .LVU583
 1962 0064 FFF7FEFF 		bl	putch_uart
 1963              	.LVL111:
 150:../USER/main.c **** void puth2(dt) int dt;{ puth((dt >> 4) & 0xf); puth(dt & 0xf); }
 1964              		.loc 1 150 55 view .LVU584
 1965              	.LBE337:
 1966              	.LBE339:
 151:../USER/main.c **** void puth4(dt) int dt;{ puth2((dt >> 8) & 0xff); puth2(dt & 0xff); }
 1967              		.loc 1 151 48 is_stmt 1 view .LVU585
 1968              	.LBB340:
 1969              	.LBI340:
 150:../USER/main.c **** void puth2(dt) int dt;{ puth((dt >> 4) & 0xf); puth(dt & 0xf); }
 1970              		.loc 1 150 6 view .LVU586
 1971              	.LBB341:
 150:../USER/main.c **** void puth2(dt) int dt;{ puth((dt >> 4) & 0xf); puth(dt & 0xf); }
 1972              		.loc 1 150 24 view .LVU587
 150:../USER/main.c **** void puth2(dt) int dt;{ puth((dt >> 4) & 0xf); puth(dt & 0xf); }
 1973              		.loc 1 150 34 view .LVU588
 150:../USER/main.c **** void puth2(dt) int dt;{ puth((dt >> 4) & 0xf); puth(dt & 0xf); }
 1974              		.loc 1 150 55 view .LVU589
 1975 0068 E8B2     		uxtb	r0, r5
 150:../USER/main.c **** void puth2(dt) int dt;{ puth((dt >> 4) & 0xf); puth(dt & 0xf); }
 1976              		.loc 1 150 26 is_stmt 0 view .LVU590
 1977 006a 092D     		cmp	r5, #9
 150:../USER/main.c **** void puth2(dt) int dt;{ puth((dt >> 4) & 0xf); puth(dt & 0xf); }
 1978              		.loc 1 150 34 view .LVU591
 1979 006c D4BF     		ite	le
 1980 006e 3030     		addle	r0, r0, #48
 150:../USER/main.c **** void puth2(dt) int dt;{ puth((dt >> 4) & 0xf); puth(dt & 0xf); }
 1981              		.loc 1 150 55 view .LVU592
 1982 0070 3730     		addgt	r0, r0, #55
 1983 0072 FFF7FEFF 		bl	putch_uart
 1984              	.LVL112:
 150:../USER/main.c **** void puth2(dt) int dt;{ puth((dt >> 4) & 0xf); puth(dt & 0xf); }
 1985              		.loc 1 150 55 view .LVU593
 1986              	.LBE341:
 1987              	.LBE340:
 1988              	.LBE342:
 1989              	.LBE343:
 152:../USER/main.c **** void puth6(dt) long dt;{ int dh,dl; dh = dt >> 16; dl = dt & 0xffff; puth2(dh); puth4(dl); }
 1990              		.loc 1 152 50 is_stmt 1 view .LVU594
 1991              	.LBB344:
 1992              	.LBI344:
 151:../USER/main.c **** void puth4(dt) int dt;{ puth2((dt >> 8) & 0xff); puth2(dt & 0xff); }
 1993              		.loc 1 151 6 view .LVU595
 1994              	.LBB345:
 151:../USER/main.c **** void puth4(dt) int dt;{ puth2((dt >> 8) & 0xff); puth2(dt & 0xff); }
 1995              		.loc 1 151 25 view .LVU596
 151:../USER/main.c **** void puth4(dt) int dt;{ puth2((dt >> 8) & 0xff); puth2(dt & 0xff); }
 1996              		.loc 1 151 34 is_stmt 0 view .LVU597
 1997 0076 C4F30313 		ubfx	r3, r4, #4, #4
 1998              	.LVL113:
 1999              	.LBB346:
 2000              	.LBI346:
 150:../USER/main.c **** void puth2(dt) int dt;{ puth((dt >> 4) & 0xf); puth(dt & 0xf); }
 2001              		.loc 1 150 6 is_stmt 1 view .LVU598
 2002              	.LBB347:
 150:../USER/main.c **** void puth2(dt) int dt;{ puth((dt >> 4) & 0xf); puth(dt & 0xf); }
 2003              		.loc 1 150 24 view .LVU599
 150:../USER/main.c **** void puth2(dt) int dt;{ puth((dt >> 4) & 0xf); puth(dt & 0xf); }
 2004              		.loc 1 150 34 view .LVU600
 150:../USER/main.c **** void puth2(dt) int dt;{ puth((dt >> 4) & 0xf); puth(dt & 0xf); }
 2005              		.loc 1 150 55 view .LVU601
 2006 007a D8B2     		uxtb	r0, r3
 150:../USER/main.c **** void puth2(dt) int dt;{ puth((dt >> 4) & 0xf); puth(dt & 0xf); }
 2007              		.loc 1 150 26 is_stmt 0 view .LVU602
 2008 007c 092B     		cmp	r3, #9
 150:../USER/main.c **** void puth2(dt) int dt;{ puth((dt >> 4) & 0xf); puth(dt & 0xf); }
 2009              		.loc 1 150 34 view .LVU603
 2010 007e D4BF     		ite	le
 2011 0080 3030     		addle	r0, r0, #48
 150:../USER/main.c **** void puth2(dt) int dt;{ puth((dt >> 4) & 0xf); puth(dt & 0xf); }
 2012              		.loc 1 150 55 view .LVU604
 2013 0082 3730     		addgt	r0, r0, #55
 2014              	.LBE347:
 2015              	.LBE346:
 151:../USER/main.c **** void puth4(dt) int dt;{ puth2((dt >> 8) & 0xff); puth2(dt & 0xff); }
 2016              		.loc 1 151 48 view .LVU605
 2017 0084 04F00F04 		and	r4, r4, #15
 2018              	.LVL114:
 2019              	.LBB349:
 2020              	.LBB348:
 150:../USER/main.c **** void puth2(dt) int dt;{ puth((dt >> 4) & 0xf); puth(dt & 0xf); }
 2021              		.loc 1 150 55 view .LVU606
 2022 0088 FFF7FEFF 		bl	putch_uart
 2023              	.LVL115:
 150:../USER/main.c **** void puth2(dt) int dt;{ puth((dt >> 4) & 0xf); puth(dt & 0xf); }
 2024              		.loc 1 150 55 view .LVU607
 2025              	.LBE348:
 2026              	.LBE349:
 151:../USER/main.c **** void puth4(dt) int dt;{ puth2((dt >> 8) & 0xff); puth2(dt & 0xff); }
 2027              		.loc 1 151 48 is_stmt 1 view .LVU608
 2028              	.LBB350:
 2029              	.LBI350:
 150:../USER/main.c **** void puth2(dt) int dt;{ puth((dt >> 4) & 0xf); puth(dt & 0xf); }
 2030              		.loc 1 150 6 view .LVU609
 2031              	.LBB351:
 150:../USER/main.c **** void puth2(dt) int dt;{ puth((dt >> 4) & 0xf); puth(dt & 0xf); }
 2032              		.loc 1 150 24 view .LVU610
 150:../USER/main.c **** void puth2(dt) int dt;{ puth((dt >> 4) & 0xf); puth(dt & 0xf); }
 2033              		.loc 1 150 26 is_stmt 0 view .LVU611
 2034 008c 092C     		cmp	r4, #9
 2035 008e E0B2     		uxtb	r0, r4
 2036 0090 04DC     		bgt	.L166
 150:../USER/main.c **** void puth2(dt) int dt;{ puth((dt >> 4) & 0xf); puth(dt & 0xf); }
 2037              		.loc 1 150 34 is_stmt 1 view .LVU612
 2038              	.LBE351:
 2039              	.LBE350:
 2040              	.LBE345:
 2041              	.LBE344:
 2042              	.LBE331:
 2043              	.LBE330:
 154:../USER/main.c **** void putsuart(char *buf){
 2044              		.loc 1 154 1 is_stmt 0 view .LVU613
 2045 0092 BDE8F840 		pop	{r3, r4, r5, r6, r7, lr}
 2046              		.cfi_remember_state
 2047              		.cfi_restore 14
 2048              		.cfi_restore 7
 2049              		.cfi_restore 6
 2050              		.cfi_restore 5
 2051              		.cfi_restore 4
 2052              		.cfi_restore 3
 2053              		.cfi_def_cfa_offset 0
 2054              	.LVL116:
 2055              	.LBB362:
 2056              	.LBB360:
 2057              	.LBB358:
 2058              	.LBB356:
 2059              	.LBB354:
 2060              	.LBB352:
 150:../USER/main.c **** void puth2(dt) int dt;{ puth((dt >> 4) & 0xf); puth(dt & 0xf); }
 2061              		.loc 1 150 34 view .LVU614
 2062 0096 3030     		adds	r0, r0, #48
 2063 0098 FFF7FEBF 		b	putch_uart
 2064              	.LVL117:
 2065              	.L166:
 2066              		.cfi_restore_state
 150:../USER/main.c **** void puth2(dt) int dt;{ puth((dt >> 4) & 0xf); puth(dt & 0xf); }
 2067              		.loc 1 150 55 is_stmt 1 view .LVU615
 2068 009c 3730     		adds	r0, r0, #55
 2069              	.LBE352:
 2070              	.LBE354:
 2071              	.LBE356:
 2072              	.LBE358:
 2073              	.LBE360:
 2074              	.LBE362:
 154:../USER/main.c **** void putsuart(char *buf){
 2075              		.loc 1 154 1 is_stmt 0 view .LVU616
 2076 009e BDE8F840 		pop	{r3, r4, r5, r6, r7, lr}
 2077              		.cfi_restore 14
 2078              		.cfi_restore 7
 2079              		.cfi_restore 6
 2080              		.cfi_restore 5
 2081              		.cfi_restore 4
 2082              		.cfi_restore 3
 2083              		.cfi_def_cfa_offset 0
 2084              	.LVL118:
 2085              	.LBB363:
 2086              	.LBB361:
 2087              	.LBB359:
 2088              	.LBB357:
 2089              	.LBB355:
 2090              	.LBB353:
 150:../USER/main.c **** void puth2(dt) int dt;{ puth((dt >> 4) & 0xf); puth(dt & 0xf); }
 2091              		.loc 1 150 55 view .LVU617
 2092 00a2 FFF7FEBF 		b	putch_uart
 2093              	.LVL119:
 2094              	.LBE353:
 2095              	.LBE355:
 2096              	.LBE357:
 2097              	.LBE359:
 2098              	.LBE361:
 2099              	.LBE363:
 2100              		.cfi_endproc
 2101              	.LFE45:
 2103 00a6 00BF     		.section	.text.putsuart,"ax",%progbits
 2104              		.align	1
 2105              		.p2align 2,,3
 2106              		.global	putsuart
 2107              		.syntax unified
 2108              		.thumb
 2109              		.thumb_func
 2110              		.fpu softvfp
 2112              	putsuart:
 2113              	.LVL120:
 2114              	.LFB46:
 155:../USER/main.c **** 	while(1){
 2115              		.loc 1 155 25 is_stmt 1 view -0
 2116              		.cfi_startproc
 2117              		@ args = 0, pretend = 0, frame = 0
 2118              		@ frame_needed = 0, uses_anonymous_args = 0
 155:../USER/main.c **** 	while(1){
 2119              		.loc 1 155 25 is_stmt 0 view .LVU619
 2120 0000 10B5     		push	{r4, lr}
 2121              		.cfi_def_cfa_offset 8
 2122              		.cfi_offset 4, -8
 2123              		.cfi_offset 14, -4
 155:../USER/main.c **** 	while(1){
 2124              		.loc 1 155 25 view .LVU620
 2125 0002 0446     		mov	r4, r0
 156:../USER/main.c **** 		if(*buf==0) break;
 2126              		.loc 1 156 2 is_stmt 1 view .LVU621
 157:../USER/main.c **** 		else        putch(*buf++);
 2127              		.loc 1 157 3 view .LVU622
 157:../USER/main.c **** 		else        putch(*buf++);
 2128              		.loc 1 157 6 is_stmt 0 view .LVU623
 2129 0004 90F90000 		ldrsb	r0, [r0]
 2130              	.LVL121:
 157:../USER/main.c **** 		else        putch(*buf++);
 2131              		.loc 1 157 5 view .LVU624
 2132 0008 28B1     		cbz	r0, .L168
 2133              	.LVL122:
 2134              	.L170:
 158:../USER/main.c **** 	}
 2135              		.loc 1 158 15 is_stmt 1 view .LVU625
 158:../USER/main.c **** 	}
 2136              		.loc 1 158 15 is_stmt 0 view .LVU626
 2137 000a FFF7FEFF 		bl	putch_uart
 2138              	.LVL123:
 156:../USER/main.c **** 		if(*buf==0) break;
 2139              		.loc 1 156 2 is_stmt 1 view .LVU627
 157:../USER/main.c **** 		else        putch(*buf++);
 2140              		.loc 1 157 3 view .LVU628
 157:../USER/main.c **** 		else        putch(*buf++);
 2141              		.loc 1 157 6 is_stmt 0 view .LVU629
 2142 000e 14F9010F 		ldrsb	r0, [r4, #1]!
 2143              	.LVL124:
 157:../USER/main.c **** 		else        putch(*buf++);
 2144              		.loc 1 157 5 view .LVU630
 2145 0012 0028     		cmp	r0, #0
 2146 0014 F9D1     		bne	.L170
 2147              	.LVL125:
 2148              	.L168:
 160:../USER/main.c **** void getsuart(char *buf){
 2149              		.loc 1 160 1 view .LVU631
 2150 0016 10BD     		pop	{r4, pc}
 2151              		.cfi_endproc
 2152              	.LFE46:
 2154              		.section	.text.getsuart,"ax",%progbits
 2155              		.align	1
 2156              		.p2align 2,,3
 2157              		.global	getsuart
 2158              		.syntax unified
 2159              		.thumb
 2160              		.thumb_func
 2161              		.fpu softvfp
 2163              	getsuart:
 2164              	.LVL126:
 2165              	.LFB47:
 161:../USER/main.c **** 	char ch;
 2166              		.loc 1 161 25 is_stmt 1 view -0
 2167              		.cfi_startproc
 2168              		@ args = 0, pretend = 0, frame = 0
 2169              		@ frame_needed = 0, uses_anonymous_args = 0
 161:../USER/main.c **** 	char ch;
 2170              		.loc 1 161 25 is_stmt 0 view .LVU633
 2171 0000 2DE9F843 		push	{r3, r4, r5, r6, r7, r8, r9, lr}
 2172              		.cfi_def_cfa_offset 32
 2173              		.cfi_offset 3, -32
 2174              		.cfi_offset 4, -28
 2175              		.cfi_offset 5, -24
 2176              		.cfi_offset 6, -20
 2177              		.cfi_offset 7, -16
 2178              		.cfi_offset 8, -12
 2179              		.cfi_offset 9, -8
 2180              		.cfi_offset 14, -4
 161:../USER/main.c **** 	char ch;
 2181              		.loc 1 161 25 view .LVU634
 2182 0004 0746     		mov	r7, r0
 2183              	.LBB368:
 2184              	.LBB369:
 2185              	.LBB370:
 2186              	.LBB371:
 123:../USER/main.c **** 	if(kinbwp>=256) kinbwp = 0;
 2187              		.loc 1 123 52 view .LVU635
 2188 0006 4FF00108 		mov	r8, #1
 2189 000a 284C     		ldr	r4, .L200
 2190 000c 284D     		ldr	r5, .L200+4
 2191 000e 294E     		ldr	r6, .L200+8
 2192              	.LVL127:
 2193              	.L189:
 123:../USER/main.c **** 	if(kinbwp>=256) kinbwp = 0;
 2194              		.loc 1 123 52 view .LVU636
 2195              	.LBE371:
 2196              	.LBE370:
 2197              	.LBE369:
 2198              	.LBE368:
 162:../USER/main.c **** 	while(1){
 2199              		.loc 1 162 2 is_stmt 1 view .LVU637
 163:../USER/main.c **** 		ch = getch(); putch(ch); *buf++ = ch;
 2200              		.loc 1 163 2 view .LVU638
 164:../USER/main.c **** 		if(ch==0x0d) break;
 2201              		.loc 1 164 3 view .LVU639
 2202              	.LBB381:
 2203              	.LBI368:
 127:../USER/main.c **** 	char dt;
 2204              		.loc 1 127 6 view .LVU640
 2205              	.LBB378:
 2206              	.LBB375:
 2207              	.LBB372:
 123:../USER/main.c **** 	if(kinbwp>=256) kinbwp = 0;
 2208              		.loc 1 123 11 is_stmt 0 view .LVU641
 2209 0010 4FF04029 		mov	r9, #1073758208
 2210 0014 2368     		ldr	r3, [r4]
 2211              	.L184:
 2212              	.LBE372:
 2213              	.LBE375:
 129:../USER/main.c **** 	dt = kinbuf[kinbrp++];
 2214              		.loc 1 129 14 view .LVU642
 2215 0016 3268     		ldr	r2, [r6]
 129:../USER/main.c **** 	dt = kinbuf[kinbrp++];
 2216              		.loc 1 129 7 view .LVU643
 2217 0018 9A42     		cmp	r2, r3
 2218 001a 15D1     		bne	.L199
 129:../USER/main.c **** 	dt = kinbuf[kinbrp++];
 2219              		.loc 1 129 24 is_stmt 1 view .LVU644
 2220              	.LBB376:
 2221              	.LBI370:
 116:../USER/main.c **** 	char ch;
 2222              		.loc 1 116 6 view .LVU645
 2223              	.LBB373:
 117:../USER/main.c **** 	//
 2224              		.loc 1 117 2 view .LVU646
 119:../USER/main.c **** 	if(ch!=0) kinbuf[kinbwp++] = ch;
 2225              		.loc 1 119 2 view .LVU647
 119:../USER/main.c **** 	if(ch!=0) kinbuf[kinbwp++] = ch;
 2226              		.loc 1 119 7 is_stmt 0 view .LVU648
 2227 001c FFF7FEFF 		bl	SPI_ReadData
 2228              	.LVL128:
 119:../USER/main.c **** 	if(ch!=0) kinbuf[kinbwp++] = ch;
 2229              		.loc 1 119 5 view .LVU649
 2230 0020 40B2     		sxtb	r0, r0
 2231              	.LVL129:
 120:../USER/main.c **** 	if(kinbwp>=256) kinbwp = 0;
 2232              		.loc 1 120 2 is_stmt 1 view .LVU650
 120:../USER/main.c **** 	if(kinbwp>=256) kinbwp = 0;
 2233              		.loc 1 120 4 is_stmt 0 view .LVU651
 2234 0022 98BB     		cbnz	r0, .L178
 2235 0024 2368     		ldr	r3, [r4]
 2236              	.L179:
 121:../USER/main.c **** 	//
 2237              		.loc 1 121 2 is_stmt 1 view .LVU652
 121:../USER/main.c **** 	//
 2238              		.loc 1 121 4 is_stmt 0 view .LVU653
 2239 0026 FF2B     		cmp	r3, #255
 2240 0028 20DD     		ble	.L180
 121:../USER/main.c **** 	//
 2241              		.loc 1 121 18 is_stmt 1 view .LVU654
 121:../USER/main.c **** 	//
 2242              		.loc 1 121 25 is_stmt 0 view .LVU655
 2243 002a 0023     		movs	r3, #0
 2244 002c 2360     		str	r3, [r4]
 123:../USER/main.c **** 	if(kinbwp>=256) kinbwp = 0;
 2245              		.loc 1 123 2 is_stmt 1 view .LVU656
 123:../USER/main.c **** 	if(kinbwp>=256) kinbwp = 0;
 2246              		.loc 1 123 11 is_stmt 0 view .LVU657
 2247 002e D9F80430 		ldr	r3, [r9, #4]
 123:../USER/main.c **** 	if(kinbwp>=256) kinbwp = 0;
 2248              		.loc 1 123 4 view .LVU658
 2249 0032 13F00203 		ands	r3, r3, #2
 2250 0036 EED0     		beq	.L184
 123:../USER/main.c **** 	if(kinbwp>=256) kinbwp = 0;
 2251              		.loc 1 123 39 is_stmt 1 view .LVU659
 123:../USER/main.c **** 	if(kinbwp>=256) kinbwp = 0;
 2252              		.loc 1 123 52 is_stmt 0 view .LVU660
 2253 0038 0122     		movs	r2, #1
 123:../USER/main.c **** 	if(kinbwp>=256) kinbwp = 0;
 2254              		.loc 1 123 63 view .LVU661
 2255 003a D9F80030 		ldr	r3, [r9]
 123:../USER/main.c **** 	if(kinbwp>=256) kinbwp = 0;
 2256              		.loc 1 123 52 view .LVU662
 2257 003e C4F80080 		str	r8, [r4]
 123:../USER/main.c **** 	if(kinbwp>=256) kinbwp = 0;
 2258              		.loc 1 123 56 view .LVU663
 2259 0042 2B70     		strb	r3, [r5]
 124:../USER/main.c **** 	//
 2260              		.loc 1 124 2 is_stmt 1 view .LVU664
 2261              	.L191:
 123:../USER/main.c **** 	if(kinbwp>=256) kinbwp = 0;
 2262              		.loc 1 123 4 is_stmt 0 view .LVU665
 2263 0044 1346     		mov	r3, r2
 2264 0046 E6E7     		b	.L184
 2265              	.LVL130:
 2266              	.L199:
 123:../USER/main.c **** 	if(kinbwp>=256) kinbwp = 0;
 2267              		.loc 1 123 4 view .LVU666
 2268              	.LBE373:
 2269              	.LBE376:
 130:../USER/main.c **** 	if(kinbrp>=256) kinbrp = 0;
 2270              		.loc 1 130 2 is_stmt 1 view .LVU667
 130:../USER/main.c **** 	if(kinbrp>=256) kinbrp = 0;
 2271              		.loc 1 130 20 is_stmt 0 view .LVU668
 2272 0048 531C     		adds	r3, r2, #1
 131:../USER/main.c **** 	return dt;
 2273              		.loc 1 131 4 view .LVU669
 2274 004a FF2B     		cmp	r3, #255
 130:../USER/main.c **** 	if(kinbrp>=256) kinbrp = 0;
 2275              		.loc 1 130 20 view .LVU670
 2276 004c 3360     		str	r3, [r6]
 130:../USER/main.c **** 	if(kinbrp>=256) kinbrp = 0;
 2277              		.loc 1 130 5 view .LVU671
 2278 004e 15F90290 		ldrsb	r9, [r5, r2]
 2279              	.LVL131:
 131:../USER/main.c **** 	return dt;
 2280              		.loc 1 131 2 is_stmt 1 view .LVU672
 131:../USER/main.c **** 	return dt;
 2281              		.loc 1 131 4 is_stmt 0 view .LVU673
 2282 0052 20DD     		ble	.L186
 131:../USER/main.c **** 	return dt;
 2283              		.loc 1 131 18 is_stmt 1 view .LVU674
 131:../USER/main.c **** 	return dt;
 2284              		.loc 1 131 25 is_stmt 0 view .LVU675
 2285 0054 0023     		movs	r3, #0
 2286              	.LBE378:
 2287              	.LBE381:
 164:../USER/main.c **** 		if(ch==0x0d) break;
 2288              		.loc 1 164 17 view .LVU676
 2289 0056 4846     		mov	r0, r9
 2290              	.LBB382:
 2291              	.LBB379:
 131:../USER/main.c **** 	return dt;
 2292              		.loc 1 131 25 view .LVU677
 2293 0058 3360     		str	r3, [r6]
 132:../USER/main.c **** }
 2294              		.loc 1 132 2 is_stmt 1 view .LVU678
 2295              	.LVL132:
 132:../USER/main.c **** }
 2296              		.loc 1 132 2 is_stmt 0 view .LVU679
 2297              	.LBE379:
 2298              	.LBE382:
 164:../USER/main.c **** 		if(ch==0x0d) break;
 2299              		.loc 1 164 17 is_stmt 1 view .LVU680
 2300 005a FFF7FEFF 		bl	putch_uart
 2301              	.LVL133:
 164:../USER/main.c **** 		if(ch==0x0d) break;
 2302              		.loc 1 164 28 view .LVU681
 165:../USER/main.c **** 	}
 2303              		.loc 1 165 5 is_stmt 0 view .LVU682
 2304 005e B9F10D0F 		cmp	r9, #13
 164:../USER/main.c **** 		if(ch==0x0d) break;
 2305              		.loc 1 164 35 view .LVU683
 2306 0062 07F8019B 		strb	r9, [r7], #1
 2307              	.LVL134:
 165:../USER/main.c **** 	}
 2308              		.loc 1 165 3 is_stmt 1 view .LVU684
 165:../USER/main.c **** 	}
 2309              		.loc 1 165 5 is_stmt 0 view .LVU685
 2310 0066 D3D1     		bne	.L189
 167:../USER/main.c **** int ishex(ch) char ch;{
 2311              		.loc 1 167 1 view .LVU686
 2312 0068 BDE8F883 		pop	{r3, r4, r5, r6, r7, r8, r9, pc}
 2313              	.LVL135:
 2314              	.L180:
 2315              	.LBB383:
 2316              	.LBB380:
 2317              	.LBB377:
 2318              	.LBB374:
 123:../USER/main.c **** 	if(kinbwp>=256) kinbwp = 0;
 2319              		.loc 1 123 2 is_stmt 1 view .LVU687
 123:../USER/main.c **** 	if(kinbwp>=256) kinbwp = 0;
 2320              		.loc 1 123 11 is_stmt 0 view .LVU688
 2321 006c D9F80420 		ldr	r2, [r9, #4]
 123:../USER/main.c **** 	if(kinbwp>=256) kinbwp = 0;
 2322              		.loc 1 123 4 view .LVU689
 2323 0070 9207     		lsls	r2, r2, #30
 2324 0072 D0D5     		bpl	.L184
 123:../USER/main.c **** 	if(kinbwp>=256) kinbwp = 0;
 2325              		.loc 1 123 39 is_stmt 1 view .LVU690
 123:../USER/main.c **** 	if(kinbwp>=256) kinbwp = 0;
 2326              		.loc 1 123 63 is_stmt 0 view .LVU691
 2327 0074 D9F80010 		ldr	r1, [r9]
 123:../USER/main.c **** 	if(kinbwp>=256) kinbwp = 0;
 2328              		.loc 1 123 52 view .LVU692
 2329 0078 5A1C     		adds	r2, r3, #1
 124:../USER/main.c **** 	//
 2330              		.loc 1 124 4 view .LVU693
 2331 007a B2F5807F 		cmp	r2, #256
 123:../USER/main.c **** 	if(kinbwp>=256) kinbwp = 0;
 2332              		.loc 1 123 56 view .LVU694
 2333 007e E954     		strb	r1, [r5, r3]
 124:../USER/main.c **** 	//
 2334              		.loc 1 124 2 is_stmt 1 view .LVU695
 123:../USER/main.c **** 	if(kinbwp>=256) kinbwp = 0;
 2335              		.loc 1 123 52 is_stmt 0 view .LVU696
 2336 0080 2260     		str	r2, [r4]
 124:../USER/main.c **** 	//
 2337              		.loc 1 124 4 view .LVU697
 2338 0082 DFD1     		bne	.L191
 124:../USER/main.c **** 	//
 2339              		.loc 1 124 18 is_stmt 1 view .LVU698
 124:../USER/main.c **** 	//
 2340              		.loc 1 124 25 is_stmt 0 view .LVU699
 2341 0084 0022     		movs	r2, #0
 2342 0086 1346     		mov	r3, r2
 2343 0088 2260     		str	r2, [r4]
 2344 008a C4E7     		b	.L184
 2345              	.L178:
 120:../USER/main.c **** 	if(kinbwp>=256) kinbwp = 0;
 2346              		.loc 1 120 12 is_stmt 1 view .LVU700
 120:../USER/main.c **** 	if(kinbwp>=256) kinbwp = 0;
 2347              		.loc 1 120 25 is_stmt 0 view .LVU701
 2348 008c 2268     		ldr	r2, [r4]
 2349 008e 531C     		adds	r3, r2, #1
 120:../USER/main.c **** 	if(kinbwp>=256) kinbwp = 0;
 2350              		.loc 1 120 29 view .LVU702
 2351 0090 A854     		strb	r0, [r5, r2]
 120:../USER/main.c **** 	if(kinbwp>=256) kinbwp = 0;
 2352              		.loc 1 120 25 view .LVU703
 2353 0092 2360     		str	r3, [r4]
 2354 0094 C7E7     		b	.L179
 2355              	.LVL136:
 2356              	.L186:
 120:../USER/main.c **** 	if(kinbwp>=256) kinbwp = 0;
 2357              		.loc 1 120 25 view .LVU704
 2358              	.LBE374:
 2359              	.LBE377:
 132:../USER/main.c **** }
 2360              		.loc 1 132 2 is_stmt 1 view .LVU705
 132:../USER/main.c **** }
 2361              		.loc 1 132 2 is_stmt 0 view .LVU706
 2362              	.LBE380:
 2363              	.LBE383:
 164:../USER/main.c **** 		if(ch==0x0d) break;
 2364              		.loc 1 164 17 is_stmt 1 view .LVU707
 2365 0096 4846     		mov	r0, r9
 2366 0098 FFF7FEFF 		bl	putch_uart
 2367              	.LVL137:
 164:../USER/main.c **** 		if(ch==0x0d) break;
 2368              		.loc 1 164 28 view .LVU708
 165:../USER/main.c **** 	}
 2369              		.loc 1 165 5 is_stmt 0 view .LVU709
 2370 009c B9F10D0F 		cmp	r9, #13
 164:../USER/main.c **** 		if(ch==0x0d) break;
 2371              		.loc 1 164 35 view .LVU710
 2372 00a0 07F8019B 		strb	r9, [r7], #1
 2373              	.LVL138:
 165:../USER/main.c **** 	}
 2374              		.loc 1 165 3 is_stmt 1 view .LVU711
 165:../USER/main.c **** 	}
 2375              		.loc 1 165 5 is_stmt 0 view .LVU712
 2376 00a4 B4D1     		bne	.L189
 167:../USER/main.c **** int ishex(ch) char ch;{
 2377              		.loc 1 167 1 view .LVU713
 2378 00a6 BDE8F883 		pop	{r3, r4, r5, r6, r7, r8, r9, pc}
 2379              	.LVL139:
 2380              	.L201:
 167:../USER/main.c **** int ishex(ch) char ch;{
 2381              		.loc 1 167 1 view .LVU714
 2382 00aa 00BF     		.align	2
 2383              	.L200:
 2384 00ac 00000000 		.word	.LANCHOR0
 2385 00b0 00000000 		.word	kinbuf
 2386 00b4 00000000 		.word	.LANCHOR1
 2387              		.cfi_endproc
 2388              	.LFE47:
 2390              		.section	.text.ishex,"ax",%progbits
 2391              		.align	1
 2392              		.p2align 2,,3
 2393              		.global	ishex
 2394              		.syntax unified
 2395              		.thumb
 2396              		.thumb_func
 2397              		.fpu softvfp
 2399              	ishex:
 2400              	.LVL140:
 2401              	.LFB48:
 168:../USER/main.c ****   int hd;
 2402              		.loc 1 168 23 is_stmt 1 view -0
 2403              		.cfi_startproc
 2404              		@ args = 0, pretend = 0, frame = 0
 2405              		@ frame_needed = 0, uses_anonymous_args = 0
 2406              		@ link register save eliminated.
 169:../USER/main.c ****   if(ch>='0' && ch<='9') hd = ch - 0x30;
 2407              		.loc 1 169 3 view .LVU716
 170:../USER/main.c ****   else if(ch>='A' && ch<='F') hd = ch - 0x37;
 2408              		.loc 1 170 3 view .LVU717
 168:../USER/main.c ****   int hd;
 2409              		.loc 1 168 23 is_stmt 0 view .LVU718
 2410 0000 40B2     		sxtb	r0, r0
 170:../USER/main.c ****   else if(ch>='A' && ch<='F') hd = ch - 0x37;
 2411              		.loc 1 170 14 view .LVU719
 2412 0002 C3B2     		uxtb	r3, r0
 170:../USER/main.c ****   else if(ch>='A' && ch<='F') hd = ch - 0x37;
 2413              		.loc 1 170 5 view .LVU720
 2414 0004 A3F13002 		sub	r2, r3, #48
 2415 0008 092A     		cmp	r2, #9
 2416 000a 01D8     		bhi	.L203
 170:../USER/main.c ****   else if(ch>='A' && ch<='F') hd = ch - 0x37;
 2417              		.loc 1 170 26 is_stmt 1 discriminator 1 view .LVU721
 170:../USER/main.c ****   else if(ch>='A' && ch<='F') hd = ch - 0x37;
 2418              		.loc 1 170 29 is_stmt 0 discriminator 1 view .LVU722
 2419 000c 3038     		subs	r0, r0, #48
 2420              	.LVL141:
 170:../USER/main.c ****   else if(ch>='A' && ch<='F') hd = ch - 0x37;
 2421              		.loc 1 170 29 discriminator 1 view .LVU723
 2422 000e 7047     		bx	lr
 2423              	.LVL142:
 2424              	.L203:
 171:../USER/main.c ****   else hd = -1;
 2425              		.loc 1 171 8 is_stmt 1 view .LVU724
 171:../USER/main.c ****   else hd = -1;
 2426              		.loc 1 171 10 is_stmt 0 view .LVU725
 2427 0010 413B     		subs	r3, r3, #65
 2428 0012 052B     		cmp	r3, #5
 171:../USER/main.c ****   else hd = -1;
 2429              		.loc 1 171 31 is_stmt 1 view .LVU726
 171:../USER/main.c ****   else hd = -1;
 2430              		.loc 1 171 34 is_stmt 0 view .LVU727
 2431 0014 94BF     		ite	ls
 2432 0016 3738     		subls	r0, r0, #55
 2433              	.LVL143:
 172:../USER/main.c ****   return hd;
 2434              		.loc 1 172 11 view .LVU728
 2435 0018 4FF0FF30 		movhi	r0, #-1
 2436              	.LVL144:
 173:../USER/main.c **** }
 2437              		.loc 1 173 3 is_stmt 1 view .LVU729
 174:../USER/main.c **** void getssu(cbuf) char *cbuf;{ gets(cbuf); setsup(cbuf);}
 2438              		.loc 1 174 1 is_stmt 0 view .LVU730
 2439 001c 7047     		bx	lr
 2440              		.cfi_endproc
 2441              	.LFE48:
 2443 001e 00BF     		.section	.text.getssu,"ax",%progbits
 2444              		.align	1
 2445              		.p2align 2,,3
 2446              		.global	getssu
 2447              		.syntax unified
 2448              		.thumb
 2449              		.thumb_func
 2450              		.fpu softvfp
 2452              	getssu:
 2453              	.LVL145:
 2454              	.LFB49:
 175:../USER/main.c **** void putadrhd(adr) long adr;{puts("\r\n"); puth8(adr); putch(':');}
 2455              		.loc 1 175 30 is_stmt 1 view -0
 2456              		.cfi_startproc
 2457              		@ args = 0, pretend = 0, frame = 0
 2458              		@ frame_needed = 0, uses_anonymous_args = 0
 175:../USER/main.c **** void putadrhd(adr) long adr;{puts("\r\n"); puth8(adr); putch(':');}
 2459              		.loc 1 175 32 view .LVU732
 175:../USER/main.c **** void putadrhd(adr) long adr;{puts("\r\n"); puth8(adr); putch(':');}
 2460              		.loc 1 175 30 is_stmt 0 view .LVU733
 2461 0000 2DE9F047 		push	{r4, r5, r6, r7, r8, r9, r10, lr}
 2462              		.cfi_def_cfa_offset 32
 2463              		.cfi_offset 4, -32
 2464              		.cfi_offset 5, -28
 2465              		.cfi_offset 6, -24
 2466              		.cfi_offset 7, -20
 2467              		.cfi_offset 8, -16
 2468              		.cfi_offset 9, -12
 2469              		.cfi_offset 10, -8
 2470              		.cfi_offset 14, -4
 175:../USER/main.c **** void putadrhd(adr) long adr;{puts("\r\n"); puth8(adr); putch(':');}
 2471              		.loc 1 175 30 view .LVU734
 2472 0004 0546     		mov	r5, r0
 2473              	.LVL146:
 2474              	.LBB394:
 2475              	.LBI394:
 161:../USER/main.c **** 	char ch;
 2476              		.loc 1 161 6 is_stmt 1 view .LVU735
 2477              	.LBB395:
 2478              	.LBB396:
 2479              	.LBB397:
 2480              	.LBB398:
 2481              	.LBB399:
 123:../USER/main.c **** 	if(kinbwp>=256) kinbwp = 0;
 2482              		.loc 1 123 52 is_stmt 0 view .LVU736
 2483 0006 4FF00108 		mov	r8, #1
 2484              	.LBE399:
 2485              	.LBE398:
 2486              	.LBE397:
 2487              	.LBE396:
 2488              	.LBE395:
 2489              	.LBE394:
 175:../USER/main.c **** void putadrhd(adr) long adr;{puts("\r\n"); puth8(adr); putch(':');}
 2490              		.loc 1 175 30 view .LVU737
 2491 000a 0746     		mov	r7, r0
 2492 000c DFF8E090 		ldr	r9, .L238+8
 2493 0010 354C     		ldr	r4, .L238
 2494 0012 364E     		ldr	r6, .L238+4
 2495              	.LVL147:
 2496              	.L219:
 2497              	.LBB414:
 2498              	.LBB412:
 162:../USER/main.c **** 	while(1){
 2499              		.loc 1 162 2 is_stmt 1 view .LVU738
 163:../USER/main.c **** 		ch = getch(); putch(ch); *buf++ = ch;
 2500              		.loc 1 163 2 view .LVU739
 164:../USER/main.c **** 		if(ch==0x0d) break;
 2501              		.loc 1 164 3 view .LVU740
 2502              	.LBB409:
 2503              	.LBI396:
 127:../USER/main.c **** 	char dt;
 2504              		.loc 1 127 6 view .LVU741
 2505              	.LBB406:
 2506              	.LBB403:
 2507              	.LBB400:
 123:../USER/main.c **** 	if(kinbwp>=256) kinbwp = 0;
 2508              		.loc 1 123 11 is_stmt 0 view .LVU742
 2509 0014 4FF0402A 		mov	r10, #1073758208
 2510 0018 D9F80030 		ldr	r3, [r9]
 2511              	.L214:
 2512              	.LBE400:
 2513              	.LBE403:
 129:../USER/main.c **** 	dt = kinbuf[kinbrp++];
 2514              		.loc 1 129 14 view .LVU743
 2515 001c 3268     		ldr	r2, [r6]
 129:../USER/main.c **** 	dt = kinbuf[kinbrp++];
 2516              		.loc 1 129 7 view .LVU744
 2517 001e 9A42     		cmp	r2, r3
 2518 0020 18D1     		bne	.L237
 129:../USER/main.c **** 	dt = kinbuf[kinbrp++];
 2519              		.loc 1 129 24 is_stmt 1 view .LVU745
 2520              	.LBB404:
 2521              	.LBI398:
 116:../USER/main.c **** 	char ch;
 2522              		.loc 1 116 6 view .LVU746
 2523              	.LBB401:
 117:../USER/main.c **** 	//
 2524              		.loc 1 117 2 view .LVU747
 119:../USER/main.c **** 	if(ch!=0) kinbuf[kinbwp++] = ch;
 2525              		.loc 1 119 2 view .LVU748
 119:../USER/main.c **** 	if(ch!=0) kinbuf[kinbwp++] = ch;
 2526              		.loc 1 119 7 is_stmt 0 view .LVU749
 2527 0022 FFF7FEFF 		bl	SPI_ReadData
 2528              	.LVL148:
 119:../USER/main.c **** 	if(ch!=0) kinbuf[kinbwp++] = ch;
 2529              		.loc 1 119 5 view .LVU750
 2530 0026 40B2     		sxtb	r0, r0
 2531              	.LVL149:
 120:../USER/main.c **** 	if(kinbwp>=256) kinbwp = 0;
 2532              		.loc 1 120 2 is_stmt 1 view .LVU751
 120:../USER/main.c **** 	if(kinbwp>=256) kinbwp = 0;
 2533              		.loc 1 120 4 is_stmt 0 view .LVU752
 2534 0028 0028     		cmp	r0, #0
 2535 002a 46D1     		bne	.L208
 2536 002c D9F80030 		ldr	r3, [r9]
 2537              	.L209:
 121:../USER/main.c **** 	//
 2538              		.loc 1 121 2 is_stmt 1 view .LVU753
 121:../USER/main.c **** 	//
 2539              		.loc 1 121 4 is_stmt 0 view .LVU754
 2540 0030 FF2B     		cmp	r3, #255
 2541 0032 30DD     		ble	.L210
 121:../USER/main.c **** 	//
 2542              		.loc 1 121 18 is_stmt 1 view .LVU755
 121:../USER/main.c **** 	//
 2543              		.loc 1 121 25 is_stmt 0 view .LVU756
 2544 0034 0023     		movs	r3, #0
 2545 0036 C9F80030 		str	r3, [r9]
 123:../USER/main.c **** 	if(kinbwp>=256) kinbwp = 0;
 2546              		.loc 1 123 2 is_stmt 1 view .LVU757
 123:../USER/main.c **** 	if(kinbwp>=256) kinbwp = 0;
 2547              		.loc 1 123 11 is_stmt 0 view .LVU758
 2548 003a DAF80430 		ldr	r3, [r10, #4]
 123:../USER/main.c **** 	if(kinbwp>=256) kinbwp = 0;
 2549              		.loc 1 123 4 view .LVU759
 2550 003e 13F00203 		ands	r3, r3, #2
 2551 0042 EBD0     		beq	.L214
 123:../USER/main.c **** 	if(kinbwp>=256) kinbwp = 0;
 2552              		.loc 1 123 39 is_stmt 1 view .LVU760
 123:../USER/main.c **** 	if(kinbwp>=256) kinbwp = 0;
 2553              		.loc 1 123 52 is_stmt 0 view .LVU761
 2554 0044 0122     		movs	r2, #1
 123:../USER/main.c **** 	if(kinbwp>=256) kinbwp = 0;
 2555              		.loc 1 123 63 view .LVU762
 2556 0046 DAF80030 		ldr	r3, [r10]
 123:../USER/main.c **** 	if(kinbwp>=256) kinbwp = 0;
 2557              		.loc 1 123 52 view .LVU763
 2558 004a C9F80080 		str	r8, [r9]
 123:../USER/main.c **** 	if(kinbwp>=256) kinbwp = 0;
 2559              		.loc 1 123 56 view .LVU764
 2560 004e 2370     		strb	r3, [r4]
 124:../USER/main.c **** 	//
 2561              		.loc 1 124 2 is_stmt 1 view .LVU765
 2562              	.L225:
 123:../USER/main.c **** 	if(kinbwp>=256) kinbwp = 0;
 2563              		.loc 1 123 4 is_stmt 0 view .LVU766
 2564 0050 1346     		mov	r3, r2
 2565 0052 E3E7     		b	.L214
 2566              	.LVL150:
 2567              	.L237:
 123:../USER/main.c **** 	if(kinbwp>=256) kinbwp = 0;
 2568              		.loc 1 123 4 view .LVU767
 2569              	.LBE401:
 2570              	.LBE404:
 130:../USER/main.c **** 	if(kinbrp>=256) kinbrp = 0;
 2571              		.loc 1 130 2 is_stmt 1 view .LVU768
 130:../USER/main.c **** 	if(kinbrp>=256) kinbrp = 0;
 2572              		.loc 1 130 20 is_stmt 0 view .LVU769
 2573 0054 531C     		adds	r3, r2, #1
 131:../USER/main.c **** 	return dt;
 2574              		.loc 1 131 4 view .LVU770
 2575 0056 FF2B     		cmp	r3, #255
 130:../USER/main.c **** 	if(kinbrp>=256) kinbrp = 0;
 2576              		.loc 1 130 20 view .LVU771
 2577 0058 3360     		str	r3, [r6]
 130:../USER/main.c **** 	if(kinbrp>=256) kinbrp = 0;
 2578              		.loc 1 130 5 view .LVU772
 2579 005a 14F902A0 		ldrsb	r10, [r4, r2]
 2580              	.LVL151:
 131:../USER/main.c **** 	return dt;
 2581              		.loc 1 131 2 is_stmt 1 view .LVU773
 131:../USER/main.c **** 	return dt;
 2582              		.loc 1 131 4 is_stmt 0 view .LVU774
 2583 005e 33DD     		ble	.L216
 131:../USER/main.c **** 	return dt;
 2584              		.loc 1 131 18 is_stmt 1 view .LVU775
 131:../USER/main.c **** 	return dt;
 2585              		.loc 1 131 25 is_stmt 0 view .LVU776
 2586 0060 0023     		movs	r3, #0
 2587              	.LBE406:
 2588              	.LBE409:
 164:../USER/main.c **** 		if(ch==0x0d) break;
 2589              		.loc 1 164 17 view .LVU777
 2590 0062 5046     		mov	r0, r10
 2591              	.LBB410:
 2592              	.LBB407:
 131:../USER/main.c **** 	return dt;
 2593              		.loc 1 131 25 view .LVU778
 2594 0064 3360     		str	r3, [r6]
 132:../USER/main.c **** }
 2595              		.loc 1 132 2 is_stmt 1 view .LVU779
 2596              	.LVL152:
 132:../USER/main.c **** }
 2597              		.loc 1 132 2 is_stmt 0 view .LVU780
 2598              	.LBE407:
 2599              	.LBE410:
 164:../USER/main.c **** 		if(ch==0x0d) break;
 2600              		.loc 1 164 17 is_stmt 1 view .LVU781
 2601 0066 FFF7FEFF 		bl	putch_uart
 2602              	.LVL153:
 164:../USER/main.c **** 		if(ch==0x0d) break;
 2603              		.loc 1 164 28 view .LVU782
 165:../USER/main.c **** 	}
 2604              		.loc 1 165 5 is_stmt 0 view .LVU783
 2605 006a BAF10D0F 		cmp	r10, #13
 164:../USER/main.c **** 		if(ch==0x0d) break;
 2606              		.loc 1 164 35 view .LVU784
 2607 006e 07F801AB 		strb	r10, [r7], #1
 2608              	.LVL154:
 165:../USER/main.c **** 	}
 2609              		.loc 1 165 3 is_stmt 1 view .LVU785
 165:../USER/main.c **** 	}
 2610              		.loc 1 165 5 is_stmt 0 view .LVU786
 2611 0072 CFD1     		bne	.L219
 2612              	.LVL155:
 2613              	.L217:
 165:../USER/main.c **** 	}
 2614              		.loc 1 165 5 view .LVU787
 2615              	.LBE412:
 2616              	.LBE414:
 2617              	.LBB415:
 2618              	.LBB416:
 109:../USER/main.c ****    if( *buf>='a' && *buf<='z') *buf = *buf - 0x20;
 2619              		.loc 1 109 9 view .LVU788
 2620 0074 95F90030 		ldrsb	r3, [r5]
 109:../USER/main.c ****    if( *buf>='a' && *buf<='z') *buf = *buf - 0x20;
 2621              		.loc 1 109 8 view .LVU789
 2622 0078 0D2B     		cmp	r3, #13
 2623 007a 0AD0     		beq	.L206
 2624              	.LVL156:
 2625              	.L220:
 110:../USER/main.c ****    buf++;
 2626              		.loc 1 110 4 is_stmt 1 view .LVU790
 110:../USER/main.c ****    buf++;
 2627              		.loc 1 110 32 view .LVU791
 111:../USER/main.c ****   }
 2628              		.loc 1 111 4 view .LVU792
 110:../USER/main.c ****    buf++;
 2629              		.loc 1 110 18 is_stmt 0 view .LVU793
 2630 007c DBB2     		uxtb	r3, r3
 110:../USER/main.c ****    buf++;
 2631              		.loc 1 110 44 view .LVU794
 2632 007e A3F12002 		sub	r2, r3, #32
 110:../USER/main.c ****    buf++;
 2633              		.loc 1 110 6 view .LVU795
 2634 0082 613B     		subs	r3, r3, #97
 2635 0084 192B     		cmp	r3, #25
 2636 0086 28D8     		bhi	.L221
 110:../USER/main.c ****    buf++;
 2637              		.loc 1 110 37 view .LVU796
 2638 0088 2A70     		strb	r2, [r5]
 111:../USER/main.c ****   }
 2639              		.loc 1 111 4 is_stmt 1 view .LVU797
 109:../USER/main.c ****    if( *buf>='a' && *buf<='z') *buf = *buf - 0x20;
 2640              		.loc 1 109 9 is_stmt 0 view .LVU798
 2641 008a 15F9013F 		ldrsb	r3, [r5, #1]!
 2642              	.LVL157:
 109:../USER/main.c ****    if( *buf>='a' && *buf<='z') *buf = *buf - 0x20;
 2643              		.loc 1 109 8 view .LVU799
 2644 008e 0D2B     		cmp	r3, #13
 2645 0090 F4D1     		bne	.L220
 2646              	.LVL158:
 2647              	.L206:
 109:../USER/main.c ****    if( *buf>='a' && *buf<='z') *buf = *buf - 0x20;
 2648              		.loc 1 109 8 view .LVU800
 2649              	.LBE416:
 2650              	.LBE415:
 175:../USER/main.c **** void putadrhd(adr) long adr;{puts("\r\n"); puth8(adr); putch(':');}
 2651              		.loc 1 175 1 view .LVU801
 2652 0092 BDE8F087 		pop	{r4, r5, r6, r7, r8, r9, r10, pc}
 2653              	.LVL159:
 2654              	.L210:
 2655              	.LBB418:
 2656              	.LBB413:
 2657              	.LBB411:
 2658              	.LBB408:
 2659              	.LBB405:
 2660              	.LBB402:
 123:../USER/main.c **** 	if(kinbwp>=256) kinbwp = 0;
 2661              		.loc 1 123 2 is_stmt 1 view .LVU802
 123:../USER/main.c **** 	if(kinbwp>=256) kinbwp = 0;
 2662              		.loc 1 123 11 is_stmt 0 view .LVU803
 2663 0096 DAF80420 		ldr	r2, [r10, #4]
 123:../USER/main.c **** 	if(kinbwp>=256) kinbwp = 0;
 2664              		.loc 1 123 4 view .LVU804
 2665 009a 9207     		lsls	r2, r2, #30
 2666 009c BED5     		bpl	.L214
 123:../USER/main.c **** 	if(kinbwp>=256) kinbwp = 0;
 2667              		.loc 1 123 39 is_stmt 1 view .LVU805
 123:../USER/main.c **** 	if(kinbwp>=256) kinbwp = 0;
 2668              		.loc 1 123 63 is_stmt 0 view .LVU806
 2669 009e DAF80010 		ldr	r1, [r10]
 123:../USER/main.c **** 	if(kinbwp>=256) kinbwp = 0;
 2670              		.loc 1 123 52 view .LVU807
 2671 00a2 5A1C     		adds	r2, r3, #1
 124:../USER/main.c **** 	//
 2672              		.loc 1 124 4 view .LVU808
 2673 00a4 B2F5807F 		cmp	r2, #256
 123:../USER/main.c **** 	if(kinbwp>=256) kinbwp = 0;
 2674              		.loc 1 123 56 view .LVU809
 2675 00a8 E154     		strb	r1, [r4, r3]
 124:../USER/main.c **** 	//
 2676              		.loc 1 124 2 is_stmt 1 view .LVU810
 123:../USER/main.c **** 	if(kinbwp>=256) kinbwp = 0;
 2677              		.loc 1 123 52 is_stmt 0 view .LVU811
 2678 00aa C9F80020 		str	r2, [r9]
 124:../USER/main.c **** 	//
 2679              		.loc 1 124 4 view .LVU812
 2680 00ae CFD1     		bne	.L225
 124:../USER/main.c **** 	//
 2681              		.loc 1 124 18 is_stmt 1 view .LVU813
 124:../USER/main.c **** 	//
 2682              		.loc 1 124 25 is_stmt 0 view .LVU814
 2683 00b0 0022     		movs	r2, #0
 2684 00b2 1346     		mov	r3, r2
 2685 00b4 C9F80020 		str	r2, [r9]
 2686 00b8 B0E7     		b	.L214
 2687              	.L208:
 120:../USER/main.c **** 	if(kinbwp>=256) kinbwp = 0;
 2688              		.loc 1 120 12 is_stmt 1 view .LVU815
 120:../USER/main.c **** 	if(kinbwp>=256) kinbwp = 0;
 2689              		.loc 1 120 25 is_stmt 0 view .LVU816
 2690 00ba D9F80020 		ldr	r2, [r9]
 2691 00be 531C     		adds	r3, r2, #1
 120:../USER/main.c **** 	if(kinbwp>=256) kinbwp = 0;
 2692              		.loc 1 120 29 view .LVU817
 2693 00c0 A054     		strb	r0, [r4, r2]
 120:../USER/main.c **** 	if(kinbwp>=256) kinbwp = 0;
 2694              		.loc 1 120 25 view .LVU818
 2695 00c2 C9F80030 		str	r3, [r9]
 2696 00c6 B3E7     		b	.L209
 2697              	.LVL160:
 2698              	.L216:
 120:../USER/main.c **** 	if(kinbwp>=256) kinbwp = 0;
 2699              		.loc 1 120 25 view .LVU819
 2700              	.LBE402:
 2701              	.LBE405:
 132:../USER/main.c **** }
 2702              		.loc 1 132 2 is_stmt 1 view .LVU820
 132:../USER/main.c **** }
 2703              		.loc 1 132 2 is_stmt 0 view .LVU821
 2704              	.LBE408:
 2705              	.LBE411:
 164:../USER/main.c **** 		if(ch==0x0d) break;
 2706              		.loc 1 164 17 is_stmt 1 view .LVU822
 2707 00c8 5046     		mov	r0, r10
 2708 00ca FFF7FEFF 		bl	putch_uart
 2709              	.LVL161:
 164:../USER/main.c **** 		if(ch==0x0d) break;
 2710              		.loc 1 164 28 view .LVU823
 165:../USER/main.c **** 	}
 2711              		.loc 1 165 5 is_stmt 0 view .LVU824
 2712 00ce BAF10D0F 		cmp	r10, #13
 164:../USER/main.c **** 		if(ch==0x0d) break;
 2713              		.loc 1 164 35 view .LVU825
 2714 00d2 07F801AB 		strb	r10, [r7], #1
 2715              	.LVL162:
 165:../USER/main.c **** 	}
 2716              		.loc 1 165 3 is_stmt 1 view .LVU826
 165:../USER/main.c **** 	}
 2717              		.loc 1 165 5 is_stmt 0 view .LVU827
 2718 00d6 9DD1     		bne	.L219
 165:../USER/main.c **** 	}
 2719              		.loc 1 165 5 view .LVU828
 2720 00d8 CCE7     		b	.L217
 2721              	.LVL163:
 2722              	.L221:
 165:../USER/main.c **** 	}
 2723              		.loc 1 165 5 view .LVU829
 2724              	.LBE413:
 2725              	.LBE418:
 2726              	.LBB419:
 2727              	.LBB417:
 109:../USER/main.c ****    if( *buf>='a' && *buf<='z') *buf = *buf - 0x20;
 2728              		.loc 1 109 9 view .LVU830
 2729 00da 15F9013F 		ldrsb	r3, [r5, #1]!
 2730              	.LVL164:
 109:../USER/main.c ****    if( *buf>='a' && *buf<='z') *buf = *buf - 0x20;
 2731              		.loc 1 109 8 view .LVU831
 2732 00de 0D2B     		cmp	r3, #13
 2733 00e0 CCD1     		bne	.L220
 2734              	.LBE417:
 2735              	.LBE419:
 175:../USER/main.c **** void putadrhd(adr) long adr;{puts("\r\n"); puth8(adr); putch(':');}
 2736              		.loc 1 175 1 view .LVU832
 2737 00e2 BDE8F087 		pop	{r4, r5, r6, r7, r8, r9, r10, pc}
 2738              	.LVL165:
 2739              	.L239:
 175:../USER/main.c **** void putadrhd(adr) long adr;{puts("\r\n"); puth8(adr); putch(':');}
 2740              		.loc 1 175 1 view .LVU833
 2741 00e6 00BF     		.align	2
 2742              	.L238:
 2743 00e8 00000000 		.word	kinbuf
 2744 00ec 00000000 		.word	.LANCHOR1
 2745 00f0 00000000 		.word	.LANCHOR0
 2746              		.cfi_endproc
 2747              	.LFE49:
 2749              		.section	.text.putadrhd,"ax",%progbits
 2750              		.align	1
 2751              		.p2align 2,,3
 2752              		.global	putadrhd
 2753              		.syntax unified
 2754              		.thumb
 2755              		.thumb_func
 2756              		.fpu softvfp
 2758              	putadrhd:
 2759              	.LVL166:
 2760              	.LFB50:
 176:../USER/main.c **** 
 2761              		.loc 1 176 29 is_stmt 1 view -0
 2762              		.cfi_startproc
 2763              		@ args = 0, pretend = 0, frame = 0
 2764              		@ frame_needed = 0, uses_anonymous_args = 0
 176:../USER/main.c **** 
 2765              		.loc 1 176 30 view .LVU835
 2766              	.LBB456:
 2767              	.LBI456:
 155:../USER/main.c **** 	while(1){
 2768              		.loc 1 155 6 view .LVU836
 2769              	.LBB457:
 156:../USER/main.c **** 		if(*buf==0) break;
 2770              		.loc 1 156 2 view .LVU837
 157:../USER/main.c **** 		else        putch(*buf++);
 2771              		.loc 1 157 3 view .LVU838
 2772              	.LBE457:
 2773              	.LBE456:
 176:../USER/main.c **** 
 2774              		.loc 1 176 29 is_stmt 0 view .LVU839
 2775 0000 F8B5     		push	{r3, r4, r5, r6, r7, lr}
 2776              		.cfi_def_cfa_offset 24
 2777              		.cfi_offset 3, -24
 2778              		.cfi_offset 4, -20
 2779              		.cfi_offset 5, -16
 2780              		.cfi_offset 6, -12
 2781              		.cfi_offset 7, -8
 2782              		.cfi_offset 14, -4
 176:../USER/main.c **** 
 2783              		.loc 1 176 29 view .LVU840
 2784 0002 0546     		mov	r5, r0
 2785              	.LBB459:
 2786              	.LBB458:
 157:../USER/main.c **** 		else        putch(*buf++);
 2787              		.loc 1 157 6 view .LVU841
 2788 0004 0D20     		movs	r0, #13
 2789              	.LVL167:
 157:../USER/main.c **** 		else        putch(*buf++);
 2790              		.loc 1 157 6 view .LVU842
 2791 0006 2C4C     		ldr	r4, .L260
 2792              	.LVL168:
 2793              	.L241:
 158:../USER/main.c **** 	}
 2794              		.loc 1 158 15 is_stmt 1 view .LVU843
 158:../USER/main.c **** 	}
 2795              		.loc 1 158 15 is_stmt 0 view .LVU844
 2796 0008 FFF7FEFF 		bl	putch_uart
 2797              	.LVL169:
 156:../USER/main.c **** 		if(*buf==0) break;
 2798              		.loc 1 156 2 is_stmt 1 view .LVU845
 157:../USER/main.c **** 		else        putch(*buf++);
 2799              		.loc 1 157 3 view .LVU846
 157:../USER/main.c **** 		else        putch(*buf++);
 2800              		.loc 1 157 6 is_stmt 0 view .LVU847
 2801 000c 14F9010F 		ldrsb	r0, [r4, #1]!
 2802              	.LVL170:
 157:../USER/main.c **** 		else        putch(*buf++);
 2803              		.loc 1 157 5 view .LVU848
 2804 0010 0028     		cmp	r0, #0
 2805 0012 F9D1     		bne	.L241
 2806              	.LVL171:
 157:../USER/main.c **** 		else        putch(*buf++);
 2807              		.loc 1 157 5 view .LVU849
 2808              	.LBE458:
 2809              	.LBE459:
 176:../USER/main.c **** 
 2810              		.loc 1 176 44 is_stmt 1 view .LVU850
 2811              	.LBB460:
 2812              	.LBI460:
 154:../USER/main.c **** void putsuart(char *buf){
 2813              		.loc 1 154 6 view .LVU851
 2814              	.LBB461:
 154:../USER/main.c **** void putsuart(char *buf){
 2815              		.loc 1 154 26 view .LVU852
 154:../USER/main.c **** void putsuart(char *buf){
 2816              		.loc 1 154 37 view .LVU853
 2817 0014 2E0E     		lsrs	r6, r5, #24
 2818              	.LBB462:
 2819              	.LBB463:
 2820              	.LBB464:
 151:../USER/main.c **** void puth4(dt) int dt;{ puth2((dt >> 8) & 0xff); puth2(dt & 0xff); }
 2821              		.loc 1 151 34 is_stmt 0 view .LVU854
 2822 0016 3311     		asrs	r3, r6, #4
 2823 0018 D8B2     		uxtb	r0, r3
 2824              	.LBB465:
 2825              	.LBB466:
 150:../USER/main.c **** void puth2(dt) int dt;{ puth((dt >> 4) & 0xf); puth(dt & 0xf); }
 2826              		.loc 1 150 26 view .LVU855
 2827 001a 092B     		cmp	r3, #9
 150:../USER/main.c **** void puth2(dt) int dt;{ puth((dt >> 4) & 0xf); puth(dt & 0xf); }
 2828              		.loc 1 150 34 view .LVU856
 2829 001c D4BF     		ite	le
 2830 001e 3030     		addle	r0, r0, #48
 150:../USER/main.c **** void puth2(dt) int dt;{ puth((dt >> 4) & 0xf); puth(dt & 0xf); }
 2831              		.loc 1 150 55 view .LVU857
 2832 0020 3730     		addgt	r0, r0, #55
 2833              	.LBE466:
 2834              	.LBE465:
 151:../USER/main.c **** void puth4(dt) int dt;{ puth2((dt >> 8) & 0xff); puth2(dt & 0xff); }
 2835              		.loc 1 151 48 view .LVU858
 2836 0022 06F00F06 		and	r6, r6, #15
 2837              	.LBB469:
 2838              	.LBB467:
 150:../USER/main.c **** void puth2(dt) int dt;{ puth((dt >> 4) & 0xf); puth(dt & 0xf); }
 2839              		.loc 1 150 55 view .LVU859
 2840 0026 FFF7FEFF 		bl	putch_uart
 2841              	.LVL172:
 2842 002a F0B2     		uxtb	r0, r6
 2843              	.LBE467:
 2844              	.LBE469:
 2845              	.LBB470:
 2846              	.LBB471:
 150:../USER/main.c **** void puth2(dt) int dt;{ puth((dt >> 4) & 0xf); puth(dt & 0xf); }
 2847              		.loc 1 150 26 view .LVU860
 2848 002c 092E     		cmp	r6, #9
 150:../USER/main.c **** void puth2(dt) int dt;{ puth((dt >> 4) & 0xf); puth(dt & 0xf); }
 2849              		.loc 1 150 34 view .LVU861
 2850 002e D4BF     		ite	le
 2851 0030 3030     		addle	r0, r0, #48
 150:../USER/main.c **** void puth2(dt) int dt;{ puth((dt >> 4) & 0xf); puth(dt & 0xf); }
 2852              		.loc 1 150 55 view .LVU862
 2853 0032 3730     		addgt	r0, r0, #55
 2854 0034 FFF7FEFF 		bl	putch_uart
 2855              	.LVL173:
 2856              	.LBE471:
 2857              	.LBE470:
 2858              	.LBE464:
 2859              	.LBE463:
 2860              	.LBB476:
 2861              	.LBB477:
 151:../USER/main.c **** void puth4(dt) int dt;{ puth2((dt >> 8) & 0xff); puth2(dt & 0xff); }
 2862              		.loc 1 151 34 view .LVU863
 2863 0038 C5F30353 		ubfx	r3, r5, #20, #4
 2864 003c D8B2     		uxtb	r0, r3
 2865              	.LBB478:
 2866              	.LBB479:
 150:../USER/main.c **** void puth2(dt) int dt;{ puth((dt >> 4) & 0xf); puth(dt & 0xf); }
 2867              		.loc 1 150 26 view .LVU864
 2868 003e 092B     		cmp	r3, #9
 2869              	.LBE479:
 2870              	.LBE478:
 2871              	.LBE477:
 2872              	.LBE476:
 2873              	.LBE462:
 154:../USER/main.c **** void putsuart(char *buf){
 2874              		.loc 1 154 40 view .LVU865
 2875 0040 4FEA2547 		asr	r7, r5, #16
 2876              	.LVL174:
 154:../USER/main.c **** void putsuart(char *buf){
 2877              		.loc 1 154 52 is_stmt 1 view .LVU866
 2878              	.LBB493:
 2879              	.LBB490:
 2880              	.LBB488:
 2881              	.LBB482:
 2882              	.LBB480:
 150:../USER/main.c **** void puth2(dt) int dt;{ puth((dt >> 4) & 0xf); puth(dt & 0xf); }
 2883              		.loc 1 150 34 is_stmt 0 view .LVU867
 2884 0044 D4BF     		ite	le
 2885 0046 3030     		addle	r0, r0, #48
 150:../USER/main.c **** void puth2(dt) int dt;{ puth((dt >> 4) & 0xf); puth(dt & 0xf); }
 2886              		.loc 1 150 55 view .LVU868
 2887 0048 3730     		addgt	r0, r0, #55
 2888 004a FFF7FEFF 		bl	putch_uart
 2889              	.LVL175:
 2890              	.LBE480:
 2891              	.LBE482:
 151:../USER/main.c **** void puth4(dt) int dt;{ puth2((dt >> 8) & 0xff); puth2(dt & 0xff); }
 2892              		.loc 1 151 48 view .LVU869
 2893 004e 07F00F03 		and	r3, r7, #15
 2894 0052 D8B2     		uxtb	r0, r3
 2895              	.LBB483:
 2896              	.LBB484:
 150:../USER/main.c **** void puth2(dt) int dt;{ puth((dt >> 4) & 0xf); puth(dt & 0xf); }
 2897              		.loc 1 150 26 view .LVU870
 2898 0054 092B     		cmp	r3, #9
 2899              	.LBE484:
 2900              	.LBE483:
 2901              	.LBE488:
 2902              	.LBE490:
 2903              	.LBE493:
 154:../USER/main.c **** void putsuart(char *buf){
 2904              		.loc 1 154 55 view .LVU871
 2905 0056 ACB2     		uxth	r4, r5
 2906              	.LVL176:
 154:../USER/main.c **** void putsuart(char *buf){
 2907              		.loc 1 154 70 is_stmt 1 view .LVU872
 2908              	.LBB494:
 2909              	.LBI462:
 152:../USER/main.c **** void puth6(dt) long dt;{ int dh,dl; dh = dt >> 16; dl = dt & 0xffff; puth2(dh); puth4(dl); }
 2910              		.loc 1 152 6 view .LVU873
 2911              	.LBE494:
 2912              	.LBE461:
 2913              	.LBE460:
 152:../USER/main.c **** void puth6(dt) long dt;{ int dh,dl; dh = dt >> 16; dl = dt & 0xffff; puth2(dh); puth4(dl); }
 2914              		.loc 1 152 25 view .LVU874
 2915              	.LBB521:
 2916              	.LBB519:
 2917              	.LBB495:
 2918              	.LBB491:
 2919              	.LBI463:
 151:../USER/main.c **** void puth4(dt) int dt;{ puth2((dt >> 8) & 0xff); puth2(dt & 0xff); }
 2920              		.loc 1 151 6 view .LVU875
 2921              	.LBB475:
 151:../USER/main.c **** void puth4(dt) int dt;{ puth2((dt >> 8) & 0xff); puth2(dt & 0xff); }
 2922              		.loc 1 151 25 view .LVU876
 2923              	.LBB473:
 2924              	.LBI465:
 150:../USER/main.c **** void puth2(dt) int dt;{ puth((dt >> 4) & 0xf); puth(dt & 0xf); }
 2925              		.loc 1 150 6 view .LVU877
 2926              	.LBB468:
 150:../USER/main.c **** void puth2(dt) int dt;{ puth((dt >> 4) & 0xf); puth(dt & 0xf); }
 2927              		.loc 1 150 24 view .LVU878
 150:../USER/main.c **** void puth2(dt) int dt;{ puth((dt >> 4) & 0xf); puth(dt & 0xf); }
 2928              		.loc 1 150 34 view .LVU879
 150:../USER/main.c **** void puth2(dt) int dt;{ puth((dt >> 4) & 0xf); puth(dt & 0xf); }
 2929              		.loc 1 150 55 view .LVU880
 2930              	.LBE468:
 2931              	.LBE473:
 151:../USER/main.c **** void puth4(dt) int dt;{ puth2((dt >> 8) & 0xff); puth2(dt & 0xff); }
 2932              		.loc 1 151 48 view .LVU881
 2933              	.LBB474:
 2934              	.LBI470:
 150:../USER/main.c **** void puth2(dt) int dt;{ puth((dt >> 4) & 0xf); puth(dt & 0xf); }
 2935              		.loc 1 150 6 view .LVU882
 2936              	.LBB472:
 150:../USER/main.c **** void puth2(dt) int dt;{ puth((dt >> 4) & 0xf); puth(dt & 0xf); }
 2937              		.loc 1 150 24 view .LVU883
 150:../USER/main.c **** void puth2(dt) int dt;{ puth((dt >> 4) & 0xf); puth(dt & 0xf); }
 2938              		.loc 1 150 34 view .LVU884
 150:../USER/main.c **** void puth2(dt) int dt;{ puth((dt >> 4) & 0xf); puth(dt & 0xf); }
 2939              		.loc 1 150 55 view .LVU885
 150:../USER/main.c **** void puth2(dt) int dt;{ puth((dt >> 4) & 0xf); puth(dt & 0xf); }
 2940              		.loc 1 150 55 is_stmt 0 view .LVU886
 2941              	.LBE472:
 2942              	.LBE474:
 2943              	.LBE475:
 2944              	.LBE491:
 2945              	.LBE495:
 2946              	.LBE519:
 2947              	.LBE521:
 152:../USER/main.c **** void puth6(dt) long dt;{ int dh,dl; dh = dt >> 16; dl = dt & 0xffff; puth2(dh); puth4(dl); }
 2948              		.loc 1 152 50 is_stmt 1 view .LVU887
 2949              	.LBB522:
 2950              	.LBB520:
 2951              	.LBB496:
 2952              	.LBB492:
 2953              	.LBI476:
 151:../USER/main.c **** void puth4(dt) int dt;{ puth2((dt >> 8) & 0xff); puth2(dt & 0xff); }
 2954              		.loc 1 151 6 view .LVU888
 2955              	.LBB489:
 151:../USER/main.c **** void puth4(dt) int dt;{ puth2((dt >> 8) & 0xff); puth2(dt & 0xff); }
 2956              		.loc 1 151 25 view .LVU889
 2957              	.LBB486:
 2958              	.LBI478:
 150:../USER/main.c **** void puth2(dt) int dt;{ puth((dt >> 4) & 0xf); puth(dt & 0xf); }
 2959              		.loc 1 150 6 view .LVU890
 2960              	.LBB481:
 150:../USER/main.c **** void puth2(dt) int dt;{ puth((dt >> 4) & 0xf); puth(dt & 0xf); }
 2961              		.loc 1 150 24 view .LVU891
 150:../USER/main.c **** void puth2(dt) int dt;{ puth((dt >> 4) & 0xf); puth(dt & 0xf); }
 2962              		.loc 1 150 34 view .LVU892
 150:../USER/main.c **** void puth2(dt) int dt;{ puth((dt >> 4) & 0xf); puth(dt & 0xf); }
 2963              		.loc 1 150 55 view .LVU893
 2964              	.LBE481:
 2965              	.LBE486:
 151:../USER/main.c **** void puth4(dt) int dt;{ puth2((dt >> 8) & 0xff); puth2(dt & 0xff); }
 2966              		.loc 1 151 48 view .LVU894
 2967              	.LBB487:
 2968              	.LBI483:
 150:../USER/main.c **** void puth2(dt) int dt;{ puth((dt >> 4) & 0xf); puth(dt & 0xf); }
 2969              		.loc 1 150 6 view .LVU895
 2970              	.LBB485:
 150:../USER/main.c **** void puth2(dt) int dt;{ puth((dt >> 4) & 0xf); puth(dt & 0xf); }
 2971              		.loc 1 150 24 view .LVU896
 150:../USER/main.c **** void puth2(dt) int dt;{ puth((dt >> 4) & 0xf); puth(dt & 0xf); }
 2972              		.loc 1 150 34 view .LVU897
 150:../USER/main.c **** void puth2(dt) int dt;{ puth((dt >> 4) & 0xf); puth(dt & 0xf); }
 2973              		.loc 1 150 55 view .LVU898
 150:../USER/main.c **** void puth2(dt) int dt;{ puth((dt >> 4) & 0xf); puth(dt & 0xf); }
 2974              		.loc 1 150 34 is_stmt 0 view .LVU899
 2975 0058 D4BF     		ite	le
 2976 005a 3030     		addle	r0, r0, #48
 150:../USER/main.c **** void puth2(dt) int dt;{ puth((dt >> 4) & 0xf); puth(dt & 0xf); }
 2977              		.loc 1 150 55 view .LVU900
 2978 005c 3730     		addgt	r0, r0, #55
 2979 005e FFF7FEFF 		bl	putch_uart
 2980              	.LVL177:
 150:../USER/main.c **** void puth2(dt) int dt;{ puth((dt >> 4) & 0xf); puth(dt & 0xf); }
 2981              		.loc 1 150 55 view .LVU901
 2982              	.LBE485:
 2983              	.LBE487:
 2984              	.LBE489:
 2985              	.LBE492:
 2986              	.LBE496:
 154:../USER/main.c **** void putsuart(char *buf){
 2987              		.loc 1 154 81 is_stmt 1 view .LVU902
 2988              	.LBB497:
 2989              	.LBI497:
 152:../USER/main.c **** void puth6(dt) long dt;{ int dh,dl; dh = dt >> 16; dl = dt & 0xffff; puth2(dh); puth4(dl); }
 2990              		.loc 1 152 6 view .LVU903
 2991              	.LBB498:
 152:../USER/main.c **** void puth6(dt) long dt;{ int dh,dl; dh = dt >> 16; dl = dt & 0xffff; puth2(dh); puth4(dl); }
 2992              		.loc 1 152 25 view .LVU904
 2993              	.LBB499:
 2994              	.LBB500:
 151:../USER/main.c **** void puth4(dt) int dt;{ puth2((dt >> 8) & 0xff); puth2(dt & 0xff); }
 2995              		.loc 1 151 34 is_stmt 0 view .LVU905
 2996 0062 2313     		asrs	r3, r4, #12
 2997 0064 D8B2     		uxtb	r0, r3
 2998              	.LBB501:
 2999              	.LBB502:
 150:../USER/main.c **** void puth2(dt) int dt;{ puth((dt >> 4) & 0xf); puth(dt & 0xf); }
 3000              		.loc 1 150 26 view .LVU906
 3001 0066 092B     		cmp	r3, #9
 3002              	.LBE502:
 3003              	.LBE501:
 3004              	.LBE500:
 3005              	.LBE499:
 152:../USER/main.c **** void puth6(dt) long dt;{ int dh,dl; dh = dt >> 16; dl = dt & 0xffff; puth2(dh); puth4(dl); }
 3006              		.loc 1 152 35 view .LVU907
 3007 0068 4FEA2424 		asr	r4, r4, #8
 3008              	.LVL178:
 3009              	.LBB510:
 3010              	.LBI499:
 151:../USER/main.c **** void puth4(dt) int dt;{ puth2((dt >> 8) & 0xff); puth2(dt & 0xff); }
 3011              		.loc 1 151 6 is_stmt 1 view .LVU908
 3012              	.LBB509:
 151:../USER/main.c **** void puth4(dt) int dt;{ puth2((dt >> 8) & 0xff); puth2(dt & 0xff); }
 3013              		.loc 1 151 25 view .LVU909
 3014              	.LBB505:
 3015              	.LBI501:
 150:../USER/main.c **** void puth2(dt) int dt;{ puth((dt >> 4) & 0xf); puth(dt & 0xf); }
 3016              		.loc 1 150 6 view .LVU910
 3017              	.LBB503:
 150:../USER/main.c **** void puth2(dt) int dt;{ puth((dt >> 4) & 0xf); puth(dt & 0xf); }
 3018              		.loc 1 150 24 view .LVU911
 150:../USER/main.c **** void puth2(dt) int dt;{ puth((dt >> 4) & 0xf); puth(dt & 0xf); }
 3019              		.loc 1 150 34 view .LVU912
 150:../USER/main.c **** void puth2(dt) int dt;{ puth((dt >> 4) & 0xf); puth(dt & 0xf); }
 3020              		.loc 1 150 55 view .LVU913
 150:../USER/main.c **** void puth2(dt) int dt;{ puth((dt >> 4) & 0xf); puth(dt & 0xf); }
 3021              		.loc 1 150 34 is_stmt 0 view .LVU914
 3022 006c D4BF     		ite	le
 3023 006e 3030     		addle	r0, r0, #48
 150:../USER/main.c **** void puth2(dt) int dt;{ puth((dt >> 4) & 0xf); puth(dt & 0xf); }
 3024              		.loc 1 150 55 view .LVU915
 3025 0070 3730     		addgt	r0, r0, #55
 3026              	.LBE503:
 3027              	.LBE505:
 151:../USER/main.c **** void puth4(dt) int dt;{ puth2((dt >> 8) & 0xff); puth2(dt & 0xff); }
 3028              		.loc 1 151 48 view .LVU916
 3029 0072 04F00F04 		and	r4, r4, #15
 3030              	.LVL179:
 3031              	.LBB506:
 3032              	.LBB504:
 150:../USER/main.c **** void puth2(dt) int dt;{ puth((dt >> 4) & 0xf); puth(dt & 0xf); }
 3033              		.loc 1 150 55 view .LVU917
 3034 0076 FFF7FEFF 		bl	putch_uart
 3035              	.LVL180:
 150:../USER/main.c **** void puth2(dt) int dt;{ puth((dt >> 4) & 0xf); puth(dt & 0xf); }
 3036              		.loc 1 150 55 view .LVU918
 3037              	.LBE504:
 3038              	.LBE506:
 151:../USER/main.c **** void puth4(dt) int dt;{ puth2((dt >> 8) & 0xff); puth2(dt & 0xff); }
 3039              		.loc 1 151 48 is_stmt 1 view .LVU919
 3040              	.LBB507:
 3041              	.LBI507:
 150:../USER/main.c **** void puth2(dt) int dt;{ puth((dt >> 4) & 0xf); puth(dt & 0xf); }
 3042              		.loc 1 150 6 view .LVU920
 3043              	.LBB508:
 150:../USER/main.c **** void puth2(dt) int dt;{ puth((dt >> 4) & 0xf); puth(dt & 0xf); }
 3044              		.loc 1 150 24 view .LVU921
 150:../USER/main.c **** void puth2(dt) int dt;{ puth((dt >> 4) & 0xf); puth(dt & 0xf); }
 3045              		.loc 1 150 34 view .LVU922
 150:../USER/main.c **** void puth2(dt) int dt;{ puth((dt >> 4) & 0xf); puth(dt & 0xf); }
 3046              		.loc 1 150 55 view .LVU923
 3047 007a E0B2     		uxtb	r0, r4
 150:../USER/main.c **** void puth2(dt) int dt;{ puth((dt >> 4) & 0xf); puth(dt & 0xf); }
 3048              		.loc 1 150 26 is_stmt 0 view .LVU924
 3049 007c 092C     		cmp	r4, #9
 150:../USER/main.c **** void puth2(dt) int dt;{ puth((dt >> 4) & 0xf); puth(dt & 0xf); }
 3050              		.loc 1 150 34 view .LVU925
 3051 007e D4BF     		ite	le
 3052 0080 3030     		addle	r0, r0, #48
 150:../USER/main.c **** void puth2(dt) int dt;{ puth((dt >> 4) & 0xf); puth(dt & 0xf); }
 3053              		.loc 1 150 55 view .LVU926
 3054 0082 3730     		addgt	r0, r0, #55
 3055 0084 FFF7FEFF 		bl	putch_uart
 3056              	.LVL181:
 150:../USER/main.c **** void puth2(dt) int dt;{ puth((dt >> 4) & 0xf); puth(dt & 0xf); }
 3057              		.loc 1 150 55 view .LVU927
 3058              	.LBE508:
 3059              	.LBE507:
 3060              	.LBE509:
 3061              	.LBE510:
 152:../USER/main.c **** void puth6(dt) long dt;{ int dh,dl; dh = dt >> 16; dl = dt & 0xffff; puth2(dh); puth4(dl); }
 3062              		.loc 1 152 50 is_stmt 1 view .LVU928
 3063              	.LBB511:
 3064              	.LBI511:
 151:../USER/main.c **** void puth4(dt) int dt;{ puth2((dt >> 8) & 0xff); puth2(dt & 0xff); }
 3065              		.loc 1 151 6 view .LVU929
 3066              	.LBB512:
 151:../USER/main.c **** void puth4(dt) int dt;{ puth2((dt >> 8) & 0xff); puth2(dt & 0xff); }
 3067              		.loc 1 151 25 view .LVU930
 151:../USER/main.c **** void puth4(dt) int dt;{ puth2((dt >> 8) & 0xff); puth2(dt & 0xff); }
 3068              		.loc 1 151 34 is_stmt 0 view .LVU931
 3069 0088 C5F30313 		ubfx	r3, r5, #4, #4
 3070              	.LVL182:
 3071              	.LBB513:
 3072              	.LBI513:
 150:../USER/main.c **** void puth2(dt) int dt;{ puth((dt >> 4) & 0xf); puth(dt & 0xf); }
 3073              		.loc 1 150 6 is_stmt 1 view .LVU932
 3074              	.LBB514:
 150:../USER/main.c **** void puth2(dt) int dt;{ puth((dt >> 4) & 0xf); puth(dt & 0xf); }
 3075              		.loc 1 150 24 view .LVU933
 150:../USER/main.c **** void puth2(dt) int dt;{ puth((dt >> 4) & 0xf); puth(dt & 0xf); }
 3076              		.loc 1 150 34 view .LVU934
 150:../USER/main.c **** void puth2(dt) int dt;{ puth((dt >> 4) & 0xf); puth(dt & 0xf); }
 3077              		.loc 1 150 55 view .LVU935
 3078 008c D8B2     		uxtb	r0, r3
 150:../USER/main.c **** void puth2(dt) int dt;{ puth((dt >> 4) & 0xf); puth(dt & 0xf); }
 3079              		.loc 1 150 26 is_stmt 0 view .LVU936
 3080 008e 092B     		cmp	r3, #9
 150:../USER/main.c **** void puth2(dt) int dt;{ puth((dt >> 4) & 0xf); puth(dt & 0xf); }
 3081              		.loc 1 150 34 view .LVU937
 3082 0090 D4BF     		ite	le
 3083 0092 3030     		addle	r0, r0, #48
 150:../USER/main.c **** void puth2(dt) int dt;{ puth((dt >> 4) & 0xf); puth(dt & 0xf); }
 3084              		.loc 1 150 55 view .LVU938
 3085 0094 3730     		addgt	r0, r0, #55
 3086              	.LBE514:
 3087              	.LBE513:
 151:../USER/main.c **** void puth4(dt) int dt;{ puth2((dt >> 8) & 0xff); puth2(dt & 0xff); }
 3088              		.loc 1 151 48 view .LVU939
 3089 0096 05F00F05 		and	r5, r5, #15
 3090              	.LVL183:
 3091              	.LBB516:
 3092              	.LBB515:
 150:../USER/main.c **** void puth2(dt) int dt;{ puth((dt >> 4) & 0xf); puth(dt & 0xf); }
 3093              		.loc 1 150 55 view .LVU940
 3094 009a FFF7FEFF 		bl	putch_uart
 3095              	.LVL184:
 150:../USER/main.c **** void puth2(dt) int dt;{ puth((dt >> 4) & 0xf); puth(dt & 0xf); }
 3096              		.loc 1 150 55 view .LVU941
 3097              	.LBE515:
 3098              	.LBE516:
 151:../USER/main.c **** void puth4(dt) int dt;{ puth2((dt >> 8) & 0xff); puth2(dt & 0xff); }
 3099              		.loc 1 151 48 is_stmt 1 view .LVU942
 3100              	.LBB517:
 3101              	.LBI517:
 150:../USER/main.c **** void puth2(dt) int dt;{ puth((dt >> 4) & 0xf); puth(dt & 0xf); }
 3102              		.loc 1 150 6 view .LVU943
 3103              	.LBB518:
 150:../USER/main.c **** void puth2(dt) int dt;{ puth((dt >> 4) & 0xf); puth(dt & 0xf); }
 3104              		.loc 1 150 24 view .LVU944
 150:../USER/main.c **** void puth2(dt) int dt;{ puth((dt >> 4) & 0xf); puth(dt & 0xf); }
 3105              		.loc 1 150 34 view .LVU945
 150:../USER/main.c **** void puth2(dt) int dt;{ puth((dt >> 4) & 0xf); puth(dt & 0xf); }
 3106              		.loc 1 150 55 view .LVU946
 3107 009e E8B2     		uxtb	r0, r5
 150:../USER/main.c **** void puth2(dt) int dt;{ puth((dt >> 4) & 0xf); puth(dt & 0xf); }
 3108              		.loc 1 150 26 is_stmt 0 view .LVU947
 3109 00a0 092D     		cmp	r5, #9
 150:../USER/main.c **** void puth2(dt) int dt;{ puth((dt >> 4) & 0xf); puth(dt & 0xf); }
 3110              		.loc 1 150 34 view .LVU948
 3111 00a2 D4BF     		ite	le
 3112 00a4 3030     		addle	r0, r0, #48
 150:../USER/main.c **** void puth2(dt) int dt;{ puth((dt >> 4) & 0xf); puth(dt & 0xf); }
 3113              		.loc 1 150 55 view .LVU949
 3114 00a6 3730     		addgt	r0, r0, #55
 3115 00a8 FFF7FEFF 		bl	putch_uart
 3116              	.LVL185:
 150:../USER/main.c **** void puth2(dt) int dt;{ puth((dt >> 4) & 0xf); puth(dt & 0xf); }
 3117              		.loc 1 150 55 view .LVU950
 3118              	.LBE518:
 3119              	.LBE517:
 3120              	.LBE512:
 3121              	.LBE511:
 3122              	.LBE498:
 3123              	.LBE497:
 3124              	.LBE520:
 3125              	.LBE522:
 176:../USER/main.c **** 
 3126              		.loc 1 176 56 is_stmt 1 view .LVU951
 176:../USER/main.c **** 
 3127              		.loc 1 176 1 is_stmt 0 view .LVU952
 3128 00ac BDE8F840 		pop	{r3, r4, r5, r6, r7, lr}
 3129              		.cfi_restore 14
 3130              		.cfi_restore 7
 3131              		.cfi_restore 6
 3132              		.cfi_restore 5
 3133              		.cfi_restore 4
 3134              		.cfi_restore 3
 3135              		.cfi_def_cfa_offset 0
 176:../USER/main.c **** 
 3136              		.loc 1 176 56 view .LVU953
 3137 00b0 3A20     		movs	r0, #58
 3138 00b2 FFF7FEBF 		b	putch_uart
 3139              	.LVL186:
 3140              	.L261:
 3141 00b6 00BF     		.align	2
 3142              	.L260:
 3143 00b8 00000000 		.word	.LC0
 3144              		.cfi_endproc
 3145              	.LFE50:
 3147              		.section	.text.getsh,"ax",%progbits
 3148              		.align	1
 3149              		.p2align 2,,3
 3150              		.global	getsh
 3151              		.syntax unified
 3152              		.thumb
 3153              		.thumb_func
 3154              		.fpu softvfp
 3156              	getsh:
 3157              	.LVL187:
 3158              	.LFB51:
 178:../USER/main.c ****   long num = 0; int hd;
 3159              		.loc 1 178 28 is_stmt 1 view -0
 3160              		.cfi_startproc
 3161              		@ args = 0, pretend = 0, frame = 0
 3162              		@ frame_needed = 0, uses_anonymous_args = 0
 3163              		@ link register save eliminated.
 179:../USER/main.c ****   if(**buf==0x0d) return -1;
 3164              		.loc 1 179 3 view .LVU955
 179:../USER/main.c ****   if(**buf==0x0d) return -1;
 3165              		.loc 1 179 17 view .LVU956
 180:../USER/main.c ****   while(**buf==' ') (*buf)++; /* spip sp*/
 3166              		.loc 1 180 3 view .LVU957
 180:../USER/main.c ****   while(**buf==' ') (*buf)++; /* spip sp*/
 3167              		.loc 1 180 7 is_stmt 0 view .LVU958
 3168 0000 0268     		ldr	r2, [r0]
 180:../USER/main.c ****   while(**buf==' ') (*buf)++; /* spip sp*/
 3169              		.loc 1 180 6 view .LVU959
 3170 0002 92F90030 		ldrsb	r3, [r2]
 180:../USER/main.c ****   while(**buf==' ') (*buf)++; /* spip sp*/
 3171              		.loc 1 180 5 view .LVU960
 3172 0006 0D2B     		cmp	r3, #13
 3173 0008 22D0     		beq	.L270
 3174              	.LBB527:
 3175              	.LBB528:
 181:../USER/main.c ****   while( (hd=ishex(**buf)) != -1){ num = num * 16 + hd; (*buf)++; }
 3176              		.loc 1 181 8 view .LVU961
 3177 000a 202B     		cmp	r3, #32
 3178              	.LBE528:
 3179              	.LBE527:
 178:../USER/main.c ****   long num = 0; int hd;
 3180              		.loc 1 178 28 view .LVU962
 3181 000c 30B4     		push	{r4, r5}
 3182              		.cfi_def_cfa_offset 8
 3183              		.cfi_offset 4, -8
 3184              		.cfi_offset 5, -4
 3185 000e 0546     		mov	r5, r0
 3186              	.LBB538:
 3187              	.LBB537:
 181:../USER/main.c ****   while( (hd=ishex(**buf)) != -1){ num = num * 16 + hd; (*buf)++; }
 3188              		.loc 1 181 8 view .LVU963
 3189 0010 05D1     		bne	.L264
 3190              	.L265:
 181:../USER/main.c ****   while( (hd=ishex(**buf)) != -1){ num = num * 16 + hd; (*buf)++; }
 3191              		.loc 1 181 21 is_stmt 1 view .LVU964
 181:../USER/main.c ****   while( (hd=ishex(**buf)) != -1){ num = num * 16 + hd; (*buf)++; }
 3192              		.loc 1 181 27 is_stmt 0 view .LVU965
 3193 0012 0132     		adds	r2, r2, #1
 3194 0014 2A60     		str	r2, [r5]
 181:../USER/main.c ****   while( (hd=ishex(**buf)) != -1){ num = num * 16 + hd; (*buf)++; }
 3195              		.loc 1 181 9 view .LVU966
 3196 0016 92F90030 		ldrsb	r3, [r2]
 181:../USER/main.c ****   while( (hd=ishex(**buf)) != -1){ num = num * 16 + hd; (*buf)++; }
 3197              		.loc 1 181 8 view .LVU967
 3198 001a 202B     		cmp	r3, #32
 3199 001c F9D0     		beq	.L265
 3200              	.L264:
 179:../USER/main.c ****   if(**buf==0x0d) return -1;
 3201              		.loc 1 179 8 view .LVU968
 3202 001e 0020     		movs	r0, #0
 3203              	.LVL188:
 179:../USER/main.c ****   if(**buf==0x0d) return -1;
 3204              		.loc 1 179 8 view .LVU969
 3205 0020 08E0     		b	.L266
 3206              	.LVL189:
 3207              	.L277:
 3208              	.LBB529:
 3209              	.LBB530:
 170:../USER/main.c ****   else if(ch>='A' && ch<='F') hd = ch - 0x37;
 3210              		.loc 1 170 29 view .LVU970
 3211 0022 303B     		subs	r3, r3, #48
 3212              	.LVL190:
 170:../USER/main.c ****   else if(ch>='A' && ch<='F') hd = ch - 0x37;
 3213              		.loc 1 170 29 view .LVU971
 3214              	.LBE530:
 3215              	.LBE529:
 182:../USER/main.c ****   return num;
 3216              		.loc 1 182 36 is_stmt 1 view .LVU972
 3217              	.LBB534:
 3218              	.LBB531:
 173:../USER/main.c **** }
 3219              		.loc 1 173 3 view .LVU973
 173:../USER/main.c **** }
 3220              		.loc 1 173 3 is_stmt 0 view .LVU974
 3221              	.LBE531:
 3222              	.LBE534:
 182:../USER/main.c ****   return num;
 3223              		.loc 1 182 8 view .LVU975
 3224 0024 591C     		adds	r1, r3, #1
 3225 0026 11D0     		beq	.L262
 3226              	.L269:
 182:../USER/main.c ****   return num;
 3227              		.loc 1 182 63 view .LVU976
 3228 0028 0132     		adds	r2, r2, #1
 3229 002a 2A60     		str	r2, [r5]
 182:../USER/main.c ****   return num;
 3230              		.loc 1 182 40 view .LVU977
 3231 002c 03EB0010 		add	r0, r3, r0, lsl #4
 3232              	.LVL191:
 182:../USER/main.c ****   return num;
 3233              		.loc 1 182 57 is_stmt 1 view .LVU978
 3234 0030 92F90030 		ldrsb	r3, [r2]
 3235              	.LVL192:
 3236              	.L266:
 3237              	.LBB535:
 3238              	.LBI529:
 168:../USER/main.c ****   int hd;
 3239              		.loc 1 168 5 view .LVU979
 3240              	.LBB532:
 169:../USER/main.c ****   if(ch>='0' && ch<='9') hd = ch - 0x30;
 3241              		.loc 1 169 3 view .LVU980
 170:../USER/main.c ****   else if(ch>='A' && ch<='F') hd = ch - 0x37;
 3242              		.loc 1 170 3 view .LVU981
 170:../USER/main.c ****   else if(ch>='A' && ch<='F') hd = ch - 0x37;
 3243              		.loc 1 170 26 view .LVU982
 171:../USER/main.c ****   else hd = -1;
 3244              		.loc 1 171 8 view .LVU983
 171:../USER/main.c ****   else hd = -1;
 3245              		.loc 1 171 31 view .LVU984
 170:../USER/main.c ****   else if(ch>='A' && ch<='F') hd = ch - 0x37;
 3246              		.loc 1 170 14 is_stmt 0 view .LVU985
 3247 0034 D9B2     		uxtb	r1, r3
 170:../USER/main.c ****   else if(ch>='A' && ch<='F') hd = ch - 0x37;
 3248              		.loc 1 170 5 view .LVU986
 3249 0036 A1F13004 		sub	r4, r1, #48
 3250 003a 092C     		cmp	r4, #9
 171:../USER/main.c ****   else hd = -1;
 3251              		.loc 1 171 10 view .LVU987
 3252 003c A1F14101 		sub	r1, r1, #65
 170:../USER/main.c ****   else if(ch>='A' && ch<='F') hd = ch - 0x37;
 3253              		.loc 1 170 5 view .LVU988
 3254 0040 EFD9     		bls	.L277
 171:../USER/main.c ****   else hd = -1;
 3255              		.loc 1 171 10 view .LVU989
 3256 0042 0529     		cmp	r1, #5
 3257 0044 02D8     		bhi	.L262
 171:../USER/main.c ****   else hd = -1;
 3258              		.loc 1 171 34 view .LVU990
 3259 0046 373B     		subs	r3, r3, #55
 3260              	.LVL193:
 171:../USER/main.c ****   else hd = -1;
 3261              		.loc 1 171 34 view .LVU991
 3262              	.LBE532:
 3263              	.LBE535:
 182:../USER/main.c ****   return num;
 3264              		.loc 1 182 36 is_stmt 1 view .LVU992
 3265              	.LBB536:
 3266              	.LBB533:
 173:../USER/main.c **** }
 3267              		.loc 1 173 3 view .LVU993
 173:../USER/main.c **** }
 3268              		.loc 1 173 3 is_stmt 0 view .LVU994
 3269              	.LBE533:
 3270              	.LBE536:
 182:../USER/main.c ****   return num;
 3271              		.loc 1 182 8 view .LVU995
 3272 0048 591C     		adds	r1, r3, #1
 3273 004a EDD1     		bne	.L269
 3274              	.LVL194:
 3275              	.L262:
 182:../USER/main.c ****   return num;
 3276              		.loc 1 182 8 view .LVU996
 3277              	.LBE537:
 3278              	.LBE538:
 3279              		.loc 1 184 1 view .LVU997
 3280 004c 30BC     		pop	{r4, r5}
 3281              		.cfi_restore 5
 3282              		.cfi_restore 4
 3283              		.cfi_def_cfa_offset 0
 3284              	.LVL195:
 3285              		.loc 1 184 1 view .LVU998
 3286 004e 7047     		bx	lr
 3287              	.LVL196:
 3288              	.L270:
 180:../USER/main.c ****   while(**buf==' ') (*buf)++; /* spip sp*/
 3289              		.loc 1 180 26 view .LVU999
 3290 0050 4FF0FF30 		mov	r0, #-1
 3291              	.LVL197:
 3292              		.loc 1 184 1 view .LVU1000
 3293 0054 7047     		bx	lr
 3294              		.cfi_endproc
 3295              	.LFE51:
 3297 0056 00BF     		.section	.text.startup.main,"ax",%progbits
 3298              		.align	1
 3299              		.p2align 2,,3
 3300              		.global	main
 3301              		.syntax unified
 3302              		.thumb
 3303              		.thumb_func
 3304              		.fpu softvfp
 3306              	main:
 3307              	.LFB52:
 185:../USER/main.c **** 
 186:../USER/main.c **** int main(void){
 3308              		.loc 1 186 15 is_stmt 1 view -0
 3309              		.cfi_startproc
 3310              		@ args = 0, pretend = 0, frame = 208
 3311              		@ frame_needed = 0, uses_anonymous_args = 0
 187:../USER/main.c **** 	unsigned char *mbase;
 3312              		.loc 1 187 2 view .LVU1002
 188:../USER/main.c **** 	  long adr,ade,adro,dt,dtr,wk,sct,scr,sl;
 3313              		.loc 1 188 4 view .LVU1003
 189:../USER/main.c **** 	  long i,j,mmd,rno;
 3314              		.loc 1 189 4 view .LVU1004
 190:../USER/main.c **** 	  unsigned int * cmp, *wrp, *sbp;
 3315              		.loc 1 190 4 view .LVU1005
 191:../USER/main.c **** 	  char cmd, cbuf[32], *cbp, **cbpp;
 3316              		.loc 1 191 4 view .LVU1006
 192:../USER/main.c **** 
 193:../USER/main.c **** 		char ch,kd;
 3317              		.loc 1 193 3 view .LVU1007
 194:../USER/main.c **** 		SystemInit();	//Initializes system
 3318              		.loc 1 194 3 view .LVU1008
 186:../USER/main.c **** 	unsigned char *mbase;
 3319              		.loc 1 186 15 is_stmt 0 view .LVU1009
 3320 0000 2DE9F04F 		push	{r4, r5, r6, r7, r8, r9, r10, fp, lr}
 3321              		.cfi_def_cfa_offset 36
 3322              		.cfi_offset 4, -36
 3323              		.cfi_offset 5, -32
 3324              		.cfi_offset 6, -28
 3325              		.cfi_offset 7, -24
 3326              		.cfi_offset 8, -20
 3327              		.cfi_offset 9, -16
 3328              		.cfi_offset 10, -12
 3329              		.cfi_offset 11, -8
 3330              		.cfi_offset 14, -4
 3331 0004 B7B0     		sub	sp, sp, #220
 3332              		.cfi_def_cfa_offset 256
 3333              		.loc 1 194 3 view .LVU1010
 3334 0006 FFF7FEFF 		bl	SystemInit
 3335              	.LVL198:
 195:../USER/main.c **** 		UartInit();
 3336              		.loc 1 195 3 is_stmt 1 view .LVU1011
 3337 000a FFF7FEFF 		bl	UartInit
 3338              	.LVL199:
 196:../USER/main.c **** 		SPIInit();		//Initializes SPI
 3339              		.loc 1 196 3 view .LVU1012
 3340              	.LBB930:
 3341              	.LBI930:
  79:../USER/main.c **** {
 3342              		.loc 1 79 6 view .LVU1013
 3343              	.LBB931:
  81:../USER/main.c ****   init_spi.CLKSEL= CLKSEL_CLK_DIV_4;		//80MHZ / 8
 3344              		.loc 1 81 2 view .LVU1014
  82:../USER/main.c ****   init_spi.DIRECTION = DISABLE;					//MSB First
 3345              		.loc 1 82 3 view .LVU1015
  83:../USER/main.c ****   init_spi.PHASE =DISABLE;							//ENABLE;//posedge
 3346              		.loc 1 83 3 view .LVU1016
  84:../USER/main.c ****   init_spi.POLARITY =DISABLE;						//polarity 0
 3347              		.loc 1 84 3 view .LVU1017
  85:../USER/main.c ****   SPI_Init(&init_spi);
 3348              		.loc 1 85 3 view .LVU1018
  83:../USER/main.c ****   init_spi.PHASE =DISABLE;							//ENABLE;//posedge
 3349              		.loc 1 83 22 is_stmt 0 view .LVU1019
 3350 000e 4FF08073 		mov	r3, #16777216
  86:../USER/main.c **** }
 3351              		.loc 1 86 3 view .LVU1020
 3352 0012 2EA8     		add	r0, sp, #184
  83:../USER/main.c ****   init_spi.PHASE =DISABLE;							//ENABLE;//posedge
 3353              		.loc 1 83 22 view .LVU1021
 3354 0014 2E93     		str	r3, [sp, #184]
  86:../USER/main.c **** }
 3355              		.loc 1 86 3 is_stmt 1 view .LVU1022
 3356 0016 FFF7FEFF 		bl	SPI_Init
 3357              	.LVL200:
 3358              	.LBE931:
 3359              	.LBE930:
 197:../USER/main.c **** 		check_gpio();
 3360              		.loc 1 197 3 view .LVU1023
 3361 001a FFF7FEFF 		bl	check_gpio
 3362              	.LVL201:
 198:../USER/main.c **** 
 199:../USER/main.c **** 		cbpp = &cbp; adro = 0; mbase = 0;
 3363              		.loc 1 199 3 view .LVU1024
 3364              		.loc 1 199 16 view .LVU1025
 3365              		.loc 1 199 26 view .LVU1026
 200:../USER/main.c **** 	  puts("\r\nMon_TN4K");
 3366              		.loc 1 200 4 view .LVU1027
 3367              	.LBB932:
 3368              	.LBI932:
 155:../USER/main.c **** 	while(1){
 3369              		.loc 1 155 6 view .LVU1028
 3370              	.LBB933:
 156:../USER/main.c **** 		if(*buf==0) break;
 3371              		.loc 1 156 2 view .LVU1029
 157:../USER/main.c **** 		else        putch(*buf++);
 3372              		.loc 1 157 3 view .LVU1030
 157:../USER/main.c **** 		else        putch(*buf++);
 3373              		.loc 1 157 6 is_stmt 0 view .LVU1031
 3374 001e 0D20     		movs	r0, #13
 3375              	.LBE933:
 3376              	.LBE932:
 197:../USER/main.c **** 
 3377              		.loc 1 197 3 view .LVU1032
 3378 0020 B74C     		ldr	r4, .L1209
 3379              	.LVL202:
 3380              	.L280:
 3381              	.LBB935:
 3382              	.LBB934:
 158:../USER/main.c **** 	}
 3383              		.loc 1 158 15 is_stmt 1 view .LVU1033
 158:../USER/main.c **** 	}
 3384              		.loc 1 158 15 is_stmt 0 view .LVU1034
 3385 0022 FFF7FEFF 		bl	putch_uart
 3386              	.LVL203:
 156:../USER/main.c **** 		if(*buf==0) break;
 3387              		.loc 1 156 2 is_stmt 1 view .LVU1035
 157:../USER/main.c **** 		else        putch(*buf++);
 3388              		.loc 1 157 3 view .LVU1036
 157:../USER/main.c **** 		else        putch(*buf++);
 3389              		.loc 1 157 6 is_stmt 0 view .LVU1037
 3390 0026 14F9010F 		ldrsb	r0, [r4, #1]!
 3391              	.LVL204:
 157:../USER/main.c **** 		else        putch(*buf++);
 3392              		.loc 1 157 5 view .LVU1038
 3393 002a 0028     		cmp	r0, #0
 3394 002c F9D1     		bne	.L280
 3395              	.LBE934:
 3396              	.LBE935:
 3397              	.LBB936:
 3398              	.LBB937:
 3399              	.LBB938:
 3400              	.LBB939:
 3401              	.LBB940:
 3402              	.LBB941:
 121:../USER/main.c **** 	//
 3403              		.loc 1 121 25 view .LVU1039
 3404 002e 0746     		mov	r7, r0
 3405 0030 DFF8D8A2 		ldr	r10, .L1209+12
 3406 0034 DFF8D882 		ldr	r8, .L1209+16
 3407 0038 DFF8D892 		ldr	r9, .L1209+20
 3408              	.LBE941:
 3409              	.LBE940:
 3410              	.LBE939:
 3411              	.LBE938:
 3412              	.LBE937:
 3413              	.LBE936:
 199:../USER/main.c **** 	  puts("\r\nMon_TN4K");
 3414              		.loc 1 199 21 view .LVU1040
 3415 003c 0B90     		str	r0, [sp, #44]
 3416              	.LVL205:
 3417              	.L279:
 201:../USER/main.c **** 	  while(1){
 3418              		.loc 1 201 4 is_stmt 1 view .LVU1041
 202:../USER/main.c **** 		  puts("\r\n>"); getssu(cbuf);
 3419              		.loc 1 202 5 view .LVU1042
 3420              	.LBB957:
 3421              	.LBI936:
 155:../USER/main.c **** 	while(1){
 3422              		.loc 1 155 6 view .LVU1043
 3423              	.LBB954:
 156:../USER/main.c **** 		if(*buf==0) break;
 3424              		.loc 1 156 2 view .LVU1044
 157:../USER/main.c **** 		else        putch(*buf++);
 3425              		.loc 1 157 3 view .LVU1045
 3426 003e DFF8D8B2 		ldr	fp, .L1209+24
 157:../USER/main.c **** 		else        putch(*buf++);
 3427              		.loc 1 157 6 is_stmt 0 view .LVU1046
 3428 0042 0D24     		movs	r4, #13
 3429              	.LBE954:
 3430              	.LBE957:
 199:../USER/main.c **** 	  puts("\r\nMon_TN4K");
 3431              		.loc 1 199 21 view .LVU1047
 3432 0044 5E46     		mov	r6, fp
 3433              	.LVL206:
 3434              	.L281:
 3435              	.LBB958:
 3436              	.LBB955:
 158:../USER/main.c **** 	}
 3437              		.loc 1 158 15 is_stmt 1 view .LVU1048
 3438              	.LBB952:
 3439              	.LBI938:
 134:../USER/main.c **** 	volatile uint32_t gpiord;
 3440              		.loc 1 134 6 view .LVU1049
 3441              	.LBB950:
 135:../USER/main.c **** 	if((mdgpio & 0x2000)==0)
 3442              		.loc 1 135 2 view .LVU1050
 136:../USER/main.c **** 		UART_SendChar(UART0,ch);
 3443              		.loc 1 136 2 view .LVU1051
 136:../USER/main.c **** 		UART_SendChar(UART0,ch);
 3444              		.loc 1 136 13 is_stmt 0 view .LVU1052
 3445 0046 DAF80030 		ldr	r3, [r10]
 136:../USER/main.c **** 		UART_SendChar(UART0,ch);
 3446              		.loc 1 136 4 view .LVU1053
 3447 004a 9B04     		lsls	r3, r3, #18
 3448 004c 40F1BB84 		bpl	.L1098
 139:../USER/main.c **** 		while((gpiord & 0x4000)!=0) {
 3449              		.loc 1 139 3 is_stmt 1 view .LVU1054
 139:../USER/main.c **** 		while((gpiord & 0x4000)!=0) {
 3450              		.loc 1 139 10 is_stmt 0 view .LVU1055
 3451 0050 4FF48043 		mov	r3, #16384
 3452 0054 0E93     		str	r3, [sp, #56]
 140:../USER/main.c **** 			key_check();
 3453              		.loc 1 140 3 is_stmt 1 view .LVU1056
 140:../USER/main.c **** 			key_check();
 3454              		.loc 1 140 17 is_stmt 0 view .LVU1057
 3455 0056 0E9B     		ldr	r3, [sp, #56]
 140:../USER/main.c **** 			key_check();
 3456              		.loc 1 140 8 view .LVU1058
 3457 0058 5D04     		lsls	r5, r3, #17
 3458 005a 2CD5     		bpl	.L291
 142:../USER/main.c **** 		}
 3459              		.loc 1 142 13 view .LVU1059
 3460 005c A94D     		ldr	r5, .L1209+4
 3461 005e 1DE0     		b	.L285
 3462              	.LVL207:
 3463              	.L1099:
 142:../USER/main.c **** 		}
 3464              		.loc 1 142 13 view .LVU1060
 3465 0060 D8F80030 		ldr	r3, [r8]
 3466              	.L287:
 3467              	.LBB944:
 3468              	.LBB942:
 121:../USER/main.c **** 	//
 3469              		.loc 1 121 2 is_stmt 1 view .LVU1061
 121:../USER/main.c **** 	//
 3470              		.loc 1 121 18 view .LVU1062
 121:../USER/main.c **** 	//
 3471              		.loc 1 121 4 is_stmt 0 view .LVU1063
 3472 0064 FF2B     		cmp	r3, #255
 3473 0066 02DD     		ble	.L288
 121:../USER/main.c **** 	//
 3474              		.loc 1 121 25 view .LVU1064
 3475 0068 0023     		movs	r3, #0
 3476 006a C8F80070 		str	r7, [r8]
 3477              	.L288:
 123:../USER/main.c **** 	if(kinbwp>=256) kinbwp = 0;
 3478              		.loc 1 123 39 is_stmt 1 view .LVU1065
 123:../USER/main.c **** 	if(kinbwp>=256) kinbwp = 0;
 3479              		.loc 1 123 2 view .LVU1066
 123:../USER/main.c **** 	if(kinbwp>=256) kinbwp = 0;
 3480              		.loc 1 123 11 is_stmt 0 view .LVU1067
 3481 006e 4FF04021 		mov	r1, #1073758208
 3482 0072 4868     		ldr	r0, [r1, #4]
 3483              	.LVL208:
 123:../USER/main.c **** 	if(kinbwp>=256) kinbwp = 0;
 3484              		.loc 1 123 52 view .LVU1068
 3485 0074 5A1C     		adds	r2, r3, #1
 123:../USER/main.c **** 	if(kinbwp>=256) kinbwp = 0;
 3486              		.loc 1 123 4 view .LVU1069
 3487 0076 8007     		lsls	r0, r0, #30
 3488 0078 09D5     		bpl	.L290
 124:../USER/main.c **** 	//
 3489              		.loc 1 124 25 view .LVU1070
 3490 007a B2F5807F 		cmp	r2, #256
 123:../USER/main.c **** 	if(kinbwp>=256) kinbwp = 0;
 3491              		.loc 1 123 63 view .LVU1071
 3492 007e 0868     		ldr	r0, [r1]
 124:../USER/main.c **** 	//
 3493              		.loc 1 124 25 view .LVU1072
 3494 0080 14BF     		ite	ne
 3495 0082 1146     		movne	r1, r2
 3496 0084 3946     		moveq	r1, r7
 123:../USER/main.c **** 	if(kinbwp>=256) kinbwp = 0;
 3497              		.loc 1 123 56 view .LVU1073
 3498 0086 09F80300 		strb	r0, [r9, r3]
 124:../USER/main.c **** 	//
 3499              		.loc 1 124 2 is_stmt 1 view .LVU1074
 124:../USER/main.c **** 	//
 3500              		.loc 1 124 25 is_stmt 0 view .LVU1075
 3501 008a C8F80010 		str	r1, [r8]
 3502              	.L290:
 124:../USER/main.c **** 	//
 3503              		.loc 1 124 25 view .LVU1076
 3504              	.LBE942:
 3505              	.LBE944:
 142:../USER/main.c **** 		}
 3506              		.loc 1 142 4 is_stmt 1 view .LVU1077
 142:../USER/main.c **** 		}
 3507              		.loc 1 142 13 is_stmt 0 view .LVU1078
 3508 008e 2846     		mov	r0, r5
 3509 0090 FFF7FEFF 		bl	GPIO_ReadBits
 3510              	.LVL209:
 142:../USER/main.c **** 		}
 3511              		.loc 1 142 11 view .LVU1079
 3512 0094 0E90     		str	r0, [sp, #56]
 140:../USER/main.c **** 			key_check();
 3513              		.loc 1 140 17 view .LVU1080
 3514 0096 0E9B     		ldr	r3, [sp, #56]
 140:../USER/main.c **** 			key_check();
 3515              		.loc 1 140 8 view .LVU1081
 3516 0098 5804     		lsls	r0, r3, #17
 3517 009a 0CD5     		bpl	.L291
 3518              	.L285:
 141:../USER/main.c **** 			gpiord = GPIO_ReadBits(GPIO0);
 3519              		.loc 1 141 4 is_stmt 1 view .LVU1082
 3520              	.LBB945:
 3521              	.LBI940:
 116:../USER/main.c **** 	char ch;
 3522              		.loc 1 116 6 view .LVU1083
 3523              	.LBB943:
 117:../USER/main.c **** 	//
 3524              		.loc 1 117 2 view .LVU1084
 119:../USER/main.c **** 	if(ch!=0) kinbuf[kinbwp++] = ch;
 3525              		.loc 1 119 2 view .LVU1085
 119:../USER/main.c **** 	if(ch!=0) kinbuf[kinbwp++] = ch;
 3526              		.loc 1 119 7 is_stmt 0 view .LVU1086
 3527 009c FFF7FEFF 		bl	SPI_ReadData
 3528              	.LVL210:
 120:../USER/main.c **** 	if(kinbwp>=256) kinbwp = 0;
 3529              		.loc 1 120 12 is_stmt 1 view .LVU1087
 119:../USER/main.c **** 	if(ch!=0) kinbuf[kinbwp++] = ch;
 3530              		.loc 1 119 5 is_stmt 0 view .LVU1088
 3531 00a0 40B2     		sxtb	r0, r0
 3532              	.LVL211:
 120:../USER/main.c **** 	if(kinbwp>=256) kinbwp = 0;
 3533              		.loc 1 120 2 is_stmt 1 view .LVU1089
 120:../USER/main.c **** 	if(kinbwp>=256) kinbwp = 0;
 3534              		.loc 1 120 4 is_stmt 0 view .LVU1090
 3535 00a2 0028     		cmp	r0, #0
 3536 00a4 DCD0     		beq	.L1099
 120:../USER/main.c **** 	if(kinbwp>=256) kinbwp = 0;
 3537              		.loc 1 120 25 view .LVU1091
 3538 00a6 D8F80020 		ldr	r2, [r8]
 3539 00aa 531C     		adds	r3, r2, #1
 120:../USER/main.c **** 	if(kinbwp>=256) kinbwp = 0;
 3540              		.loc 1 120 29 view .LVU1092
 3541 00ac 09F80200 		strb	r0, [r9, r2]
 120:../USER/main.c **** 	if(kinbwp>=256) kinbwp = 0;
 3542              		.loc 1 120 25 view .LVU1093
 3543 00b0 C8F80030 		str	r3, [r8]
 3544 00b4 D6E7     		b	.L287
 3545              	.LVL212:
 3546              	.L291:
 120:../USER/main.c **** 	if(kinbwp>=256) kinbwp = 0;
 3547              		.loc 1 120 25 view .LVU1094
 3548              	.LBE943:
 3549              	.LBE945:
 144:../USER/main.c **** 	}
 3550              		.loc 1 144 3 is_stmt 1 view .LVU1095
 3551 00b6 E0B2     		uxtb	r0, r4
 3552 00b8 FFF7FEFF 		bl	SPI_WriteData
 3553              	.LVL213:
 3554              	.L284:
 3555              	.LBB946:
 3556              	.LBB947:
 123:../USER/main.c **** 	if(kinbwp>=256) kinbwp = 0;
 3557              		.loc 1 123 11 is_stmt 0 view .LVU1096
 3558 00bc 4FF04025 		mov	r5, #1073758208
 3559 00c0 18E0     		b	.L297
 3560              	.LVL214:
 3561              	.L1101:
 123:../USER/main.c **** 	if(kinbwp>=256) kinbwp = 0;
 3562              		.loc 1 123 11 view .LVU1097
 3563 00c2 D8F80030 		ldr	r3, [r8]
 3564              	.L293:
 121:../USER/main.c **** 	//
 3565              		.loc 1 121 2 is_stmt 1 view .LVU1098
 121:../USER/main.c **** 	//
 3566              		.loc 1 121 18 view .LVU1099
 121:../USER/main.c **** 	//
 3567              		.loc 1 121 4 is_stmt 0 view .LVU1100
 3568 00c6 FF2B     		cmp	r3, #255
 3569 00c8 02DD     		ble	.L294
 121:../USER/main.c **** 	//
 3570              		.loc 1 121 25 view .LVU1101
 3571 00ca 0023     		movs	r3, #0
 3572 00cc C8F80070 		str	r7, [r8]
 3573              	.L294:
 123:../USER/main.c **** 	if(kinbwp>=256) kinbwp = 0;
 3574              		.loc 1 123 39 is_stmt 1 view .LVU1102
 123:../USER/main.c **** 	if(kinbwp>=256) kinbwp = 0;
 3575              		.loc 1 123 2 view .LVU1103
 123:../USER/main.c **** 	if(kinbwp>=256) kinbwp = 0;
 3576              		.loc 1 123 11 is_stmt 0 view .LVU1104
 3577 00d0 6968     		ldr	r1, [r5, #4]
 123:../USER/main.c **** 	if(kinbwp>=256) kinbwp = 0;
 3578              		.loc 1 123 52 view .LVU1105
 3579 00d2 5A1C     		adds	r2, r3, #1
 123:../USER/main.c **** 	if(kinbwp>=256) kinbwp = 0;
 3580              		.loc 1 123 4 view .LVU1106
 3581 00d4 8807     		lsls	r0, r1, #30
 3582              	.LVL215:
 123:../USER/main.c **** 	if(kinbwp>=256) kinbwp = 0;
 3583              		.loc 1 123 4 view .LVU1107
 3584 00d6 09D5     		bpl	.L296
 124:../USER/main.c **** 	//
 3585              		.loc 1 124 25 view .LVU1108
 3586 00d8 B2F5807F 		cmp	r2, #256
 3587 00dc 14BF     		ite	ne
 3588 00de 1146     		movne	r1, r2
 3589 00e0 3946     		moveq	r1, r7
 123:../USER/main.c **** 	if(kinbwp>=256) kinbwp = 0;
 3590              		.loc 1 123 63 view .LVU1109
 3591 00e2 2868     		ldr	r0, [r5]
 124:../USER/main.c **** 	//
 3592              		.loc 1 124 25 view .LVU1110
 3593 00e4 C8F80010 		str	r1, [r8]
 123:../USER/main.c **** 	if(kinbwp>=256) kinbwp = 0;
 3594              		.loc 1 123 56 view .LVU1111
 3595 00e8 09F80300 		strb	r0, [r9, r3]
 124:../USER/main.c **** 	//
 3596              		.loc 1 124 2 is_stmt 1 view .LVU1112
 3597              	.L296:
 124:../USER/main.c **** 	//
 3598              		.loc 1 124 2 is_stmt 0 view .LVU1113
 3599              	.LBE947:
 3600              	.LBE946:
 147:../USER/main.c **** }
 3601              		.loc 1 147 27 is_stmt 1 view .LVU1114
 147:../USER/main.c **** }
 3602              		.loc 1 147 32 is_stmt 0 view .LVU1115
 3603 00ec 2046     		mov	r0, r4
 3604 00ee FFF7FEFF 		bl	disp_vram
 3605              	.LVL216:
 147:../USER/main.c **** }
 3606              		.loc 1 147 2 view .LVU1116
 3607 00f2 60B1     		cbz	r0, .L1100
 3608              	.LVL217:
 3609              	.L297:
 147:../USER/main.c **** }
 3610              		.loc 1 147 2 is_stmt 1 view .LVU1117
 147:../USER/main.c **** }
 3611              		.loc 1 147 10 view .LVU1118
 147:../USER/main.c **** }
 3612              		.loc 1 147 14 view .LVU1119
 3613              	.LBB949:
 3614              	.LBI946:
 116:../USER/main.c **** 	char ch;
 3615              		.loc 1 116 6 view .LVU1120
 3616              	.LBB948:
 117:../USER/main.c **** 	//
 3617              		.loc 1 117 2 view .LVU1121
 119:../USER/main.c **** 	if(ch!=0) kinbuf[kinbwp++] = ch;
 3618              		.loc 1 119 2 view .LVU1122
 119:../USER/main.c **** 	if(ch!=0) kinbuf[kinbwp++] = ch;
 3619              		.loc 1 119 7 is_stmt 0 view .LVU1123
 3620 00f4 FFF7FEFF 		bl	SPI_ReadData
 3621              	.LVL218:
 120:../USER/main.c **** 	if(kinbwp>=256) kinbwp = 0;
 3622              		.loc 1 120 12 is_stmt 1 view .LVU1124
 119:../USER/main.c **** 	if(ch!=0) kinbuf[kinbwp++] = ch;
 3623              		.loc 1 119 5 is_stmt 0 view .LVU1125
 3624 00f8 40B2     		sxtb	r0, r0
 3625              	.LVL219:
 120:../USER/main.c **** 	if(kinbwp>=256) kinbwp = 0;
 3626              		.loc 1 120 2 is_stmt 1 view .LVU1126
 120:../USER/main.c **** 	if(kinbwp>=256) kinbwp = 0;
 3627              		.loc 1 120 4 is_stmt 0 view .LVU1127
 3628 00fa 0028     		cmp	r0, #0
 3629 00fc E1D0     		beq	.L1101
 120:../USER/main.c **** 	if(kinbwp>=256) kinbwp = 0;
 3630              		.loc 1 120 25 view .LVU1128
 3631 00fe D8F80020 		ldr	r2, [r8]
 3632 0102 531C     		adds	r3, r2, #1
 120:../USER/main.c **** 	if(kinbwp>=256) kinbwp = 0;
 3633              		.loc 1 120 29 view .LVU1129
 3634 0104 09F80200 		strb	r0, [r9, r2]
 120:../USER/main.c **** 	if(kinbwp>=256) kinbwp = 0;
 3635              		.loc 1 120 25 view .LVU1130
 3636 0108 C8F80030 		str	r3, [r8]
 3637 010c DBE7     		b	.L293
 3638              	.LVL220:
 3639              	.L1100:
 120:../USER/main.c **** 	if(kinbwp>=256) kinbwp = 0;
 3640              		.loc 1 120 25 view .LVU1131
 3641              	.LBE948:
 3642              	.LBE949:
 3643              	.LBE950:
 3644              	.LBE952:
 156:../USER/main.c **** 		if(*buf==0) break;
 3645              		.loc 1 156 2 is_stmt 1 view .LVU1132
 157:../USER/main.c **** 		else        putch(*buf++);
 3646              		.loc 1 157 3 view .LVU1133
 157:../USER/main.c **** 		else        putch(*buf++);
 3647              		.loc 1 157 6 is_stmt 0 view .LVU1134
 3648 010e 16F9014F 		ldrsb	r4, [r6, #1]!
 3649              	.LVL221:
 157:../USER/main.c **** 		else        putch(*buf++);
 3650              		.loc 1 157 5 view .LVU1135
 3651 0112 002C     		cmp	r4, #0
 3652 0114 97D1     		bne	.L281
 3653 0116 26AE     		add	r6, sp, #152
 3654              	.LVL222:
 3655              	.L282:
 157:../USER/main.c **** 		else        putch(*buf++);
 3656              		.loc 1 157 5 view .LVU1136
 3657              	.LBE955:
 3658              	.LBE958:
 3659              	.LBB959:
 3660              	.LBB960:
 3661              	.LBB961:
 162:../USER/main.c **** 	while(1){
 3662              		.loc 1 162 2 is_stmt 1 view .LVU1137
 163:../USER/main.c **** 		ch = getch(); putch(ch); *buf++ = ch;
 3663              		.loc 1 163 2 view .LVU1138
 164:../USER/main.c **** 		if(ch==0x0d) break;
 3664              		.loc 1 164 3 view .LVU1139
 3665              	.LBB962:
 3666              	.LBI962:
 127:../USER/main.c **** 	char dt;
 3667              		.loc 1 127 6 view .LVU1140
 3668              	.LBB963:
 3669              	.LBB964:
 3670              	.LBB965:
 123:../USER/main.c **** 	if(kinbwp>=256) kinbwp = 0;
 3671              		.loc 1 123 11 is_stmt 0 view .LVU1141
 3672 0118 4FF04024 		mov	r4, #1073758208
 3673 011c D8F80030 		ldr	r3, [r8]
 3674              	.L306:
 3675              	.LBE965:
 3676              	.LBE964:
 129:../USER/main.c **** 	dt = kinbuf[kinbrp++];
 3677              		.loc 1 129 14 view .LVU1142
 3678 0120 794A     		ldr	r2, .L1209+8
 3679 0122 1268     		ldr	r2, [r2]
 129:../USER/main.c **** 	dt = kinbuf[kinbrp++];
 3680              		.loc 1 129 7 view .LVU1143
 3681 0124 9A42     		cmp	r2, r3
 3682 0126 31D1     		bne	.L1102
 3683              	.L307:
 129:../USER/main.c **** 	dt = kinbuf[kinbrp++];
 3684              		.loc 1 129 24 is_stmt 1 view .LVU1144
 3685              	.LBB968:
 3686              	.LBI964:
 116:../USER/main.c **** 	char ch;
 3687              		.loc 1 116 6 view .LVU1145
 3688              	.LBB966:
 117:../USER/main.c **** 	//
 3689              		.loc 1 117 2 view .LVU1146
 119:../USER/main.c **** 	if(ch!=0) kinbuf[kinbwp++] = ch;
 3690              		.loc 1 119 2 view .LVU1147
 119:../USER/main.c **** 	if(ch!=0) kinbuf[kinbwp++] = ch;
 3691              		.loc 1 119 7 is_stmt 0 view .LVU1148
 3692 0128 FFF7FEFF 		bl	SPI_ReadData
 3693              	.LVL223:
 119:../USER/main.c **** 	if(ch!=0) kinbuf[kinbwp++] = ch;
 3694              		.loc 1 119 5 view .LVU1149
 3695 012c 40B2     		sxtb	r0, r0
 3696              	.LVL224:
 120:../USER/main.c **** 	if(kinbwp>=256) kinbwp = 0;
 3697              		.loc 1 120 2 is_stmt 1 view .LVU1150
 120:../USER/main.c **** 	if(kinbwp>=256) kinbwp = 0;
 3698              		.loc 1 120 4 is_stmt 0 view .LVU1151
 3699 012e 88B9     		cbnz	r0, .L300
 3700 0130 D8F80030 		ldr	r3, [r8]
 121:../USER/main.c **** 	//
 3701              		.loc 1 121 2 is_stmt 1 view .LVU1152
 121:../USER/main.c **** 	//
 3702              		.loc 1 121 4 is_stmt 0 view .LVU1153
 3703 0134 FF2B     		cmp	r3, #255
 3704 0136 16DD     		ble	.L302
 3705              	.L1103:
 121:../USER/main.c **** 	//
 3706              		.loc 1 121 18 is_stmt 1 view .LVU1154
 123:../USER/main.c **** 	if(kinbwp>=256) kinbwp = 0;
 3707              		.loc 1 123 11 is_stmt 0 view .LVU1155
 3708 0138 6368     		ldr	r3, [r4, #4]
 121:../USER/main.c **** 	//
 3709              		.loc 1 121 25 view .LVU1156
 3710 013a C8F80070 		str	r7, [r8]
 123:../USER/main.c **** 	if(kinbwp>=256) kinbwp = 0;
 3711              		.loc 1 123 2 is_stmt 1 view .LVU1157
 123:../USER/main.c **** 	if(kinbwp>=256) kinbwp = 0;
 3712              		.loc 1 123 4 is_stmt 0 view .LVU1158
 3713 013e 13F00203 		ands	r3, r3, #2
 3714 0142 EDD0     		beq	.L306
 123:../USER/main.c **** 	if(kinbwp>=256) kinbwp = 0;
 3715              		.loc 1 123 39 is_stmt 1 view .LVU1159
 123:../USER/main.c **** 	if(kinbwp>=256) kinbwp = 0;
 3716              		.loc 1 123 52 is_stmt 0 view .LVU1160
 3717 0144 0122     		movs	r2, #1
 123:../USER/main.c **** 	if(kinbwp>=256) kinbwp = 0;
 3718              		.loc 1 123 63 view .LVU1161
 3719 0146 2368     		ldr	r3, [r4]
 123:../USER/main.c **** 	if(kinbwp>=256) kinbwp = 0;
 3720              		.loc 1 123 52 view .LVU1162
 3721 0148 C8F80020 		str	r2, [r8]
 123:../USER/main.c **** 	if(kinbwp>=256) kinbwp = 0;
 3722              		.loc 1 123 56 view .LVU1163
 3723 014c 89F80030 		strb	r3, [r9]
 124:../USER/main.c **** 	//
 3724              		.loc 1 124 2 is_stmt 1 view .LVU1164
 3725              	.L915:
 123:../USER/main.c **** 	if(kinbwp>=256) kinbwp = 0;
 3726              		.loc 1 123 4 is_stmt 0 view .LVU1165
 3727 0150 1346     		mov	r3, r2
 3728 0152 E5E7     		b	.L306
 3729              	.L300:
 120:../USER/main.c **** 	if(kinbwp>=256) kinbwp = 0;
 3730              		.loc 1 120 12 is_stmt 1 view .LVU1166
 120:../USER/main.c **** 	if(kinbwp>=256) kinbwp = 0;
 3731              		.loc 1 120 25 is_stmt 0 view .LVU1167
 3732 0154 D8F80020 		ldr	r2, [r8]
 3733 0158 531C     		adds	r3, r2, #1
 121:../USER/main.c **** 	//
 3734              		.loc 1 121 4 view .LVU1168
 3735 015a FF2B     		cmp	r3, #255
 120:../USER/main.c **** 	if(kinbwp>=256) kinbwp = 0;
 3736              		.loc 1 120 29 view .LVU1169
 3737 015c 09F80200 		strb	r0, [r9, r2]
 120:../USER/main.c **** 	if(kinbwp>=256) kinbwp = 0;
 3738              		.loc 1 120 25 view .LVU1170
 3739 0160 C8F80030 		str	r3, [r8]
 121:../USER/main.c **** 	//
 3740              		.loc 1 121 2 is_stmt 1 view .LVU1171
 121:../USER/main.c **** 	//
 3741              		.loc 1 121 4 is_stmt 0 view .LVU1172
 3742 0164 E8DC     		bgt	.L1103
 3743              	.L302:
 123:../USER/main.c **** 	if(kinbwp>=256) kinbwp = 0;
 3744              		.loc 1 123 2 is_stmt 1 view .LVU1173
 123:../USER/main.c **** 	if(kinbwp>=256) kinbwp = 0;
 3745              		.loc 1 123 11 is_stmt 0 view .LVU1174
 3746 0166 6268     		ldr	r2, [r4, #4]
 123:../USER/main.c **** 	if(kinbwp>=256) kinbwp = 0;
 3747              		.loc 1 123 4 view .LVU1175
 3748 0168 9507     		lsls	r5, r2, #30
 3749 016a D9D5     		bpl	.L306
 123:../USER/main.c **** 	if(kinbwp>=256) kinbwp = 0;
 3750              		.loc 1 123 39 is_stmt 1 view .LVU1176
 123:../USER/main.c **** 	if(kinbwp>=256) kinbwp = 0;
 3751              		.loc 1 123 63 is_stmt 0 view .LVU1177
 3752 016c 2168     		ldr	r1, [r4]
 123:../USER/main.c **** 	if(kinbwp>=256) kinbwp = 0;
 3753              		.loc 1 123 52 view .LVU1178
 3754 016e 5A1C     		adds	r2, r3, #1
 124:../USER/main.c **** 	//
 3755              		.loc 1 124 4 view .LVU1179
 3756 0170 B2F5807F 		cmp	r2, #256
 123:../USER/main.c **** 	if(kinbwp>=256) kinbwp = 0;
 3757              		.loc 1 123 56 view .LVU1180
 3758 0174 09F80310 		strb	r1, [r9, r3]
 124:../USER/main.c **** 	//
 3759              		.loc 1 124 2 is_stmt 1 view .LVU1181
 123:../USER/main.c **** 	if(kinbwp>=256) kinbwp = 0;
 3760              		.loc 1 123 52 is_stmt 0 view .LVU1182
 3761 0178 C8F80020 		str	r2, [r8]
 124:../USER/main.c **** 	//
 3762              		.loc 1 124 4 view .LVU1183
 3763 017c E8D1     		bne	.L915
 124:../USER/main.c **** 	//
 3764              		.loc 1 124 18 is_stmt 1 view .LVU1184
 3765 017e 0023     		movs	r3, #0
 3766              	.LBE966:
 3767              	.LBE968:
 129:../USER/main.c **** 	dt = kinbuf[kinbrp++];
 3768              		.loc 1 129 14 is_stmt 0 view .LVU1185
 3769 0180 614A     		ldr	r2, .L1209+8
 3770              	.LBB969:
 3771              	.LBB967:
 124:../USER/main.c **** 	//
 3772              		.loc 1 124 25 view .LVU1186
 3773 0182 C8F80070 		str	r7, [r8]
 3774              	.LBE967:
 3775              	.LBE969:
 129:../USER/main.c **** 	dt = kinbuf[kinbrp++];
 3776              		.loc 1 129 14 view .LVU1187
 3777 0186 1268     		ldr	r2, [r2]
 129:../USER/main.c **** 	dt = kinbuf[kinbrp++];
 3778              		.loc 1 129 7 view .LVU1188
 3779 0188 9A42     		cmp	r2, r3
 3780 018a CDD0     		beq	.L307
 3781              	.LVL225:
 3782              	.L1102:
 130:../USER/main.c **** 	if(kinbrp>=256) kinbrp = 0;
 3783              		.loc 1 130 2 is_stmt 1 view .LVU1189
 130:../USER/main.c **** 	if(kinbrp>=256) kinbrp = 0;
 3784              		.loc 1 130 20 is_stmt 0 view .LVU1190
 3785 018c 531C     		adds	r3, r2, #1
 131:../USER/main.c **** 	return dt;
 3786              		.loc 1 131 25 view .LVU1191
 3787 018e B3F5807F 		cmp	r3, #256
 3788 0192 B4BF     		ite	lt
 3789 0194 1946     		movlt	r1, r3
 3790 0196 3946     		movge	r1, r7
 130:../USER/main.c **** 	if(kinbrp>=256) kinbrp = 0;
 3791              		.loc 1 130 20 view .LVU1192
 3792 0198 5B48     		ldr	r0, .L1209+8
 3793              	.LBE963:
 3794              	.LBE962:
 3795              	.LBB972:
 3796              	.LBB973:
 136:../USER/main.c **** 		UART_SendChar(UART0,ch);
 3797              		.loc 1 136 13 view .LVU1193
 3798 019a DAF80030 		ldr	r3, [r10]
 3799              	.LBE973:
 3800              	.LBE972:
 3801              	.LBB985:
 3802              	.LBB970:
 131:../USER/main.c **** 	return dt;
 3803              		.loc 1 131 25 view .LVU1194
 3804 019e 0160     		str	r1, [r0]
 3805              	.LBE970:
 3806              	.LBE985:
 3807              	.LBB986:
 3808              	.LBB982:
 136:../USER/main.c **** 		UART_SendChar(UART0,ch);
 3809              		.loc 1 136 4 view .LVU1195
 3810 01a0 9904     		lsls	r1, r3, #18
 3811              	.LBE982:
 3812              	.LBE986:
 3813              	.LBB987:
 3814              	.LBB971:
 130:../USER/main.c **** 	if(kinbrp>=256) kinbrp = 0;
 3815              		.loc 1 130 5 view .LVU1196
 3816 01a2 19F90240 		ldrsb	r4, [r9, r2]
 3817              	.LVL226:
 131:../USER/main.c **** 	return dt;
 3818              		.loc 1 131 2 is_stmt 1 view .LVU1197
 132:../USER/main.c **** }
 3819              		.loc 1 132 2 view .LVU1198
 132:../USER/main.c **** }
 3820              		.loc 1 132 2 is_stmt 0 view .LVU1199
 3821              	.LBE971:
 3822              	.LBE987:
 164:../USER/main.c **** 		if(ch==0x0d) break;
 3823              		.loc 1 164 17 is_stmt 1 view .LVU1200
 3824              	.LBB988:
 3825              	.LBI972:
 134:../USER/main.c **** 	volatile uint32_t gpiord;
 3826              		.loc 1 134 6 view .LVU1201
 3827              	.LBB983:
 135:../USER/main.c **** 	if((mdgpio & 0x2000)==0)
 3828              		.loc 1 135 2 view .LVU1202
 136:../USER/main.c **** 		UART_SendChar(UART0,ch);
 3829              		.loc 1 136 2 view .LVU1203
 136:../USER/main.c **** 		UART_SendChar(UART0,ch);
 3830              		.loc 1 136 4 is_stmt 0 view .LVU1204
 3831 01a6 40F10884 		bpl	.L1104
 139:../USER/main.c **** 		while((gpiord & 0x4000)!=0) {
 3832              		.loc 1 139 3 is_stmt 1 view .LVU1205
 139:../USER/main.c **** 		while((gpiord & 0x4000)!=0) {
 3833              		.loc 1 139 10 is_stmt 0 view .LVU1206
 3834 01aa 4FF48043 		mov	r3, #16384
 3835 01ae 0F93     		str	r3, [sp, #60]
 140:../USER/main.c **** 			key_check();
 3836              		.loc 1 140 3 is_stmt 1 view .LVU1207
 140:../USER/main.c **** 			key_check();
 3837              		.loc 1 140 17 is_stmt 0 view .LVU1208
 3838 01b0 0F9B     		ldr	r3, [sp, #60]
 140:../USER/main.c **** 			key_check();
 3839              		.loc 1 140 8 view .LVU1209
 3840 01b2 5A04     		lsls	r2, r3, #17
 3841 01b4 2CD5     		bpl	.L317
 142:../USER/main.c **** 		}
 3842              		.loc 1 142 13 view .LVU1210
 3843 01b6 534D     		ldr	r5, .L1209+4
 3844 01b8 1DE0     		b	.L311
 3845              	.LVL227:
 3846              	.L1105:
 142:../USER/main.c **** 		}
 3847              		.loc 1 142 13 view .LVU1211
 3848 01ba D8F80030 		ldr	r3, [r8]
 3849              	.L313:
 3850              	.LBB974:
 3851              	.LBB975:
 121:../USER/main.c **** 	//
 3852              		.loc 1 121 2 is_stmt 1 view .LVU1212
 121:../USER/main.c **** 	//
 3853              		.loc 1 121 18 view .LVU1213
 121:../USER/main.c **** 	//
 3854              		.loc 1 121 4 is_stmt 0 view .LVU1214
 3855 01be FF2B     		cmp	r3, #255
 3856 01c0 02DD     		ble	.L314
 121:../USER/main.c **** 	//
 3857              		.loc 1 121 25 view .LVU1215
 3858 01c2 0023     		movs	r3, #0
 3859 01c4 C8F80070 		str	r7, [r8]
 3860              	.L314:
 123:../USER/main.c **** 	if(kinbwp>=256) kinbwp = 0;
 3861              		.loc 1 123 39 is_stmt 1 view .LVU1216
 123:../USER/main.c **** 	if(kinbwp>=256) kinbwp = 0;
 3862              		.loc 1 123 2 view .LVU1217
 123:../USER/main.c **** 	if(kinbwp>=256) kinbwp = 0;
 3863              		.loc 1 123 11 is_stmt 0 view .LVU1218
 3864 01c8 4FF04021 		mov	r1, #1073758208
 3865 01cc 4868     		ldr	r0, [r1, #4]
 3866              	.LVL228:
 123:../USER/main.c **** 	if(kinbwp>=256) kinbwp = 0;
 3867              		.loc 1 123 52 view .LVU1219
 3868 01ce 5A1C     		adds	r2, r3, #1
 123:../USER/main.c **** 	if(kinbwp>=256) kinbwp = 0;
 3869              		.loc 1 123 4 view .LVU1220
 3870 01d0 8007     		lsls	r0, r0, #30
 3871 01d2 09D5     		bpl	.L316
 124:../USER/main.c **** 	//
 3872              		.loc 1 124 25 view .LVU1221
 3873 01d4 B2F5807F 		cmp	r2, #256
 123:../USER/main.c **** 	if(kinbwp>=256) kinbwp = 0;
 3874              		.loc 1 123 63 view .LVU1222
 3875 01d8 0868     		ldr	r0, [r1]
 124:../USER/main.c **** 	//
 3876              		.loc 1 124 25 view .LVU1223
 3877 01da 14BF     		ite	ne
 3878 01dc 1146     		movne	r1, r2
 3879 01de 3946     		moveq	r1, r7
 123:../USER/main.c **** 	if(kinbwp>=256) kinbwp = 0;
 3880              		.loc 1 123 56 view .LVU1224
 3881 01e0 09F80300 		strb	r0, [r9, r3]
 124:../USER/main.c **** 	//
 3882              		.loc 1 124 2 is_stmt 1 view .LVU1225
 124:../USER/main.c **** 	//
 3883              		.loc 1 124 25 is_stmt 0 view .LVU1226
 3884 01e4 C8F80010 		str	r1, [r8]
 3885              	.L316:
 124:../USER/main.c **** 	//
 3886              		.loc 1 124 25 view .LVU1227
 3887              	.LBE975:
 3888              	.LBE974:
 142:../USER/main.c **** 		}
 3889              		.loc 1 142 4 is_stmt 1 view .LVU1228
 142:../USER/main.c **** 		}
 3890              		.loc 1 142 13 is_stmt 0 view .LVU1229
 3891 01e8 2846     		mov	r0, r5
 3892 01ea FFF7FEFF 		bl	GPIO_ReadBits
 3893              	.LVL229:
 142:../USER/main.c **** 		}
 3894              		.loc 1 142 11 view .LVU1230
 3895 01ee 0F90     		str	r0, [sp, #60]
 140:../USER/main.c **** 			key_check();
 3896              		.loc 1 140 17 view .LVU1231
 3897 01f0 0F9B     		ldr	r3, [sp, #60]
 140:../USER/main.c **** 			key_check();
 3898              		.loc 1 140 8 view .LVU1232
 3899 01f2 5B04     		lsls	r3, r3, #17
 3900 01f4 0CD5     		bpl	.L317
 3901              	.L311:
 141:../USER/main.c **** 			gpiord = GPIO_ReadBits(GPIO0);
 3902              		.loc 1 141 4 is_stmt 1 view .LVU1233
 3903              	.LBB977:
 3904              	.LBI974:
 116:../USER/main.c **** 	char ch;
 3905              		.loc 1 116 6 view .LVU1234
 3906              	.LBB976:
 117:../USER/main.c **** 	//
 3907              		.loc 1 117 2 view .LVU1235
 119:../USER/main.c **** 	if(ch!=0) kinbuf[kinbwp++] = ch;
 3908              		.loc 1 119 2 view .LVU1236
 119:../USER/main.c **** 	if(ch!=0) kinbuf[kinbwp++] = ch;
 3909              		.loc 1 119 7 is_stmt 0 view .LVU1237
 3910 01f6 FFF7FEFF 		bl	SPI_ReadData
 3911              	.LVL230:
 120:../USER/main.c **** 	if(kinbwp>=256) kinbwp = 0;
 3912              		.loc 1 120 12 is_stmt 1 view .LVU1238
 119:../USER/main.c **** 	if(ch!=0) kinbuf[kinbwp++] = ch;
 3913              		.loc 1 119 5 is_stmt 0 view .LVU1239
 3914 01fa 40B2     		sxtb	r0, r0
 3915              	.LVL231:
 120:../USER/main.c **** 	if(kinbwp>=256) kinbwp = 0;
 3916              		.loc 1 120 2 is_stmt 1 view .LVU1240
 120:../USER/main.c **** 	if(kinbwp>=256) kinbwp = 0;
 3917              		.loc 1 120 4 is_stmt 0 view .LVU1241
 3918 01fc 0028     		cmp	r0, #0
 3919 01fe DCD0     		beq	.L1105
 120:../USER/main.c **** 	if(kinbwp>=256) kinbwp = 0;
 3920              		.loc 1 120 25 view .LVU1242
 3921 0200 D8F80020 		ldr	r2, [r8]
 3922 0204 531C     		adds	r3, r2, #1
 120:../USER/main.c **** 	if(kinbwp>=256) kinbwp = 0;
 3923              		.loc 1 120 29 view .LVU1243
 3924 0206 09F80200 		strb	r0, [r9, r2]
 120:../USER/main.c **** 	if(kinbwp>=256) kinbwp = 0;
 3925              		.loc 1 120 25 view .LVU1244
 3926 020a C8F80030 		str	r3, [r8]
 3927 020e D6E7     		b	.L313
 3928              	.LVL232:
 3929              	.L317:
 120:../USER/main.c **** 	if(kinbwp>=256) kinbwp = 0;
 3930              		.loc 1 120 25 view .LVU1245
 3931              	.LBE976:
 3932              	.LBE977:
 144:../USER/main.c **** 	}
 3933              		.loc 1 144 3 is_stmt 1 view .LVU1246
 3934 0210 E0B2     		uxtb	r0, r4
 3935 0212 FFF7FEFF 		bl	SPI_WriteData
 3936              	.LVL233:
 3937              	.L310:
 3938              	.LBB978:
 3939              	.LBB979:
 123:../USER/main.c **** 	if(kinbwp>=256) kinbwp = 0;
 3940              		.loc 1 123 11 is_stmt 0 view .LVU1247
 3941 0216 4FF04025 		mov	r5, #1073758208
 3942 021a 18E0     		b	.L323
 3943              	.LVL234:
 3944              	.L1107:
 123:../USER/main.c **** 	if(kinbwp>=256) kinbwp = 0;
 3945              		.loc 1 123 11 view .LVU1248
 3946 021c D8F80030 		ldr	r3, [r8]
 3947              	.L319:
 121:../USER/main.c **** 	//
 3948              		.loc 1 121 2 is_stmt 1 view .LVU1249
 121:../USER/main.c **** 	//
 3949              		.loc 1 121 18 view .LVU1250
 121:../USER/main.c **** 	//
 3950              		.loc 1 121 4 is_stmt 0 view .LVU1251
 3951 0220 FF2B     		cmp	r3, #255
 3952 0222 02DD     		ble	.L320
 121:../USER/main.c **** 	//
 3953              		.loc 1 121 25 view .LVU1252
 3954 0224 0023     		movs	r3, #0
 3955 0226 C8F80070 		str	r7, [r8]
 3956              	.L320:
 123:../USER/main.c **** 	if(kinbwp>=256) kinbwp = 0;
 3957              		.loc 1 123 39 is_stmt 1 view .LVU1253
 123:../USER/main.c **** 	if(kinbwp>=256) kinbwp = 0;
 3958              		.loc 1 123 2 view .LVU1254
 123:../USER/main.c **** 	if(kinbwp>=256) kinbwp = 0;
 3959              		.loc 1 123 11 is_stmt 0 view .LVU1255
 3960 022a 6968     		ldr	r1, [r5, #4]
 123:../USER/main.c **** 	if(kinbwp>=256) kinbwp = 0;
 3961              		.loc 1 123 52 view .LVU1256
 3962 022c 5A1C     		adds	r2, r3, #1
 123:../USER/main.c **** 	if(kinbwp>=256) kinbwp = 0;
 3963              		.loc 1 123 4 view .LVU1257
 3964 022e 8807     		lsls	r0, r1, #30
 3965              	.LVL235:
 123:../USER/main.c **** 	if(kinbwp>=256) kinbwp = 0;
 3966              		.loc 1 123 4 view .LVU1258
 3967 0230 09D5     		bpl	.L322
 124:../USER/main.c **** 	//
 3968              		.loc 1 124 25 view .LVU1259
 3969 0232 B2F5807F 		cmp	r2, #256
 3970 0236 14BF     		ite	ne
 3971 0238 1146     		movne	r1, r2
 3972 023a 3946     		moveq	r1, r7
 123:../USER/main.c **** 	if(kinbwp>=256) kinbwp = 0;
 3973              		.loc 1 123 63 view .LVU1260
 3974 023c 2868     		ldr	r0, [r5]
 124:../USER/main.c **** 	//
 3975              		.loc 1 124 25 view .LVU1261
 3976 023e C8F80010 		str	r1, [r8]
 123:../USER/main.c **** 	if(kinbwp>=256) kinbwp = 0;
 3977              		.loc 1 123 56 view .LVU1262
 3978 0242 09F80300 		strb	r0, [r9, r3]
 124:../USER/main.c **** 	//
 3979              		.loc 1 124 2 is_stmt 1 view .LVU1263
 3980              	.L322:
 124:../USER/main.c **** 	//
 3981              		.loc 1 124 2 is_stmt 0 view .LVU1264
 3982              	.LBE979:
 3983              	.LBE978:
 147:../USER/main.c **** }
 3984              		.loc 1 147 27 is_stmt 1 view .LVU1265
 147:../USER/main.c **** }
 3985              		.loc 1 147 32 is_stmt 0 view .LVU1266
 3986 0246 2046     		mov	r0, r4
 3987 0248 FFF7FEFF 		bl	disp_vram
 3988              	.LVL236:
 147:../USER/main.c **** }
 3989              		.loc 1 147 2 view .LVU1267
 3990 024c 60B1     		cbz	r0, .L1106
 3991              	.LVL237:
 3992              	.L323:
 147:../USER/main.c **** }
 3993              		.loc 1 147 2 is_stmt 1 view .LVU1268
 147:../USER/main.c **** }
 3994              		.loc 1 147 10 view .LVU1269
 147:../USER/main.c **** }
 3995              		.loc 1 147 14 view .LVU1270
 3996              	.LBB981:
 3997              	.LBI978:
 116:../USER/main.c **** 	char ch;
 3998              		.loc 1 116 6 view .LVU1271
 3999              	.LBB980:
 117:../USER/main.c **** 	//
 4000              		.loc 1 117 2 view .LVU1272
 119:../USER/main.c **** 	if(ch!=0) kinbuf[kinbwp++] = ch;
 4001              		.loc 1 119 2 view .LVU1273
 119:../USER/main.c **** 	if(ch!=0) kinbuf[kinbwp++] = ch;
 4002              		.loc 1 119 7 is_stmt 0 view .LVU1274
 4003 024e FFF7FEFF 		bl	SPI_ReadData
 4004              	.LVL238:
 120:../USER/main.c **** 	if(kinbwp>=256) kinbwp = 0;
 4005              		.loc 1 120 12 is_stmt 1 view .LVU1275
 119:../USER/main.c **** 	if(ch!=0) kinbuf[kinbwp++] = ch;
 4006              		.loc 1 119 5 is_stmt 0 view .LVU1276
 4007 0252 40B2     		sxtb	r0, r0
 4008              	.LVL239:
 120:../USER/main.c **** 	if(kinbwp>=256) kinbwp = 0;
 4009              		.loc 1 120 2 is_stmt 1 view .LVU1277
 120:../USER/main.c **** 	if(kinbwp>=256) kinbwp = 0;
 4010              		.loc 1 120 4 is_stmt 0 view .LVU1278
 4011 0254 0028     		cmp	r0, #0
 4012 0256 E1D0     		beq	.L1107
 120:../USER/main.c **** 	if(kinbwp>=256) kinbwp = 0;
 4013              		.loc 1 120 25 view .LVU1279
 4014 0258 D8F80020 		ldr	r2, [r8]
 4015 025c 531C     		adds	r3, r2, #1
 120:../USER/main.c **** 	if(kinbwp>=256) kinbwp = 0;
 4016              		.loc 1 120 29 view .LVU1280
 4017 025e 09F80200 		strb	r0, [r9, r2]
 120:../USER/main.c **** 	if(kinbwp>=256) kinbwp = 0;
 4018              		.loc 1 120 25 view .LVU1281
 4019 0262 C8F80030 		str	r3, [r8]
 4020 0266 DBE7     		b	.L319
 4021              	.LVL240:
 4022              	.L1106:
 120:../USER/main.c **** 	if(kinbwp>=256) kinbwp = 0;
 4023              		.loc 1 120 25 view .LVU1282
 4024              	.LBE980:
 4025              	.LBE981:
 4026              	.LBE983:
 4027              	.LBE988:
 164:../USER/main.c **** 		if(ch==0x0d) break;
 4028              		.loc 1 164 28 is_stmt 1 view .LVU1283
 165:../USER/main.c **** 	}
 4029              		.loc 1 165 5 is_stmt 0 view .LVU1284
 4030 0268 0D2C     		cmp	r4, #13
 164:../USER/main.c **** 		if(ch==0x0d) break;
 4031              		.loc 1 164 35 view .LVU1285
 4032 026a 06F8014B 		strb	r4, [r6], #1
 4033              	.LVL241:
 165:../USER/main.c **** 	}
 4034              		.loc 1 165 3 is_stmt 1 view .LVU1286
 165:../USER/main.c **** 	}
 4035              		.loc 1 165 5 is_stmt 0 view .LVU1287
 4036 026e 7FF453AF 		bne	.L282
 4037              	.LVL242:
 165:../USER/main.c **** 	}
 4038              		.loc 1 165 5 view .LVU1288
 4039              	.LBE961:
 4040              	.LBE960:
 4041              	.LBB991:
 4042              	.LBB992:
 109:../USER/main.c ****    if( *buf>='a' && *buf<='z') *buf = *buf - 0x20;
 4043              		.loc 1 109 9 view .LVU1289
 4044 0272 9DF99830 		ldrsb	r3, [sp, #152]
 109:../USER/main.c ****    if( *buf>='a' && *buf<='z') *buf = *buf - 0x20;
 4045              		.loc 1 109 8 view .LVU1290
 4046 0276 0D2B     		cmp	r3, #13
 4047 0278 00F0E581 		beq	.L324
 4048 027c 26AA     		add	r2, sp, #152
 4049              	.LVL243:
 4050              	.L328:
 110:../USER/main.c ****    buf++;
 4051              		.loc 1 110 4 is_stmt 1 view .LVU1291
 110:../USER/main.c ****    buf++;
 4052              		.loc 1 110 32 view .LVU1292
 111:../USER/main.c ****   }
 4053              		.loc 1 111 4 view .LVU1293
 110:../USER/main.c ****    buf++;
 4054              		.loc 1 110 18 is_stmt 0 view .LVU1294
 4055 027e DBB2     		uxtb	r3, r3
 110:../USER/main.c ****    buf++;
 4056              		.loc 1 110 44 view .LVU1295
 4057 0280 A3F12001 		sub	r1, r3, #32
 110:../USER/main.c ****    buf++;
 4058              		.loc 1 110 6 view .LVU1296
 4059 0284 613B     		subs	r3, r3, #97
 4060 0286 192B     		cmp	r3, #25
 4061 0288 00F28583 		bhi	.L325
 110:../USER/main.c ****    buf++;
 4062              		.loc 1 110 37 view .LVU1297
 4063 028c 1170     		strb	r1, [r2]
 111:../USER/main.c ****   }
 4064              		.loc 1 111 4 is_stmt 1 view .LVU1298
 109:../USER/main.c ****    if( *buf>='a' && *buf<='z') *buf = *buf - 0x20;
 4065              		.loc 1 109 9 is_stmt 0 view .LVU1299
 4066 028e 12F9013F 		ldrsb	r3, [r2, #1]!
 4067              	.LVL244:
 109:../USER/main.c ****    if( *buf>='a' && *buf<='z') *buf = *buf - 0x20;
 4068              		.loc 1 109 8 view .LVU1300
 4069 0292 0D2B     		cmp	r3, #13
 4070 0294 F3D1     		bne	.L328
 4071              	.LVL245:
 4072              	.L327:
 109:../USER/main.c ****    if( *buf>='a' && *buf<='z') *buf = *buf - 0x20;
 4073              		.loc 1 109 8 view .LVU1301
 4074              	.LBE992:
 4075              	.LBE991:
 4076              	.LBE959:
 203:../USER/main.c **** 		  cmd = cbuf[0]; cbp = &cbuf[1];
 4077              		.loc 1 203 5 is_stmt 1 view .LVU1302
 4078              		.loc 1 203 9 is_stmt 0 view .LVU1303
 4079 0296 9DF99830 		ldrsb	r3, [sp, #152]
 4080              	.LVL246:
 4081              		.loc 1 203 20 is_stmt 1 view .LVU1304
 4082              		.loc 1 203 24 is_stmt 0 view .LVU1305
 4083 029a 0DF19902 		add	r2, sp, #153
 204:../USER/main.c **** 		  switch(cmd){
 4084              		.loc 1 204 5 view .LVU1306
 4085 029e 423B     		subs	r3, r3, #66
 4086              	.LVL247:
 203:../USER/main.c **** 		  cmd = cbuf[0]; cbp = &cbuf[1];
 4087              		.loc 1 203 24 view .LVU1307
 4088 02a0 0D92     		str	r2, [sp, #52]
 4089              		.loc 1 204 5 is_stmt 1 view .LVU1308
 4090 02a2 152B     		cmp	r3, #21
 4091 02a4 00F2D281 		bhi	.L329
 4092 02a8 DFE813F0 		tbh	[pc, r3, lsl #1]
 4093              	.L331:
 4094 02ac 1B00     		.2byte	(.L335-.L331)/2
 4095 02ae D001     		.2byte	(.L329-.L331)/2
 4096 02b0 7D01     		.2byte	(.L334-.L331)/2
 4097 02b2 D001     		.2byte	(.L329-.L331)/2
 4098 02b4 D001     		.2byte	(.L329-.L331)/2
 4099 02b6 D001     		.2byte	(.L329-.L331)/2
 4100 02b8 D001     		.2byte	(.L329-.L331)/2
 4101 02ba D001     		.2byte	(.L329-.L331)/2
 4102 02bc D001     		.2byte	(.L329-.L331)/2
 4103 02be D001     		.2byte	(.L329-.L331)/2
 4104 02c0 D001     		.2byte	(.L329-.L331)/2
 4105 02c2 2101     		.2byte	(.L333-.L331)/2
 4106 02c4 D001     		.2byte	(.L329-.L331)/2
 4107 02c6 D001     		.2byte	(.L329-.L331)/2
 4108 02c8 D001     		.2byte	(.L329-.L331)/2
 4109 02ca D001     		.2byte	(.L329-.L331)/2
 4110 02cc 9800     		.2byte	(.L332-.L331)/2
 4111 02ce D001     		.2byte	(.L329-.L331)/2
 4112 02d0 D001     		.2byte	(.L329-.L331)/2
 4113 02d2 D001     		.2byte	(.L329-.L331)/2
 4114 02d4 D001     		.2byte	(.L329-.L331)/2
 4115 02d6 6400     		.2byte	(.L330-.L331)/2
 4116              	.LVL248:
 4117              		.p2align 1
 4118              	.L1140:
 4119              	.LBB996:
 4120              	.LBB997:
 156:../USER/main.c **** 		if(*buf==0) break;
 4121              		.loc 1 156 2 view .LVU1309
 157:../USER/main.c **** 		else        putch(*buf++);
 4122              		.loc 1 157 3 view .LVU1310
 157:../USER/main.c **** 		else        putch(*buf++);
 4123              		.loc 1 157 6 is_stmt 0 view .LVU1311
 4124 02d8 1BF9014F 		ldrsb	r4, [fp, #1]!
 4125              	.LVL249:
 157:../USER/main.c **** 		else        putch(*buf++);
 4126              		.loc 1 157 5 view .LVU1312
 4127 02dc 002C     		cmp	r4, #0
 4128 02de 00F0A783 		beq	.L336
 4129              	.LVL250:
 4130              	.L335:
 158:../USER/main.c **** 	}
 4131              		.loc 1 158 15 is_stmt 1 view .LVU1313
 4132              	.LBB998:
 4133              	.LBI998:
 134:../USER/main.c **** 	volatile uint32_t gpiord;
 4134              		.loc 1 134 6 view .LVU1314
 4135              	.LBB999:
 135:../USER/main.c **** 	if((mdgpio & 0x2000)==0)
 4136              		.loc 1 135 2 view .LVU1315
 136:../USER/main.c **** 		UART_SendChar(UART0,ch);
 4137              		.loc 1 136 2 view .LVU1316
 136:../USER/main.c **** 		UART_SendChar(UART0,ch);
 4138              		.loc 1 136 13 is_stmt 0 view .LVU1317
 4139 02e2 DAF80030 		ldr	r3, [r10]
 136:../USER/main.c **** 		UART_SendChar(UART0,ch);
 4140              		.loc 1 136 4 view .LVU1318
 4141 02e6 9E04     		lsls	r6, r3, #18
 4142 02e8 41F1C482 		bpl	.L1108
 139:../USER/main.c **** 		while((gpiord & 0x4000)!=0) {
 4143              		.loc 1 139 3 is_stmt 1 view .LVU1319
 139:../USER/main.c **** 		while((gpiord & 0x4000)!=0) {
 4144              		.loc 1 139 10 is_stmt 0 view .LVU1320
 4145 02ec 4FF48043 		mov	r3, #16384
 4146 02f0 1093     		str	r3, [sp, #64]
 140:../USER/main.c **** 			key_check();
 4147              		.loc 1 140 3 is_stmt 1 view .LVU1321
 140:../USER/main.c **** 			key_check();
 4148              		.loc 1 140 17 is_stmt 0 view .LVU1322
 4149 02f2 109B     		ldr	r3, [sp, #64]
 140:../USER/main.c **** 			key_check();
 4150              		.loc 1 140 8 view .LVU1323
 4151 02f4 5D04     		lsls	r5, r3, #17
 4152 02f6 40F16D83 		bpl	.L345
 142:../USER/main.c **** 		}
 4153              		.loc 1 142 13 view .LVU1324
 4154 02fa 024D     		ldr	r5, .L1209+4
 4155 02fc 2DE0     		b	.L339
 4156              	.L1210:
 4157 02fe 00BF     		.align	2
 4158              	.L1209:
 4159 0300 00000000 		.word	.LC1
 4160 0304 00000140 		.word	1073807360
 4161 0308 00000000 		.word	.LANCHOR1
 4162 030c 00000000 		.word	mdgpio
 4163 0310 00000000 		.word	.LANCHOR0
 4164 0314 00000000 		.word	kinbuf
 4165 0318 0C000000 		.word	.LC2
 4166              	.LVL251:
 4167              	.L1109:
 142:../USER/main.c **** 		}
 4168              		.loc 1 142 13 view .LVU1325
 4169 031c D8F80030 		ldr	r3, [r8]
 4170              	.L341:
 4171              	.LBB1000:
 4172              	.LBB1001:
 121:../USER/main.c **** 	//
 4173              		.loc 1 121 2 is_stmt 1 view .LVU1326
 121:../USER/main.c **** 	//
 4174              		.loc 1 121 18 view .LVU1327
 121:../USER/main.c **** 	//
 4175              		.loc 1 121 4 is_stmt 0 view .LVU1328
 4176 0320 FF2B     		cmp	r3, #255
 4177 0322 02DD     		ble	.L342
 121:../USER/main.c **** 	//
 4178              		.loc 1 121 25 view .LVU1329
 4179 0324 0023     		movs	r3, #0
 4180 0326 C8F80070 		str	r7, [r8]
 4181              	.L342:
 123:../USER/main.c **** 	if(kinbwp>=256) kinbwp = 0;
 4182              		.loc 1 123 39 is_stmt 1 view .LVU1330
 123:../USER/main.c **** 	if(kinbwp>=256) kinbwp = 0;
 4183              		.loc 1 123 2 view .LVU1331
 123:../USER/main.c **** 	if(kinbwp>=256) kinbwp = 0;
 4184              		.loc 1 123 11 is_stmt 0 view .LVU1332
 4185 032a 4FF04021 		mov	r1, #1073758208
 4186 032e 4868     		ldr	r0, [r1, #4]
 4187              	.LVL252:
 123:../USER/main.c **** 	if(kinbwp>=256) kinbwp = 0;
 4188              		.loc 1 123 52 view .LVU1333
 4189 0330 5A1C     		adds	r2, r3, #1
 123:../USER/main.c **** 	if(kinbwp>=256) kinbwp = 0;
