   1              		.cpu cortex-m3
   2              		.eabi_attribute 20, 1
   3              		.eabi_attribute 21, 1
   4              		.eabi_attribute 23, 3
   5              		.eabi_attribute 24, 1
   6              		.eabi_attribute 25, 1
   7              		.eabi_attribute 26, 1
   8              		.eabi_attribute 30, 2
   9              		.eabi_attribute 34, 1
  10              		.eabi_attribute 18, 4
  11              		.file	"main_03.c"
  12              		.text
  13              	.Ltext0:
  14              		.cfi_sections	.debug_frame
  15              		.section	.text.getsh.part.0,"ax",%progbits
  16              		.align	1
  17              		.p2align 2,,3
  18              		.arch armv7-m
  19              		.syntax unified
  20              		.thumb
  21              		.thumb_func
  22              		.fpu softvfp
  24              	getsh.part.0:
  25              	.LVL0:
  26              	.LFB53:
  27              		.file 1 "../USER/main_03.c"
   1:../USER/main_03.c **** 
   2:../USER/main_03.c **** /*
   3:../USER/main_03.c ****  * *****************************************************************************************
   4:../USER/main_03.c ****  *
   5:../USER/main_03.c ****  * 		Copyright (C) 2014-2021 Gowin Semiconductor Technology Co.,Ltd.
   6:../USER/main_03.c ****  * 		
   7:../USER/main_03.c ****  * @file			main.c
   8:../USER/main_03.c ****  * @author		Embedded Development Team
   9:../USER/main_03.c ****  * @version		V1.x.x
  10:../USER/main_03.c ****  * @date			2021-01-01 09:00:00
  11:../USER/main_03.c ****  * @brief			Main program body.
  12:../USER/main_03.c ****  ******************************************************************************************
  13:../USER/main_03.c ****  */
  14:../USER/main_03.c **** 
  15:../USER/main_03.c **** /* Includes ------------------------------------------------------------------*/
  16:../USER/main_03.c **** #include "gw1ns4c.h"
  17:../USER/main_03.c **** //#include "GOWIN_M3.h"
  18:../USER/main_03.c **** #include "gw1ns4c_uart.h"
  19:../USER/main_03.c **** 
  20:../USER/main_03.c **** #include <stdio.h>
  21:../USER/main_03.c **** #include <stdlib.h>
  22:../USER/main_03.c **** #include <string.h>
  23:../USER/main_03.c **** /* Declarations ------------------------------------------------------------------*/
  24:../USER/main_03.c **** void delay_ms(__IO uint32_t delay_ms);
  25:../USER/main_03.c **** void GPIOInit(uint32_t pin);
  26:../USER/main_03.c **** void UartInit(void);
  27:../USER/main_03.c **** //
  28:../USER/main_03.c **** void get_vram(int adry, int adrx);
  29:../USER/main_03.c **** void set_vram(int adry, int adrx);
  30:../USER/main_03.c **** void set_char(int adry, int adrx, int ptn, int ccd);
  31:../USER/main_03.c **** void set_vramm(int adry, int adrx, int ptn, int mask, int loopy, int loopx);
  32:../USER/main_03.c **** void dispfull(int adry, int adrx, int ptn, int ccd, int len);
  33:../USER/main_03.c **** void move_vram(int sadr, int dadr, int dlen, int mode);
  34:../USER/main_03.c **** void dispscroll(int adry, int adrx);
  35:../USER/main_03.c **** int  disp_vram(char chd);
  36:../USER/main_03.c **** void pset(int xp, int yp, int ptn);
  37:../USER/main_03.c **** void basic();
  38:../USER/main_03.c **** 
  39:../USER/main_03.c **** #define u16 unsigned short
  40:../USER/main_03.c **** void DLine(u16 x1, u16 y1, u16 x2, u16 y2, u16 ptn);
  41:../USER/main_03.c **** void DCircle(u16 x0,u16 y0,u16 r,u16 ptn);
  42:../USER/main_03.c **** 
  43:../USER/main_03.c **** extern unsigned char wddt[];
  44:../USER/main_03.c **** /* Functions ------------------------------------------------------------------*/
  45:../USER/main_03.c **** //Initializes GPIO
  46:../USER/main_03.c **** void GPIOInit(uint32_t pin)
  47:../USER/main_03.c **** {
  48:../USER/main_03.c **** 	GPIO_InitTypeDef GPIO_InitType;
  49:../USER/main_03.c **** 	GPIO_InitType.GPIO_Pin = pin;
  50:../USER/main_03.c **** 	GPIO_InitType.GPIO_Mode = GPIO_Mode_OUT;
  51:../USER/main_03.c **** 	GPIO_InitType.GPIO_Int = GPIO_Int_Disable;
  52:../USER/main_03.c **** 	GPIO_Init(GPIO0,&GPIO_InitType);
  53:../USER/main_03.c ****   GPIO_SetBit(GPIO0,pin);
  54:../USER/main_03.c **** }
  55:../USER/main_03.c **** 
  56:../USER/main_03.c **** void UartInit(void)
  57:../USER/main_03.c **** {
  58:../USER/main_03.c ****   UART_InitTypeDef UART_InitStruct;
  59:../USER/main_03.c **** 
  60:../USER/main_03.c ****   UART_InitStruct.UART_Mode.UARTMode_Tx = ENABLE;
  61:../USER/main_03.c ****   UART_InitStruct.UART_Mode.UARTMode_Rx = ENABLE;
  62:../USER/main_03.c ****   UART_InitStruct.UART_Int.UARTInt_Tx = DISABLE;
  63:../USER/main_03.c ****   UART_InitStruct.UART_Int.UARTInt_Rx = DISABLE;
  64:../USER/main_03.c ****   UART_InitStruct.UART_Ovr.UARTOvr_Tx = DISABLE;
  65:../USER/main_03.c ****   UART_InitStruct.UART_Ovr.UARTOvr_Rx = DISABLE;
  66:../USER/main_03.c ****   UART_InitStruct.UART_Hstm = DISABLE;
  67:../USER/main_03.c ****   UART_InitStruct.UART_BaudRate = 115200*80/72;//Baud Rate
  68:../USER/main_03.c ****   UART_Init(UART0,&UART_InitStruct);
  69:../USER/main_03.c **** }
  70:../USER/main_03.c **** 
  71:../USER/main_03.c **** //Initializes SPI
  72:../USER/main_03.c **** void SPIInit(void)
  73:../USER/main_03.c **** {
  74:../USER/main_03.c **** 	SPI_InitTypeDef init_spi;
  75:../USER/main_03.c ****   init_spi.CLKSEL= CLKSEL_CLK_DIV_4;		//80MHZ / 8
  76:../USER/main_03.c ****   init_spi.DIRECTION = DISABLE;					//MSB First
  77:../USER/main_03.c ****   init_spi.PHASE =DISABLE;							//ENABLE;//posedge
  78:../USER/main_03.c ****   init_spi.POLARITY =DISABLE;						//polarity 0
  79:../USER/main_03.c ****   SPI_Init(&init_spi);
  80:../USER/main_03.c **** }
  81:../USER/main_03.c **** //delay ms
  82:../USER/main_03.c **** void delay_ms(__IO uint32_t delay_ms) {
  83:../USER/main_03.c **** 	for(delay_ms=(SystemCoreClock>>13)*delay_ms; delay_ms != 0; delay_ms--);
  84:../USER/main_03.c **** }
  85:../USER/main_03.c **** 
  86:../USER/main_03.c **** int mdgpio;
  87:../USER/main_03.c **** void check_gpio(){
  88:../USER/main_03.c **** 	int i;
  89:../USER/main_03.c **** 	mdgpio = GPIO_ReadBits(GPIO0);	// ukey2 = bit13
  90:../USER/main_03.c **** 	mdgpio = mdgpio & 0xdfff;		// bit13.clear
  91:../USER/main_03.c **** 	for(i=0;i<2;i++){
  92:../USER/main_03.c **** 		GPIO_WriteBits(GPIO0,0x03); delay_ms(50);
  93:../USER/main_03.c **** 		GPIO_WriteBits(GPIO0,0x00); delay_ms(50);
  94:../USER/main_03.c **** 	}
  95:../USER/main_03.c **** }
  96:../USER/main_03.c **** 
  97:../USER/main_03.c **** #define getch getch_uart
  98:../USER/main_03.c **** #define putch putch_uart
  99:../USER/main_03.c **** #define gets  getsuart
 100:../USER/main_03.c **** #define puts  putsuart
 101:../USER/main_03.c **** void setsup(buf) char *buf;{
 102:../USER/main_03.c ****   while(*buf!=0x0d){
 103:../USER/main_03.c ****    if( *buf>='a' && *buf<='z') *buf = *buf - 0x20;
 104:../USER/main_03.c ****    buf++;
 105:../USER/main_03.c ****   }
 106:../USER/main_03.c **** }
 107:../USER/main_03.c **** char kinbuf[256];
 108:../USER/main_03.c **** int kinbwp =0, kinbrp = 0;
 109:../USER/main_03.c **** void key_check() {
 110:../USER/main_03.c **** 	char ch;
 111:../USER/main_03.c **** 	//
 112:../USER/main_03.c **** 	ch = SPI_ReadData();
 113:../USER/main_03.c **** 	if(ch!=0) kinbuf[kinbwp++] = ch;
 114:../USER/main_03.c **** 	if(kinbwp>=256) kinbwp = 0;
 115:../USER/main_03.c **** 	//
 116:../USER/main_03.c **** 	if((UART0->STATE & UART_STATE_RXBF)) kinbuf[kinbwp++] = UART0->DATA;
 117:../USER/main_03.c **** 	if(kinbwp>=256) kinbwp = 0;
 118:../USER/main_03.c **** 	//
 119:../USER/main_03.c **** }
 120:../USER/main_03.c **** char getch_uart(void){
 121:../USER/main_03.c **** 	char dt;
 122:../USER/main_03.c **** 	while(kinbrp==kinbwp) key_check();
 123:../USER/main_03.c **** 	dt = kinbuf[kinbrp++];
 124:../USER/main_03.c **** 	if(kinbrp>=256) kinbrp = 0;
 125:../USER/main_03.c **** 	return dt;
 126:../USER/main_03.c **** }
 127:../USER/main_03.c **** void putch_uart(char ch){
 128:../USER/main_03.c **** 	volatile uint32_t gpiord;
 129:../USER/main_03.c **** 	if((mdgpio & 0x2000)==0)
 130:../USER/main_03.c **** 		UART_SendChar(UART0,ch);
 131:../USER/main_03.c **** 	else {
 132:../USER/main_03.c **** 		gpiord = 0x4000;
 133:../USER/main_03.c **** 		while((gpiord & 0x4000)!=0) {
 134:../USER/main_03.c **** 			key_check();
 135:../USER/main_03.c **** 			gpiord = GPIO_ReadBits(GPIO0);
 136:../USER/main_03.c **** 		}
 137:../USER/main_03.c **** 		SPI_WriteData(ch);
 138:../USER/main_03.c **** 	}
 139:../USER/main_03.c **** 	//
 140:../USER/main_03.c **** 	int rc;	do{ key_check(); rc = disp_vram(ch); } while(rc!=0);
 141:../USER/main_03.c **** }
 142:../USER/main_03.c **** 
 143:../USER/main_03.c **** void puth(dt) int dt;{ if(dt<10) putch(0x30+dt); else putch(0x37+dt); }
 144:../USER/main_03.c **** void puth2(dt) int dt;{ puth((dt >> 4) & 0xf); puth(dt & 0xf); }
 145:../USER/main_03.c **** void puth4(dt) int dt;{ puth2((dt >> 8) & 0xff); puth2(dt & 0xff); }
 146:../USER/main_03.c **** void puth6(dt) long dt;{ int dh,dl; dh = dt >> 16; dl = dt & 0xffff; puth2(dh); puth4(dl); }
 147:../USER/main_03.c **** void puth8(dt) long dt;{ int dh,dl; dh = dt >> 16; dl = dt & 0xffff; puth4(dh); puth4(dl); }
 148:../USER/main_03.c **** void putsuart(char *buf){
 149:../USER/main_03.c **** 	while(1){
 150:../USER/main_03.c **** 		if(*buf==0) break;
 151:../USER/main_03.c **** 		else        putch(*buf++);
 152:../USER/main_03.c **** 	}
 153:../USER/main_03.c **** }
 154:../USER/main_03.c **** void getsuart(char *buf){
 155:../USER/main_03.c **** 	char ch;
 156:../USER/main_03.c **** 	while(1){
 157:../USER/main_03.c **** 		ch = getch(); putch(ch); *buf++ = ch;
 158:../USER/main_03.c **** 		if(ch==0x0d) break;
 159:../USER/main_03.c **** 	}
 160:../USER/main_03.c **** }
 161:../USER/main_03.c **** int ishex(ch) char ch;{
 162:../USER/main_03.c ****   int hd;
 163:../USER/main_03.c ****   if(ch>='0' && ch<='9') hd = ch - 0x30;
 164:../USER/main_03.c ****   else if(ch>='A' && ch<='F') hd = ch - 0x37;
 165:../USER/main_03.c ****   else hd = -1;
 166:../USER/main_03.c ****   return hd;
 167:../USER/main_03.c **** }
 168:../USER/main_03.c **** void getssu(cbuf) char *cbuf;{ gets(cbuf); setsup(cbuf);}
 169:../USER/main_03.c **** void putadrhd(adr) long adr;{puts("\r\n"); puth8(adr); putch(':');}
 170:../USER/main_03.c **** 
 171:../USER/main_03.c **** long getsh(buf) char **buf;{
  28              		.loc 1 171 6 view -0
  29              		.cfi_startproc
  30              		@ args = 0, pretend = 0, frame = 0
  31              		@ frame_needed = 0, uses_anonymous_args = 0
  32              		@ link register save eliminated.
  33              		.loc 1 171 6 is_stmt 0 view .LVU1
  34 0000 30B4     		push	{r4, r5}
  35              		.cfi_def_cfa_offset 8
  36              		.cfi_offset 4, -8
  37              		.cfi_offset 5, -4
 172:../USER/main_03.c ****   long num = 0; int hd;
 173:../USER/main_03.c ****   if(**buf==0x0d) return -1;
 174:../USER/main_03.c ****   while(**buf==' ') (*buf)++; /* spip sp*/
  38              		.loc 1 174 10 view .LVU2
  39 0002 0268     		ldr	r2, [r0]
 171:../USER/main_03.c ****   long num = 0; int hd;
  40              		.loc 1 171 6 view .LVU3
  41 0004 0546     		mov	r5, r0
  42              		.loc 1 174 9 view .LVU4
  43 0006 92F90030 		ldrsb	r3, [r2]
  44              		.loc 1 174 8 view .LVU5
  45 000a 202B     		cmp	r3, #32
  46 000c 05D1     		bne	.L2
  47              	.L3:
  48              		.loc 1 174 21 is_stmt 1 view .LVU6
  49              		.loc 1 174 27 is_stmt 0 view .LVU7
  50 000e 0132     		adds	r2, r2, #1
  51 0010 2A60     		str	r2, [r5]
  52              		.loc 1 174 9 view .LVU8
  53 0012 92F90030 		ldrsb	r3, [r2]
  54              		.loc 1 174 8 view .LVU9
  55 0016 202B     		cmp	r3, #32
  56 0018 F9D0     		beq	.L3
  57              	.L2:
 172:../USER/main_03.c ****   long num = 0; int hd;
  58              		.loc 1 172 8 view .LVU10
  59 001a 0020     		movs	r0, #0
  60              	.LVL1:
 172:../USER/main_03.c ****   long num = 0; int hd;
  61              		.loc 1 172 8 view .LVU11
  62 001c 08E0     		b	.L4
  63              	.LVL2:
  64              	.L13:
  65              	.LBB104:
  66              	.LBB105:
 163:../USER/main_03.c ****   else if(ch>='A' && ch<='F') hd = ch - 0x37;
  67              		.loc 1 163 29 view .LVU12
  68 001e 303B     		subs	r3, r3, #48
  69              	.LVL3:
 163:../USER/main_03.c ****   else if(ch>='A' && ch<='F') hd = ch - 0x37;
  70              		.loc 1 163 29 view .LVU13
  71              	.LBE105:
  72              	.LBE104:
 175:../USER/main_03.c ****   while( (hd=ishex(**buf)) != -1){ num = num * 16 + hd; (*buf)++; }
  73              		.loc 1 175 36 is_stmt 1 view .LVU14
  74              	.LBB109:
  75              	.LBB106:
 166:../USER/main_03.c **** }
  76              		.loc 1 166 3 view .LVU15
 166:../USER/main_03.c **** }
  77              		.loc 1 166 3 is_stmt 0 view .LVU16
  78              	.LBE106:
  79              	.LBE109:
  80              		.loc 1 175 8 view .LVU17
  81 0020 591C     		adds	r1, r3, #1
  82 0022 11D0     		beq	.L1
  83              	.L8:
  84              		.loc 1 175 63 view .LVU18
  85 0024 0132     		adds	r2, r2, #1
  86 0026 2A60     		str	r2, [r5]
  87              		.loc 1 175 40 view .LVU19
  88 0028 03EB0010 		add	r0, r3, r0, lsl #4
  89              	.LVL4:
  90              		.loc 1 175 57 is_stmt 1 view .LVU20
  91 002c 92F90030 		ldrsb	r3, [r2]
  92              	.LVL5:
  93              	.L4:
  94              	.LBB110:
  95              	.LBI104:
 161:../USER/main_03.c ****   int hd;
  96              		.loc 1 161 5 view .LVU21
  97              	.LBB107:
 162:../USER/main_03.c ****   if(ch>='0' && ch<='9') hd = ch - 0x30;
  98              		.loc 1 162 3 view .LVU22
 163:../USER/main_03.c ****   else if(ch>='A' && ch<='F') hd = ch - 0x37;
  99              		.loc 1 163 3 view .LVU23
 163:../USER/main_03.c ****   else if(ch>='A' && ch<='F') hd = ch - 0x37;
 100              		.loc 1 163 26 view .LVU24
 164:../USER/main_03.c ****   else hd = -1;
 101              		.loc 1 164 8 view .LVU25
 164:../USER/main_03.c ****   else hd = -1;
 102              		.loc 1 164 31 view .LVU26
 163:../USER/main_03.c ****   else if(ch>='A' && ch<='F') hd = ch - 0x37;
 103              		.loc 1 163 14 is_stmt 0 view .LVU27
 104 0030 D9B2     		uxtb	r1, r3
 163:../USER/main_03.c ****   else if(ch>='A' && ch<='F') hd = ch - 0x37;
 105              		.loc 1 163 5 view .LVU28
 106 0032 A1F13004 		sub	r4, r1, #48
 107 0036 092C     		cmp	r4, #9
 164:../USER/main_03.c ****   else hd = -1;
 108              		.loc 1 164 10 view .LVU29
 109 0038 A1F14101 		sub	r1, r1, #65
 163:../USER/main_03.c ****   else if(ch>='A' && ch<='F') hd = ch - 0x37;
 110              		.loc 1 163 5 view .LVU30
 111 003c EFD9     		bls	.L13
 164:../USER/main_03.c ****   else hd = -1;
 112              		.loc 1 164 10 view .LVU31
 113 003e 0529     		cmp	r1, #5
 114 0040 02D8     		bhi	.L1
 164:../USER/main_03.c ****   else hd = -1;
 115              		.loc 1 164 34 view .LVU32
 116 0042 373B     		subs	r3, r3, #55
 117              	.LVL6:
 164:../USER/main_03.c ****   else hd = -1;
 118              		.loc 1 164 34 view .LVU33
 119              	.LBE107:
 120              	.LBE110:
 121              		.loc 1 175 36 is_stmt 1 view .LVU34
 122              	.LBB111:
 123              	.LBB108:
 166:../USER/main_03.c **** }
 124              		.loc 1 166 3 view .LVU35
 166:../USER/main_03.c **** }
 125              		.loc 1 166 3 is_stmt 0 view .LVU36
 126              	.LBE108:
 127              	.LBE111:
 128              		.loc 1 175 8 view .LVU37
 129 0044 591C     		adds	r1, r3, #1
 130 0046 EDD1     		bne	.L8
 131              	.LVL7:
 132              	.L1:
 176:../USER/main_03.c ****   return num;
 177:../USER/main_03.c **** }
 133              		.loc 1 177 1 view .LVU38
 134 0048 30BC     		pop	{r4, r5}
 135              		.cfi_restore 5
 136              		.cfi_restore 4
 137              		.cfi_def_cfa_offset 0
 138              	.LVL8:
 139              		.loc 1 177 1 view .LVU39
 140 004a 7047     		bx	lr
 141              		.cfi_endproc
 142              	.LFE53:
 144              		.section	.text.GPIOInit,"ax",%progbits
 145              		.align	1
 146              		.p2align 2,,3
 147              		.global	GPIOInit
 148              		.syntax unified
 149              		.thumb
 150              		.thumb_func
 151              		.fpu softvfp
 153              	GPIOInit:
 154              	.LVL9:
 155              	.LFB32:
  47:../USER/main_03.c **** 	GPIO_InitTypeDef GPIO_InitType;
 156              		.loc 1 47 1 is_stmt 1 view -0
 157              		.cfi_startproc
 158              		@ args = 0, pretend = 0, frame = 8
 159              		@ frame_needed = 0, uses_anonymous_args = 0
  48:../USER/main_03.c **** 	GPIO_InitType.GPIO_Pin = pin;
 160              		.loc 1 48 2 view .LVU41
  49:../USER/main_03.c **** 	GPIO_InitType.GPIO_Mode = GPIO_Mode_OUT;
 161              		.loc 1 49 2 view .LVU42
  47:../USER/main_03.c **** 	GPIO_InitTypeDef GPIO_InitType;
 162              		.loc 1 47 1 is_stmt 0 view .LVU43
 163 0000 30B5     		push	{r4, r5, lr}
 164              		.cfi_def_cfa_offset 12
 165              		.cfi_offset 4, -12
 166              		.cfi_offset 5, -8
 167              		.cfi_offset 14, -4
  50:../USER/main_03.c **** 	GPIO_InitType.GPIO_Int = GPIO_Int_Disable;
 168              		.loc 1 50 26 view .LVU44
 169 0002 0123     		movs	r3, #1
  47:../USER/main_03.c **** 	GPIO_InitTypeDef GPIO_InitType;
 170              		.loc 1 47 1 view .LVU45
 171 0004 0546     		mov	r5, r0
  52:../USER/main_03.c ****   GPIO_SetBit(GPIO0,pin);
 172              		.loc 1 52 2 view .LVU46
 173 0006 074C     		ldr	r4, .L16
  47:../USER/main_03.c **** 	GPIO_InitTypeDef GPIO_InitType;
 174              		.loc 1 47 1 view .LVU47
 175 0008 83B0     		sub	sp, sp, #12
 176              		.cfi_def_cfa_offset 24
  52:../USER/main_03.c ****   GPIO_SetBit(GPIO0,pin);
 177              		.loc 1 52 2 view .LVU48
 178 000a 6946     		mov	r1, sp
 179 000c 2046     		mov	r0, r4
 180              	.LVL10:
  50:../USER/main_03.c **** 	GPIO_InitType.GPIO_Int = GPIO_Int_Disable;
 181              		.loc 1 50 26 view .LVU49
 182 000e ADF80430 		strh	r3, [sp, #4]	@ movhi
  49:../USER/main_03.c **** 	GPIO_InitType.GPIO_Mode = GPIO_Mode_OUT;
 183              		.loc 1 49 25 view .LVU50
 184 0012 0095     		str	r5, [sp]
  50:../USER/main_03.c **** 	GPIO_InitType.GPIO_Int = GPIO_Int_Disable;
 185              		.loc 1 50 2 is_stmt 1 view .LVU51
  51:../USER/main_03.c **** 	GPIO_Init(GPIO0,&GPIO_InitType);
 186              		.loc 1 51 2 view .LVU52
  52:../USER/main_03.c ****   GPIO_SetBit(GPIO0,pin);
 187              		.loc 1 52 2 view .LVU53
 188 0014 FFF7FEFF 		bl	GPIO_Init
 189              	.LVL11:
  53:../USER/main_03.c **** }
 190              		.loc 1 53 3 view .LVU54
 191 0018 2946     		mov	r1, r5
 192 001a 2046     		mov	r0, r4
 193 001c FFF7FEFF 		bl	GPIO_SetBit
 194              	.LVL12:
  54:../USER/main_03.c **** 
 195              		.loc 1 54 1 is_stmt 0 view .LVU55
 196 0020 03B0     		add	sp, sp, #12
 197              		.cfi_def_cfa_offset 12
 198              		@ sp needed
 199 0022 30BD     		pop	{r4, r5, pc}
 200              	.LVL13:
 201              	.L17:
  54:../USER/main_03.c **** 
 202              		.loc 1 54 1 view .LVU56
 203              		.align	2
 204              	.L16:
 205 0024 00000140 		.word	1073807360
 206              		.cfi_endproc
 207              	.LFE32:
 209              		.section	.text.UartInit,"ax",%progbits
 210              		.align	1
 211              		.p2align 2,,3
 212              		.global	UartInit
 213              		.syntax unified
 214              		.thumb
 215              		.thumb_func
 216              		.fpu softvfp
 218              	UartInit:
 219              	.LFB33:
  57:../USER/main_03.c ****   UART_InitTypeDef UART_InitStruct;
 220              		.loc 1 57 1 is_stmt 1 view -0
 221              		.cfi_startproc
 222              		@ args = 0, pretend = 0, frame = 16
 223              		@ frame_needed = 0, uses_anonymous_args = 0
  58:../USER/main_03.c **** 
 224              		.loc 1 58 3 view .LVU58
  60:../USER/main_03.c ****   UART_InitStruct.UART_Mode.UARTMode_Rx = ENABLE;
 225              		.loc 1 60 3 view .LVU59
  61:../USER/main_03.c ****   UART_InitStruct.UART_Int.UARTInt_Tx = DISABLE;
 226              		.loc 1 61 3 view .LVU60
  62:../USER/main_03.c ****   UART_InitStruct.UART_Int.UARTInt_Rx = DISABLE;
 227              		.loc 1 62 3 view .LVU61
  63:../USER/main_03.c ****   UART_InitStruct.UART_Ovr.UARTOvr_Tx = DISABLE;
 228              		.loc 1 63 3 view .LVU62
  64:../USER/main_03.c ****   UART_InitStruct.UART_Ovr.UARTOvr_Rx = DISABLE;
 229              		.loc 1 64 3 view .LVU63
  65:../USER/main_03.c ****   UART_InitStruct.UART_Hstm = DISABLE;
 230              		.loc 1 65 3 view .LVU64
  66:../USER/main_03.c ****   UART_InitStruct.UART_BaudRate = 115200*80/72;//Baud Rate
 231              		.loc 1 66 3 view .LVU65
  67:../USER/main_03.c ****   UART_Init(UART0,&UART_InitStruct);
 232              		.loc 1 67 3 view .LVU66
  57:../USER/main_03.c ****   UART_InitTypeDef UART_InitStruct;
 233              		.loc 1 57 1 is_stmt 0 view .LVU67
 234 0000 10B5     		push	{r4, lr}
 235              		.cfi_def_cfa_offset 8
 236              		.cfi_offset 4, -8
 237              		.cfi_offset 14, -4
  64:../USER/main_03.c ****   UART_InitStruct.UART_Ovr.UARTOvr_Rx = DISABLE;
 238              		.loc 1 64 39 view .LVU68
 239 0002 0023     		movs	r3, #0
  60:../USER/main_03.c ****   UART_InitStruct.UART_Mode.UARTMode_Rx = ENABLE;
 240              		.loc 1 60 41 view .LVU69
 241 0004 40F20112 		movw	r2, #257
  67:../USER/main_03.c ****   UART_Init(UART0,&UART_InitStruct);
 242              		.loc 1 67 33 view .LVU70
 243 0008 4FF4FA34 		mov	r4, #128000
  57:../USER/main_03.c ****   UART_InitTypeDef UART_InitStruct;
 244              		.loc 1 57 1 view .LVU71
 245 000c 84B0     		sub	sp, sp, #16
 246              		.cfi_def_cfa_offset 24
  68:../USER/main_03.c **** }
 247              		.loc 1 68 3 view .LVU72
 248 000e 01A9     		add	r1, sp, #4
 249 0010 4FF04020 		mov	r0, #1073758208
  60:../USER/main_03.c ****   UART_InitStruct.UART_Mode.UARTMode_Rx = ENABLE;
 250              		.loc 1 60 41 view .LVU73
 251 0014 CDE90142 		strd	r4, r2, [sp, #4]
  64:../USER/main_03.c ****   UART_InitStruct.UART_Ovr.UARTOvr_Rx = DISABLE;
 252              		.loc 1 64 39 view .LVU74
 253 0018 ADF80C30 		strh	r3, [sp, #12]	@ movhi
  66:../USER/main_03.c ****   UART_InitStruct.UART_BaudRate = 115200*80/72;//Baud Rate
 254              		.loc 1 66 29 view .LVU75
 255 001c 8DF80E30 		strb	r3, [sp, #14]
  68:../USER/main_03.c **** }
 256              		.loc 1 68 3 is_stmt 1 view .LVU76
 257 0020 FFF7FEFF 		bl	UART_Init
 258              	.LVL14:
  69:../USER/main_03.c **** 
 259              		.loc 1 69 1 is_stmt 0 view .LVU77
 260 0024 04B0     		add	sp, sp, #16
 261              		.cfi_def_cfa_offset 8
 262              		@ sp needed
 263 0026 10BD     		pop	{r4, pc}
 264              		.cfi_endproc
 265              	.LFE33:
 267              		.section	.text.SPIInit,"ax",%progbits
 268              		.align	1
 269              		.p2align 2,,3
 270              		.global	SPIInit
 271              		.syntax unified
 272              		.thumb
 273              		.thumb_func
 274              		.fpu softvfp
 276              	SPIInit:
 277              	.LFB34:
  73:../USER/main_03.c **** 	SPI_InitTypeDef init_spi;
 278              		.loc 1 73 1 is_stmt 1 view -0
 279              		.cfi_startproc
 280              		@ args = 0, pretend = 0, frame = 8
 281              		@ frame_needed = 0, uses_anonymous_args = 0
  74:../USER/main_03.c ****   init_spi.CLKSEL= CLKSEL_CLK_DIV_4;		//80MHZ / 8
 282              		.loc 1 74 2 view .LVU79
  75:../USER/main_03.c ****   init_spi.DIRECTION = DISABLE;					//MSB First
 283              		.loc 1 75 3 view .LVU80
  76:../USER/main_03.c ****   init_spi.PHASE =DISABLE;							//ENABLE;//posedge
 284              		.loc 1 76 3 view .LVU81
  77:../USER/main_03.c ****   init_spi.POLARITY =DISABLE;						//polarity 0
 285              		.loc 1 77 3 view .LVU82
  78:../USER/main_03.c ****   SPI_Init(&init_spi);
 286              		.loc 1 78 3 view .LVU83
  76:../USER/main_03.c ****   init_spi.PHASE =DISABLE;							//ENABLE;//posedge
 287              		.loc 1 76 22 is_stmt 0 view .LVU84
 288 0000 4FF08073 		mov	r3, #16777216
  73:../USER/main_03.c **** 	SPI_InitTypeDef init_spi;
 289              		.loc 1 73 1 view .LVU85
 290 0004 00B5     		push	{lr}
 291              		.cfi_def_cfa_offset 4
 292              		.cfi_offset 14, -4
 293 0006 83B0     		sub	sp, sp, #12
 294              		.cfi_def_cfa_offset 16
  79:../USER/main_03.c **** }
 295              		.loc 1 79 3 view .LVU86
 296 0008 01A8     		add	r0, sp, #4
  76:../USER/main_03.c ****   init_spi.PHASE =DISABLE;							//ENABLE;//posedge
 297              		.loc 1 76 22 view .LVU87
 298 000a 0193     		str	r3, [sp, #4]
  79:../USER/main_03.c **** }
 299              		.loc 1 79 3 is_stmt 1 view .LVU88
 300 000c FFF7FEFF 		bl	SPI_Init
 301              	.LVL15:
  80:../USER/main_03.c **** //delay ms
 302              		.loc 1 80 1 is_stmt 0 view .LVU89
 303 0010 03B0     		add	sp, sp, #12
 304              		.cfi_def_cfa_offset 4
 305              		@ sp needed
 306 0012 5DF804FB 		ldr	pc, [sp], #4
 307              		.cfi_endproc
 308              	.LFE34:
 310 0016 00BF     		.section	.text.delay_ms,"ax",%progbits
 311              		.align	1
 312              		.p2align 2,,3
 313              		.global	delay_ms
 314              		.syntax unified
 315              		.thumb
 316              		.thumb_func
 317              		.fpu softvfp
 319              	delay_ms:
 320              	.LVL16:
 321              	.LFB35:
  82:../USER/main_03.c **** 	for(delay_ms=(SystemCoreClock>>13)*delay_ms; delay_ms != 0; delay_ms--);
 322              		.loc 1 82 39 is_stmt 1 view -0
 323              		.cfi_startproc
 324              		@ args = 0, pretend = 0, frame = 8
 325              		@ frame_needed = 0, uses_anonymous_args = 0
 326              		@ link register save eliminated.
  83:../USER/main_03.c **** }
 327              		.loc 1 83 2 view .LVU91
  83:../USER/main_03.c **** }
 328              		.loc 1 83 31 is_stmt 0 view .LVU92
 329 0000 094B     		ldr	r3, .L30
  82:../USER/main_03.c **** 	for(delay_ms=(SystemCoreClock>>13)*delay_ms; delay_ms != 0; delay_ms--);
 330              		.loc 1 82 39 view .LVU93
 331 0002 82B0     		sub	sp, sp, #8
 332              		.cfi_def_cfa_offset 8
  82:../USER/main_03.c **** 	for(delay_ms=(SystemCoreClock>>13)*delay_ms; delay_ms != 0; delay_ms--);
 333              		.loc 1 82 39 view .LVU94
 334 0004 0190     		str	r0, [sp, #4]
  83:../USER/main_03.c **** }
 335              		.loc 1 83 31 view .LVU95
 336 0006 1A68     		ldr	r2, [r3]
  83:../USER/main_03.c **** }
 337              		.loc 1 83 36 view .LVU96
 338 0008 019B     		ldr	r3, [sp, #4]
  83:../USER/main_03.c **** }
 339              		.loc 1 83 31 view .LVU97
 340 000a 520B     		lsrs	r2, r2, #13
  83:../USER/main_03.c **** }
 341              		.loc 1 83 36 view .LVU98
 342 000c 03FB02F3 		mul	r3, r3, r2
  83:../USER/main_03.c **** }
 343              		.loc 1 83 14 view .LVU99
 344 0010 0193     		str	r3, [sp, #4]
  83:../USER/main_03.c **** }
 345              		.loc 1 83 56 view .LVU100
 346 0012 019B     		ldr	r3, [sp, #4]
  83:../USER/main_03.c **** }
 347              		.loc 1 83 2 view .LVU101
 348 0014 2BB1     		cbz	r3, .L22
 349              	.L24:
  83:../USER/main_03.c **** }
 350              		.loc 1 83 73 is_stmt 1 discriminator 3 view .LVU102
  83:../USER/main_03.c **** }
 351              		.loc 1 83 70 is_stmt 0 discriminator 3 view .LVU103
 352 0016 019B     		ldr	r3, [sp, #4]
 353 0018 013B     		subs	r3, r3, #1
 354 001a 0193     		str	r3, [sp, #4]
  83:../USER/main_03.c **** }
 355              		.loc 1 83 56 discriminator 3 view .LVU104
 356 001c 019B     		ldr	r3, [sp, #4]
  83:../USER/main_03.c **** }
 357              		.loc 1 83 2 discriminator 3 view .LVU105
 358 001e 002B     		cmp	r3, #0
 359 0020 F9D1     		bne	.L24
 360              	.L22:
  84:../USER/main_03.c **** 
 361              		.loc 1 84 1 view .LVU106
 362 0022 02B0     		add	sp, sp, #8
 363              		.cfi_def_cfa_offset 0
 364              		@ sp needed
 365 0024 7047     		bx	lr
 366              	.L31:
 367 0026 00BF     		.align	2
 368              	.L30:
 369 0028 00000000 		.word	SystemCoreClock
 370              		.cfi_endproc
 371              	.LFE35:
 373              		.section	.text.check_gpio,"ax",%progbits
 374              		.align	1
 375              		.p2align 2,,3
 376              		.global	check_gpio
 377              		.syntax unified
 378              		.thumb
 379              		.thumb_func
 380              		.fpu softvfp
 382              	check_gpio:
 383              	.LFB36:
  87:../USER/main_03.c **** 	int i;
 384              		.loc 1 87 18 is_stmt 1 view -0
 385              		.cfi_startproc
 386              		@ args = 0, pretend = 0, frame = 0
 387              		@ frame_needed = 0, uses_anonymous_args = 0
  88:../USER/main_03.c **** 	mdgpio = GPIO_ReadBits(GPIO0);	// ukey2 = bit13
 388              		.loc 1 88 2 view .LVU108
  89:../USER/main_03.c **** 	mdgpio = mdgpio & 0xdfff;		// bit13.clear
 389              		.loc 1 89 2 view .LVU109
  87:../USER/main_03.c **** 	int i;
 390              		.loc 1 87 18 is_stmt 0 view .LVU110
 391 0000 70B5     		push	{r4, r5, r6, lr}
 392              		.cfi_def_cfa_offset 16
 393              		.cfi_offset 4, -16
 394              		.cfi_offset 5, -12
 395              		.cfi_offset 6, -8
 396              		.cfi_offset 14, -4
  89:../USER/main_03.c **** 	mdgpio = mdgpio & 0xdfff;		// bit13.clear
 397              		.loc 1 89 11 view .LVU111
 398 0002 1448     		ldr	r0, .L48
 399 0004 FFF7FEFF 		bl	GPIO_ReadBits
 400              	.LVL17:
  90:../USER/main_03.c **** 	for(i=0;i<2;i++){
 401              		.loc 1 90 2 is_stmt 1 view .LVU112
  90:../USER/main_03.c **** 	for(i=0;i<2;i++){
 402              		.loc 1 90 18 is_stmt 0 view .LVU113
 403 0008 4DF6FF73 		movw	r3, #57343
  90:../USER/main_03.c **** 	for(i=0;i<2;i++){
 404              		.loc 1 90 9 view .LVU114
 405 000c 0225     		movs	r5, #2
 406 000e 124A     		ldr	r2, .L48+4
  90:../USER/main_03.c **** 	for(i=0;i<2;i++){
 407              		.loc 1 90 18 view .LVU115
 408 0010 1840     		ands	r0, r0, r3
 409 0012 124E     		ldr	r6, .L48+8
  92:../USER/main_03.c **** 		GPIO_WriteBits(GPIO0,0x00); delay_ms(50);
 410              		.loc 1 92 3 view .LVU116
 411 0014 0F4C     		ldr	r4, .L48
  90:../USER/main_03.c **** 	for(i=0;i<2;i++){
 412              		.loc 1 90 9 view .LVU117
 413 0016 1060     		str	r0, [r2]
  91:../USER/main_03.c **** 		GPIO_WriteBits(GPIO0,0x03); delay_ms(50);
 414              		.loc 1 91 2 is_stmt 1 view .LVU118
 415              	.LVL18:
 416              	.L37:
  92:../USER/main_03.c **** 		GPIO_WriteBits(GPIO0,0x00); delay_ms(50);
 417              		.loc 1 92 3 discriminator 3 view .LVU119
 418 0018 0321     		movs	r1, #3
 419 001a 2046     		mov	r0, r4
 420 001c FFF7FEFF 		bl	GPIO_WriteBits
 421              	.LVL19:
  92:../USER/main_03.c **** 		GPIO_WriteBits(GPIO0,0x00); delay_ms(50);
 422              		.loc 1 92 31 discriminator 3 view .LVU120
 423 0020 3223     		movs	r3, #50
 424              	.LVL20:
 425              	.LBB112:
 426              	.LBI112:
  82:../USER/main_03.c **** 	for(delay_ms=(SystemCoreClock>>13)*delay_ms; delay_ms != 0; delay_ms--);
 427              		.loc 1 82 6 discriminator 3 view .LVU121
 428              	.LBB113:
  83:../USER/main_03.c **** }
 429              		.loc 1 83 2 discriminator 3 view .LVU122
  83:../USER/main_03.c **** }
 430              		.loc 1 83 31 is_stmt 0 discriminator 3 view .LVU123
 431 0022 3268     		ldr	r2, [r6]
 432 0024 520B     		lsrs	r2, r2, #13
  83:../USER/main_03.c **** }
 433              		.loc 1 83 36 discriminator 3 view .LVU124
 434 0026 03FB02F3 		mul	r3, r3, r2
  83:../USER/main_03.c **** }
 435              		.loc 1 83 2 discriminator 3 view .LVU125
 436 002a 0BB1     		cbz	r3, .L33
 437              	.L34:
  83:../USER/main_03.c **** }
 438              		.loc 1 83 73 is_stmt 1 view .LVU126
  83:../USER/main_03.c **** }
 439              		.loc 1 83 2 is_stmt 0 view .LVU127
 440 002c 013B     		subs	r3, r3, #1
 441 002e FDD1     		bne	.L34
 442              	.L33:
 443              	.LVL21:
  83:../USER/main_03.c **** }
 444              		.loc 1 83 2 view .LVU128
 445              	.LBE113:
 446              	.LBE112:
  93:../USER/main_03.c **** 	}
 447              		.loc 1 93 3 is_stmt 1 view .LVU129
 448 0030 0021     		movs	r1, #0
 449 0032 2046     		mov	r0, r4
 450 0034 FFF7FEFF 		bl	GPIO_WriteBits
 451              	.LVL22:
  93:../USER/main_03.c **** 	}
 452              		.loc 1 93 31 view .LVU130
 453 0038 3223     		movs	r3, #50
 454              	.LVL23:
 455              	.LBB114:
 456              	.LBI114:
  82:../USER/main_03.c **** 	for(delay_ms=(SystemCoreClock>>13)*delay_ms; delay_ms != 0; delay_ms--);
 457              		.loc 1 82 6 view .LVU131
 458              	.LBB115:
  83:../USER/main_03.c **** }
 459              		.loc 1 83 2 view .LVU132
  83:../USER/main_03.c **** }
 460              		.loc 1 83 31 is_stmt 0 view .LVU133
 461 003a 3268     		ldr	r2, [r6]
 462 003c 520B     		lsrs	r2, r2, #13
  83:../USER/main_03.c **** }
 463              		.loc 1 83 36 view .LVU134
 464 003e 03FB02F3 		mul	r3, r3, r2
  83:../USER/main_03.c **** }
 465              		.loc 1 83 2 view .LVU135
 466 0042 0BB1     		cbz	r3, .L35
 467              	.L36:
  83:../USER/main_03.c **** }
 468              		.loc 1 83 73 is_stmt 1 view .LVU136
  83:../USER/main_03.c **** }
 469              		.loc 1 83 2 is_stmt 0 view .LVU137
 470 0044 013B     		subs	r3, r3, #1
 471 0046 FDD1     		bne	.L36
 472              	.L35:
 473              	.LVL24:
  83:../USER/main_03.c **** }
 474              		.loc 1 83 2 view .LVU138
 475              	.LBE115:
 476              	.LBE114:
  91:../USER/main_03.c **** 		GPIO_WriteBits(GPIO0,0x03); delay_ms(50);
 477              		.loc 1 91 2 view .LVU139
 478 0048 012D     		cmp	r5, #1
 479 004a 00D1     		bne	.L38
  95:../USER/main_03.c **** 
 480              		.loc 1 95 1 view .LVU140
 481 004c 70BD     		pop	{r4, r5, r6, pc}
 482              	.L38:
 483 004e 0125     		movs	r5, #1
 484 0050 E2E7     		b	.L37
 485              	.L49:
 486 0052 00BF     		.align	2
 487              	.L48:
 488 0054 00000140 		.word	1073807360
 489 0058 00000000 		.word	mdgpio
 490 005c 00000000 		.word	SystemCoreClock
 491              		.cfi_endproc
 492              	.LFE36:
 494              		.section	.text.setsup,"ax",%progbits
 495              		.align	1
 496              		.p2align 2,,3
 497              		.global	setsup
 498              		.syntax unified
 499              		.thumb
 500              		.thumb_func
 501              		.fpu softvfp
 503              	setsup:
 504              	.LVL25:
 505              	.LFB37:
 101:../USER/main_03.c ****   while(*buf!=0x0d){
 506              		.loc 1 101 28 is_stmt 1 view -0
 507              		.cfi_startproc
 508              		@ args = 0, pretend = 0, frame = 0
 509              		@ frame_needed = 0, uses_anonymous_args = 0
 510              		@ link register save eliminated.
 102:../USER/main_03.c ****    if( *buf>='a' && *buf<='z') *buf = *buf - 0x20;
 511              		.loc 1 102 3 view .LVU142
 102:../USER/main_03.c ****    if( *buf>='a' && *buf<='z') *buf = *buf - 0x20;
 512              		.loc 1 102 9 is_stmt 0 view .LVU143
 513 0000 90F90030 		ldrsb	r3, [r0]
 102:../USER/main_03.c ****    if( *buf>='a' && *buf<='z') *buf = *buf - 0x20;
 514              		.loc 1 102 8 view .LVU144
 515 0004 0D2B     		cmp	r3, #13
 516 0006 0FD0     		beq	.L50
 517              	.LVL26:
 518              	.L54:
 103:../USER/main_03.c ****    buf++;
 519              		.loc 1 103 4 is_stmt 1 view .LVU145
 103:../USER/main_03.c ****    buf++;
 520              		.loc 1 103 32 view .LVU146
 104:../USER/main_03.c ****   }
 521              		.loc 1 104 4 view .LVU147
 103:../USER/main_03.c ****    buf++;
 522              		.loc 1 103 18 is_stmt 0 view .LVU148
 523 0008 DBB2     		uxtb	r3, r3
 103:../USER/main_03.c ****    buf++;
 524              		.loc 1 103 44 view .LVU149
 525 000a A3F12002 		sub	r2, r3, #32
 103:../USER/main_03.c ****    buf++;
 526              		.loc 1 103 6 view .LVU150
 527 000e 613B     		subs	r3, r3, #97
 528 0010 192B     		cmp	r3, #25
 529 0012 05D8     		bhi	.L52
 103:../USER/main_03.c ****    buf++;
 530              		.loc 1 103 37 discriminator 1 view .LVU151
 531 0014 0270     		strb	r2, [r0]
 104:../USER/main_03.c ****   }
 532              		.loc 1 104 4 is_stmt 1 discriminator 1 view .LVU152
 102:../USER/main_03.c ****    if( *buf>='a' && *buf<='z') *buf = *buf - 0x20;
 533              		.loc 1 102 9 is_stmt 0 discriminator 1 view .LVU153
 534 0016 10F9013F 		ldrsb	r3, [r0, #1]!
 535              	.LVL27:
 102:../USER/main_03.c ****    if( *buf>='a' && *buf<='z') *buf = *buf - 0x20;
 536              		.loc 1 102 8 discriminator 1 view .LVU154
 537 001a 0D2B     		cmp	r3, #13
 538 001c F4D1     		bne	.L54
 539 001e 7047     		bx	lr
 540              	.LVL28:
 541              	.L52:
 102:../USER/main_03.c ****    if( *buf>='a' && *buf<='z') *buf = *buf - 0x20;
 542              		.loc 1 102 9 view .LVU155
 543 0020 10F9013F 		ldrsb	r3, [r0, #1]!
 544              	.LVL29:
 102:../USER/main_03.c ****    if( *buf>='a' && *buf<='z') *buf = *buf - 0x20;
 545              		.loc 1 102 8 view .LVU156
 546 0024 0D2B     		cmp	r3, #13
 547 0026 EFD1     		bne	.L54
 548              	.LVL30:
 549              	.L50:
 106:../USER/main_03.c **** char kinbuf[256];
 550              		.loc 1 106 1 view .LVU157
 551 0028 7047     		bx	lr
 552              		.cfi_endproc
 553              	.LFE37:
 555 002a 00BF     		.section	.text.key_check,"ax",%progbits
 556              		.align	1
 557              		.p2align 2,,3
 558              		.global	key_check
 559              		.syntax unified
 560              		.thumb
 561              		.thumb_func
 562              		.fpu softvfp
 564              	key_check:
 565              	.LFB38:
 109:../USER/main_03.c **** 	char ch;
 566              		.loc 1 109 18 is_stmt 1 view -0
 567              		.cfi_startproc
 568              		@ args = 0, pretend = 0, frame = 0
 569              		@ frame_needed = 0, uses_anonymous_args = 0
 110:../USER/main_03.c **** 	//
 570              		.loc 1 110 2 view .LVU159
 112:../USER/main_03.c **** 	if(ch!=0) kinbuf[kinbwp++] = ch;
 571              		.loc 1 112 2 view .LVU160
 109:../USER/main_03.c **** 	char ch;
 572              		.loc 1 109 18 is_stmt 0 view .LVU161
 573 0000 10B5     		push	{r4, lr}
 574              		.cfi_def_cfa_offset 8
 575              		.cfi_offset 4, -8
 576              		.cfi_offset 14, -4
 112:../USER/main_03.c **** 	if(ch!=0) kinbuf[kinbwp++] = ch;
 577              		.loc 1 112 7 view .LVU162
 578 0002 FFF7FEFF 		bl	SPI_ReadData
 579              	.LVL31:
 112:../USER/main_03.c **** 	if(ch!=0) kinbuf[kinbwp++] = ch;
 580              		.loc 1 112 5 view .LVU163
 581 0006 40B2     		sxtb	r0, r0
 582              	.LVL32:
 113:../USER/main_03.c **** 	if(kinbwp>=256) kinbwp = 0;
 583              		.loc 1 113 2 is_stmt 1 view .LVU164
 113:../USER/main_03.c **** 	if(kinbwp>=256) kinbwp = 0;
 584              		.loc 1 113 25 is_stmt 0 view .LVU165
 585 0008 0E4A     		ldr	r2, .L70
 113:../USER/main_03.c **** 	if(kinbwp>=256) kinbwp = 0;
 586              		.loc 1 113 4 view .LVU166
 587 000a A0B9     		cbnz	r0, .L62
 588 000c 1368     		ldr	r3, [r2]
 589              	.L63:
 114:../USER/main_03.c **** 	//
 590              		.loc 1 114 2 is_stmt 1 view .LVU167
 114:../USER/main_03.c **** 	//
 591              		.loc 1 114 4 is_stmt 0 view .LVU168
 592 000e FF2B     		cmp	r3, #255
 593 0010 01DD     		ble	.L64
 114:../USER/main_03.c **** 	//
 594              		.loc 1 114 18 is_stmt 1 discriminator 1 view .LVU169
 114:../USER/main_03.c **** 	//
 595              		.loc 1 114 25 is_stmt 0 discriminator 1 view .LVU170
 596 0012 0023     		movs	r3, #0
 597 0014 1360     		str	r3, [r2]
 598              	.L64:
 116:../USER/main_03.c **** 	if(kinbwp>=256) kinbwp = 0;
 599              		.loc 1 116 2 is_stmt 1 view .LVU171
 116:../USER/main_03.c **** 	if(kinbwp>=256) kinbwp = 0;
 600              		.loc 1 116 11 is_stmt 0 view .LVU172
 601 0016 4FF04021 		mov	r1, #1073758208
 602 001a 4868     		ldr	r0, [r1, #4]
 603              	.LVL33:
 116:../USER/main_03.c **** 	if(kinbwp>=256) kinbwp = 0;
 604              		.loc 1 116 4 view .LVU173
 605 001c 8007     		lsls	r0, r0, #30
 606 001e 09D5     		bpl	.L61
 116:../USER/main_03.c **** 	if(kinbwp>=256) kinbwp = 0;
 607              		.loc 1 116 39 is_stmt 1 discriminator 1 view .LVU174
 116:../USER/main_03.c **** 	if(kinbwp>=256) kinbwp = 0;
 608              		.loc 1 116 63 is_stmt 0 discriminator 1 view .LVU175
 609 0020 0C68     		ldr	r4, [r1]
 116:../USER/main_03.c **** 	if(kinbwp>=256) kinbwp = 0;
 610              		.loc 1 116 56 discriminator 1 view .LVU176
 611 0022 0948     		ldr	r0, .L70+4
 116:../USER/main_03.c **** 	if(kinbwp>=256) kinbwp = 0;
 612              		.loc 1 116 52 discriminator 1 view .LVU177
 613 0024 591C     		adds	r1, r3, #1
 117:../USER/main_03.c **** 	//
 614              		.loc 1 117 4 discriminator 1 view .LVU178
 615 0026 B1F5807F 		cmp	r1, #256
 116:../USER/main_03.c **** 	if(kinbwp>=256) kinbwp = 0;
 616              		.loc 1 116 56 discriminator 1 view .LVU179
 617 002a C454     		strb	r4, [r0, r3]
 117:../USER/main_03.c **** 	//
 618              		.loc 1 117 2 is_stmt 1 discriminator 1 view .LVU180
 116:../USER/main_03.c **** 	if(kinbwp>=256) kinbwp = 0;
 619              		.loc 1 116 52 is_stmt 0 discriminator 1 view .LVU181
 620 002c 1160     		str	r1, [r2]
 117:../USER/main_03.c **** 	//
 621              		.loc 1 117 4 discriminator 1 view .LVU182
 622 002e 01D1     		bne	.L61
 117:../USER/main_03.c **** 	//
 623              		.loc 1 117 18 is_stmt 1 discriminator 1 view .LVU183
 117:../USER/main_03.c **** 	//
 624              		.loc 1 117 25 is_stmt 0 discriminator 1 view .LVU184
 625 0030 0023     		movs	r3, #0
 626 0032 1360     		str	r3, [r2]
 627              	.L61:
 119:../USER/main_03.c **** char getch_uart(void){
 628              		.loc 1 119 1 view .LVU185
 629 0034 10BD     		pop	{r4, pc}
 630              	.LVL34:
 631              	.L62:
 113:../USER/main_03.c **** 	if(kinbwp>=256) kinbwp = 0;
 632              		.loc 1 113 12 is_stmt 1 discriminator 1 view .LVU186
 113:../USER/main_03.c **** 	if(kinbwp>=256) kinbwp = 0;
 633              		.loc 1 113 25 is_stmt 0 discriminator 1 view .LVU187
 634 0036 1168     		ldr	r1, [r2]
 113:../USER/main_03.c **** 	if(kinbwp>=256) kinbwp = 0;
 635              		.loc 1 113 29 discriminator 1 view .LVU188
 636 0038 034C     		ldr	r4, .L70+4
 113:../USER/main_03.c **** 	if(kinbwp>=256) kinbwp = 0;
 637              		.loc 1 113 25 discriminator 1 view .LVU189
 638 003a 4B1C     		adds	r3, r1, #1
 113:../USER/main_03.c **** 	if(kinbwp>=256) kinbwp = 0;
 639              		.loc 1 113 29 discriminator 1 view .LVU190
 640 003c 6054     		strb	r0, [r4, r1]
 113:../USER/main_03.c **** 	if(kinbwp>=256) kinbwp = 0;
 641              		.loc 1 113 25 discriminator 1 view .LVU191
 642 003e 1360     		str	r3, [r2]
 643 0040 E5E7     		b	.L63
 644              	.L71:
 645 0042 00BF     		.align	2
 646              	.L70:
 647 0044 00000000 		.word	.LANCHOR0
 648 0048 00000000 		.word	kinbuf
 649              		.cfi_endproc
 650              	.LFE38:
 652              		.section	.text.getch_uart,"ax",%progbits
 653              		.align	1
 654              		.p2align 2,,3
 655              		.global	getch_uart
 656              		.syntax unified
 657              		.thumb
 658              		.thumb_func
 659              		.fpu softvfp
 661              	getch_uart:
 662              	.LFB39:
 120:../USER/main_03.c **** 	char dt;
 663              		.loc 1 120 22 is_stmt 1 view -0
 664              		.cfi_startproc
 665              		@ args = 0, pretend = 0, frame = 0
 666              		@ frame_needed = 0, uses_anonymous_args = 0
 121:../USER/main_03.c **** 	while(kinbrp==kinbwp) key_check();
 667              		.loc 1 121 2 view .LVU193
 122:../USER/main_03.c **** 	dt = kinbuf[kinbrp++];
 668              		.loc 1 122 2 view .LVU194
 120:../USER/main_03.c **** 	char dt;
 669              		.loc 1 120 22 is_stmt 0 view .LVU195
 670 0000 2DE9F041 		push	{r4, r5, r6, r7, r8, lr}
 671              		.cfi_def_cfa_offset 24
 672              		.cfi_offset 4, -24
 673              		.cfi_offset 5, -20
 674              		.cfi_offset 6, -16
 675              		.cfi_offset 7, -12
 676              		.cfi_offset 8, -8
 677              		.cfi_offset 14, -4
 678              	.LBB118:
 679              	.LBB119:
 116:../USER/main_03.c **** 	if(kinbwp>=256) kinbwp = 0;
 680              		.loc 1 116 11 view .LVU196
 681 0004 4FF04025 		mov	r5, #1073758208
 116:../USER/main_03.c **** 	if(kinbwp>=256) kinbwp = 0;
 682              		.loc 1 116 52 view .LVU197
 683 0008 4FF00108 		mov	r8, #1
 684 000c 1C4C     		ldr	r4, .L89
 685 000e 1D4F     		ldr	r7, .L89+4
 686 0010 2368     		ldr	r3, [r4]
 687 0012 1D4E     		ldr	r6, .L89+8
 688              	.L80:
 689              	.LBE119:
 690              	.LBE118:
 122:../USER/main_03.c **** 	dt = kinbuf[kinbrp++];
 691              		.loc 1 122 14 discriminator 1 view .LVU198
 692 0014 3268     		ldr	r2, [r6]
 122:../USER/main_03.c **** 	dt = kinbuf[kinbrp++];
 693              		.loc 1 122 7 discriminator 1 view .LVU199
 694 0016 9A42     		cmp	r2, r3
 695 0018 29D1     		bne	.L87
 696              	.L81:
 122:../USER/main_03.c **** 	dt = kinbuf[kinbrp++];
 697              		.loc 1 122 24 is_stmt 1 view .LVU200
 698              	.LBB121:
 699              	.LBI118:
 109:../USER/main_03.c **** 	char ch;
 700              		.loc 1 109 6 view .LVU201
 701              	.LBB120:
 110:../USER/main_03.c **** 	//
 702              		.loc 1 110 2 view .LVU202
 112:../USER/main_03.c **** 	if(ch!=0) kinbuf[kinbwp++] = ch;
 703              		.loc 1 112 2 view .LVU203
 112:../USER/main_03.c **** 	if(ch!=0) kinbuf[kinbwp++] = ch;
 704              		.loc 1 112 7 is_stmt 0 view .LVU204
 705 001a FFF7FEFF 		bl	SPI_ReadData
 706              	.LVL35:
 112:../USER/main_03.c **** 	if(ch!=0) kinbuf[kinbwp++] = ch;
 707              		.loc 1 112 5 view .LVU205
 708 001e 40B2     		sxtb	r0, r0
 709              	.LVL36:
 113:../USER/main_03.c **** 	if(kinbwp>=256) kinbwp = 0;
 710              		.loc 1 113 2 is_stmt 1 view .LVU206
 113:../USER/main_03.c **** 	if(kinbwp>=256) kinbwp = 0;
 711              		.loc 1 113 4 is_stmt 0 view .LVU207
 712 0020 78B9     		cbnz	r0, .L74
 713 0022 2368     		ldr	r3, [r4]
 114:../USER/main_03.c **** 	//
 714              		.loc 1 114 2 is_stmt 1 view .LVU208
 114:../USER/main_03.c **** 	//
 715              		.loc 1 114 4 is_stmt 0 view .LVU209
 716 0024 FF2B     		cmp	r3, #255
 717 0026 12DD     		ble	.L76
 718              	.L88:
 114:../USER/main_03.c **** 	//
 719              		.loc 1 114 18 is_stmt 1 view .LVU210
 114:../USER/main_03.c **** 	//
 720              		.loc 1 114 25 is_stmt 0 view .LVU211
 721 0028 0023     		movs	r3, #0
 722 002a 2360     		str	r3, [r4]
 116:../USER/main_03.c **** 	if(kinbwp>=256) kinbwp = 0;
 723              		.loc 1 116 2 is_stmt 1 view .LVU212
 116:../USER/main_03.c **** 	if(kinbwp>=256) kinbwp = 0;
 724              		.loc 1 116 11 is_stmt 0 view .LVU213
 725 002c 6B68     		ldr	r3, [r5, #4]
 116:../USER/main_03.c **** 	if(kinbwp>=256) kinbwp = 0;
 726              		.loc 1 116 4 view .LVU214
 727 002e 13F00203 		ands	r3, r3, #2
 728 0032 EFD0     		beq	.L80
 116:../USER/main_03.c **** 	if(kinbwp>=256) kinbwp = 0;
 729              		.loc 1 116 39 is_stmt 1 view .LVU215
 116:../USER/main_03.c **** 	if(kinbwp>=256) kinbwp = 0;
 730              		.loc 1 116 52 is_stmt 0 view .LVU216
 731 0034 0122     		movs	r2, #1
 116:../USER/main_03.c **** 	if(kinbwp>=256) kinbwp = 0;
 732              		.loc 1 116 63 view .LVU217
 733 0036 2B68     		ldr	r3, [r5]
 116:../USER/main_03.c **** 	if(kinbwp>=256) kinbwp = 0;
 734              		.loc 1 116 52 view .LVU218
 735 0038 C4F80080 		str	r8, [r4]
 116:../USER/main_03.c **** 	if(kinbwp>=256) kinbwp = 0;
 736              		.loc 1 116 56 view .LVU219
 737 003c 3B70     		strb	r3, [r7]
 117:../USER/main_03.c **** 	//
 738              		.loc 1 117 2 is_stmt 1 view .LVU220
 739              	.L84:
 116:../USER/main_03.c **** 	if(kinbwp>=256) kinbwp = 0;
 740              		.loc 1 116 4 is_stmt 0 view .LVU221
 741 003e 1346     		mov	r3, r2
 742 0040 E8E7     		b	.L80
 743              	.L74:
 113:../USER/main_03.c **** 	if(kinbwp>=256) kinbwp = 0;
 744              		.loc 1 113 12 is_stmt 1 view .LVU222
 113:../USER/main_03.c **** 	if(kinbwp>=256) kinbwp = 0;
 745              		.loc 1 113 25 is_stmt 0 view .LVU223
 746 0042 2268     		ldr	r2, [r4]
 747 0044 531C     		adds	r3, r2, #1
 114:../USER/main_03.c **** 	//
 748              		.loc 1 114 4 view .LVU224
 749 0046 FF2B     		cmp	r3, #255
 113:../USER/main_03.c **** 	if(kinbwp>=256) kinbwp = 0;
 750              		.loc 1 113 29 view .LVU225
 751 0048 B854     		strb	r0, [r7, r2]
 113:../USER/main_03.c **** 	if(kinbwp>=256) kinbwp = 0;
 752              		.loc 1 113 25 view .LVU226
 753 004a 2360     		str	r3, [r4]
 114:../USER/main_03.c **** 	//
 754              		.loc 1 114 2 is_stmt 1 view .LVU227
 114:../USER/main_03.c **** 	//
 755              		.loc 1 114 4 is_stmt 0 view .LVU228
 756 004c ECDC     		bgt	.L88
 757              	.L76:
 116:../USER/main_03.c **** 	if(kinbwp>=256) kinbwp = 0;
 758              		.loc 1 116 2 is_stmt 1 view .LVU229
 116:../USER/main_03.c **** 	if(kinbwp>=256) kinbwp = 0;
 759              		.loc 1 116 11 is_stmt 0 view .LVU230
 760 004e 6A68     		ldr	r2, [r5, #4]
 116:../USER/main_03.c **** 	if(kinbwp>=256) kinbwp = 0;
 761              		.loc 1 116 4 view .LVU231
 762 0050 9207     		lsls	r2, r2, #30
 763 0052 DFD5     		bpl	.L80
 116:../USER/main_03.c **** 	if(kinbwp>=256) kinbwp = 0;
 764              		.loc 1 116 39 is_stmt 1 view .LVU232
 116:../USER/main_03.c **** 	if(kinbwp>=256) kinbwp = 0;
 765              		.loc 1 116 63 is_stmt 0 view .LVU233
 766 0054 2968     		ldr	r1, [r5]
 116:../USER/main_03.c **** 	if(kinbwp>=256) kinbwp = 0;
 767              		.loc 1 116 52 view .LVU234
 768 0056 5A1C     		adds	r2, r3, #1
 117:../USER/main_03.c **** 	//
 769              		.loc 1 117 4 view .LVU235
 770 0058 B2F5807F 		cmp	r2, #256
 116:../USER/main_03.c **** 	if(kinbwp>=256) kinbwp = 0;
 771              		.loc 1 116 56 view .LVU236
 772 005c F954     		strb	r1, [r7, r3]
 117:../USER/main_03.c **** 	//
 773              		.loc 1 117 2 is_stmt 1 view .LVU237
 116:../USER/main_03.c **** 	if(kinbwp>=256) kinbwp = 0;
 774              		.loc 1 116 52 is_stmt 0 view .LVU238
 775 005e 2260     		str	r2, [r4]
 117:../USER/main_03.c **** 	//
 776              		.loc 1 117 4 view .LVU239
 777 0060 EDD1     		bne	.L84
 117:../USER/main_03.c **** 	//
 778              		.loc 1 117 18 is_stmt 1 view .LVU240
 117:../USER/main_03.c **** 	//
 779              		.loc 1 117 25 is_stmt 0 view .LVU241
 780 0062 0022     		movs	r2, #0
 781 0064 1346     		mov	r3, r2
 782 0066 2260     		str	r2, [r4]
 783              	.LBE120:
 784              	.LBE121:
 122:../USER/main_03.c **** 	dt = kinbuf[kinbrp++];
 785              		.loc 1 122 14 view .LVU242
 786 0068 3268     		ldr	r2, [r6]
 122:../USER/main_03.c **** 	dt = kinbuf[kinbrp++];
 787              		.loc 1 122 7 view .LVU243
 788 006a 9A42     		cmp	r2, r3
 789 006c D5D0     		beq	.L81
 790              	.LVL37:
 791              	.L87:
 123:../USER/main_03.c **** 	if(kinbrp>=256) kinbrp = 0;
 792              		.loc 1 123 2 is_stmt 1 view .LVU244
 123:../USER/main_03.c **** 	if(kinbrp>=256) kinbrp = 0;
 793              		.loc 1 123 20 is_stmt 0 view .LVU245
 794 006e 531C     		adds	r3, r2, #1
 124:../USER/main_03.c **** 	return dt;
 795              		.loc 1 124 4 view .LVU246
 796 0070 FF2B     		cmp	r3, #255
 123:../USER/main_03.c **** 	if(kinbrp>=256) kinbrp = 0;
 797              		.loc 1 123 5 view .LVU247
 798 0072 B856     		ldrsb	r0, [r7, r2]
 799              	.LVL38:
 124:../USER/main_03.c **** 	return dt;
 800              		.loc 1 124 2 is_stmt 1 view .LVU248
 123:../USER/main_03.c **** 	if(kinbrp>=256) kinbrp = 0;
 801              		.loc 1 123 20 is_stmt 0 view .LVU249
 802 0074 3360     		str	r3, [r6]
 124:../USER/main_03.c **** 	return dt;
 803              		.loc 1 124 4 view .LVU250
 804 0076 01DD     		ble	.L85
 124:../USER/main_03.c **** 	return dt;
 805              		.loc 1 124 18 is_stmt 1 discriminator 1 view .LVU251
 124:../USER/main_03.c **** 	return dt;
 806              		.loc 1 124 25 is_stmt 0 discriminator 1 view .LVU252
 807 0078 0023     		movs	r3, #0
 808 007a 3360     		str	r3, [r6]
 125:../USER/main_03.c **** }
 809              		.loc 1 125 2 is_stmt 1 discriminator 1 view .LVU253
 810              	.L85:
 126:../USER/main_03.c **** void putch_uart(char ch){
 811              		.loc 1 126 1 is_stmt 0 view .LVU254
 812 007c BDE8F081 		pop	{r4, r5, r6, r7, r8, pc}
 813              	.L90:
 814              		.align	2
 815              	.L89:
 816 0080 00000000 		.word	.LANCHOR0
 817 0084 00000000 		.word	kinbuf
 818 0088 00000000 		.word	.LANCHOR1
 819              		.cfi_endproc
 820              	.LFE39:
 822              		.section	.text.putch_uart,"ax",%progbits
 823              		.align	1
 824              		.p2align 2,,3
 825              		.global	putch_uart
 826              		.syntax unified
 827              		.thumb
 828              		.thumb_func
 829              		.fpu softvfp
 831              	putch_uart:
 832              	.LVL39:
 833              	.LFB40:
 127:../USER/main_03.c **** 	volatile uint32_t gpiord;
 834              		.loc 1 127 25 is_stmt 1 view -0
 835              		.cfi_startproc
 836              		@ args = 0, pretend = 0, frame = 8
 837              		@ frame_needed = 0, uses_anonymous_args = 0
 128:../USER/main_03.c **** 	if((mdgpio & 0x2000)==0)
 838              		.loc 1 128 2 view .LVU256
 129:../USER/main_03.c **** 		UART_SendChar(UART0,ch);
 839              		.loc 1 129 2 view .LVU257
 127:../USER/main_03.c **** 	volatile uint32_t gpiord;
 840              		.loc 1 127 25 is_stmt 0 view .LVU258
 841 0000 F0B5     		push	{r4, r5, r6, r7, lr}
 842              		.cfi_def_cfa_offset 20
 843              		.cfi_offset 4, -20
 844              		.cfi_offset 5, -16
 845              		.cfi_offset 6, -12
 846              		.cfi_offset 7, -8
 847              		.cfi_offset 14, -4
 129:../USER/main_03.c **** 		UART_SendChar(UART0,ch);
 848              		.loc 1 129 13 view .LVU259
 849 0002 324B     		ldr	r3, .L120
 127:../USER/main_03.c **** 	volatile uint32_t gpiord;
 850              		.loc 1 127 25 view .LVU260
 851 0004 83B0     		sub	sp, sp, #12
 852              		.cfi_def_cfa_offset 32
 129:../USER/main_03.c **** 		UART_SendChar(UART0,ch);
 853              		.loc 1 129 13 view .LVU261
 854 0006 1B68     		ldr	r3, [r3]
 127:../USER/main_03.c **** 	volatile uint32_t gpiord;
 855              		.loc 1 127 25 view .LVU262
 856 0008 0546     		mov	r5, r0
 129:../USER/main_03.c **** 		UART_SendChar(UART0,ch);
 857              		.loc 1 129 4 view .LVU263
 858 000a 9904     		lsls	r1, r3, #18
 859 000c 56D5     		bpl	.L116
 132:../USER/main_03.c **** 		while((gpiord & 0x4000)!=0) {
 860              		.loc 1 132 3 is_stmt 1 view .LVU264
 132:../USER/main_03.c **** 		while((gpiord & 0x4000)!=0) {
 861              		.loc 1 132 10 is_stmt 0 view .LVU265
 862 000e 4FF48043 		mov	r3, #16384
 863 0012 0193     		str	r3, [sp, #4]
 133:../USER/main_03.c **** 			key_check();
 864              		.loc 1 133 3 is_stmt 1 view .LVU266
 133:../USER/main_03.c **** 			key_check();
 865              		.loc 1 133 17 is_stmt 0 view .LVU267
 866 0014 019B     		ldr	r3, [sp, #4]
 867 0016 2E4C     		ldr	r4, .L120+4
 133:../USER/main_03.c **** 			key_check();
 868              		.loc 1 133 8 view .LVU268
 869 0018 5A04     		lsls	r2, r3, #17
 870 001a 26D5     		bpl	.L101
 871              	.LBB126:
 872              	.LBB127:
 113:../USER/main_03.c **** 	if(kinbwp>=256) kinbwp = 0;
 873              		.loc 1 113 29 view .LVU269
 874 001c 2D4F     		ldr	r7, .L120+8
 114:../USER/main_03.c **** 	//
 875              		.loc 1 114 25 view .LVU270
 876 001e 0026     		movs	r6, #0
 877 0020 19E0     		b	.L94
 878              	.LVL40:
 879              	.L117:
 114:../USER/main_03.c **** 	//
 880              		.loc 1 114 25 view .LVU271
 881 0022 2368     		ldr	r3, [r4]
 882              	.L97:
 114:../USER/main_03.c **** 	//
 883              		.loc 1 114 2 is_stmt 1 view .LVU272
 114:../USER/main_03.c **** 	//
 884              		.loc 1 114 18 view .LVU273
 114:../USER/main_03.c **** 	//
 885              		.loc 1 114 4 is_stmt 0 view .LVU274
 886 0024 FF2B     		cmp	r3, #255
 887 0026 01DD     		ble	.L98
 114:../USER/main_03.c **** 	//
 888              		.loc 1 114 25 view .LVU275
 889 0028 0023     		movs	r3, #0
 890 002a 2660     		str	r6, [r4]
 891              	.L98:
 116:../USER/main_03.c **** 	if(kinbwp>=256) kinbwp = 0;
 892              		.loc 1 116 39 is_stmt 1 view .LVU276
 116:../USER/main_03.c **** 	if(kinbwp>=256) kinbwp = 0;
 893              		.loc 1 116 2 view .LVU277
 116:../USER/main_03.c **** 	if(kinbwp>=256) kinbwp = 0;
 894              		.loc 1 116 11 is_stmt 0 view .LVU278
 895 002c 4FF04021 		mov	r1, #1073758208
 896 0030 4868     		ldr	r0, [r1, #4]
 897              	.LVL41:
 116:../USER/main_03.c **** 	if(kinbwp>=256) kinbwp = 0;
 898              		.loc 1 116 52 view .LVU279
 899 0032 5A1C     		adds	r2, r3, #1
 116:../USER/main_03.c **** 	if(kinbwp>=256) kinbwp = 0;
 900              		.loc 1 116 4 view .LVU280
 901 0034 8007     		lsls	r0, r0, #30
 902 0036 07D5     		bpl	.L100
 117:../USER/main_03.c **** 	//
 903              		.loc 1 117 25 view .LVU281
 904 0038 B2F5807F 		cmp	r2, #256
 116:../USER/main_03.c **** 	if(kinbwp>=256) kinbwp = 0;
 905              		.loc 1 116 63 view .LVU282
 906 003c 0868     		ldr	r0, [r1]
 117:../USER/main_03.c **** 	//
 907              		.loc 1 117 25 view .LVU283
 908 003e 14BF     		ite	ne
 909 0040 1146     		movne	r1, r2
 910 0042 3146     		moveq	r1, r6
 116:../USER/main_03.c **** 	if(kinbwp>=256) kinbwp = 0;
 911              		.loc 1 116 56 view .LVU284
 912 0044 F854     		strb	r0, [r7, r3]
 117:../USER/main_03.c **** 	//
 913              		.loc 1 117 2 is_stmt 1 view .LVU285
 117:../USER/main_03.c **** 	//
 914              		.loc 1 117 25 is_stmt 0 view .LVU286
 915 0046 2160     		str	r1, [r4]
 916              	.L100:
 117:../USER/main_03.c **** 	//
 917              		.loc 1 117 25 view .LVU287
 918              	.LBE127:
 919              	.LBE126:
 135:../USER/main_03.c **** 		}
 920              		.loc 1 135 4 is_stmt 1 view .LVU288
 135:../USER/main_03.c **** 		}
 921              		.loc 1 135 13 is_stmt 0 view .LVU289
 922 0048 2348     		ldr	r0, .L120+12
 923 004a FFF7FEFF 		bl	GPIO_ReadBits
 924              	.LVL42:
 135:../USER/main_03.c **** 		}
 925              		.loc 1 135 11 view .LVU290
 926 004e 0190     		str	r0, [sp, #4]
 133:../USER/main_03.c **** 			key_check();
 927              		.loc 1 133 17 view .LVU291
 928 0050 019B     		ldr	r3, [sp, #4]
 133:../USER/main_03.c **** 			key_check();
 929              		.loc 1 133 8 view .LVU292
 930 0052 5B04     		lsls	r3, r3, #17
 931 0054 09D5     		bpl	.L101
 932              	.L94:
 134:../USER/main_03.c **** 			gpiord = GPIO_ReadBits(GPIO0);
 933              		.loc 1 134 4 is_stmt 1 view .LVU293
 934              	.LBB129:
 935              	.LBI126:
 109:../USER/main_03.c **** 	char ch;
 936              		.loc 1 109 6 view .LVU294
 937              	.LBB128:
 110:../USER/main_03.c **** 	//
 938              		.loc 1 110 2 view .LVU295
 112:../USER/main_03.c **** 	if(ch!=0) kinbuf[kinbwp++] = ch;
 939              		.loc 1 112 2 view .LVU296
 112:../USER/main_03.c **** 	if(ch!=0) kinbuf[kinbwp++] = ch;
 940              		.loc 1 112 7 is_stmt 0 view .LVU297
 941 0056 FFF7FEFF 		bl	SPI_ReadData
 942              	.LVL43:
 113:../USER/main_03.c **** 	if(kinbwp>=256) kinbwp = 0;
 943              		.loc 1 113 12 is_stmt 1 view .LVU298
 112:../USER/main_03.c **** 	if(ch!=0) kinbuf[kinbwp++] = ch;
 944              		.loc 1 112 5 is_stmt 0 view .LVU299
 945 005a 40B2     		sxtb	r0, r0
 946              	.LVL44:
 113:../USER/main_03.c **** 	if(kinbwp>=256) kinbwp = 0;
 947              		.loc 1 113 2 is_stmt 1 view .LVU300
 113:../USER/main_03.c **** 	if(kinbwp>=256) kinbwp = 0;
 948              		.loc 1 113 4 is_stmt 0 view .LVU301
 949 005c 0028     		cmp	r0, #0
 950 005e E0D0     		beq	.L117
 113:../USER/main_03.c **** 	if(kinbwp>=256) kinbwp = 0;
 951              		.loc 1 113 25 view .LVU302
 952 0060 2268     		ldr	r2, [r4]
 953 0062 531C     		adds	r3, r2, #1
 113:../USER/main_03.c **** 	if(kinbwp>=256) kinbwp = 0;
 954              		.loc 1 113 29 view .LVU303
 955 0064 B854     		strb	r0, [r7, r2]
 113:../USER/main_03.c **** 	if(kinbwp>=256) kinbwp = 0;
 956              		.loc 1 113 25 view .LVU304
 957 0066 2360     		str	r3, [r4]
 958 0068 DCE7     		b	.L97
 959              	.LVL45:
 960              	.L101:
 113:../USER/main_03.c **** 	if(kinbwp>=256) kinbwp = 0;
 961              		.loc 1 113 25 view .LVU305
 962              	.LBE128:
 963              	.LBE129:
 137:../USER/main_03.c **** 	}
 964              		.loc 1 137 3 is_stmt 1 view .LVU306
 965 006a E8B2     		uxtb	r0, r5
 966 006c FFF7FEFF 		bl	SPI_WriteData
 967              	.LVL46:
 968              	.L95:
 969              	.LBB130:
 970              	.LBB131:
 113:../USER/main_03.c **** 	if(kinbwp>=256) kinbwp = 0;
 971              		.loc 1 113 29 is_stmt 0 discriminator 1 view .LVU307
 972 0070 184F     		ldr	r7, .L120+8
 114:../USER/main_03.c **** 	//
 973              		.loc 1 114 25 discriminator 1 view .LVU308
 974 0072 0026     		movs	r6, #0
 975 0074 16E0     		b	.L93
 976              	.LVL47:
 977              	.L119:
 114:../USER/main_03.c **** 	//
 978              		.loc 1 114 25 discriminator 1 view .LVU309
 979 0076 2368     		ldr	r3, [r4]
 980              	.L103:
 114:../USER/main_03.c **** 	//
 981              		.loc 1 114 2 is_stmt 1 view .LVU310
 114:../USER/main_03.c **** 	//
 982              		.loc 1 114 18 view .LVU311
 114:../USER/main_03.c **** 	//
 983              		.loc 1 114 4 is_stmt 0 view .LVU312
 984 0078 FF2B     		cmp	r3, #255
 985 007a 01DD     		ble	.L104
 114:../USER/main_03.c **** 	//
 986              		.loc 1 114 25 view .LVU313
 987 007c 0023     		movs	r3, #0
 988 007e 2660     		str	r6, [r4]
 989              	.L104:
 116:../USER/main_03.c **** 	if(kinbwp>=256) kinbwp = 0;
 990              		.loc 1 116 39 is_stmt 1 view .LVU314
 116:../USER/main_03.c **** 	if(kinbwp>=256) kinbwp = 0;
 991              		.loc 1 116 2 view .LVU315
 116:../USER/main_03.c **** 	if(kinbwp>=256) kinbwp = 0;
 992              		.loc 1 116 11 is_stmt 0 view .LVU316
 993 0080 4FF04021 		mov	r1, #1073758208
 994 0084 4868     		ldr	r0, [r1, #4]
 995              	.LVL48:
 116:../USER/main_03.c **** 	if(kinbwp>=256) kinbwp = 0;
 996              		.loc 1 116 52 view .LVU317
 997 0086 5A1C     		adds	r2, r3, #1
 116:../USER/main_03.c **** 	if(kinbwp>=256) kinbwp = 0;
 998              		.loc 1 116 4 view .LVU318
 999 0088 8007     		lsls	r0, r0, #30
 1000 008a 07D5     		bpl	.L106
 117:../USER/main_03.c **** 	//
 1001              		.loc 1 117 25 view .LVU319
 1002 008c B2F5807F 		cmp	r2, #256
 116:../USER/main_03.c **** 	if(kinbwp>=256) kinbwp = 0;
 1003              		.loc 1 116 63 view .LVU320
 1004 0090 0868     		ldr	r0, [r1]
 117:../USER/main_03.c **** 	//
 1005              		.loc 1 117 25 view .LVU321
 1006 0092 14BF     		ite	ne
 1007 0094 1146     		movne	r1, r2
 1008 0096 3146     		moveq	r1, r6
 116:../USER/main_03.c **** 	if(kinbwp>=256) kinbwp = 0;
 1009              		.loc 1 116 56 view .LVU322
 1010 0098 F854     		strb	r0, [r7, r3]
 117:../USER/main_03.c **** 	//
 1011              		.loc 1 117 2 is_stmt 1 view .LVU323
 117:../USER/main_03.c **** 	//
 1012              		.loc 1 117 25 is_stmt 0 view .LVU324
 1013 009a 2160     		str	r1, [r4]
 1014              	.L106:
 117:../USER/main_03.c **** 	//
 1015              		.loc 1 117 25 view .LVU325
 1016              	.LBE131:
 1017              	.LBE130:
 140:../USER/main_03.c **** }
 1018              		.loc 1 140 27 is_stmt 1 view .LVU326
 140:../USER/main_03.c **** }
 1019              		.loc 1 140 32 is_stmt 0 view .LVU327
 1020 009c 2846     		mov	r0, r5
 1021 009e FFF7FEFF 		bl	disp_vram
 1022              	.LVL49:
 140:../USER/main_03.c **** }
 1023              		.loc 1 140 2 view .LVU328
 1024 00a2 48B1     		cbz	r0, .L118
 1025              	.LVL50:
 1026              	.L93:
 140:../USER/main_03.c **** }
 1027              		.loc 1 140 2 is_stmt 1 discriminator 1 view .LVU329
 140:../USER/main_03.c **** }
 1028              		.loc 1 140 10 discriminator 1 view .LVU330
 140:../USER/main_03.c **** }
 1029              		.loc 1 140 14 discriminator 1 view .LVU331
 1030              	.LBB133:
 1031              	.LBI130:
 109:../USER/main_03.c **** 	char ch;
 1032              		.loc 1 109 6 discriminator 1 view .LVU332
 1033              	.LBB132:
 110:../USER/main_03.c **** 	//
 1034              		.loc 1 110 2 discriminator 1 view .LVU333
 112:../USER/main_03.c **** 	if(ch!=0) kinbuf[kinbwp++] = ch;
 1035              		.loc 1 112 2 discriminator 1 view .LVU334
 112:../USER/main_03.c **** 	if(ch!=0) kinbuf[kinbwp++] = ch;
 1036              		.loc 1 112 7 is_stmt 0 discriminator 1 view .LVU335
 1037 00a4 FFF7FEFF 		bl	SPI_ReadData
 1038              	.LVL51:
 113:../USER/main_03.c **** 	if(kinbwp>=256) kinbwp = 0;
 1039              		.loc 1 113 12 is_stmt 1 discriminator 1 view .LVU336
 112:../USER/main_03.c **** 	if(ch!=0) kinbuf[kinbwp++] = ch;
 1040              		.loc 1 112 5 is_stmt 0 discriminator 1 view .LVU337
 1041 00a8 40B2     		sxtb	r0, r0
 1042              	.LVL52:
 113:../USER/main_03.c **** 	if(kinbwp>=256) kinbwp = 0;
 1043              		.loc 1 113 2 is_stmt 1 discriminator 1 view .LVU338
 113:../USER/main_03.c **** 	if(kinbwp>=256) kinbwp = 0;
 1044              		.loc 1 113 4 is_stmt 0 discriminator 1 view .LVU339
 1045 00aa 0028     		cmp	r0, #0
 1046 00ac E3D0     		beq	.L119
 113:../USER/main_03.c **** 	if(kinbwp>=256) kinbwp = 0;
 1047              		.loc 1 113 25 view .LVU340
 1048 00ae 2268     		ldr	r2, [r4]
 1049 00b0 531C     		adds	r3, r2, #1
 113:../USER/main_03.c **** 	if(kinbwp>=256) kinbwp = 0;
 1050              		.loc 1 113 29 view .LVU341
 1051 00b2 B854     		strb	r0, [r7, r2]
 113:../USER/main_03.c **** 	if(kinbwp>=256) kinbwp = 0;
 1052              		.loc 1 113 25 view .LVU342
 1053 00b4 2360     		str	r3, [r4]
 1054 00b6 DFE7     		b	.L103
 1055              	.LVL53:
 1056              	.L118:
 113:../USER/main_03.c **** 	if(kinbwp>=256) kinbwp = 0;
 1057              		.loc 1 113 25 view .LVU343
 1058              	.LBE132:
 1059              	.LBE133:
 141:../USER/main_03.c **** 
 1060              		.loc 1 141 1 view .LVU344
 1061 00b8 03B0     		add	sp, sp, #12
 1062              		.cfi_remember_state
 1063              		.cfi_def_cfa_offset 20
 1064              		@ sp needed
 1065 00ba F0BD     		pop	{r4, r5, r6, r7, pc}
 1066              	.LVL54:
 1067              	.L116:
 1068              		.cfi_restore_state
 130:../USER/main_03.c **** 	else {
 1069              		.loc 1 130 3 is_stmt 1 view .LVU345
 1070 00bc 0146     		mov	r1, r0
 1071 00be 4FF04020 		mov	r0, #1073758208
 1072              	.LVL55:
 130:../USER/main_03.c **** 	else {
 1073              		.loc 1 130 3 is_stmt 0 view .LVU346
 1074 00c2 FFF7FEFF 		bl	UART_SendChar
 1075              	.LVL56:
 1076 00c6 024C     		ldr	r4, .L120+4
 1077 00c8 D2E7     		b	.L95
 1078              	.L121:
 1079 00ca 00BF     		.align	2
 1080              	.L120:
 1081 00cc 00000000 		.word	mdgpio
 1082 00d0 00000000 		.word	.LANCHOR0
 1083 00d4 00000000 		.word	kinbuf
 1084 00d8 00000140 		.word	1073807360
 1085              		.cfi_endproc
 1086              	.LFE40:
 1088              		.section	.text.puth,"ax",%progbits
 1089              		.align	1
 1090              		.p2align 2,,3
 1091              		.global	puth
 1092              		.syntax unified
 1093              		.thumb
 1094              		.thumb_func
 1095              		.fpu softvfp
 1097              	puth:
 1098              	.LVL57:
 1099              	.LFB41:
 143:../USER/main_03.c **** void puth2(dt) int dt;{ puth((dt >> 4) & 0xf); puth(dt & 0xf); }
 1100              		.loc 1 143 22 is_stmt 1 view -0
 1101              		.cfi_startproc
 1102              		@ args = 0, pretend = 0, frame = 0
 1103              		@ frame_needed = 0, uses_anonymous_args = 0
 1104              		@ link register save eliminated.
 143:../USER/main_03.c **** void puth2(dt) int dt;{ puth((dt >> 4) & 0xf); puth(dt & 0xf); }
 1105              		.loc 1 143 24 view .LVU348
 143:../USER/main_03.c **** void puth2(dt) int dt;{ puth((dt >> 4) & 0xf); puth(dt & 0xf); }
 1106              		.loc 1 143 26 is_stmt 0 view .LVU349
 1107 0000 0928     		cmp	r0, #9
 1108 0002 C3B2     		uxtb	r3, r0
 1109 0004 04DC     		bgt	.L123
 143:../USER/main_03.c **** void puth2(dt) int dt;{ puth((dt >> 4) & 0xf); puth(dt & 0xf); }
 1110              		.loc 1 143 34 is_stmt 1 discriminator 1 view .LVU350
 143:../USER/main_03.c **** void puth2(dt) int dt;{ puth((dt >> 4) & 0xf); puth(dt & 0xf); }
 1111              		.loc 1 143 44 is_stmt 0 discriminator 1 view .LVU351
 1112 0006 03F13000 		add	r0, r3, #48
 1113              	.LVL58:
 143:../USER/main_03.c **** void puth2(dt) int dt;{ puth((dt >> 4) & 0xf); puth(dt & 0xf); }
 1114              		.loc 1 143 34 discriminator 1 view .LVU352
 1115 000a 40B2     		sxtb	r0, r0
 1116 000c FFF7FEBF 		b	putch_uart
 1117              	.LVL59:
 1118              	.L123:
 143:../USER/main_03.c **** void puth2(dt) int dt;{ puth((dt >> 4) & 0xf); puth(dt & 0xf); }
 1119              		.loc 1 143 55 is_stmt 1 discriminator 2 view .LVU353
 143:../USER/main_03.c **** void puth2(dt) int dt;{ puth((dt >> 4) & 0xf); puth(dt & 0xf); }
 1120              		.loc 1 143 65 is_stmt 0 discriminator 2 view .LVU354
 1121 0010 03F13700 		add	r0, r3, #55
 1122              	.LVL60:
 143:../USER/main_03.c **** void puth2(dt) int dt;{ puth((dt >> 4) & 0xf); puth(dt & 0xf); }
 1123              		.loc 1 143 55 discriminator 2 view .LVU355
 1124 0014 40B2     		sxtb	r0, r0
 1125 0016 FFF7FEBF 		b	putch_uart
 1126              	.LVL61:
 1127              		.cfi_endproc
 1128              	.LFE41:
 1130 001a 00BF     		.section	.text.puth2,"ax",%progbits
 1131              		.align	1
 1132              		.p2align 2,,3
 1133              		.global	puth2
 1134              		.syntax unified
 1135              		.thumb
 1136              		.thumb_func
 1137              		.fpu softvfp
 1139              	puth2:
 1140              	.LVL62:
 1141              	.LFB42:
 144:../USER/main_03.c **** void puth4(dt) int dt;{ puth2((dt >> 8) & 0xff); puth2(dt & 0xff); }
 1142              		.loc 1 144 23 is_stmt 1 view -0
 1143              		.cfi_startproc
 1144              		@ args = 0, pretend = 0, frame = 0
 1145              		@ frame_needed = 0, uses_anonymous_args = 0
 144:../USER/main_03.c **** void puth4(dt) int dt;{ puth2((dt >> 8) & 0xff); puth2(dt & 0xff); }
 1146              		.loc 1 144 25 view .LVU357
 144:../USER/main_03.c **** void puth4(dt) int dt;{ puth2((dt >> 8) & 0xff); puth2(dt & 0xff); }
 1147              		.loc 1 144 23 is_stmt 0 view .LVU358
 1148 0000 10B5     		push	{r4, lr}
 1149              		.cfi_def_cfa_offset 8
 1150              		.cfi_offset 4, -8
 1151              		.cfi_offset 14, -4
 144:../USER/main_03.c **** void puth4(dt) int dt;{ puth2((dt >> 8) & 0xff); puth2(dt & 0xff); }
 1152              		.loc 1 144 23 view .LVU359
 1153 0002 0446     		mov	r4, r0
 144:../USER/main_03.c **** void puth4(dt) int dt;{ puth2((dt >> 8) & 0xff); puth2(dt & 0xff); }
 1154              		.loc 1 144 25 view .LVU360
 1155 0004 C0F30313 		ubfx	r3, r0, #4, #4
 1156              	.LVL63:
 1157              	.LBB138:
 1158              	.LBI138:
 143:../USER/main_03.c **** void puth2(dt) int dt;{ puth((dt >> 4) & 0xf); puth(dt & 0xf); }
 1159              		.loc 1 143 6 is_stmt 1 view .LVU361
 1160              	.LBB139:
 143:../USER/main_03.c **** void puth2(dt) int dt;{ puth((dt >> 4) & 0xf); puth(dt & 0xf); }
 1161              		.loc 1 143 24 view .LVU362
 143:../USER/main_03.c **** void puth2(dt) int dt;{ puth((dt >> 4) & 0xf); puth(dt & 0xf); }
 1162              		.loc 1 143 34 view .LVU363
 143:../USER/main_03.c **** void puth2(dt) int dt;{ puth((dt >> 4) & 0xf); puth(dt & 0xf); }
 1163              		.loc 1 143 55 view .LVU364
 1164 0008 D8B2     		uxtb	r0, r3
 1165              	.LVL64:
 143:../USER/main_03.c **** void puth2(dt) int dt;{ puth((dt >> 4) & 0xf); puth(dt & 0xf); }
 1166              		.loc 1 143 26 is_stmt 0 view .LVU365
 1167 000a 092B     		cmp	r3, #9
 143:../USER/main_03.c **** void puth2(dt) int dt;{ puth((dt >> 4) & 0xf); puth(dt & 0xf); }
 1168              		.loc 1 143 34 view .LVU366
 1169 000c D4BF     		ite	le
 1170 000e 3030     		addle	r0, r0, #48
 143:../USER/main_03.c **** void puth2(dt) int dt;{ puth((dt >> 4) & 0xf); puth(dt & 0xf); }
 1171              		.loc 1 143 55 view .LVU367
 1172 0010 3730     		addgt	r0, r0, #55
 1173              	.LBE139:
 1174              	.LBE138:
 144:../USER/main_03.c **** void puth4(dt) int dt;{ puth2((dt >> 8) & 0xff); puth2(dt & 0xff); }
 1175              		.loc 1 144 48 view .LVU368
 1176 0012 04F00F04 		and	r4, r4, #15
 1177              	.LVL65:
 1178              	.LBB141:
 1179              	.LBB140:
 143:../USER/main_03.c **** void puth2(dt) int dt;{ puth((dt >> 4) & 0xf); puth(dt & 0xf); }
 1180              		.loc 1 143 55 view .LVU369
 1181 0016 FFF7FEFF 		bl	putch_uart
 1182              	.LVL66:
 143:../USER/main_03.c **** void puth2(dt) int dt;{ puth((dt >> 4) & 0xf); puth(dt & 0xf); }
 1183              		.loc 1 143 55 view .LVU370
 1184              	.LBE140:
 1185              	.LBE141:
 144:../USER/main_03.c **** void puth4(dt) int dt;{ puth2((dt >> 8) & 0xff); puth2(dt & 0xff); }
 1186              		.loc 1 144 48 is_stmt 1 view .LVU371
 1187              	.LBB142:
 1188              	.LBI142:
 143:../USER/main_03.c **** void puth2(dt) int dt;{ puth((dt >> 4) & 0xf); puth(dt & 0xf); }
 1189              		.loc 1 143 6 view .LVU372
 1190              	.LBB143:
 143:../USER/main_03.c **** void puth2(dt) int dt;{ puth((dt >> 4) & 0xf); puth(dt & 0xf); }
 1191              		.loc 1 143 24 view .LVU373
 143:../USER/main_03.c **** void puth2(dt) int dt;{ puth((dt >> 4) & 0xf); puth(dt & 0xf); }
 1192              		.loc 1 143 26 is_stmt 0 view .LVU374
 1193 001a 092C     		cmp	r4, #9
 1194 001c E0B2     		uxtb	r0, r4
 1195 001e 04DC     		bgt	.L127
 143:../USER/main_03.c **** void puth2(dt) int dt;{ puth((dt >> 4) & 0xf); puth(dt & 0xf); }
 1196              		.loc 1 143 34 is_stmt 1 view .LVU375
 1197              	.LBE143:
 1198              	.LBE142:
 144:../USER/main_03.c **** void puth4(dt) int dt;{ puth2((dt >> 8) & 0xff); puth2(dt & 0xff); }
 1199              		.loc 1 144 1 is_stmt 0 view .LVU376
 1200 0020 BDE81040 		pop	{r4, lr}
 1201              		.cfi_remember_state
 1202              		.cfi_restore 14
 1203              		.cfi_restore 4
 1204              		.cfi_def_cfa_offset 0
 1205              	.LVL67:
 1206              	.LBB146:
 1207              	.LBB144:
 143:../USER/main_03.c **** void puth2(dt) int dt;{ puth((dt >> 4) & 0xf); puth(dt & 0xf); }
 1208              		.loc 1 143 34 view .LVU377
 1209 0024 3030     		adds	r0, r0, #48
 1210 0026 FFF7FEBF 		b	putch_uart
 1211              	.LVL68:
 1212              	.L127:
 1213              		.cfi_restore_state
 143:../USER/main_03.c **** void puth2(dt) int dt;{ puth((dt >> 4) & 0xf); puth(dt & 0xf); }
 1214              		.loc 1 143 55 is_stmt 1 view .LVU378
 1215 002a 3730     		adds	r0, r0, #55
 1216              	.LBE144:
 1217              	.LBE146:
 144:../USER/main_03.c **** void puth4(dt) int dt;{ puth2((dt >> 8) & 0xff); puth2(dt & 0xff); }
 1218              		.loc 1 144 1 is_stmt 0 view .LVU379
 1219 002c BDE81040 		pop	{r4, lr}
 1220              		.cfi_restore 14
 1221              		.cfi_restore 4
 1222              		.cfi_def_cfa_offset 0
 1223              	.LVL69:
 1224              	.LBB147:
 1225              	.LBB145:
 143:../USER/main_03.c **** void puth2(dt) int dt;{ puth((dt >> 4) & 0xf); puth(dt & 0xf); }
 1226              		.loc 1 143 55 view .LVU380
 1227 0030 FFF7FEBF 		b	putch_uart
 1228              	.LVL70:
 1229              	.LBE145:
 1230              	.LBE147:
 1231              		.cfi_endproc
 1232              	.LFE42:
 1234              		.section	.text.puth4,"ax",%progbits
 1235              		.align	1
 1236              		.p2align 2,,3
 1237              		.global	puth4
 1238              		.syntax unified
 1239              		.thumb
 1240              		.thumb_func
 1241              		.fpu softvfp
 1243              	puth4:
 1244              	.LVL71:
 1245              	.LFB43:
 145:../USER/main_03.c **** void puth6(dt) long dt;{ int dh,dl; dh = dt >> 16; dl = dt & 0xffff; puth2(dh); puth4(dl); }
 1246              		.loc 1 145 23 is_stmt 1 view -0
 1247              		.cfi_startproc
 1248              		@ args = 0, pretend = 0, frame = 0
 1249              		@ frame_needed = 0, uses_anonymous_args = 0
 145:../USER/main_03.c **** void puth6(dt) long dt;{ int dh,dl; dh = dt >> 16; dl = dt & 0xffff; puth2(dh); puth4(dl); }
 1250              		.loc 1 145 25 view .LVU382
 145:../USER/main_03.c **** void puth6(dt) long dt;{ int dh,dl; dh = dt >> 16; dl = dt & 0xffff; puth2(dh); puth4(dl); }
 1251              		.loc 1 145 23 is_stmt 0 view .LVU383
 1252 0000 38B5     		push	{r3, r4, r5, lr}
 1253              		.cfi_def_cfa_offset 16
 1254              		.cfi_offset 3, -16
 1255              		.cfi_offset 4, -12
 1256              		.cfi_offset 5, -8
 1257              		.cfi_offset 14, -4
 145:../USER/main_03.c **** void puth6(dt) long dt;{ int dh,dl; dh = dt >> 16; dl = dt & 0xffff; puth2(dh); puth4(dl); }
 1258              		.loc 1 145 23 view .LVU384
 1259 0002 0446     		mov	r4, r0
 1260              	.LBB160:
 1261              	.LBB161:
 144:../USER/main_03.c **** void puth4(dt) int dt;{ puth2((dt >> 8) & 0xff); puth2(dt & 0xff); }
 1262              		.loc 1 144 34 view .LVU385
 1263 0004 C0F30333 		ubfx	r3, r0, #12, #4
 1264 0008 D8B2     		uxtb	r0, r3
 1265              	.LVL72:
 1266              	.LBB162:
 1267              	.LBB163:
 143:../USER/main_03.c **** void puth2(dt) int dt;{ puth((dt >> 4) & 0xf); puth(dt & 0xf); }
 1268              		.loc 1 143 26 view .LVU386
 1269 000a 092B     		cmp	r3, #9
 143:../USER/main_03.c **** void puth2(dt) int dt;{ puth((dt >> 4) & 0xf); puth(dt & 0xf); }
 1270              		.loc 1 143 34 view .LVU387
 1271 000c D4BF     		ite	le
 1272 000e 3030     		addle	r0, r0, #48
 143:../USER/main_03.c **** void puth2(dt) int dt;{ puth((dt >> 4) & 0xf); puth(dt & 0xf); }
 1273              		.loc 1 143 55 view .LVU388
 1274 0010 3730     		addgt	r0, r0, #55
 1275              	.LBE163:
 1276              	.LBE162:
 1277              	.LBE161:
 1278              	.LBE160:
 145:../USER/main_03.c **** void puth6(dt) long dt;{ int dh,dl; dh = dt >> 16; dl = dt & 0xffff; puth2(dh); puth4(dl); }
 1279              		.loc 1 145 35 view .LVU389
 1280 0012 2512     		asrs	r5, r4, #8
 1281              	.LVL73:
 1282              	.LBB169:
 1283              	.LBI160:
 144:../USER/main_03.c **** void puth4(dt) int dt;{ puth2((dt >> 8) & 0xff); puth2(dt & 0xff); }
 1284              		.loc 1 144 6 is_stmt 1 view .LVU390
 1285              	.LBB168:
 144:../USER/main_03.c **** void puth4(dt) int dt;{ puth2((dt >> 8) & 0xff); puth2(dt & 0xff); }
 1286              		.loc 1 144 25 view .LVU391
 1287              	.LBB165:
 1288              	.LBI162:
 143:../USER/main_03.c **** void puth2(dt) int dt;{ puth((dt >> 4) & 0xf); puth(dt & 0xf); }
 1289              		.loc 1 143 6 view .LVU392
 1290              	.LBB164:
 143:../USER/main_03.c **** void puth2(dt) int dt;{ puth((dt >> 4) & 0xf); puth(dt & 0xf); }
 1291              		.loc 1 143 24 view .LVU393
 143:../USER/main_03.c **** void puth2(dt) int dt;{ puth((dt >> 4) & 0xf); puth(dt & 0xf); }
 1292              		.loc 1 143 34 view .LVU394
 143:../USER/main_03.c **** void puth2(dt) int dt;{ puth((dt >> 4) & 0xf); puth(dt & 0xf); }
 1293              		.loc 1 143 55 view .LVU395
 1294 0014 FFF7FEFF 		bl	putch_uart
 1295              	.LVL74:
 143:../USER/main_03.c **** void puth2(dt) int dt;{ puth((dt >> 4) & 0xf); puth(dt & 0xf); }
 1296              		.loc 1 143 55 is_stmt 0 view .LVU396
 1297              	.LBE164:
 1298              	.LBE165:
 144:../USER/main_03.c **** void puth4(dt) int dt;{ puth2((dt >> 8) & 0xff); puth2(dt & 0xff); }
 1299              		.loc 1 144 48 is_stmt 1 view .LVU397
 1300 0018 05F00F03 		and	r3, r5, #15
 1301              	.LVL75:
 1302              	.LBB166:
 1303              	.LBI166:
 143:../USER/main_03.c **** void puth2(dt) int dt;{ puth((dt >> 4) & 0xf); puth(dt & 0xf); }
 1304              		.loc 1 143 6 view .LVU398
 1305              	.LBB167:
 143:../USER/main_03.c **** void puth2(dt) int dt;{ puth((dt >> 4) & 0xf); puth(dt & 0xf); }
 1306              		.loc 1 143 24 view .LVU399
 143:../USER/main_03.c **** void puth2(dt) int dt;{ puth((dt >> 4) & 0xf); puth(dt & 0xf); }
 1307              		.loc 1 143 34 view .LVU400
 143:../USER/main_03.c **** void puth2(dt) int dt;{ puth((dt >> 4) & 0xf); puth(dt & 0xf); }
 1308              		.loc 1 143 55 view .LVU401
 1309 001c D8B2     		uxtb	r0, r3
 143:../USER/main_03.c **** void puth2(dt) int dt;{ puth((dt >> 4) & 0xf); puth(dt & 0xf); }
 1310              		.loc 1 143 26 is_stmt 0 view .LVU402
 1311 001e 092B     		cmp	r3, #9
 143:../USER/main_03.c **** void puth2(dt) int dt;{ puth((dt >> 4) & 0xf); puth(dt & 0xf); }
 1312              		.loc 1 143 34 view .LVU403
 1313 0020 D4BF     		ite	le
 1314 0022 3030     		addle	r0, r0, #48
 143:../USER/main_03.c **** void puth2(dt) int dt;{ puth((dt >> 4) & 0xf); puth(dt & 0xf); }
 1315              		.loc 1 143 55 view .LVU404
 1316 0024 3730     		addgt	r0, r0, #55
 1317 0026 FFF7FEFF 		bl	putch_uart
 1318              	.LVL76:
 143:../USER/main_03.c **** void puth2(dt) int dt;{ puth((dt >> 4) & 0xf); puth(dt & 0xf); }
 1319              		.loc 1 143 55 view .LVU405
 1320              	.LBE167:
 1321              	.LBE166:
 1322              	.LBE168:
 1323              	.LBE169:
 145:../USER/main_03.c **** void puth6(dt) long dt;{ int dh,dl; dh = dt >> 16; dl = dt & 0xffff; puth2(dh); puth4(dl); }
 1324              		.loc 1 145 50 is_stmt 1 view .LVU406
 1325              	.LBB170:
 1326              	.LBI170:
 144:../USER/main_03.c **** void puth4(dt) int dt;{ puth2((dt >> 8) & 0xff); puth2(dt & 0xff); }
 1327              		.loc 1 144 6 view .LVU407
 1328              	.LBB171:
 144:../USER/main_03.c **** void puth4(dt) int dt;{ puth2((dt >> 8) & 0xff); puth2(dt & 0xff); }
 1329              		.loc 1 144 25 view .LVU408
 144:../USER/main_03.c **** void puth4(dt) int dt;{ puth2((dt >> 8) & 0xff); puth2(dt & 0xff); }
 1330              		.loc 1 144 34 is_stmt 0 view .LVU409
 1331 002a C4F30313 		ubfx	r3, r4, #4, #4
 1332              	.LVL77:
 1333              	.LBB172:
 1334              	.LBI172:
 143:../USER/main_03.c **** void puth2(dt) int dt;{ puth((dt >> 4) & 0xf); puth(dt & 0xf); }
 1335              		.loc 1 143 6 is_stmt 1 view .LVU410
 1336              	.LBB173:
 143:../USER/main_03.c **** void puth2(dt) int dt;{ puth((dt >> 4) & 0xf); puth(dt & 0xf); }
 1337              		.loc 1 143 24 view .LVU411
 143:../USER/main_03.c **** void puth2(dt) int dt;{ puth((dt >> 4) & 0xf); puth(dt & 0xf); }
 1338              		.loc 1 143 34 view .LVU412
 143:../USER/main_03.c **** void puth2(dt) int dt;{ puth((dt >> 4) & 0xf); puth(dt & 0xf); }
 1339              		.loc 1 143 55 view .LVU413
 1340 002e D8B2     		uxtb	r0, r3
 143:../USER/main_03.c **** void puth2(dt) int dt;{ puth((dt >> 4) & 0xf); puth(dt & 0xf); }
 1341              		.loc 1 143 26 is_stmt 0 view .LVU414
 1342 0030 092B     		cmp	r3, #9
 143:../USER/main_03.c **** void puth2(dt) int dt;{ puth((dt >> 4) & 0xf); puth(dt & 0xf); }
 1343              		.loc 1 143 34 view .LVU415
 1344 0032 D4BF     		ite	le
 1345 0034 3030     		addle	r0, r0, #48
 143:../USER/main_03.c **** void puth2(dt) int dt;{ puth((dt >> 4) & 0xf); puth(dt & 0xf); }
 1346              		.loc 1 143 55 view .LVU416
 1347 0036 3730     		addgt	r0, r0, #55
 1348              	.LBE173:
 1349              	.LBE172:
 144:../USER/main_03.c **** void puth4(dt) int dt;{ puth2((dt >> 8) & 0xff); puth2(dt & 0xff); }
 1350              		.loc 1 144 48 view .LVU417
 1351 0038 04F00F04 		and	r4, r4, #15
 1352              	.LVL78:
 1353              	.LBB175:
 1354              	.LBB174:
 143:../USER/main_03.c **** void puth2(dt) int dt;{ puth((dt >> 4) & 0xf); puth(dt & 0xf); }
 1355              		.loc 1 143 55 view .LVU418
 1356 003c FFF7FEFF 		bl	putch_uart
 1357              	.LVL79:
 143:../USER/main_03.c **** void puth2(dt) int dt;{ puth((dt >> 4) & 0xf); puth(dt & 0xf); }
 1358              		.loc 1 143 55 view .LVU419
 1359              	.LBE174:
 1360              	.LBE175:
 144:../USER/main_03.c **** void puth4(dt) int dt;{ puth2((dt >> 8) & 0xff); puth2(dt & 0xff); }
 1361              		.loc 1 144 48 is_stmt 1 view .LVU420
 1362              	.LBB176:
 1363              	.LBI176:
 143:../USER/main_03.c **** void puth2(dt) int dt;{ puth((dt >> 4) & 0xf); puth(dt & 0xf); }
 1364              		.loc 1 143 6 view .LVU421
 1365              	.LBB177:
 143:../USER/main_03.c **** void puth2(dt) int dt;{ puth((dt >> 4) & 0xf); puth(dt & 0xf); }
 1366              		.loc 1 143 24 view .LVU422
 143:../USER/main_03.c **** void puth2(dt) int dt;{ puth((dt >> 4) & 0xf); puth(dt & 0xf); }
 1367              		.loc 1 143 26 is_stmt 0 view .LVU423
 1368 0040 092C     		cmp	r4, #9
 1369 0042 E0B2     		uxtb	r0, r4
 1370 0044 04DC     		bgt	.L136
 143:../USER/main_03.c **** void puth2(dt) int dt;{ puth((dt >> 4) & 0xf); puth(dt & 0xf); }
 1371              		.loc 1 143 34 is_stmt 1 view .LVU424
 1372              	.LBE177:
 1373              	.LBE176:
 1374              	.LBE171:
 1375              	.LBE170:
 145:../USER/main_03.c **** void puth6(dt) long dt;{ int dh,dl; dh = dt >> 16; dl = dt & 0xffff; puth2(dh); puth4(dl); }
 1376              		.loc 1 145 1 is_stmt 0 view .LVU425
 1377 0046 BDE83840 		pop	{r3, r4, r5, lr}
 1378              		.cfi_remember_state
 1379              		.cfi_restore 14
 1380              		.cfi_restore 5
 1381              		.cfi_restore 4
 1382              		.cfi_restore 3
 1383              		.cfi_def_cfa_offset 0
 1384              	.LVL80:
 1385              	.LBB184:
 1386              	.LBB182:
 1387              	.LBB180:
 1388              	.LBB178:
 143:../USER/main_03.c **** void puth2(dt) int dt;{ puth((dt >> 4) & 0xf); puth(dt & 0xf); }
 1389              		.loc 1 143 34 view .LVU426
 1390 004a 3030     		adds	r0, r0, #48
 1391 004c FFF7FEBF 		b	putch_uart
 1392              	.LVL81:
 1393              	.L136:
 1394              		.cfi_restore_state
 143:../USER/main_03.c **** void puth2(dt) int dt;{ puth((dt >> 4) & 0xf); puth(dt & 0xf); }
 1395              		.loc 1 143 55 is_stmt 1 view .LVU427
 1396 0050 3730     		adds	r0, r0, #55
 1397              	.LBE178:
 1398              	.LBE180:
 1399              	.LBE182:
 1400              	.LBE184:
 145:../USER/main_03.c **** void puth6(dt) long dt;{ int dh,dl; dh = dt >> 16; dl = dt & 0xffff; puth2(dh); puth4(dl); }
 1401              		.loc 1 145 1 is_stmt 0 view .LVU428
 1402 0052 BDE83840 		pop	{r3, r4, r5, lr}
 1403              		.cfi_restore 14
 1404              		.cfi_restore 5
 1405              		.cfi_restore 4
 1406              		.cfi_restore 3
 1407              		.cfi_def_cfa_offset 0
 1408              	.LVL82:
 1409              	.LBB185:
 1410              	.LBB183:
 1411              	.LBB181:
 1412              	.LBB179:
 143:../USER/main_03.c **** void puth2(dt) int dt;{ puth((dt >> 4) & 0xf); puth(dt & 0xf); }
 1413              		.loc 1 143 55 view .LVU429
 1414 0056 FFF7FEBF 		b	putch_uart
 1415              	.LVL83:
 1416              	.LBE179:
 1417              	.LBE181:
 1418              	.LBE183:
 1419              	.LBE185:
 1420              		.cfi_endproc
 1421              	.LFE43:
 1423 005a 00BF     		.section	.text.puth6,"ax",%progbits
 1424              		.align	1
 1425              		.p2align 2,,3
 1426              		.global	puth6
 1427              		.syntax unified
 1428              		.thumb
 1429              		.thumb_func
 1430              		.fpu softvfp
 1432              	puth6:
 1433              	.LVL84:
 1434              	.LFB44:
 146:../USER/main_03.c **** void puth8(dt) long dt;{ int dh,dl; dh = dt >> 16; dl = dt & 0xffff; puth4(dh); puth4(dl); }
 1435              		.loc 1 146 24 is_stmt 1 view -0
 1436              		.cfi_startproc
 1437              		@ args = 0, pretend = 0, frame = 0
 1438              		@ frame_needed = 0, uses_anonymous_args = 0
 146:../USER/main_03.c **** void puth8(dt) long dt;{ int dh,dl; dh = dt >> 16; dl = dt & 0xffff; puth4(dh); puth4(dl); }
 1439              		.loc 1 146 26 view .LVU431
 146:../USER/main_03.c **** void puth8(dt) long dt;{ int dh,dl; dh = dt >> 16; dl = dt & 0xffff; puth4(dh); puth4(dl); }
 1440              		.loc 1 146 37 view .LVU432
 146:../USER/main_03.c **** void puth8(dt) long dt;{ int dh,dl; dh = dt >> 16; dl = dt & 0xffff; puth4(dh); puth4(dl); }
 1441              		.loc 1 146 24 is_stmt 0 view .LVU433
 1442 0000 70B5     		push	{r4, r5, r6, lr}
 1443              		.cfi_def_cfa_offset 16
 1444              		.cfi_offset 4, -16
 1445              		.cfi_offset 5, -12
 1446              		.cfi_offset 6, -8
 1447              		.cfi_offset 14, -4
 146:../USER/main_03.c **** void puth8(dt) long dt;{ int dh,dl; dh = dt >> 16; dl = dt & 0xffff; puth4(dh); puth4(dl); }
 1448              		.loc 1 146 24 view .LVU434
 1449 0002 0446     		mov	r4, r0
 1450              	.LBB206:
 1451              	.LBB207:
 144:../USER/main_03.c **** void puth4(dt) int dt;{ puth2((dt >> 8) & 0xff); puth2(dt & 0xff); }
 1452              		.loc 1 144 25 view .LVU435
 1453 0004 C0F30353 		ubfx	r3, r0, #20, #4
 1454 0008 D8B2     		uxtb	r0, r3
 1455              	.LVL85:
 1456              	.LBB208:
 1457              	.LBB209:
 143:../USER/main_03.c **** void puth2(dt) int dt;{ puth((dt >> 4) & 0xf); puth(dt & 0xf); }
 1458              		.loc 1 143 26 view .LVU436
 1459 000a 092B     		cmp	r3, #9
 143:../USER/main_03.c **** void puth2(dt) int dt;{ puth((dt >> 4) & 0xf); puth(dt & 0xf); }
 1460              		.loc 1 143 34 view .LVU437
 1461 000c D4BF     		ite	le
 1462 000e 3030     		addle	r0, r0, #48
 143:../USER/main_03.c **** void puth2(dt) int dt;{ puth((dt >> 4) & 0xf); puth(dt & 0xf); }
 1463              		.loc 1 143 55 view .LVU438
 1464 0010 3730     		addgt	r0, r0, #55
 1465              	.LBE209:
 1466              	.LBE208:
 1467              	.LBE207:
 1468              	.LBE206:
 146:../USER/main_03.c **** void puth8(dt) long dt;{ int dh,dl; dh = dt >> 16; dl = dt & 0xffff; puth4(dh); puth4(dl); }
 1469              		.loc 1 146 40 view .LVU439
 1470 0012 2614     		asrs	r6, r4, #16
 1471              	.LVL86:
 146:../USER/main_03.c **** void puth8(dt) long dt;{ int dh,dl; dh = dt >> 16; dl = dt & 0xffff; puth4(dh); puth4(dl); }
 1472              		.loc 1 146 52 is_stmt 1 view .LVU440
 1473              	.LBB220:
 1474              	.LBB218:
 1475              	.LBB212:
 1476              	.LBB210:
 143:../USER/main_03.c **** void puth2(dt) int dt;{ puth((dt >> 4) & 0xf); puth(dt & 0xf); }
 1477              		.loc 1 143 55 is_stmt 0 view .LVU441
 1478 0014 FFF7FEFF 		bl	putch_uart
 1479              	.LVL87:
 1480              	.LBE210:
 1481              	.LBE212:
 144:../USER/main_03.c **** void puth4(dt) int dt;{ puth2((dt >> 8) & 0xff); puth2(dt & 0xff); }
 1482              		.loc 1 144 48 view .LVU442
 1483 0018 06F00F03 		and	r3, r6, #15
 1484 001c D8B2     		uxtb	r0, r3
 1485              	.LBB213:
 1486              	.LBB214:
 143:../USER/main_03.c **** void puth2(dt) int dt;{ puth((dt >> 4) & 0xf); puth(dt & 0xf); }
 1487              		.loc 1 143 26 view .LVU443
 1488 001e 092B     		cmp	r3, #9
 1489              	.LBE214:
 1490              	.LBE213:
 1491              	.LBE218:
 1492              	.LBE220:
 146:../USER/main_03.c **** void puth8(dt) long dt;{ int dh,dl; dh = dt >> 16; dl = dt & 0xffff; puth4(dh); puth4(dl); }
 1493              		.loc 1 146 55 view .LVU444
 1494 0020 A5B2     		uxth	r5, r4
 1495              	.LVL88:
 146:../USER/main_03.c **** void puth8(dt) long dt;{ int dh,dl; dh = dt >> 16; dl = dt & 0xffff; puth4(dh); puth4(dl); }
 1496              		.loc 1 146 70 is_stmt 1 view .LVU445
 1497              	.LBB221:
 1498              	.LBI206:
 144:../USER/main_03.c **** void puth4(dt) int dt;{ puth2((dt >> 8) & 0xff); puth2(dt & 0xff); }
 1499              		.loc 1 144 6 view .LVU446
 1500              	.LBB219:
 144:../USER/main_03.c **** void puth4(dt) int dt;{ puth2((dt >> 8) & 0xff); puth2(dt & 0xff); }
 1501              		.loc 1 144 25 view .LVU447
 1502              	.LBB216:
 1503              	.LBI208:
 143:../USER/main_03.c **** void puth2(dt) int dt;{ puth((dt >> 4) & 0xf); puth(dt & 0xf); }
 1504              		.loc 1 143 6 view .LVU448
 1505              	.LBB211:
 143:../USER/main_03.c **** void puth2(dt) int dt;{ puth((dt >> 4) & 0xf); puth(dt & 0xf); }
 1506              		.loc 1 143 24 view .LVU449
 143:../USER/main_03.c **** void puth2(dt) int dt;{ puth((dt >> 4) & 0xf); puth(dt & 0xf); }
 1507              		.loc 1 143 34 view .LVU450
 143:../USER/main_03.c **** void puth2(dt) int dt;{ puth((dt >> 4) & 0xf); puth(dt & 0xf); }
 1508              		.loc 1 143 55 view .LVU451
 1509              	.LBE211:
 1510              	.LBE216:
 144:../USER/main_03.c **** void puth4(dt) int dt;{ puth2((dt >> 8) & 0xff); puth2(dt & 0xff); }
 1511              		.loc 1 144 48 view .LVU452
 1512              	.LBB217:
 1513              	.LBI213:
 143:../USER/main_03.c **** void puth2(dt) int dt;{ puth((dt >> 4) & 0xf); puth(dt & 0xf); }
 1514              		.loc 1 143 6 view .LVU453
 1515              	.LBB215:
 143:../USER/main_03.c **** void puth2(dt) int dt;{ puth((dt >> 4) & 0xf); puth(dt & 0xf); }
 1516              		.loc 1 143 24 view .LVU454
 143:../USER/main_03.c **** void puth2(dt) int dt;{ puth((dt >> 4) & 0xf); puth(dt & 0xf); }
 1517              		.loc 1 143 34 view .LVU455
 143:../USER/main_03.c **** void puth2(dt) int dt;{ puth((dt >> 4) & 0xf); puth(dt & 0xf); }
 1518              		.loc 1 143 55 view .LVU456
 143:../USER/main_03.c **** void puth2(dt) int dt;{ puth((dt >> 4) & 0xf); puth(dt & 0xf); }
 1519              		.loc 1 143 34 is_stmt 0 view .LVU457
 1520 0022 D4BF     		ite	le
 1521 0024 3030     		addle	r0, r0, #48
 143:../USER/main_03.c **** void puth2(dt) int dt;{ puth((dt >> 4) & 0xf); puth(dt & 0xf); }
 1522              		.loc 1 143 55 view .LVU458
 1523 0026 3730     		addgt	r0, r0, #55
 1524 0028 FFF7FEFF 		bl	putch_uart
 1525              	.LVL89:
 143:../USER/main_03.c **** void puth2(dt) int dt;{ puth((dt >> 4) & 0xf); puth(dt & 0xf); }
 1526              		.loc 1 143 55 view .LVU459
 1527              	.LBE215:
 1528              	.LBE217:
 1529              	.LBE219:
 1530              	.LBE221:
 146:../USER/main_03.c **** void puth8(dt) long dt;{ int dh,dl; dh = dt >> 16; dl = dt & 0xffff; puth4(dh); puth4(dl); }
 1531              		.loc 1 146 81 is_stmt 1 view .LVU460
 1532              	.LBB222:
 1533              	.LBI222:
 145:../USER/main_03.c **** void puth6(dt) long dt;{ int dh,dl; dh = dt >> 16; dl = dt & 0xffff; puth2(dh); puth4(dl); }
 1534              		.loc 1 145 6 view .LVU461
 1535              	.LBB223:
 145:../USER/main_03.c **** void puth6(dt) long dt;{ int dh,dl; dh = dt >> 16; dl = dt & 0xffff; puth2(dh); puth4(dl); }
 1536              		.loc 1 145 25 view .LVU462
 1537              	.LBB224:
 1538              	.LBB225:
 144:../USER/main_03.c **** void puth4(dt) int dt;{ puth2((dt >> 8) & 0xff); puth2(dt & 0xff); }
 1539              		.loc 1 144 34 is_stmt 0 view .LVU463
 1540 002c 2B13     		asrs	r3, r5, #12
 1541 002e D8B2     		uxtb	r0, r3
 1542              	.LBB226:
 1543              	.LBB227:
 143:../USER/main_03.c **** void puth2(dt) int dt;{ puth((dt >> 4) & 0xf); puth(dt & 0xf); }
 1544              		.loc 1 143 26 view .LVU464
 1545 0030 092B     		cmp	r3, #9
 1546              	.LBE227:
 1547              	.LBE226:
 1548              	.LBE225:
 1549              	.LBE224:
 145:../USER/main_03.c **** void puth6(dt) long dt;{ int dh,dl; dh = dt >> 16; dl = dt & 0xffff; puth2(dh); puth4(dl); }
 1550              		.loc 1 145 35 view .LVU465
 1551 0032 4FEA2525 		asr	r5, r5, #8
 1552              	.LVL90:
 1553              	.LBB235:
 1554              	.LBI224:
 144:../USER/main_03.c **** void puth4(dt) int dt;{ puth2((dt >> 8) & 0xff); puth2(dt & 0xff); }
 1555              		.loc 1 144 6 is_stmt 1 view .LVU466
 1556              	.LBB234:
 144:../USER/main_03.c **** void puth4(dt) int dt;{ puth2((dt >> 8) & 0xff); puth2(dt & 0xff); }
 1557              		.loc 1 144 25 view .LVU467
 1558              	.LBB230:
 1559              	.LBI226:
 143:../USER/main_03.c **** void puth2(dt) int dt;{ puth((dt >> 4) & 0xf); puth(dt & 0xf); }
 1560              		.loc 1 143 6 view .LVU468
 1561              	.LBB228:
 143:../USER/main_03.c **** void puth2(dt) int dt;{ puth((dt >> 4) & 0xf); puth(dt & 0xf); }
 1562              		.loc 1 143 24 view .LVU469
 143:../USER/main_03.c **** void puth2(dt) int dt;{ puth((dt >> 4) & 0xf); puth(dt & 0xf); }
 1563              		.loc 1 143 34 view .LVU470
 143:../USER/main_03.c **** void puth2(dt) int dt;{ puth((dt >> 4) & 0xf); puth(dt & 0xf); }
 1564              		.loc 1 143 55 view .LVU471
 143:../USER/main_03.c **** void puth2(dt) int dt;{ puth((dt >> 4) & 0xf); puth(dt & 0xf); }
 1565              		.loc 1 143 34 is_stmt 0 view .LVU472
 1566 0036 D4BF     		ite	le
 1567 0038 3030     		addle	r0, r0, #48
 143:../USER/main_03.c **** void puth2(dt) int dt;{ puth((dt >> 4) & 0xf); puth(dt & 0xf); }
 1568              		.loc 1 143 55 view .LVU473
 1569 003a 3730     		addgt	r0, r0, #55
 1570              	.LBE228:
 1571              	.LBE230:
 144:../USER/main_03.c **** void puth4(dt) int dt;{ puth2((dt >> 8) & 0xff); puth2(dt & 0xff); }
 1572              		.loc 1 144 48 view .LVU474
 1573 003c 05F00F05 		and	r5, r5, #15
 1574              	.LVL91:
 1575              	.LBB231:
 1576              	.LBB229:
 143:../USER/main_03.c **** void puth2(dt) int dt;{ puth((dt >> 4) & 0xf); puth(dt & 0xf); }
 1577              		.loc 1 143 55 view .LVU475
 1578 0040 FFF7FEFF 		bl	putch_uart
 1579              	.LVL92:
 143:../USER/main_03.c **** void puth2(dt) int dt;{ puth((dt >> 4) & 0xf); puth(dt & 0xf); }
 1580              		.loc 1 143 55 view .LVU476
 1581              	.LBE229:
 1582              	.LBE231:
 144:../USER/main_03.c **** void puth4(dt) int dt;{ puth2((dt >> 8) & 0xff); puth2(dt & 0xff); }
 1583              		.loc 1 144 48 is_stmt 1 view .LVU477
 1584              	.LBB232:
 1585              	.LBI232:
 143:../USER/main_03.c **** void puth2(dt) int dt;{ puth((dt >> 4) & 0xf); puth(dt & 0xf); }
 1586              		.loc 1 143 6 view .LVU478
 1587              	.LBB233:
 143:../USER/main_03.c **** void puth2(dt) int dt;{ puth((dt >> 4) & 0xf); puth(dt & 0xf); }
 1588              		.loc 1 143 24 view .LVU479
 143:../USER/main_03.c **** void puth2(dt) int dt;{ puth((dt >> 4) & 0xf); puth(dt & 0xf); }
 1589              		.loc 1 143 34 view .LVU480
 143:../USER/main_03.c **** void puth2(dt) int dt;{ puth((dt >> 4) & 0xf); puth(dt & 0xf); }
 1590              		.loc 1 143 55 view .LVU481
 1591 0044 E8B2     		uxtb	r0, r5
 143:../USER/main_03.c **** void puth2(dt) int dt;{ puth((dt >> 4) & 0xf); puth(dt & 0xf); }
 1592              		.loc 1 143 26 is_stmt 0 view .LVU482
 1593 0046 092D     		cmp	r5, #9
 143:../USER/main_03.c **** void puth2(dt) int dt;{ puth((dt >> 4) & 0xf); puth(dt & 0xf); }
 1594              		.loc 1 143 34 view .LVU483
 1595 0048 D4BF     		ite	le
 1596 004a 3030     		addle	r0, r0, #48
 143:../USER/main_03.c **** void puth2(dt) int dt;{ puth((dt >> 4) & 0xf); puth(dt & 0xf); }
 1597              		.loc 1 143 55 view .LVU484
 1598 004c 3730     		addgt	r0, r0, #55
 1599 004e FFF7FEFF 		bl	putch_uart
 1600              	.LVL93:
 143:../USER/main_03.c **** void puth2(dt) int dt;{ puth((dt >> 4) & 0xf); puth(dt & 0xf); }
 1601              		.loc 1 143 55 view .LVU485
 1602              	.LBE233:
 1603              	.LBE232:
 1604              	.LBE234:
 1605              	.LBE235:
 145:../USER/main_03.c **** void puth6(dt) long dt;{ int dh,dl; dh = dt >> 16; dl = dt & 0xffff; puth2(dh); puth4(dl); }
 1606              		.loc 1 145 50 is_stmt 1 view .LVU486
 1607              	.LBB236:
 1608              	.LBI236:
 144:../USER/main_03.c **** void puth4(dt) int dt;{ puth2((dt >> 8) & 0xff); puth2(dt & 0xff); }
 1609              		.loc 1 144 6 view .LVU487
 1610              	.LBB237:
 144:../USER/main_03.c **** void puth4(dt) int dt;{ puth2((dt >> 8) & 0xff); puth2(dt & 0xff); }
 1611              		.loc 1 144 25 view .LVU488
 144:../USER/main_03.c **** void puth4(dt) int dt;{ puth2((dt >> 8) & 0xff); puth2(dt & 0xff); }
 1612              		.loc 1 144 34 is_stmt 0 view .LVU489
 1613 0052 C4F30313 		ubfx	r3, r4, #4, #4
 1614              	.LVL94:
 1615              	.LBB238:
 1616              	.LBI238:
 143:../USER/main_03.c **** void puth2(dt) int dt;{ puth((dt >> 4) & 0xf); puth(dt & 0xf); }
 1617              		.loc 1 143 6 is_stmt 1 view .LVU490
 1618              	.LBB239:
 143:../USER/main_03.c **** void puth2(dt) int dt;{ puth((dt >> 4) & 0xf); puth(dt & 0xf); }
 1619              		.loc 1 143 24 view .LVU491
 143:../USER/main_03.c **** void puth2(dt) int dt;{ puth((dt >> 4) & 0xf); puth(dt & 0xf); }
 1620              		.loc 1 143 34 view .LVU492
 143:../USER/main_03.c **** void puth2(dt) int dt;{ puth((dt >> 4) & 0xf); puth(dt & 0xf); }
 1621              		.loc 1 143 55 view .LVU493
 1622 0056 D8B2     		uxtb	r0, r3
 143:../USER/main_03.c **** void puth2(dt) int dt;{ puth((dt >> 4) & 0xf); puth(dt & 0xf); }
 1623              		.loc 1 143 26 is_stmt 0 view .LVU494
 1624 0058 092B     		cmp	r3, #9
 143:../USER/main_03.c **** void puth2(dt) int dt;{ puth((dt >> 4) & 0xf); puth(dt & 0xf); }
 1625              		.loc 1 143 34 view .LVU495
 1626 005a D4BF     		ite	le
 1627 005c 3030     		addle	r0, r0, #48
 143:../USER/main_03.c **** void puth2(dt) int dt;{ puth((dt >> 4) & 0xf); puth(dt & 0xf); }
 1628              		.loc 1 143 55 view .LVU496
 1629 005e 3730     		addgt	r0, r0, #55
 1630              	.LBE239:
 1631              	.LBE238:
 144:../USER/main_03.c **** void puth4(dt) int dt;{ puth2((dt >> 8) & 0xff); puth2(dt & 0xff); }
 1632              		.loc 1 144 48 view .LVU497
 1633 0060 04F00F04 		and	r4, r4, #15
 1634              	.LVL95:
 1635              	.LBB241:
 1636              	.LBB240:
 143:../USER/main_03.c **** void puth2(dt) int dt;{ puth((dt >> 4) & 0xf); puth(dt & 0xf); }
 1637              		.loc 1 143 55 view .LVU498
 1638 0064 FFF7FEFF 		bl	putch_uart
 1639              	.LVL96:
 143:../USER/main_03.c **** void puth2(dt) int dt;{ puth((dt >> 4) & 0xf); puth(dt & 0xf); }
 1640              		.loc 1 143 55 view .LVU499
 1641              	.LBE240:
 1642              	.LBE241:
 144:../USER/main_03.c **** void puth4(dt) int dt;{ puth2((dt >> 8) & 0xff); puth2(dt & 0xff); }
 1643              		.loc 1 144 48 is_stmt 1 view .LVU500
 1644              	.LBB242:
 1645              	.LBI242:
 143:../USER/main_03.c **** void puth2(dt) int dt;{ puth((dt >> 4) & 0xf); puth(dt & 0xf); }
 1646              		.loc 1 143 6 view .LVU501
 1647              	.LBB243:
 143:../USER/main_03.c **** void puth2(dt) int dt;{ puth((dt >> 4) & 0xf); puth(dt & 0xf); }
 1648              		.loc 1 143 24 view .LVU502
 143:../USER/main_03.c **** void puth2(dt) int dt;{ puth((dt >> 4) & 0xf); puth(dt & 0xf); }
 1649              		.loc 1 143 26 is_stmt 0 view .LVU503
 1650 0068 092C     		cmp	r4, #9
 1651 006a E0B2     		uxtb	r0, r4
 1652 006c 04DC     		bgt	.L149
 143:../USER/main_03.c **** void puth2(dt) int dt;{ puth((dt >> 4) & 0xf); puth(dt & 0xf); }
 1653              		.loc 1 143 34 is_stmt 1 view .LVU504
 1654              	.LBE243:
 1655              	.LBE242:
 1656              	.LBE237:
 1657              	.LBE236:
 1658              	.LBE223:
 1659              	.LBE222:
 146:../USER/main_03.c **** void puth8(dt) long dt;{ int dh,dl; dh = dt >> 16; dl = dt & 0xffff; puth4(dh); puth4(dl); }
 1660              		.loc 1 146 1 is_stmt 0 view .LVU505
 1661 006e BDE87040 		pop	{r4, r5, r6, lr}
 1662              		.cfi_remember_state
 1663              		.cfi_restore 14
 1664              		.cfi_restore 6
 1665              		.cfi_restore 5
 1666              		.cfi_restore 4
 1667              		.cfi_def_cfa_offset 0
 1668              	.LVL97:
 1669              	.LBB254:
 1670              	.LBB252:
 1671              	.LBB250:
 1672              	.LBB248:
 1673              	.LBB246:
 1674              	.LBB244:
 143:../USER/main_03.c **** void puth2(dt) int dt;{ puth((dt >> 4) & 0xf); puth(dt & 0xf); }
 1675              		.loc 1 143 34 view .LVU506
 1676 0072 3030     		adds	r0, r0, #48
 1677 0074 FFF7FEBF 		b	putch_uart
 1678              	.LVL98:
 1679              	.L149:
 1680              		.cfi_restore_state
 143:../USER/main_03.c **** void puth2(dt) int dt;{ puth((dt >> 4) & 0xf); puth(dt & 0xf); }
 1681              		.loc 1 143 55 is_stmt 1 view .LVU507
 1682 0078 3730     		adds	r0, r0, #55
 1683              	.LBE244:
 1684              	.LBE246:
 1685              	.LBE248:
 1686              	.LBE250:
 1687              	.LBE252:
 1688              	.LBE254:
 146:../USER/main_03.c **** void puth8(dt) long dt;{ int dh,dl; dh = dt >> 16; dl = dt & 0xffff; puth4(dh); puth4(dl); }
 1689              		.loc 1 146 1 is_stmt 0 view .LVU508
 1690 007a BDE87040 		pop	{r4, r5, r6, lr}
 1691              		.cfi_restore 14
 1692              		.cfi_restore 6
 1693              		.cfi_restore 5
 1694              		.cfi_restore 4
 1695              		.cfi_def_cfa_offset 0
 1696              	.LVL99:
 1697              	.LBB255:
 1698              	.LBB253:
 1699              	.LBB251:
 1700              	.LBB249:
 1701              	.LBB247:
 1702              	.LBB245:
 143:../USER/main_03.c **** void puth2(dt) int dt;{ puth((dt >> 4) & 0xf); puth(dt & 0xf); }
 1703              		.loc 1 143 55 view .LVU509
 1704 007e FFF7FEBF 		b	putch_uart
 1705              	.LVL100:
 1706              	.LBE245:
 1707              	.LBE247:
 1708              	.LBE249:
 1709              	.LBE251:
 1710              	.LBE253:
 1711              	.LBE255:
 1712              		.cfi_endproc
 1713              	.LFE44:
 1715 0082 00BF     		.section	.text.puth8,"ax",%progbits
 1716              		.align	1
 1717              		.p2align 2,,3
 1718              		.global	puth8
 1719              		.syntax unified
 1720              		.thumb
 1721              		.thumb_func
 1722              		.fpu softvfp
 1724              	puth8:
 1725              	.LVL101:
 1726              	.LFB45:
 147:../USER/main_03.c **** void putsuart(char *buf){
 1727              		.loc 1 147 24 is_stmt 1 view -0
 1728              		.cfi_startproc
 1729              		@ args = 0, pretend = 0, frame = 0
 1730              		@ frame_needed = 0, uses_anonymous_args = 0
 147:../USER/main_03.c **** void putsuart(char *buf){
 1731              		.loc 1 147 26 view .LVU511
 147:../USER/main_03.c **** void putsuart(char *buf){
 1732              		.loc 1 147 37 view .LVU512
 147:../USER/main_03.c **** void putsuart(char *buf){
 1733              		.loc 1 147 24 is_stmt 0 view .LVU513
 1734 0000 F8B5     		push	{r3, r4, r5, r6, r7, lr}
 1735              		.cfi_def_cfa_offset 24
 1736              		.cfi_offset 3, -24
 1737              		.cfi_offset 4, -20
 1738              		.cfi_offset 5, -16
 1739              		.cfi_offset 6, -12
 1740              		.cfi_offset 7, -8
 1741              		.cfi_offset 14, -4
 147:../USER/main_03.c **** void putsuart(char *buf){
 1742              		.loc 1 147 24 view .LVU514
 1743 0002 0446     		mov	r4, r0
 1744 0004 060E     		lsrs	r6, r0, #24
 1745              	.LBB284:
 1746              	.LBB285:
 1747              	.LBB286:
 144:../USER/main_03.c **** void puth4(dt) int dt;{ puth2((dt >> 8) & 0xff); puth2(dt & 0xff); }
 1748              		.loc 1 144 34 view .LVU515
 1749 0006 3311     		asrs	r3, r6, #4
 1750 0008 D8B2     		uxtb	r0, r3
 1751              	.LVL102:
 1752              	.LBB287:
 1753              	.LBB288:
 143:../USER/main_03.c **** void puth2(dt) int dt;{ puth((dt >> 4) & 0xf); puth(dt & 0xf); }
 1754              		.loc 1 143 26 view .LVU516
 1755 000a 092B     		cmp	r3, #9
 143:../USER/main_03.c **** void puth2(dt) int dt;{ puth((dt >> 4) & 0xf); puth(dt & 0xf); }
 1756              		.loc 1 143 34 view .LVU517
 1757 000c D4BF     		ite	le
 1758 000e 3030     		addle	r0, r0, #48
 143:../USER/main_03.c **** void puth2(dt) int dt;{ puth((dt >> 4) & 0xf); puth(dt & 0xf); }
 1759              		.loc 1 143 55 view .LVU518
 1760 0010 3730     		addgt	r0, r0, #55
 1761              	.LBE288:
 1762              	.LBE287:
 144:../USER/main_03.c **** void puth4(dt) int dt;{ puth2((dt >> 8) & 0xff); puth2(dt & 0xff); }
 1763              		.loc 1 144 48 view .LVU519
 1764 0012 06F00F06 		and	r6, r6, #15
 1765              	.LBB291:
 1766              	.LBB289:
 143:../USER/main_03.c **** void puth2(dt) int dt;{ puth((dt >> 4) & 0xf); puth(dt & 0xf); }
 1767              		.loc 1 143 55 view .LVU520
 1768 0016 FFF7FEFF 		bl	putch_uart
 1769              	.LVL103:
 1770 001a F0B2     		uxtb	r0, r6
 1771              	.LBE289:
 1772              	.LBE291:
 1773              	.LBB292:
 1774              	.LBB293:
 143:../USER/main_03.c **** void puth2(dt) int dt;{ puth((dt >> 4) & 0xf); puth(dt & 0xf); }
 1775              		.loc 1 143 26 view .LVU521
 1776 001c 092E     		cmp	r6, #9
 143:../USER/main_03.c **** void puth2(dt) int dt;{ puth((dt >> 4) & 0xf); puth(dt & 0xf); }
 1777              		.loc 1 143 34 view .LVU522
 1778 001e D4BF     		ite	le
 1779 0020 3030     		addle	r0, r0, #48
 143:../USER/main_03.c **** void puth2(dt) int dt;{ puth((dt >> 4) & 0xf); puth(dt & 0xf); }
 1780              		.loc 1 143 55 view .LVU523
 1781 0022 3730     		addgt	r0, r0, #55
 1782 0024 FFF7FEFF 		bl	putch_uart
 1783              	.LVL104:
 1784              	.LBE293:
 1785              	.LBE292:
 1786              	.LBE286:
 1787              	.LBE285:
 1788              	.LBB298:
 1789              	.LBB299:
 144:../USER/main_03.c **** void puth4(dt) int dt;{ puth2((dt >> 8) & 0xff); puth2(dt & 0xff); }
 1790              		.loc 1 144 34 view .LVU524
 1791 0028 C4F30353 		ubfx	r3, r4, #20, #4
 1792 002c D8B2     		uxtb	r0, r3
 1793              	.LBB300:
 1794              	.LBB301:
 143:../USER/main_03.c **** void puth2(dt) int dt;{ puth((dt >> 4) & 0xf); puth(dt & 0xf); }
 1795              		.loc 1 143 26 view .LVU525
 1796 002e 092B     		cmp	r3, #9
 143:../USER/main_03.c **** void puth2(dt) int dt;{ puth((dt >> 4) & 0xf); puth(dt & 0xf); }
 1797              		.loc 1 143 34 view .LVU526
 1798 0030 D4BF     		ite	le
 1799 0032 3030     		addle	r0, r0, #48
 143:../USER/main_03.c **** void puth2(dt) int dt;{ puth((dt >> 4) & 0xf); puth(dt & 0xf); }
 1800              		.loc 1 143 55 view .LVU527
 1801 0034 3730     		addgt	r0, r0, #55
 1802              	.LBE301:
 1803              	.LBE300:
 1804              	.LBE299:
 1805              	.LBE298:
 1806              	.LBE284:
 147:../USER/main_03.c **** void putsuart(char *buf){
 1807              		.loc 1 147 40 view .LVU528
 1808 0036 2714     		asrs	r7, r4, #16
 1809              	.LVL105:
 147:../USER/main_03.c **** void putsuart(char *buf){
 1810              		.loc 1 147 52 is_stmt 1 view .LVU529
 1811              	.LBB315:
 1812              	.LBB312:
 1813              	.LBB310:
 1814              	.LBB304:
 1815              	.LBB302:
 143:../USER/main_03.c **** void puth2(dt) int dt;{ puth((dt >> 4) & 0xf); puth(dt & 0xf); }
 1816              		.loc 1 143 55 is_stmt 0 view .LVU530
 1817 0038 FFF7FEFF 		bl	putch_uart
 1818              	.LVL106:
 1819              	.LBE302:
 1820              	.LBE304:
 144:../USER/main_03.c **** void puth4(dt) int dt;{ puth2((dt >> 8) & 0xff); puth2(dt & 0xff); }
 1821              		.loc 1 144 48 view .LVU531
 1822 003c 07F00F03 		and	r3, r7, #15
 1823 0040 D8B2     		uxtb	r0, r3
 1824              	.LBB305:
 1825              	.LBB306:
 143:../USER/main_03.c **** void puth2(dt) int dt;{ puth((dt >> 4) & 0xf); puth(dt & 0xf); }
 1826              		.loc 1 143 26 view .LVU532
 1827 0042 092B     		cmp	r3, #9
 1828              	.LBE306:
 1829              	.LBE305:
 1830              	.LBE310:
 1831              	.LBE312:
 1832              	.LBE315:
 147:../USER/main_03.c **** void putsuart(char *buf){
 1833              		.loc 1 147 55 view .LVU533
 1834 0044 A5B2     		uxth	r5, r4
 1835              	.LVL107:
 147:../USER/main_03.c **** void putsuart(char *buf){
 1836              		.loc 1 147 70 is_stmt 1 view .LVU534
 1837              	.LBB316:
 1838              	.LBI284:
 145:../USER/main_03.c **** void puth6(dt) long dt;{ int dh,dl; dh = dt >> 16; dl = dt & 0xffff; puth2(dh); puth4(dl); }
 1839              		.loc 1 145 6 view .LVU535
 1840              	.LBE316:
 145:../USER/main_03.c **** void puth6(dt) long dt;{ int dh,dl; dh = dt >> 16; dl = dt & 0xffff; puth2(dh); puth4(dl); }
 1841              		.loc 1 145 25 view .LVU536
 1842              	.LBB317:
 1843              	.LBB313:
 1844              	.LBI285:
 144:../USER/main_03.c **** void puth4(dt) int dt;{ puth2((dt >> 8) & 0xff); puth2(dt & 0xff); }
 1845              		.loc 1 144 6 view .LVU537
 1846              	.LBB297:
 144:../USER/main_03.c **** void puth4(dt) int dt;{ puth2((dt >> 8) & 0xff); puth2(dt & 0xff); }
 1847              		.loc 1 144 25 view .LVU538
 1848              	.LBB295:
 1849              	.LBI287:
 143:../USER/main_03.c **** void puth2(dt) int dt;{ puth((dt >> 4) & 0xf); puth(dt & 0xf); }
 1850              		.loc 1 143 6 view .LVU539
 1851              	.LBB290:
 143:../USER/main_03.c **** void puth2(dt) int dt;{ puth((dt >> 4) & 0xf); puth(dt & 0xf); }
 1852              		.loc 1 143 24 view .LVU540
 143:../USER/main_03.c **** void puth2(dt) int dt;{ puth((dt >> 4) & 0xf); puth(dt & 0xf); }
 1853              		.loc 1 143 34 view .LVU541
 143:../USER/main_03.c **** void puth2(dt) int dt;{ puth((dt >> 4) & 0xf); puth(dt & 0xf); }
 1854              		.loc 1 143 55 view .LVU542
 1855              	.LBE290:
 1856              	.LBE295:
 144:../USER/main_03.c **** void puth4(dt) int dt;{ puth2((dt >> 8) & 0xff); puth2(dt & 0xff); }
 1857              		.loc 1 144 48 view .LVU543
 1858              	.LBB296:
 1859              	.LBI292:
 143:../USER/main_03.c **** void puth2(dt) int dt;{ puth((dt >> 4) & 0xf); puth(dt & 0xf); }
 1860              		.loc 1 143 6 view .LVU544
 1861              	.LBB294:
 143:../USER/main_03.c **** void puth2(dt) int dt;{ puth((dt >> 4) & 0xf); puth(dt & 0xf); }
 1862              		.loc 1 143 24 view .LVU545
 143:../USER/main_03.c **** void puth2(dt) int dt;{ puth((dt >> 4) & 0xf); puth(dt & 0xf); }
 1863              		.loc 1 143 34 view .LVU546
 143:../USER/main_03.c **** void puth2(dt) int dt;{ puth((dt >> 4) & 0xf); puth(dt & 0xf); }
 1864              		.loc 1 143 55 view .LVU547
 143:../USER/main_03.c **** void puth2(dt) int dt;{ puth((dt >> 4) & 0xf); puth(dt & 0xf); }
 1865              		.loc 1 143 55 is_stmt 0 view .LVU548
 1866              	.LBE294:
 1867              	.LBE296:
 1868              	.LBE297:
 1869              	.LBE313:
 1870              	.LBE317:
 145:../USER/main_03.c **** void puth6(dt) long dt;{ int dh,dl; dh = dt >> 16; dl = dt & 0xffff; puth2(dh); puth4(dl); }
 1871              		.loc 1 145 50 is_stmt 1 view .LVU549
 1872              	.LBB318:
 1873              	.LBB314:
 1874              	.LBI298:
 144:../USER/main_03.c **** void puth4(dt) int dt;{ puth2((dt >> 8) & 0xff); puth2(dt & 0xff); }
 1875              		.loc 1 144 6 view .LVU550
 1876              	.LBB311:
 144:../USER/main_03.c **** void puth4(dt) int dt;{ puth2((dt >> 8) & 0xff); puth2(dt & 0xff); }
 1877              		.loc 1 144 25 view .LVU551
 1878              	.LBB308:
 1879              	.LBI300:
 143:../USER/main_03.c **** void puth2(dt) int dt;{ puth((dt >> 4) & 0xf); puth(dt & 0xf); }
 1880              		.loc 1 143 6 view .LVU552
 1881              	.LBB303:
 143:../USER/main_03.c **** void puth2(dt) int dt;{ puth((dt >> 4) & 0xf); puth(dt & 0xf); }
 1882              		.loc 1 143 24 view .LVU553
 143:../USER/main_03.c **** void puth2(dt) int dt;{ puth((dt >> 4) & 0xf); puth(dt & 0xf); }
 1883              		.loc 1 143 34 view .LVU554
 143:../USER/main_03.c **** void puth2(dt) int dt;{ puth((dt >> 4) & 0xf); puth(dt & 0xf); }
 1884              		.loc 1 143 55 view .LVU555
 1885              	.LBE303:
 1886              	.LBE308:
 144:../USER/main_03.c **** void puth4(dt) int dt;{ puth2((dt >> 8) & 0xff); puth2(dt & 0xff); }
 1887              		.loc 1 144 48 view .LVU556
 1888              	.LBB309:
 1889              	.LBI305:
 143:../USER/main_03.c **** void puth2(dt) int dt;{ puth((dt >> 4) & 0xf); puth(dt & 0xf); }
 1890              		.loc 1 143 6 view .LVU557
 1891              	.LBB307:
 143:../USER/main_03.c **** void puth2(dt) int dt;{ puth((dt >> 4) & 0xf); puth(dt & 0xf); }
 1892              		.loc 1 143 24 view .LVU558
 143:../USER/main_03.c **** void puth2(dt) int dt;{ puth((dt >> 4) & 0xf); puth(dt & 0xf); }
 1893              		.loc 1 143 34 view .LVU559
 143:../USER/main_03.c **** void puth2(dt) int dt;{ puth((dt >> 4) & 0xf); puth(dt & 0xf); }
 1894              		.loc 1 143 55 view .LVU560
 143:../USER/main_03.c **** void puth2(dt) int dt;{ puth((dt >> 4) & 0xf); puth(dt & 0xf); }
 1895              		.loc 1 143 34 is_stmt 0 view .LVU561
 1896 0046 D4BF     		ite	le
 1897 0048 3030     		addle	r0, r0, #48
 143:../USER/main_03.c **** void puth2(dt) int dt;{ puth((dt >> 4) & 0xf); puth(dt & 0xf); }
 1898              		.loc 1 143 55 view .LVU562
 1899 004a 3730     		addgt	r0, r0, #55
 1900 004c FFF7FEFF 		bl	putch_uart
 1901              	.LVL108:
 143:../USER/main_03.c **** void puth2(dt) int dt;{ puth((dt >> 4) & 0xf); puth(dt & 0xf); }
 1902              		.loc 1 143 55 view .LVU563
 1903              	.LBE307:
 1904              	.LBE309:
 1905              	.LBE311:
 1906              	.LBE314:
 1907              	.LBE318:
 147:../USER/main_03.c **** void putsuart(char *buf){
 1908              		.loc 1 147 81 is_stmt 1 view .LVU564
 1909              	.LBB319:
 1910              	.LBI319:
 145:../USER/main_03.c **** void puth6(dt) long dt;{ int dh,dl; dh = dt >> 16; dl = dt & 0xffff; puth2(dh); puth4(dl); }
 1911              		.loc 1 145 6 view .LVU565
 1912              	.LBB320:
 145:../USER/main_03.c **** void puth6(dt) long dt;{ int dh,dl; dh = dt >> 16; dl = dt & 0xffff; puth2(dh); puth4(dl); }
 1913              		.loc 1 145 25 view .LVU566
 1914              	.LBB321:
 1915              	.LBB322:
 144:../USER/main_03.c **** void puth4(dt) int dt;{ puth2((dt >> 8) & 0xff); puth2(dt & 0xff); }
 1916              		.loc 1 144 34 is_stmt 0 view .LVU567
 1917 0050 2B13     		asrs	r3, r5, #12
 1918 0052 D8B2     		uxtb	r0, r3
 1919              	.LBB323:
 1920              	.LBB324:
 143:../USER/main_03.c **** void puth2(dt) int dt;{ puth((dt >> 4) & 0xf); puth(dt & 0xf); }
 1921              		.loc 1 143 26 view .LVU568
 1922 0054 092B     		cmp	r3, #9
 1923              	.LBE324:
 1924              	.LBE323:
 1925              	.LBE322:
 1926              	.LBE321:
 145:../USER/main_03.c **** void puth6(dt) long dt;{ int dh,dl; dh = dt >> 16; dl = dt & 0xffff; puth2(dh); puth4(dl); }
 1927              		.loc 1 145 35 view .LVU569
 1928 0056 4FEA2525 		asr	r5, r5, #8
 1929              	.LVL109:
 1930              	.LBB332:
 1931              	.LBI321:
 144:../USER/main_03.c **** void puth4(dt) int dt;{ puth2((dt >> 8) & 0xff); puth2(dt & 0xff); }
 1932              		.loc 1 144 6 is_stmt 1 view .LVU570
 1933              	.LBB331:
 144:../USER/main_03.c **** void puth4(dt) int dt;{ puth2((dt >> 8) & 0xff); puth2(dt & 0xff); }
 1934              		.loc 1 144 25 view .LVU571
 1935              	.LBB327:
 1936              	.LBI323:
 143:../USER/main_03.c **** void puth2(dt) int dt;{ puth((dt >> 4) & 0xf); puth(dt & 0xf); }
 1937              		.loc 1 143 6 view .LVU572
 1938              	.LBB325:
 143:../USER/main_03.c **** void puth2(dt) int dt;{ puth((dt >> 4) & 0xf); puth(dt & 0xf); }
 1939              		.loc 1 143 24 view .LVU573
 143:../USER/main_03.c **** void puth2(dt) int dt;{ puth((dt >> 4) & 0xf); puth(dt & 0xf); }
 1940              		.loc 1 143 34 view .LVU574
 143:../USER/main_03.c **** void puth2(dt) int dt;{ puth((dt >> 4) & 0xf); puth(dt & 0xf); }
 1941              		.loc 1 143 55 view .LVU575
 143:../USER/main_03.c **** void puth2(dt) int dt;{ puth((dt >> 4) & 0xf); puth(dt & 0xf); }
 1942              		.loc 1 143 34 is_stmt 0 view .LVU576
 1943 005a D4BF     		ite	le
 1944 005c 3030     		addle	r0, r0, #48
 143:../USER/main_03.c **** void puth2(dt) int dt;{ puth((dt >> 4) & 0xf); puth(dt & 0xf); }
 1945              		.loc 1 143 55 view .LVU577
 1946 005e 3730     		addgt	r0, r0, #55
 1947              	.LBE325:
 1948              	.LBE327:
 144:../USER/main_03.c **** void puth4(dt) int dt;{ puth2((dt >> 8) & 0xff); puth2(dt & 0xff); }
 1949              		.loc 1 144 48 view .LVU578
 1950 0060 05F00F05 		and	r5, r5, #15
 1951              	.LVL110:
 1952              	.LBB328:
 1953              	.LBB326:
 143:../USER/main_03.c **** void puth2(dt) int dt;{ puth((dt >> 4) & 0xf); puth(dt & 0xf); }
 1954              		.loc 1 143 55 view .LVU579
 1955 0064 FFF7FEFF 		bl	putch_uart
 1956              	.LVL111:
 143:../USER/main_03.c **** void puth2(dt) int dt;{ puth((dt >> 4) & 0xf); puth(dt & 0xf); }
 1957              		.loc 1 143 55 view .LVU580
 1958              	.LBE326:
 1959              	.LBE328:
 144:../USER/main_03.c **** void puth4(dt) int dt;{ puth2((dt >> 8) & 0xff); puth2(dt & 0xff); }
 1960              		.loc 1 144 48 is_stmt 1 view .LVU581
 1961              	.LBB329:
 1962              	.LBI329:
 143:../USER/main_03.c **** void puth2(dt) int dt;{ puth((dt >> 4) & 0xf); puth(dt & 0xf); }
 1963              		.loc 1 143 6 view .LVU582
 1964              	.LBB330:
 143:../USER/main_03.c **** void puth2(dt) int dt;{ puth((dt >> 4) & 0xf); puth(dt & 0xf); }
 1965              		.loc 1 143 24 view .LVU583
 143:../USER/main_03.c **** void puth2(dt) int dt;{ puth((dt >> 4) & 0xf); puth(dt & 0xf); }
 1966              		.loc 1 143 34 view .LVU584
 143:../USER/main_03.c **** void puth2(dt) int dt;{ puth((dt >> 4) & 0xf); puth(dt & 0xf); }
 1967              		.loc 1 143 55 view .LVU585
 1968 0068 E8B2     		uxtb	r0, r5
 143:../USER/main_03.c **** void puth2(dt) int dt;{ puth((dt >> 4) & 0xf); puth(dt & 0xf); }
 1969              		.loc 1 143 26 is_stmt 0 view .LVU586
 1970 006a 092D     		cmp	r5, #9
 143:../USER/main_03.c **** void puth2(dt) int dt;{ puth((dt >> 4) & 0xf); puth(dt & 0xf); }
 1971              		.loc 1 143 34 view .LVU587
 1972 006c D4BF     		ite	le
 1973 006e 3030     		addle	r0, r0, #48
 143:../USER/main_03.c **** void puth2(dt) int dt;{ puth((dt >> 4) & 0xf); puth(dt & 0xf); }
 1974              		.loc 1 143 55 view .LVU588
 1975 0070 3730     		addgt	r0, r0, #55
 1976 0072 FFF7FEFF 		bl	putch_uart
 1977              	.LVL112:
 143:../USER/main_03.c **** void puth2(dt) int dt;{ puth((dt >> 4) & 0xf); puth(dt & 0xf); }
 1978              		.loc 1 143 55 view .LVU589
 1979              	.LBE330:
 1980              	.LBE329:
 1981              	.LBE331:
 1982              	.LBE332:
 145:../USER/main_03.c **** void puth6(dt) long dt;{ int dh,dl; dh = dt >> 16; dl = dt & 0xffff; puth2(dh); puth4(dl); }
 1983              		.loc 1 145 50 is_stmt 1 view .LVU590
 1984              	.LBB333:
 1985              	.LBI333:
 144:../USER/main_03.c **** void puth4(dt) int dt;{ puth2((dt >> 8) & 0xff); puth2(dt & 0xff); }
 1986              		.loc 1 144 6 view .LVU591
 1987              	.LBB334:
 144:../USER/main_03.c **** void puth4(dt) int dt;{ puth2((dt >> 8) & 0xff); puth2(dt & 0xff); }
 1988              		.loc 1 144 25 view .LVU592
 144:../USER/main_03.c **** void puth4(dt) int dt;{ puth2((dt >> 8) & 0xff); puth2(dt & 0xff); }
 1989              		.loc 1 144 34 is_stmt 0 view .LVU593
 1990 0076 C4F30313 		ubfx	r3, r4, #4, #4
 1991              	.LVL113:
 1992              	.LBB335:
 1993              	.LBI335:
 143:../USER/main_03.c **** void puth2(dt) int dt;{ puth((dt >> 4) & 0xf); puth(dt & 0xf); }
 1994              		.loc 1 143 6 is_stmt 1 view .LVU594
 1995              	.LBB336:
 143:../USER/main_03.c **** void puth2(dt) int dt;{ puth((dt >> 4) & 0xf); puth(dt & 0xf); }
 1996              		.loc 1 143 24 view .LVU595
 143:../USER/main_03.c **** void puth2(dt) int dt;{ puth((dt >> 4) & 0xf); puth(dt & 0xf); }
 1997              		.loc 1 143 34 view .LVU596
 143:../USER/main_03.c **** void puth2(dt) int dt;{ puth((dt >> 4) & 0xf); puth(dt & 0xf); }
 1998              		.loc 1 143 55 view .LVU597
 1999 007a D8B2     		uxtb	r0, r3
 143:../USER/main_03.c **** void puth2(dt) int dt;{ puth((dt >> 4) & 0xf); puth(dt & 0xf); }
 2000              		.loc 1 143 26 is_stmt 0 view .LVU598
 2001 007c 092B     		cmp	r3, #9
 143:../USER/main_03.c **** void puth2(dt) int dt;{ puth((dt >> 4) & 0xf); puth(dt & 0xf); }
 2002              		.loc 1 143 34 view .LVU599
 2003 007e D4BF     		ite	le
 2004 0080 3030     		addle	r0, r0, #48
 143:../USER/main_03.c **** void puth2(dt) int dt;{ puth((dt >> 4) & 0xf); puth(dt & 0xf); }
 2005              		.loc 1 143 55 view .LVU600
 2006 0082 3730     		addgt	r0, r0, #55
 2007              	.LBE336:
 2008              	.LBE335:
 144:../USER/main_03.c **** void puth4(dt) int dt;{ puth2((dt >> 8) & 0xff); puth2(dt & 0xff); }
 2009              		.loc 1 144 48 view .LVU601
 2010 0084 04F00F04 		and	r4, r4, #15
 2011              	.LVL114:
 2012              	.LBB338:
 2013              	.LBB337:
 143:../USER/main_03.c **** void puth2(dt) int dt;{ puth((dt >> 4) & 0xf); puth(dt & 0xf); }
 2014              		.loc 1 143 55 view .LVU602
 2015 0088 FFF7FEFF 		bl	putch_uart
 2016              	.LVL115:
 143:../USER/main_03.c **** void puth2(dt) int dt;{ puth((dt >> 4) & 0xf); puth(dt & 0xf); }
 2017              		.loc 1 143 55 view .LVU603
 2018              	.LBE337:
 2019              	.LBE338:
 144:../USER/main_03.c **** void puth4(dt) int dt;{ puth2((dt >> 8) & 0xff); puth2(dt & 0xff); }
 2020              		.loc 1 144 48 is_stmt 1 view .LVU604
 2021              	.LBB339:
 2022              	.LBI339:
 143:../USER/main_03.c **** void puth2(dt) int dt;{ puth((dt >> 4) & 0xf); puth(dt & 0xf); }
 2023              		.loc 1 143 6 view .LVU605
 2024              	.LBB340:
 143:../USER/main_03.c **** void puth2(dt) int dt;{ puth((dt >> 4) & 0xf); puth(dt & 0xf); }
 2025              		.loc 1 143 24 view .LVU606
 143:../USER/main_03.c **** void puth2(dt) int dt;{ puth((dt >> 4) & 0xf); puth(dt & 0xf); }
 2026              		.loc 1 143 26 is_stmt 0 view .LVU607
 2027 008c 092C     		cmp	r4, #9
 2028 008e E0B2     		uxtb	r0, r4
 2029 0090 04DC     		bgt	.L166
 143:../USER/main_03.c **** void puth2(dt) int dt;{ puth((dt >> 4) & 0xf); puth(dt & 0xf); }
 2030              		.loc 1 143 34 is_stmt 1 view .LVU608
 2031              	.LBE340:
 2032              	.LBE339:
 2033              	.LBE334:
 2034              	.LBE333:
 2035              	.LBE320:
 2036              	.LBE319:
 147:../USER/main_03.c **** void putsuart(char *buf){
 2037              		.loc 1 147 1 is_stmt 0 view .LVU609
 2038 0092 BDE8F840 		pop	{r3, r4, r5, r6, r7, lr}
 2039              		.cfi_remember_state
 2040              		.cfi_restore 14
 2041              		.cfi_restore 7
 2042              		.cfi_restore 6
 2043              		.cfi_restore 5
 2044              		.cfi_restore 4
 2045              		.cfi_restore 3
 2046              		.cfi_def_cfa_offset 0
 2047              	.LVL116:
 2048              	.LBB351:
 2049              	.LBB349:
 2050              	.LBB347:
 2051              	.LBB345:
 2052              	.LBB343:
 2053              	.LBB341:
 143:../USER/main_03.c **** void puth2(dt) int dt;{ puth((dt >> 4) & 0xf); puth(dt & 0xf); }
 2054              		.loc 1 143 34 view .LVU610
 2055 0096 3030     		adds	r0, r0, #48
 2056 0098 FFF7FEBF 		b	putch_uart
 2057              	.LVL117:
 2058              	.L166:
 2059              		.cfi_restore_state
 143:../USER/main_03.c **** void puth2(dt) int dt;{ puth((dt >> 4) & 0xf); puth(dt & 0xf); }
 2060              		.loc 1 143 55 is_stmt 1 view .LVU611
 2061 009c 3730     		adds	r0, r0, #55
 2062              	.LBE341:
 2063              	.LBE343:
 2064              	.LBE345:
 2065              	.LBE347:
 2066              	.LBE349:
 2067              	.LBE351:
 147:../USER/main_03.c **** void putsuart(char *buf){
 2068              		.loc 1 147 1 is_stmt 0 view .LVU612
 2069 009e BDE8F840 		pop	{r3, r4, r5, r6, r7, lr}
 2070              		.cfi_restore 14
 2071              		.cfi_restore 7
 2072              		.cfi_restore 6
 2073              		.cfi_restore 5
 2074              		.cfi_restore 4
 2075              		.cfi_restore 3
 2076              		.cfi_def_cfa_offset 0
 2077              	.LVL118:
 2078              	.LBB352:
 2079              	.LBB350:
 2080              	.LBB348:
 2081              	.LBB346:
 2082              	.LBB344:
 2083              	.LBB342:
 143:../USER/main_03.c **** void puth2(dt) int dt;{ puth((dt >> 4) & 0xf); puth(dt & 0xf); }
 2084              		.loc 1 143 55 view .LVU613
 2085 00a2 FFF7FEBF 		b	putch_uart
 2086              	.LVL119:
 2087              	.LBE342:
 2088              	.LBE344:
 2089              	.LBE346:
 2090              	.LBE348:
 2091              	.LBE350:
 2092              	.LBE352:
 2093              		.cfi_endproc
 2094              	.LFE45:
 2096 00a6 00BF     		.section	.text.putsuart,"ax",%progbits
 2097              		.align	1
 2098              		.p2align 2,,3
 2099              		.global	putsuart
 2100              		.syntax unified
 2101              		.thumb
 2102              		.thumb_func
 2103              		.fpu softvfp
 2105              	putsuart:
 2106              	.LVL120:
 2107              	.LFB46:
 148:../USER/main_03.c **** 	while(1){
 2108              		.loc 1 148 25 is_stmt 1 view -0
 2109              		.cfi_startproc
 2110              		@ args = 0, pretend = 0, frame = 0
 2111              		@ frame_needed = 0, uses_anonymous_args = 0
 148:../USER/main_03.c **** 	while(1){
 2112              		.loc 1 148 25 is_stmt 0 view .LVU615
 2113 0000 10B5     		push	{r4, lr}
 2114              		.cfi_def_cfa_offset 8
 2115              		.cfi_offset 4, -8
 2116              		.cfi_offset 14, -4
 148:../USER/main_03.c **** 	while(1){
 2117              		.loc 1 148 25 view .LVU616
 2118 0002 0446     		mov	r4, r0
 149:../USER/main_03.c **** 		if(*buf==0) break;
 2119              		.loc 1 149 2 is_stmt 1 view .LVU617
 150:../USER/main_03.c **** 		else        putch(*buf++);
 2120              		.loc 1 150 3 view .LVU618
 150:../USER/main_03.c **** 		else        putch(*buf++);
 2121              		.loc 1 150 6 is_stmt 0 view .LVU619
 2122 0004 90F90000 		ldrsb	r0, [r0]
 2123              	.LVL121:
 150:../USER/main_03.c **** 		else        putch(*buf++);
 2124              		.loc 1 150 5 view .LVU620
 2125 0008 28B1     		cbz	r0, .L168
 2126              	.LVL122:
 2127              	.L170:
 151:../USER/main_03.c **** 	}
 2128              		.loc 1 151 15 is_stmt 1 view .LVU621
 151:../USER/main_03.c **** 	}
 2129              		.loc 1 151 15 is_stmt 0 view .LVU622
 2130 000a FFF7FEFF 		bl	putch_uart
 2131              	.LVL123:
 149:../USER/main_03.c **** 		if(*buf==0) break;
 2132              		.loc 1 149 2 is_stmt 1 view .LVU623
 150:../USER/main_03.c **** 		else        putch(*buf++);
 2133              		.loc 1 150 3 view .LVU624
 150:../USER/main_03.c **** 		else        putch(*buf++);
 2134              		.loc 1 150 6 is_stmt 0 view .LVU625
 2135 000e 14F9010F 		ldrsb	r0, [r4, #1]!
 2136              	.LVL124:
 150:../USER/main_03.c **** 		else        putch(*buf++);
 2137              		.loc 1 150 5 view .LVU626
 2138 0012 0028     		cmp	r0, #0
 2139 0014 F9D1     		bne	.L170
 2140              	.LVL125:
 2141              	.L168:
 153:../USER/main_03.c **** void getsuart(char *buf){
 2142              		.loc 1 153 1 view .LVU627
 2143 0016 10BD     		pop	{r4, pc}
 2144              		.cfi_endproc
 2145              	.LFE46:
 2147              		.section	.text.getsuart,"ax",%progbits
 2148              		.align	1
 2149              		.p2align 2,,3
 2150              		.global	getsuart
 2151              		.syntax unified
 2152              		.thumb
 2153              		.thumb_func
 2154              		.fpu softvfp
 2156              	getsuart:
 2157              	.LVL126:
 2158              	.LFB47:
 154:../USER/main_03.c **** 	char ch;
 2159              		.loc 1 154 25 is_stmt 1 view -0
 2160              		.cfi_startproc
 2161              		@ args = 0, pretend = 0, frame = 0
 2162              		@ frame_needed = 0, uses_anonymous_args = 0
 154:../USER/main_03.c **** 	char ch;
 2163              		.loc 1 154 25 is_stmt 0 view .LVU629
 2164 0000 2DE9F843 		push	{r3, r4, r5, r6, r7, r8, r9, lr}
 2165              		.cfi_def_cfa_offset 32
 2166              		.cfi_offset 3, -32
 2167              		.cfi_offset 4, -28
 2168              		.cfi_offset 5, -24
 2169              		.cfi_offset 6, -20
 2170              		.cfi_offset 7, -16
 2171              		.cfi_offset 8, -12
 2172              		.cfi_offset 9, -8
 2173              		.cfi_offset 14, -4
 154:../USER/main_03.c **** 	char ch;
 2174              		.loc 1 154 25 view .LVU630
 2175 0004 0746     		mov	r7, r0
 2176              	.LBB357:
 2177              	.LBB358:
 2178              	.LBB359:
 2179              	.LBB360:
 116:../USER/main_03.c **** 	if(kinbwp>=256) kinbwp = 0;
 2180              		.loc 1 116 52 view .LVU631
 2181 0006 4FF00108 		mov	r8, #1
 2182 000a 284C     		ldr	r4, .L200
 2183 000c 284D     		ldr	r5, .L200+4
 2184 000e 294E     		ldr	r6, .L200+8
 2185              	.LVL127:
 2186              	.L189:
 116:../USER/main_03.c **** 	if(kinbwp>=256) kinbwp = 0;
 2187              		.loc 1 116 52 view .LVU632
 2188              	.LBE360:
 2189              	.LBE359:
 2190              	.LBE358:
 2191              	.LBE357:
 155:../USER/main_03.c **** 	while(1){
 2192              		.loc 1 155 2 is_stmt 1 view .LVU633
 156:../USER/main_03.c **** 		ch = getch(); putch(ch); *buf++ = ch;
 2193              		.loc 1 156 2 view .LVU634
 157:../USER/main_03.c **** 		if(ch==0x0d) break;
 2194              		.loc 1 157 3 view .LVU635
 2195              	.LBB370:
 2196              	.LBI357:
 120:../USER/main_03.c **** 	char dt;
 2197              		.loc 1 120 6 view .LVU636
 2198              	.LBB367:
 2199              	.LBB364:
 2200              	.LBB361:
 116:../USER/main_03.c **** 	if(kinbwp>=256) kinbwp = 0;
 2201              		.loc 1 116 11 is_stmt 0 view .LVU637
 2202 0010 4FF04029 		mov	r9, #1073758208
 2203 0014 2368     		ldr	r3, [r4]
 2204              	.L184:
 2205              	.LBE361:
 2206              	.LBE364:
 122:../USER/main_03.c **** 	dt = kinbuf[kinbrp++];
 2207              		.loc 1 122 14 view .LVU638
 2208 0016 3268     		ldr	r2, [r6]
 122:../USER/main_03.c **** 	dt = kinbuf[kinbrp++];
 2209              		.loc 1 122 7 view .LVU639
 2210 0018 9A42     		cmp	r2, r3
 2211 001a 15D1     		bne	.L199
 122:../USER/main_03.c **** 	dt = kinbuf[kinbrp++];
 2212              		.loc 1 122 24 is_stmt 1 view .LVU640
 2213              	.LBB365:
 2214              	.LBI359:
 109:../USER/main_03.c **** 	char ch;
 2215              		.loc 1 109 6 view .LVU641
 2216              	.LBB362:
 110:../USER/main_03.c **** 	//
 2217              		.loc 1 110 2 view .LVU642
 112:../USER/main_03.c **** 	if(ch!=0) kinbuf[kinbwp++] = ch;
 2218              		.loc 1 112 2 view .LVU643
 112:../USER/main_03.c **** 	if(ch!=0) kinbuf[kinbwp++] = ch;
 2219              		.loc 1 112 7 is_stmt 0 view .LVU644
 2220 001c FFF7FEFF 		bl	SPI_ReadData
 2221              	.LVL128:
 112:../USER/main_03.c **** 	if(ch!=0) kinbuf[kinbwp++] = ch;
 2222              		.loc 1 112 5 view .LVU645
 2223 0020 40B2     		sxtb	r0, r0
 2224              	.LVL129:
 113:../USER/main_03.c **** 	if(kinbwp>=256) kinbwp = 0;
 2225              		.loc 1 113 2 is_stmt 1 view .LVU646
 113:../USER/main_03.c **** 	if(kinbwp>=256) kinbwp = 0;
 2226              		.loc 1 113 4 is_stmt 0 view .LVU647
 2227 0022 98BB     		cbnz	r0, .L178
 2228 0024 2368     		ldr	r3, [r4]
 2229              	.L179:
 114:../USER/main_03.c **** 	//
 2230              		.loc 1 114 2 is_stmt 1 view .LVU648
 114:../USER/main_03.c **** 	//
 2231              		.loc 1 114 4 is_stmt 0 view .LVU649
 2232 0026 FF2B     		cmp	r3, #255
 2233 0028 20DD     		ble	.L180
 114:../USER/main_03.c **** 	//
 2234              		.loc 1 114 18 is_stmt 1 view .LVU650
 114:../USER/main_03.c **** 	//
 2235              		.loc 1 114 25 is_stmt 0 view .LVU651
 2236 002a 0023     		movs	r3, #0
 2237 002c 2360     		str	r3, [r4]
 116:../USER/main_03.c **** 	if(kinbwp>=256) kinbwp = 0;
 2238              		.loc 1 116 2 is_stmt 1 view .LVU652
 116:../USER/main_03.c **** 	if(kinbwp>=256) kinbwp = 0;
 2239              		.loc 1 116 11 is_stmt 0 view .LVU653
 2240 002e D9F80430 		ldr	r3, [r9, #4]
 116:../USER/main_03.c **** 	if(kinbwp>=256) kinbwp = 0;
 2241              		.loc 1 116 4 view .LVU654
 2242 0032 13F00203 		ands	r3, r3, #2
 2243 0036 EED0     		beq	.L184
 116:../USER/main_03.c **** 	if(kinbwp>=256) kinbwp = 0;
 2244              		.loc 1 116 39 is_stmt 1 view .LVU655
 116:../USER/main_03.c **** 	if(kinbwp>=256) kinbwp = 0;
 2245              		.loc 1 116 52 is_stmt 0 view .LVU656
 2246 0038 0122     		movs	r2, #1
 116:../USER/main_03.c **** 	if(kinbwp>=256) kinbwp = 0;
 2247              		.loc 1 116 63 view .LVU657
 2248 003a D9F80030 		ldr	r3, [r9]
 116:../USER/main_03.c **** 	if(kinbwp>=256) kinbwp = 0;
 2249              		.loc 1 116 52 view .LVU658
 2250 003e C4F80080 		str	r8, [r4]
 116:../USER/main_03.c **** 	if(kinbwp>=256) kinbwp = 0;
 2251              		.loc 1 116 56 view .LVU659
 2252 0042 2B70     		strb	r3, [r5]
 117:../USER/main_03.c **** 	//
 2253              		.loc 1 117 2 is_stmt 1 view .LVU660
 2254              	.L191:
 116:../USER/main_03.c **** 	if(kinbwp>=256) kinbwp = 0;
 2255              		.loc 1 116 4 is_stmt 0 view .LVU661
 2256 0044 1346     		mov	r3, r2
 2257 0046 E6E7     		b	.L184
 2258              	.LVL130:
 2259              	.L199:
 116:../USER/main_03.c **** 	if(kinbwp>=256) kinbwp = 0;
 2260              		.loc 1 116 4 view .LVU662
 2261              	.LBE362:
 2262              	.LBE365:
 123:../USER/main_03.c **** 	if(kinbrp>=256) kinbrp = 0;
 2263              		.loc 1 123 2 is_stmt 1 view .LVU663
 123:../USER/main_03.c **** 	if(kinbrp>=256) kinbrp = 0;
 2264              		.loc 1 123 20 is_stmt 0 view .LVU664
 2265 0048 531C     		adds	r3, r2, #1
 124:../USER/main_03.c **** 	return dt;
 2266              		.loc 1 124 4 view .LVU665
 2267 004a FF2B     		cmp	r3, #255
 123:../USER/main_03.c **** 	if(kinbrp>=256) kinbrp = 0;
 2268              		.loc 1 123 20 view .LVU666
 2269 004c 3360     		str	r3, [r6]
 123:../USER/main_03.c **** 	if(kinbrp>=256) kinbrp = 0;
 2270              		.loc 1 123 5 view .LVU667
 2271 004e 15F90290 		ldrsb	r9, [r5, r2]
 2272              	.LVL131:
 124:../USER/main_03.c **** 	return dt;
 2273              		.loc 1 124 2 is_stmt 1 view .LVU668
 124:../USER/main_03.c **** 	return dt;
 2274              		.loc 1 124 4 is_stmt 0 view .LVU669
 2275 0052 20DD     		ble	.L186
 124:../USER/main_03.c **** 	return dt;
 2276              		.loc 1 124 18 is_stmt 1 view .LVU670
 124:../USER/main_03.c **** 	return dt;
 2277              		.loc 1 124 25 is_stmt 0 view .LVU671
 2278 0054 0023     		movs	r3, #0
 2279              	.LBE367:
 2280              	.LBE370:
 157:../USER/main_03.c **** 		if(ch==0x0d) break;
 2281              		.loc 1 157 17 view .LVU672
 2282 0056 4846     		mov	r0, r9
 2283              	.LBB371:
 2284              	.LBB368:
 124:../USER/main_03.c **** 	return dt;
 2285              		.loc 1 124 25 view .LVU673
 2286 0058 3360     		str	r3, [r6]
 125:../USER/main_03.c **** }
 2287              		.loc 1 125 2 is_stmt 1 view .LVU674
 2288              	.LVL132:
 125:../USER/main_03.c **** }
 2289              		.loc 1 125 2 is_stmt 0 view .LVU675
 2290              	.LBE368:
 2291              	.LBE371:
 157:../USER/main_03.c **** 		if(ch==0x0d) break;
 2292              		.loc 1 157 17 is_stmt 1 view .LVU676
 2293 005a FFF7FEFF 		bl	putch_uart
 2294              	.LVL133:
 157:../USER/main_03.c **** 		if(ch==0x0d) break;
 2295              		.loc 1 157 28 view .LVU677
 158:../USER/main_03.c **** 	}
 2296              		.loc 1 158 5 is_stmt 0 view .LVU678
 2297 005e B9F10D0F 		cmp	r9, #13
 157:../USER/main_03.c **** 		if(ch==0x0d) break;
 2298              		.loc 1 157 35 view .LVU679
 2299 0062 07F8019B 		strb	r9, [r7], #1
 2300              	.LVL134:
 158:../USER/main_03.c **** 	}
 2301              		.loc 1 158 3 is_stmt 1 view .LVU680
 158:../USER/main_03.c **** 	}
 2302              		.loc 1 158 5 is_stmt 0 view .LVU681
 2303 0066 D3D1     		bne	.L189
 160:../USER/main_03.c **** int ishex(ch) char ch;{
 2304              		.loc 1 160 1 view .LVU682
 2305 0068 BDE8F883 		pop	{r3, r4, r5, r6, r7, r8, r9, pc}
 2306              	.LVL135:
 2307              	.L180:
 2308              	.LBB372:
 2309              	.LBB369:
 2310              	.LBB366:
 2311              	.LBB363:
 116:../USER/main_03.c **** 	if(kinbwp>=256) kinbwp = 0;
 2312              		.loc 1 116 2 is_stmt 1 view .LVU683
 116:../USER/main_03.c **** 	if(kinbwp>=256) kinbwp = 0;
 2313              		.loc 1 116 11 is_stmt 0 view .LVU684
 2314 006c D9F80420 		ldr	r2, [r9, #4]
 116:../USER/main_03.c **** 	if(kinbwp>=256) kinbwp = 0;
 2315              		.loc 1 116 4 view .LVU685
 2316 0070 9207     		lsls	r2, r2, #30
 2317 0072 D0D5     		bpl	.L184
 116:../USER/main_03.c **** 	if(kinbwp>=256) kinbwp = 0;
 2318              		.loc 1 116 39 is_stmt 1 view .LVU686
 116:../USER/main_03.c **** 	if(kinbwp>=256) kinbwp = 0;
 2319              		.loc 1 116 63 is_stmt 0 view .LVU687
 2320 0074 D9F80010 		ldr	r1, [r9]
 116:../USER/main_03.c **** 	if(kinbwp>=256) kinbwp = 0;
 2321              		.loc 1 116 52 view .LVU688
 2322 0078 5A1C     		adds	r2, r3, #1
 117:../USER/main_03.c **** 	//
 2323              		.loc 1 117 4 view .LVU689
 2324 007a B2F5807F 		cmp	r2, #256
 116:../USER/main_03.c **** 	if(kinbwp>=256) kinbwp = 0;
 2325              		.loc 1 116 56 view .LVU690
 2326 007e E954     		strb	r1, [r5, r3]
 117:../USER/main_03.c **** 	//
 2327              		.loc 1 117 2 is_stmt 1 view .LVU691
 116:../USER/main_03.c **** 	if(kinbwp>=256) kinbwp = 0;
 2328              		.loc 1 116 52 is_stmt 0 view .LVU692
 2329 0080 2260     		str	r2, [r4]
 117:../USER/main_03.c **** 	//
 2330              		.loc 1 117 4 view .LVU693
 2331 0082 DFD1     		bne	.L191
 117:../USER/main_03.c **** 	//
 2332              		.loc 1 117 18 is_stmt 1 view .LVU694
 117:../USER/main_03.c **** 	//
 2333              		.loc 1 117 25 is_stmt 0 view .LVU695
 2334 0084 0022     		movs	r2, #0
 2335 0086 1346     		mov	r3, r2
 2336 0088 2260     		str	r2, [r4]
 2337 008a C4E7     		b	.L184
 2338              	.L178:
 113:../USER/main_03.c **** 	if(kinbwp>=256) kinbwp = 0;
 2339              		.loc 1 113 12 is_stmt 1 view .LVU696
 113:../USER/main_03.c **** 	if(kinbwp>=256) kinbwp = 0;
 2340              		.loc 1 113 25 is_stmt 0 view .LVU697
 2341 008c 2268     		ldr	r2, [r4]
 2342 008e 531C     		adds	r3, r2, #1
 113:../USER/main_03.c **** 	if(kinbwp>=256) kinbwp = 0;
 2343              		.loc 1 113 29 view .LVU698
 2344 0090 A854     		strb	r0, [r5, r2]
 113:../USER/main_03.c **** 	if(kinbwp>=256) kinbwp = 0;
 2345              		.loc 1 113 25 view .LVU699
 2346 0092 2360     		str	r3, [r4]
 2347 0094 C7E7     		b	.L179
 2348              	.LVL136:
 2349              	.L186:
 113:../USER/main_03.c **** 	if(kinbwp>=256) kinbwp = 0;
 2350              		.loc 1 113 25 view .LVU700
 2351              	.LBE363:
 2352              	.LBE366:
 125:../USER/main_03.c **** }
 2353              		.loc 1 125 2 is_stmt 1 view .LVU701
 125:../USER/main_03.c **** }
 2354              		.loc 1 125 2 is_stmt 0 view .LVU702
 2355              	.LBE369:
 2356              	.LBE372:
 157:../USER/main_03.c **** 		if(ch==0x0d) break;
 2357              		.loc 1 157 17 is_stmt 1 view .LVU703
 2358 0096 4846     		mov	r0, r9
 2359 0098 FFF7FEFF 		bl	putch_uart
 2360              	.LVL137:
 157:../USER/main_03.c **** 		if(ch==0x0d) break;
 2361              		.loc 1 157 28 view .LVU704
 158:../USER/main_03.c **** 	}
 2362              		.loc 1 158 5 is_stmt 0 view .LVU705
 2363 009c B9F10D0F 		cmp	r9, #13
 157:../USER/main_03.c **** 		if(ch==0x0d) break;
 2364              		.loc 1 157 35 view .LVU706
 2365 00a0 07F8019B 		strb	r9, [r7], #1
 2366              	.LVL138:
 158:../USER/main_03.c **** 	}
 2367              		.loc 1 158 3 is_stmt 1 view .LVU707
 158:../USER/main_03.c **** 	}
 2368              		.loc 1 158 5 is_stmt 0 view .LVU708
 2369 00a4 B4D1     		bne	.L189
 160:../USER/main_03.c **** int ishex(ch) char ch;{
 2370              		.loc 1 160 1 view .LVU709
 2371 00a6 BDE8F883 		pop	{r3, r4, r5, r6, r7, r8, r9, pc}
 2372              	.LVL139:
 2373              	.L201:
 160:../USER/main_03.c **** int ishex(ch) char ch;{
 2374              		.loc 1 160 1 view .LVU710
 2375 00aa 00BF     		.align	2
 2376              	.L200:
 2377 00ac 00000000 		.word	.LANCHOR0
 2378 00b0 00000000 		.word	kinbuf
 2379 00b4 00000000 		.word	.LANCHOR1
 2380              		.cfi_endproc
 2381              	.LFE47:
 2383              		.section	.text.ishex,"ax",%progbits
 2384              		.align	1
 2385              		.p2align 2,,3
 2386              		.global	ishex
 2387              		.syntax unified
 2388              		.thumb
 2389              		.thumb_func
 2390              		.fpu softvfp
 2392              	ishex:
 2393              	.LVL140:
 2394              	.LFB48:
 161:../USER/main_03.c ****   int hd;
 2395              		.loc 1 161 23 is_stmt 1 view -0
 2396              		.cfi_startproc
 2397              		@ args = 0, pretend = 0, frame = 0
 2398              		@ frame_needed = 0, uses_anonymous_args = 0
 2399              		@ link register save eliminated.
 162:../USER/main_03.c ****   if(ch>='0' && ch<='9') hd = ch - 0x30;
 2400              		.loc 1 162 3 view .LVU712
 163:../USER/main_03.c ****   else if(ch>='A' && ch<='F') hd = ch - 0x37;
 2401              		.loc 1 163 3 view .LVU713
 161:../USER/main_03.c ****   int hd;
 2402              		.loc 1 161 23 is_stmt 0 view .LVU714
 2403 0000 40B2     		sxtb	r0, r0
 163:../USER/main_03.c ****   else if(ch>='A' && ch<='F') hd = ch - 0x37;
 2404              		.loc 1 163 14 view .LVU715
 2405 0002 C3B2     		uxtb	r3, r0
 163:../USER/main_03.c ****   else if(ch>='A' && ch<='F') hd = ch - 0x37;
 2406              		.loc 1 163 5 view .LVU716
 2407 0004 A3F13002 		sub	r2, r3, #48
 2408 0008 092A     		cmp	r2, #9
 2409 000a 01D8     		bhi	.L203
 163:../USER/main_03.c ****   else if(ch>='A' && ch<='F') hd = ch - 0x37;
 2410              		.loc 1 163 26 is_stmt 1 discriminator 1 view .LVU717
 163:../USER/main_03.c ****   else if(ch>='A' && ch<='F') hd = ch - 0x37;
 2411              		.loc 1 163 29 is_stmt 0 discriminator 1 view .LVU718
 2412 000c 3038     		subs	r0, r0, #48
 2413              	.LVL141:
 163:../USER/main_03.c ****   else if(ch>='A' && ch<='F') hd = ch - 0x37;
 2414              		.loc 1 163 29 discriminator 1 view .LVU719
 2415 000e 7047     		bx	lr
 2416              	.LVL142:
 2417              	.L203:
 164:../USER/main_03.c ****   else hd = -1;
 2418              		.loc 1 164 8 is_stmt 1 view .LVU720
 164:../USER/main_03.c ****   else hd = -1;
 2419              		.loc 1 164 10 is_stmt 0 view .LVU721
 2420 0010 413B     		subs	r3, r3, #65
 2421 0012 052B     		cmp	r3, #5
 164:../USER/main_03.c ****   else hd = -1;
 2422              		.loc 1 164 31 is_stmt 1 view .LVU722
 164:../USER/main_03.c ****   else hd = -1;
 2423              		.loc 1 164 34 is_stmt 0 view .LVU723
 2424 0014 94BF     		ite	ls
 2425 0016 3738     		subls	r0, r0, #55
 2426              	.LVL143:
 165:../USER/main_03.c ****   return hd;
 2427              		.loc 1 165 11 view .LVU724
 2428 0018 4FF0FF30 		movhi	r0, #-1
 2429              	.LVL144:
 166:../USER/main_03.c **** }
 2430              		.loc 1 166 3 is_stmt 1 view .LVU725
 167:../USER/main_03.c **** void getssu(cbuf) char *cbuf;{ gets(cbuf); setsup(cbuf);}
 2431              		.loc 1 167 1 is_stmt 0 view .LVU726
 2432 001c 7047     		bx	lr
 2433              		.cfi_endproc
 2434              	.LFE48:
 2436 001e 00BF     		.section	.text.getssu,"ax",%progbits
 2437              		.align	1
 2438              		.p2align 2,,3
 2439              		.global	getssu
 2440              		.syntax unified
 2441              		.thumb
 2442              		.thumb_func
 2443              		.fpu softvfp
 2445              	getssu:
 2446              	.LVL145:
 2447              	.LFB49:
 168:../USER/main_03.c **** void putadrhd(adr) long adr;{puts("\r\n"); puth8(adr); putch(':');}
 2448              		.loc 1 168 30 is_stmt 1 view -0
 2449              		.cfi_startproc
 2450              		@ args = 0, pretend = 0, frame = 0
 2451              		@ frame_needed = 0, uses_anonymous_args = 0
 168:../USER/main_03.c **** void putadrhd(adr) long adr;{puts("\r\n"); puth8(adr); putch(':');}
 2452              		.loc 1 168 32 view .LVU728
 168:../USER/main_03.c **** void putadrhd(adr) long adr;{puts("\r\n"); puth8(adr); putch(':');}
 2453              		.loc 1 168 30 is_stmt 0 view .LVU729
 2454 0000 2DE9F047 		push	{r4, r5, r6, r7, r8, r9, r10, lr}
 2455              		.cfi_def_cfa_offset 32
 2456              		.cfi_offset 4, -32
 2457              		.cfi_offset 5, -28
 2458              		.cfi_offset 6, -24
 2459              		.cfi_offset 7, -20
 2460              		.cfi_offset 8, -16
 2461              		.cfi_offset 9, -12
 2462              		.cfi_offset 10, -8
 2463              		.cfi_offset 14, -4
 168:../USER/main_03.c **** void putadrhd(adr) long adr;{puts("\r\n"); puth8(adr); putch(':');}
 2464              		.loc 1 168 30 view .LVU730
 2465 0004 0546     		mov	r5, r0
 2466              	.LVL146:
 2467              	.LBB383:
 2468              	.LBI383:
 154:../USER/main_03.c **** 	char ch;
 2469              		.loc 1 154 6 is_stmt 1 view .LVU731
 2470              	.LBB384:
 2471              	.LBB385:
 2472              	.LBB386:
 2473              	.LBB387:
 2474              	.LBB388:
 116:../USER/main_03.c **** 	if(kinbwp>=256) kinbwp = 0;
 2475              		.loc 1 116 52 is_stmt 0 view .LVU732
 2476 0006 4FF00108 		mov	r8, #1
 2477              	.LBE388:
 2478              	.LBE387:
 2479              	.LBE386:
 2480              	.LBE385:
 2481              	.LBE384:
 2482              	.LBE383:
 168:../USER/main_03.c **** void putadrhd(adr) long adr;{puts("\r\n"); puth8(adr); putch(':');}
 2483              		.loc 1 168 30 view .LVU733
 2484 000a 0746     		mov	r7, r0
 2485 000c DFF8E090 		ldr	r9, .L238+8
 2486 0010 354C     		ldr	r4, .L238
 2487 0012 364E     		ldr	r6, .L238+4
 2488              	.LVL147:
 2489              	.L219:
 2490              	.LBB403:
 2491              	.LBB401:
 155:../USER/main_03.c **** 	while(1){
 2492              		.loc 1 155 2 is_stmt 1 view .LVU734
 156:../USER/main_03.c **** 		ch = getch(); putch(ch); *buf++ = ch;
 2493              		.loc 1 156 2 view .LVU735
 157:../USER/main_03.c **** 		if(ch==0x0d) break;
 2494              		.loc 1 157 3 view .LVU736
 2495              	.LBB398:
 2496              	.LBI385:
 120:../USER/main_03.c **** 	char dt;
 2497              		.loc 1 120 6 view .LVU737
 2498              	.LBB395:
 2499              	.LBB392:
 2500              	.LBB389:
 116:../USER/main_03.c **** 	if(kinbwp>=256) kinbwp = 0;
 2501              		.loc 1 116 11 is_stmt 0 view .LVU738
 2502 0014 4FF0402A 		mov	r10, #1073758208
 2503 0018 D9F80030 		ldr	r3, [r9]
 2504              	.L214:
 2505              	.LBE389:
 2506              	.LBE392:
 122:../USER/main_03.c **** 	dt = kinbuf[kinbrp++];
 2507              		.loc 1 122 14 view .LVU739
 2508 001c 3268     		ldr	r2, [r6]
 122:../USER/main_03.c **** 	dt = kinbuf[kinbrp++];
 2509              		.loc 1 122 7 view .LVU740
 2510 001e 9A42     		cmp	r2, r3
 2511 0020 18D1     		bne	.L237
 122:../USER/main_03.c **** 	dt = kinbuf[kinbrp++];
 2512              		.loc 1 122 24 is_stmt 1 view .LVU741
 2513              	.LBB393:
 2514              	.LBI387:
 109:../USER/main_03.c **** 	char ch;
 2515              		.loc 1 109 6 view .LVU742
 2516              	.LBB390:
 110:../USER/main_03.c **** 	//
 2517              		.loc 1 110 2 view .LVU743
 112:../USER/main_03.c **** 	if(ch!=0) kinbuf[kinbwp++] = ch;
 2518              		.loc 1 112 2 view .LVU744
 112:../USER/main_03.c **** 	if(ch!=0) kinbuf[kinbwp++] = ch;
 2519              		.loc 1 112 7 is_stmt 0 view .LVU745
 2520 0022 FFF7FEFF 		bl	SPI_ReadData
 2521              	.LVL148:
 112:../USER/main_03.c **** 	if(ch!=0) kinbuf[kinbwp++] = ch;
 2522              		.loc 1 112 5 view .LVU746
 2523 0026 40B2     		sxtb	r0, r0
 2524              	.LVL149:
 113:../USER/main_03.c **** 	if(kinbwp>=256) kinbwp = 0;
 2525              		.loc 1 113 2 is_stmt 1 view .LVU747
 113:../USER/main_03.c **** 	if(kinbwp>=256) kinbwp = 0;
 2526              		.loc 1 113 4 is_stmt 0 view .LVU748
 2527 0028 0028     		cmp	r0, #0
 2528 002a 46D1     		bne	.L208
 2529 002c D9F80030 		ldr	r3, [r9]
 2530              	.L209:
 114:../USER/main_03.c **** 	//
 2531              		.loc 1 114 2 is_stmt 1 view .LVU749
 114:../USER/main_03.c **** 	//
 2532              		.loc 1 114 4 is_stmt 0 view .LVU750
 2533 0030 FF2B     		cmp	r3, #255
 2534 0032 30DD     		ble	.L210
 114:../USER/main_03.c **** 	//
 2535              		.loc 1 114 18 is_stmt 1 view .LVU751
 114:../USER/main_03.c **** 	//
 2536              		.loc 1 114 25 is_stmt 0 view .LVU752
 2537 0034 0023     		movs	r3, #0
 2538 0036 C9F80030 		str	r3, [r9]
 116:../USER/main_03.c **** 	if(kinbwp>=256) kinbwp = 0;
 2539              		.loc 1 116 2 is_stmt 1 view .LVU753
 116:../USER/main_03.c **** 	if(kinbwp>=256) kinbwp = 0;
 2540              		.loc 1 116 11 is_stmt 0 view .LVU754
 2541 003a DAF80430 		ldr	r3, [r10, #4]
 116:../USER/main_03.c **** 	if(kinbwp>=256) kinbwp = 0;
 2542              		.loc 1 116 4 view .LVU755
 2543 003e 13F00203 		ands	r3, r3, #2
 2544 0042 EBD0     		beq	.L214
 116:../USER/main_03.c **** 	if(kinbwp>=256) kinbwp = 0;
 2545              		.loc 1 116 39 is_stmt 1 view .LVU756
 116:../USER/main_03.c **** 	if(kinbwp>=256) kinbwp = 0;
 2546              		.loc 1 116 52 is_stmt 0 view .LVU757
 2547 0044 0122     		movs	r2, #1
 116:../USER/main_03.c **** 	if(kinbwp>=256) kinbwp = 0;
 2548              		.loc 1 116 63 view .LVU758
 2549 0046 DAF80030 		ldr	r3, [r10]
 116:../USER/main_03.c **** 	if(kinbwp>=256) kinbwp = 0;
 2550              		.loc 1 116 52 view .LVU759
 2551 004a C9F80080 		str	r8, [r9]
 116:../USER/main_03.c **** 	if(kinbwp>=256) kinbwp = 0;
 2552              		.loc 1 116 56 view .LVU760
 2553 004e 2370     		strb	r3, [r4]
 117:../USER/main_03.c **** 	//
 2554              		.loc 1 117 2 is_stmt 1 view .LVU761
 2555              	.L225:
 116:../USER/main_03.c **** 	if(kinbwp>=256) kinbwp = 0;
 2556              		.loc 1 116 4 is_stmt 0 view .LVU762
 2557 0050 1346     		mov	r3, r2
 2558 0052 E3E7     		b	.L214
 2559              	.LVL150:
 2560              	.L237:
 116:../USER/main_03.c **** 	if(kinbwp>=256) kinbwp = 0;
 2561              		.loc 1 116 4 view .LVU763
 2562              	.LBE390:
 2563              	.LBE393:
 123:../USER/main_03.c **** 	if(kinbrp>=256) kinbrp = 0;
 2564              		.loc 1 123 2 is_stmt 1 view .LVU764
 123:../USER/main_03.c **** 	if(kinbrp>=256) kinbrp = 0;
 2565              		.loc 1 123 20 is_stmt 0 view .LVU765
 2566 0054 531C     		adds	r3, r2, #1
 124:../USER/main_03.c **** 	return dt;
 2567              		.loc 1 124 4 view .LVU766
 2568 0056 FF2B     		cmp	r3, #255
 123:../USER/main_03.c **** 	if(kinbrp>=256) kinbrp = 0;
 2569              		.loc 1 123 20 view .LVU767
 2570 0058 3360     		str	r3, [r6]
 123:../USER/main_03.c **** 	if(kinbrp>=256) kinbrp = 0;
 2571              		.loc 1 123 5 view .LVU768
 2572 005a 14F902A0 		ldrsb	r10, [r4, r2]
 2573              	.LVL151:
 124:../USER/main_03.c **** 	return dt;
 2574              		.loc 1 124 2 is_stmt 1 view .LVU769
 124:../USER/main_03.c **** 	return dt;
 2575              		.loc 1 124 4 is_stmt 0 view .LVU770
 2576 005e 33DD     		ble	.L216
 124:../USER/main_03.c **** 	return dt;
 2577              		.loc 1 124 18 is_stmt 1 view .LVU771
 124:../USER/main_03.c **** 	return dt;
 2578              		.loc 1 124 25 is_stmt 0 view .LVU772
 2579 0060 0023     		movs	r3, #0
 2580              	.LBE395:
 2581              	.LBE398:
 157:../USER/main_03.c **** 		if(ch==0x0d) break;
 2582              		.loc 1 157 17 view .LVU773
 2583 0062 5046     		mov	r0, r10
 2584              	.LBB399:
 2585              	.LBB396:
 124:../USER/main_03.c **** 	return dt;
 2586              		.loc 1 124 25 view .LVU774
 2587 0064 3360     		str	r3, [r6]
 125:../USER/main_03.c **** }
 2588              		.loc 1 125 2 is_stmt 1 view .LVU775
 2589              	.LVL152:
 125:../USER/main_03.c **** }
 2590              		.loc 1 125 2 is_stmt 0 view .LVU776
 2591              	.LBE396:
 2592              	.LBE399:
 157:../USER/main_03.c **** 		if(ch==0x0d) break;
 2593              		.loc 1 157 17 is_stmt 1 view .LVU777
 2594 0066 FFF7FEFF 		bl	putch_uart
 2595              	.LVL153:
 157:../USER/main_03.c **** 		if(ch==0x0d) break;
 2596              		.loc 1 157 28 view .LVU778
 158:../USER/main_03.c **** 	}
 2597              		.loc 1 158 5 is_stmt 0 view .LVU779
 2598 006a BAF10D0F 		cmp	r10, #13
 157:../USER/main_03.c **** 		if(ch==0x0d) break;
 2599              		.loc 1 157 35 view .LVU780
 2600 006e 07F801AB 		strb	r10, [r7], #1
 2601              	.LVL154:
 158:../USER/main_03.c **** 	}
 2602              		.loc 1 158 3 is_stmt 1 view .LVU781
 158:../USER/main_03.c **** 	}
 2603              		.loc 1 158 5 is_stmt 0 view .LVU782
 2604 0072 CFD1     		bne	.L219
 2605              	.LVL155:
 2606              	.L217:
 158:../USER/main_03.c **** 	}
 2607              		.loc 1 158 5 view .LVU783
 2608              	.LBE401:
 2609              	.LBE403:
 2610              	.LBB404:
 2611              	.LBB405:
 102:../USER/main_03.c ****    if( *buf>='a' && *buf<='z') *buf = *buf - 0x20;
 2612              		.loc 1 102 9 view .LVU784
 2613 0074 95F90030 		ldrsb	r3, [r5]
 102:../USER/main_03.c ****    if( *buf>='a' && *buf<='z') *buf = *buf - 0x20;
 2614              		.loc 1 102 8 view .LVU785
 2615 0078 0D2B     		cmp	r3, #13
 2616 007a 0AD0     		beq	.L206
 2617              	.LVL156:
 2618              	.L220:
 103:../USER/main_03.c ****    buf++;
 2619              		.loc 1 103 4 is_stmt 1 view .LVU786
 103:../USER/main_03.c ****    buf++;
 2620              		.loc 1 103 32 view .LVU787
 104:../USER/main_03.c ****   }
 2621              		.loc 1 104 4 view .LVU788
 103:../USER/main_03.c ****    buf++;
 2622              		.loc 1 103 18 is_stmt 0 view .LVU789
 2623 007c DBB2     		uxtb	r3, r3
 103:../USER/main_03.c ****    buf++;
 2624              		.loc 1 103 44 view .LVU790
 2625 007e A3F12002 		sub	r2, r3, #32
 103:../USER/main_03.c ****    buf++;
 2626              		.loc 1 103 6 view .LVU791
 2627 0082 613B     		subs	r3, r3, #97
 2628 0084 192B     		cmp	r3, #25
 2629 0086 28D8     		bhi	.L221
 103:../USER/main_03.c ****    buf++;
 2630              		.loc 1 103 37 view .LVU792
 2631 0088 2A70     		strb	r2, [r5]
 104:../USER/main_03.c ****   }
 2632              		.loc 1 104 4 is_stmt 1 view .LVU793
 102:../USER/main_03.c ****    if( *buf>='a' && *buf<='z') *buf = *buf - 0x20;
 2633              		.loc 1 102 9 is_stmt 0 view .LVU794
 2634 008a 15F9013F 		ldrsb	r3, [r5, #1]!
 2635              	.LVL157:
 102:../USER/main_03.c ****    if( *buf>='a' && *buf<='z') *buf = *buf - 0x20;
 2636              		.loc 1 102 8 view .LVU795
 2637 008e 0D2B     		cmp	r3, #13
 2638 0090 F4D1     		bne	.L220
 2639              	.LVL158:
 2640              	.L206:
 102:../USER/main_03.c ****    if( *buf>='a' && *buf<='z') *buf = *buf - 0x20;
 2641              		.loc 1 102 8 view .LVU796
 2642              	.LBE405:
 2643              	.LBE404:
 168:../USER/main_03.c **** void putadrhd(adr) long adr;{puts("\r\n"); puth8(adr); putch(':');}
 2644              		.loc 1 168 1 view .LVU797
 2645 0092 BDE8F087 		pop	{r4, r5, r6, r7, r8, r9, r10, pc}
 2646              	.LVL159:
 2647              	.L210:
 2648              	.LBB407:
 2649              	.LBB402:
 2650              	.LBB400:
 2651              	.LBB397:
 2652              	.LBB394:
 2653              	.LBB391:
 116:../USER/main_03.c **** 	if(kinbwp>=256) kinbwp = 0;
 2654              		.loc 1 116 2 is_stmt 1 view .LVU798
 116:../USER/main_03.c **** 	if(kinbwp>=256) kinbwp = 0;
 2655              		.loc 1 116 11 is_stmt 0 view .LVU799
 2656 0096 DAF80420 		ldr	r2, [r10, #4]
 116:../USER/main_03.c **** 	if(kinbwp>=256) kinbwp = 0;
 2657              		.loc 1 116 4 view .LVU800
 2658 009a 9207     		lsls	r2, r2, #30
 2659 009c BED5     		bpl	.L214
 116:../USER/main_03.c **** 	if(kinbwp>=256) kinbwp = 0;
 2660              		.loc 1 116 39 is_stmt 1 view .LVU801
 116:../USER/main_03.c **** 	if(kinbwp>=256) kinbwp = 0;
 2661              		.loc 1 116 63 is_stmt 0 view .LVU802
 2662 009e DAF80010 		ldr	r1, [r10]
 116:../USER/main_03.c **** 	if(kinbwp>=256) kinbwp = 0;
 2663              		.loc 1 116 52 view .LVU803
 2664 00a2 5A1C     		adds	r2, r3, #1
 117:../USER/main_03.c **** 	//
 2665              		.loc 1 117 4 view .LVU804
 2666 00a4 B2F5807F 		cmp	r2, #256
 116:../USER/main_03.c **** 	if(kinbwp>=256) kinbwp = 0;
 2667              		.loc 1 116 56 view .LVU805
 2668 00a8 E154     		strb	r1, [r4, r3]
 117:../USER/main_03.c **** 	//
 2669              		.loc 1 117 2 is_stmt 1 view .LVU806
 116:../USER/main_03.c **** 	if(kinbwp>=256) kinbwp = 0;
 2670              		.loc 1 116 52 is_stmt 0 view .LVU807
 2671 00aa C9F80020 		str	r2, [r9]
 117:../USER/main_03.c **** 	//
 2672              		.loc 1 117 4 view .LVU808
 2673 00ae CFD1     		bne	.L225
 117:../USER/main_03.c **** 	//
 2674              		.loc 1 117 18 is_stmt 1 view .LVU809
 117:../USER/main_03.c **** 	//
 2675              		.loc 1 117 25 is_stmt 0 view .LVU810
 2676 00b0 0022     		movs	r2, #0
 2677 00b2 1346     		mov	r3, r2
 2678 00b4 C9F80020 		str	r2, [r9]
 2679 00b8 B0E7     		b	.L214
 2680              	.L208:
 113:../USER/main_03.c **** 	if(kinbwp>=256) kinbwp = 0;
 2681              		.loc 1 113 12 is_stmt 1 view .LVU811
 113:../USER/main_03.c **** 	if(kinbwp>=256) kinbwp = 0;
 2682              		.loc 1 113 25 is_stmt 0 view .LVU812
 2683 00ba D9F80020 		ldr	r2, [r9]
 2684 00be 531C     		adds	r3, r2, #1
 113:../USER/main_03.c **** 	if(kinbwp>=256) kinbwp = 0;
 2685              		.loc 1 113 29 view .LVU813
 2686 00c0 A054     		strb	r0, [r4, r2]
 113:../USER/main_03.c **** 	if(kinbwp>=256) kinbwp = 0;
 2687              		.loc 1 113 25 view .LVU814
 2688 00c2 C9F80030 		str	r3, [r9]
 2689 00c6 B3E7     		b	.L209
 2690              	.LVL160:
 2691              	.L216:
 113:../USER/main_03.c **** 	if(kinbwp>=256) kinbwp = 0;
 2692              		.loc 1 113 25 view .LVU815
 2693              	.LBE391:
 2694              	.LBE394:
 125:../USER/main_03.c **** }
 2695              		.loc 1 125 2 is_stmt 1 view .LVU816
 125:../USER/main_03.c **** }
 2696              		.loc 1 125 2 is_stmt 0 view .LVU817
 2697              	.LBE397:
 2698              	.LBE400:
 157:../USER/main_03.c **** 		if(ch==0x0d) break;
 2699              		.loc 1 157 17 is_stmt 1 view .LVU818
 2700 00c8 5046     		mov	r0, r10
 2701 00ca FFF7FEFF 		bl	putch_uart
 2702              	.LVL161:
 157:../USER/main_03.c **** 		if(ch==0x0d) break;
 2703              		.loc 1 157 28 view .LVU819
 158:../USER/main_03.c **** 	}
 2704              		.loc 1 158 5 is_stmt 0 view .LVU820
 2705 00ce BAF10D0F 		cmp	r10, #13
 157:../USER/main_03.c **** 		if(ch==0x0d) break;
 2706              		.loc 1 157 35 view .LVU821
 2707 00d2 07F801AB 		strb	r10, [r7], #1
 2708              	.LVL162:
 158:../USER/main_03.c **** 	}
 2709              		.loc 1 158 3 is_stmt 1 view .LVU822
 158:../USER/main_03.c **** 	}
 2710              		.loc 1 158 5 is_stmt 0 view .LVU823
 2711 00d6 9DD1     		bne	.L219
 158:../USER/main_03.c **** 	}
 2712              		.loc 1 158 5 view .LVU824
 2713 00d8 CCE7     		b	.L217
 2714              	.LVL163:
 2715              	.L221:
 158:../USER/main_03.c **** 	}
 2716              		.loc 1 158 5 view .LVU825
 2717              	.LBE402:
 2718              	.LBE407:
 2719              	.LBB408:
 2720              	.LBB406:
 102:../USER/main_03.c ****    if( *buf>='a' && *buf<='z') *buf = *buf - 0x20;
 2721              		.loc 1 102 9 view .LVU826
 2722 00da 15F9013F 		ldrsb	r3, [r5, #1]!
 2723              	.LVL164:
 102:../USER/main_03.c ****    if( *buf>='a' && *buf<='z') *buf = *buf - 0x20;
 2724              		.loc 1 102 8 view .LVU827
 2725 00de 0D2B     		cmp	r3, #13
 2726 00e0 CCD1     		bne	.L220
 2727              	.LBE406:
 2728              	.LBE408:
 168:../USER/main_03.c **** void putadrhd(adr) long adr;{puts("\r\n"); puth8(adr); putch(':');}
 2729              		.loc 1 168 1 view .LVU828
 2730 00e2 BDE8F087 		pop	{r4, r5, r6, r7, r8, r9, r10, pc}
 2731              	.LVL165:
 2732              	.L239:
 168:../USER/main_03.c **** void putadrhd(adr) long adr;{puts("\r\n"); puth8(adr); putch(':');}
 2733              		.loc 1 168 1 view .LVU829
 2734 00e6 00BF     		.align	2
 2735              	.L238:
 2736 00e8 00000000 		.word	kinbuf
 2737 00ec 00000000 		.word	.LANCHOR1
 2738 00f0 00000000 		.word	.LANCHOR0
 2739              		.cfi_endproc
 2740              	.LFE49:
 2742              		.section	.text.putadrhd,"ax",%progbits
 2743              		.align	1
 2744              		.p2align 2,,3
 2745              		.global	putadrhd
 2746              		.syntax unified
 2747              		.thumb
 2748              		.thumb_func
 2749              		.fpu softvfp
 2751              	putadrhd:
 2752              	.LVL166:
 2753              	.LFB50:
 169:../USER/main_03.c **** 
 2754              		.loc 1 169 29 is_stmt 1 view -0
 2755              		.cfi_startproc
 2756              		@ args = 0, pretend = 0, frame = 0
 2757              		@ frame_needed = 0, uses_anonymous_args = 0
 169:../USER/main_03.c **** 
 2758              		.loc 1 169 30 view .LVU831
 2759              	.LBB445:
 2760              	.LBI445:
 148:../USER/main_03.c **** 	while(1){
 2761              		.loc 1 148 6 view .LVU832
 2762              	.LBB446:
 149:../USER/main_03.c **** 		if(*buf==0) break;
 2763              		.loc 1 149 2 view .LVU833
 150:../USER/main_03.c **** 		else        putch(*buf++);
 2764              		.loc 1 150 3 view .LVU834
 2765              	.LBE446:
 2766              	.LBE445:
 169:../USER/main_03.c **** 
 2767              		.loc 1 169 29 is_stmt 0 view .LVU835
 2768 0000 F8B5     		push	{r3, r4, r5, r6, r7, lr}
 2769              		.cfi_def_cfa_offset 24
 2770              		.cfi_offset 3, -24
 2771              		.cfi_offset 4, -20
 2772              		.cfi_offset 5, -16
 2773              		.cfi_offset 6, -12
 2774              		.cfi_offset 7, -8
 2775              		.cfi_offset 14, -4
 169:../USER/main_03.c **** 
 2776              		.loc 1 169 29 view .LVU836
 2777 0002 0546     		mov	r5, r0
 2778              	.LBB448:
 2779              	.LBB447:
 150:../USER/main_03.c **** 		else        putch(*buf++);
 2780              		.loc 1 150 6 view .LVU837
 2781 0004 0D20     		movs	r0, #13
 2782              	.LVL167:
 150:../USER/main_03.c **** 		else        putch(*buf++);
 2783              		.loc 1 150 6 view .LVU838
 2784 0006 2C4C     		ldr	r4, .L260
 2785              	.LVL168:
 2786              	.L241:
 151:../USER/main_03.c **** 	}
 2787              		.loc 1 151 15 is_stmt 1 view .LVU839
 151:../USER/main_03.c **** 	}
 2788              		.loc 1 151 15 is_stmt 0 view .LVU840
 2789 0008 FFF7FEFF 		bl	putch_uart
 2790              	.LVL169:
 149:../USER/main_03.c **** 		if(*buf==0) break;
 2791              		.loc 1 149 2 is_stmt 1 view .LVU841
 150:../USER/main_03.c **** 		else        putch(*buf++);
 2792              		.loc 1 150 3 view .LVU842
 150:../USER/main_03.c **** 		else        putch(*buf++);
 2793              		.loc 1 150 6 is_stmt 0 view .LVU843
 2794 000c 14F9010F 		ldrsb	r0, [r4, #1]!
 2795              	.LVL170:
 150:../USER/main_03.c **** 		else        putch(*buf++);
 2796              		.loc 1 150 5 view .LVU844
 2797 0010 0028     		cmp	r0, #0
 2798 0012 F9D1     		bne	.L241
 2799              	.LVL171:
 150:../USER/main_03.c **** 		else        putch(*buf++);
 2800              		.loc 1 150 5 view .LVU845
 2801              	.LBE447:
 2802              	.LBE448:
 169:../USER/main_03.c **** 
 2803              		.loc 1 169 44 is_stmt 1 view .LVU846
 2804              	.LBB449:
 2805              	.LBI449:
 147:../USER/main_03.c **** void putsuart(char *buf){
 2806              		.loc 1 147 6 view .LVU847
 2807              	.LBB450:
 147:../USER/main_03.c **** void putsuart(char *buf){
 2808              		.loc 1 147 26 view .LVU848
 147:../USER/main_03.c **** void putsuart(char *buf){
 2809              		.loc 1 147 37 view .LVU849
 2810 0014 2E0E     		lsrs	r6, r5, #24
 2811              	.LBB451:
 2812              	.LBB452:
 2813              	.LBB453:
 144:../USER/main_03.c **** void puth4(dt) int dt;{ puth2((dt >> 8) & 0xff); puth2(dt & 0xff); }
 2814              		.loc 1 144 34 is_stmt 0 view .LVU850
 2815 0016 3311     		asrs	r3, r6, #4
 2816 0018 D8B2     		uxtb	r0, r3
 2817              	.LBB454:
 2818              	.LBB455:
 143:../USER/main_03.c **** void puth2(dt) int dt;{ puth((dt >> 4) & 0xf); puth(dt & 0xf); }
 2819              		.loc 1 143 26 view .LVU851
 2820 001a 092B     		cmp	r3, #9
 143:../USER/main_03.c **** void puth2(dt) int dt;{ puth((dt >> 4) & 0xf); puth(dt & 0xf); }
 2821              		.loc 1 143 34 view .LVU852
 2822 001c D4BF     		ite	le
 2823 001e 3030     		addle	r0, r0, #48
 143:../USER/main_03.c **** void puth2(dt) int dt;{ puth((dt >> 4) & 0xf); puth(dt & 0xf); }
 2824              		.loc 1 143 55 view .LVU853
 2825 0020 3730     		addgt	r0, r0, #55
 2826              	.LBE455:
 2827              	.LBE454:
 144:../USER/main_03.c **** void puth4(dt) int dt;{ puth2((dt >> 8) & 0xff); puth2(dt & 0xff); }
 2828              		.loc 1 144 48 view .LVU854
 2829 0022 06F00F06 		and	r6, r6, #15
 2830              	.LBB458:
 2831              	.LBB456:
 143:../USER/main_03.c **** void puth2(dt) int dt;{ puth((dt >> 4) & 0xf); puth(dt & 0xf); }
 2832              		.loc 1 143 55 view .LVU855
 2833 0026 FFF7FEFF 		bl	putch_uart
 2834              	.LVL172:
 2835 002a F0B2     		uxtb	r0, r6
 2836              	.LBE456:
 2837              	.LBE458:
 2838              	.LBB459:
 2839              	.LBB460:
 143:../USER/main_03.c **** void puth2(dt) int dt;{ puth((dt >> 4) & 0xf); puth(dt & 0xf); }
 2840              		.loc 1 143 26 view .LVU856
 2841 002c 092E     		cmp	r6, #9
 143:../USER/main_03.c **** void puth2(dt) int dt;{ puth((dt >> 4) & 0xf); puth(dt & 0xf); }
 2842              		.loc 1 143 34 view .LVU857
 2843 002e D4BF     		ite	le
 2844 0030 3030     		addle	r0, r0, #48
 143:../USER/main_03.c **** void puth2(dt) int dt;{ puth((dt >> 4) & 0xf); puth(dt & 0xf); }
 2845              		.loc 1 143 55 view .LVU858
 2846 0032 3730     		addgt	r0, r0, #55
 2847 0034 FFF7FEFF 		bl	putch_uart
 2848              	.LVL173:
 2849              	.LBE460:
 2850              	.LBE459:
 2851              	.LBE453:
 2852              	.LBE452:
 2853              	.LBB465:
 2854              	.LBB466:
 144:../USER/main_03.c **** void puth4(dt) int dt;{ puth2((dt >> 8) & 0xff); puth2(dt & 0xff); }
 2855              		.loc 1 144 34 view .LVU859
 2856 0038 C5F30353 		ubfx	r3, r5, #20, #4
 2857 003c D8B2     		uxtb	r0, r3
 2858              	.LBB467:
 2859              	.LBB468:
 143:../USER/main_03.c **** void puth2(dt) int dt;{ puth((dt >> 4) & 0xf); puth(dt & 0xf); }
 2860              		.loc 1 143 26 view .LVU860
 2861 003e 092B     		cmp	r3, #9
 2862              	.LBE468:
 2863              	.LBE467:
 2864              	.LBE466:
 2865              	.LBE465:
 2866              	.LBE451:
 147:../USER/main_03.c **** void putsuart(char *buf){
 2867              		.loc 1 147 40 view .LVU861
 2868 0040 4FEA2547 		asr	r7, r5, #16
 2869              	.LVL174:
 147:../USER/main_03.c **** void putsuart(char *buf){
 2870              		.loc 1 147 52 is_stmt 1 view .LVU862
 2871              	.LBB482:
 2872              	.LBB479:
 2873              	.LBB477:
 2874              	.LBB471:
 2875              	.LBB469:
 143:../USER/main_03.c **** void puth2(dt) int dt;{ puth((dt >> 4) & 0xf); puth(dt & 0xf); }
 2876              		.loc 1 143 34 is_stmt 0 view .LVU863
 2877 0044 D4BF     		ite	le
 2878 0046 3030     		addle	r0, r0, #48
 143:../USER/main_03.c **** void puth2(dt) int dt;{ puth((dt >> 4) & 0xf); puth(dt & 0xf); }
 2879              		.loc 1 143 55 view .LVU864
 2880 0048 3730     		addgt	r0, r0, #55
 2881 004a FFF7FEFF 		bl	putch_uart
 2882              	.LVL175:
 2883              	.LBE469:
 2884              	.LBE471:
 144:../USER/main_03.c **** void puth4(dt) int dt;{ puth2((dt >> 8) & 0xff); puth2(dt & 0xff); }
 2885              		.loc 1 144 48 view .LVU865
 2886 004e 07F00F03 		and	r3, r7, #15
 2887 0052 D8B2     		uxtb	r0, r3
 2888              	.LBB472:
 2889              	.LBB473:
 143:../USER/main_03.c **** void puth2(dt) int dt;{ puth((dt >> 4) & 0xf); puth(dt & 0xf); }
 2890              		.loc 1 143 26 view .LVU866
 2891 0054 092B     		cmp	r3, #9
 2892              	.LBE473:
 2893              	.LBE472:
 2894              	.LBE477:
 2895              	.LBE479:
 2896              	.LBE482:
 147:../USER/main_03.c **** void putsuart(char *buf){
 2897              		.loc 1 147 55 view .LVU867
 2898 0056 ACB2     		uxth	r4, r5
 2899              	.LVL176:
 147:../USER/main_03.c **** void putsuart(char *buf){
 2900              		.loc 1 147 70 is_stmt 1 view .LVU868
 2901              	.LBB483:
 2902              	.LBI451:
 145:../USER/main_03.c **** void puth6(dt) long dt;{ int dh,dl; dh = dt >> 16; dl = dt & 0xffff; puth2(dh); puth4(dl); }
 2903              		.loc 1 145 6 view .LVU869
 2904              	.LBE483:
 2905              	.LBE450:
 2906              	.LBE449:
 145:../USER/main_03.c **** void puth6(dt) long dt;{ int dh,dl; dh = dt >> 16; dl = dt & 0xffff; puth2(dh); puth4(dl); }
 2907              		.loc 1 145 25 view .LVU870
 2908              	.LBB510:
 2909              	.LBB508:
 2910              	.LBB484:
 2911              	.LBB480:
 2912              	.LBI452:
 144:../USER/main_03.c **** void puth4(dt) int dt;{ puth2((dt >> 8) & 0xff); puth2(dt & 0xff); }
 2913              		.loc 1 144 6 view .LVU871
 2914              	.LBB464:
 144:../USER/main_03.c **** void puth4(dt) int dt;{ puth2((dt >> 8) & 0xff); puth2(dt & 0xff); }
 2915              		.loc 1 144 25 view .LVU872
 2916              	.LBB462:
 2917              	.LBI454:
 143:../USER/main_03.c **** void puth2(dt) int dt;{ puth((dt >> 4) & 0xf); puth(dt & 0xf); }
 2918              		.loc 1 143 6 view .LVU873
 2919              	.LBB457:
 143:../USER/main_03.c **** void puth2(dt) int dt;{ puth((dt >> 4) & 0xf); puth(dt & 0xf); }
 2920              		.loc 1 143 24 view .LVU874
 143:../USER/main_03.c **** void puth2(dt) int dt;{ puth((dt >> 4) & 0xf); puth(dt & 0xf); }
 2921              		.loc 1 143 34 view .LVU875
 143:../USER/main_03.c **** void puth2(dt) int dt;{ puth((dt >> 4) & 0xf); puth(dt & 0xf); }
 2922              		.loc 1 143 55 view .LVU876
 2923              	.LBE457:
 2924              	.LBE462:
 144:../USER/main_03.c **** void puth4(dt) int dt;{ puth2((dt >> 8) & 0xff); puth2(dt & 0xff); }
 2925              		.loc 1 144 48 view .LVU877
 2926              	.LBB463:
 2927              	.LBI459:
 143:../USER/main_03.c **** void puth2(dt) int dt;{ puth((dt >> 4) & 0xf); puth(dt & 0xf); }
 2928              		.loc 1 143 6 view .LVU878
 2929              	.LBB461:
 143:../USER/main_03.c **** void puth2(dt) int dt;{ puth((dt >> 4) & 0xf); puth(dt & 0xf); }
 2930              		.loc 1 143 24 view .LVU879
 143:../USER/main_03.c **** void puth2(dt) int dt;{ puth((dt >> 4) & 0xf); puth(dt & 0xf); }
 2931              		.loc 1 143 34 view .LVU880
 143:../USER/main_03.c **** void puth2(dt) int dt;{ puth((dt >> 4) & 0xf); puth(dt & 0xf); }
 2932              		.loc 1 143 55 view .LVU881
 143:../USER/main_03.c **** void puth2(dt) int dt;{ puth((dt >> 4) & 0xf); puth(dt & 0xf); }
 2933              		.loc 1 143 55 is_stmt 0 view .LVU882
 2934              	.LBE461:
 2935              	.LBE463:
 2936              	.LBE464:
 2937              	.LBE480:
 2938              	.LBE484:
 2939              	.LBE508:
 2940              	.LBE510:
 145:../USER/main_03.c **** void puth6(dt) long dt;{ int dh,dl; dh = dt >> 16; dl = dt & 0xffff; puth2(dh); puth4(dl); }
 2941              		.loc 1 145 50 is_stmt 1 view .LVU883
 2942              	.LBB511:
 2943              	.LBB509:
 2944              	.LBB485:
 2945              	.LBB481:
 2946              	.LBI465:
 144:../USER/main_03.c **** void puth4(dt) int dt;{ puth2((dt >> 8) & 0xff); puth2(dt & 0xff); }
 2947              		.loc 1 144 6 view .LVU884
 2948              	.LBB478:
 144:../USER/main_03.c **** void puth4(dt) int dt;{ puth2((dt >> 8) & 0xff); puth2(dt & 0xff); }
 2949              		.loc 1 144 25 view .LVU885
 2950              	.LBB475:
 2951              	.LBI467:
 143:../USER/main_03.c **** void puth2(dt) int dt;{ puth((dt >> 4) & 0xf); puth(dt & 0xf); }
 2952              		.loc 1 143 6 view .LVU886
 2953              	.LBB470:
 143:../USER/main_03.c **** void puth2(dt) int dt;{ puth((dt >> 4) & 0xf); puth(dt & 0xf); }
 2954              		.loc 1 143 24 view .LVU887
 143:../USER/main_03.c **** void puth2(dt) int dt;{ puth((dt >> 4) & 0xf); puth(dt & 0xf); }
 2955              		.loc 1 143 34 view .LVU888
 143:../USER/main_03.c **** void puth2(dt) int dt;{ puth((dt >> 4) & 0xf); puth(dt & 0xf); }
 2956              		.loc 1 143 55 view .LVU889
 2957              	.LBE470:
 2958              	.LBE475:
 144:../USER/main_03.c **** void puth4(dt) int dt;{ puth2((dt >> 8) & 0xff); puth2(dt & 0xff); }
 2959              		.loc 1 144 48 view .LVU890
 2960              	.LBB476:
 2961              	.LBI472:
 143:../USER/main_03.c **** void puth2(dt) int dt;{ puth((dt >> 4) & 0xf); puth(dt & 0xf); }
 2962              		.loc 1 143 6 view .LVU891
 2963              	.LBB474:
 143:../USER/main_03.c **** void puth2(dt) int dt;{ puth((dt >> 4) & 0xf); puth(dt & 0xf); }
 2964              		.loc 1 143 24 view .LVU892
 143:../USER/main_03.c **** void puth2(dt) int dt;{ puth((dt >> 4) & 0xf); puth(dt & 0xf); }
 2965              		.loc 1 143 34 view .LVU893
 143:../USER/main_03.c **** void puth2(dt) int dt;{ puth((dt >> 4) & 0xf); puth(dt & 0xf); }
 2966              		.loc 1 143 55 view .LVU894
 143:../USER/main_03.c **** void puth2(dt) int dt;{ puth((dt >> 4) & 0xf); puth(dt & 0xf); }
 2967              		.loc 1 143 34 is_stmt 0 view .LVU895
 2968 0058 D4BF     		ite	le
 2969 005a 3030     		addle	r0, r0, #48
 143:../USER/main_03.c **** void puth2(dt) int dt;{ puth((dt >> 4) & 0xf); puth(dt & 0xf); }
 2970              		.loc 1 143 55 view .LVU896
 2971 005c 3730     		addgt	r0, r0, #55
 2972 005e FFF7FEFF 		bl	putch_uart
 2973              	.LVL177:
 143:../USER/main_03.c **** void puth2(dt) int dt;{ puth((dt >> 4) & 0xf); puth(dt & 0xf); }
 2974              		.loc 1 143 55 view .LVU897
 2975              	.LBE474:
 2976              	.LBE476:
 2977              	.LBE478:
 2978              	.LBE481:
 2979              	.LBE485:
 147:../USER/main_03.c **** void putsuart(char *buf){
 2980              		.loc 1 147 81 is_stmt 1 view .LVU898
 2981              	.LBB486:
 2982              	.LBI486:
 145:../USER/main_03.c **** void puth6(dt) long dt;{ int dh,dl; dh = dt >> 16; dl = dt & 0xffff; puth2(dh); puth4(dl); }
 2983              		.loc 1 145 6 view .LVU899
 2984              	.LBB487:
 145:../USER/main_03.c **** void puth6(dt) long dt;{ int dh,dl; dh = dt >> 16; dl = dt & 0xffff; puth2(dh); puth4(dl); }
 2985              		.loc 1 145 25 view .LVU900
 2986              	.LBB488:
 2987              	.LBB489:
 144:../USER/main_03.c **** void puth4(dt) int dt;{ puth2((dt >> 8) & 0xff); puth2(dt & 0xff); }
 2988              		.loc 1 144 34 is_stmt 0 view .LVU901
 2989 0062 2313     		asrs	r3, r4, #12
 2990 0064 D8B2     		uxtb	r0, r3
 2991              	.LBB490:
 2992              	.LBB491:
 143:../USER/main_03.c **** void puth2(dt) int dt;{ puth((dt >> 4) & 0xf); puth(dt & 0xf); }
 2993              		.loc 1 143 26 view .LVU902
 2994 0066 092B     		cmp	r3, #9
 2995              	.LBE491:
 2996              	.LBE490:
 2997              	.LBE489:
 2998              	.LBE488:
 145:../USER/main_03.c **** void puth6(dt) long dt;{ int dh,dl; dh = dt >> 16; dl = dt & 0xffff; puth2(dh); puth4(dl); }
 2999              		.loc 1 145 35 view .LVU903
 3000 0068 4FEA2424 		asr	r4, r4, #8
 3001              	.LVL178:
 3002              	.LBB499:
 3003              	.LBI488:
 144:../USER/main_03.c **** void puth4(dt) int dt;{ puth2((dt >> 8) & 0xff); puth2(dt & 0xff); }
 3004              		.loc 1 144 6 is_stmt 1 view .LVU904
 3005              	.LBB498:
 144:../USER/main_03.c **** void puth4(dt) int dt;{ puth2((dt >> 8) & 0xff); puth2(dt & 0xff); }
 3006              		.loc 1 144 25 view .LVU905
 3007              	.LBB494:
 3008              	.LBI490:
 143:../USER/main_03.c **** void puth2(dt) int dt;{ puth((dt >> 4) & 0xf); puth(dt & 0xf); }
 3009              		.loc 1 143 6 view .LVU906
 3010              	.LBB492:
 143:../USER/main_03.c **** void puth2(dt) int dt;{ puth((dt >> 4) & 0xf); puth(dt & 0xf); }
 3011              		.loc 1 143 24 view .LVU907
 143:../USER/main_03.c **** void puth2(dt) int dt;{ puth((dt >> 4) & 0xf); puth(dt & 0xf); }
 3012              		.loc 1 143 34 view .LVU908
 143:../USER/main_03.c **** void puth2(dt) int dt;{ puth((dt >> 4) & 0xf); puth(dt & 0xf); }
 3013              		.loc 1 143 55 view .LVU909
 143:../USER/main_03.c **** void puth2(dt) int dt;{ puth((dt >> 4) & 0xf); puth(dt & 0xf); }
 3014              		.loc 1 143 34 is_stmt 0 view .LVU910
 3015 006c D4BF     		ite	le
 3016 006e 3030     		addle	r0, r0, #48
 143:../USER/main_03.c **** void puth2(dt) int dt;{ puth((dt >> 4) & 0xf); puth(dt & 0xf); }
 3017              		.loc 1 143 55 view .LVU911
 3018 0070 3730     		addgt	r0, r0, #55
 3019              	.LBE492:
 3020              	.LBE494:
 144:../USER/main_03.c **** void puth4(dt) int dt;{ puth2((dt >> 8) & 0xff); puth2(dt & 0xff); }
 3021              		.loc 1 144 48 view .LVU912
 3022 0072 04F00F04 		and	r4, r4, #15
 3023              	.LVL179:
 3024              	.LBB495:
 3025              	.LBB493:
 143:../USER/main_03.c **** void puth2(dt) int dt;{ puth((dt >> 4) & 0xf); puth(dt & 0xf); }
 3026              		.loc 1 143 55 view .LVU913
 3027 0076 FFF7FEFF 		bl	putch_uart
 3028              	.LVL180:
 143:../USER/main_03.c **** void puth2(dt) int dt;{ puth((dt >> 4) & 0xf); puth(dt & 0xf); }
 3029              		.loc 1 143 55 view .LVU914
 3030              	.LBE493:
 3031              	.LBE495:
 144:../USER/main_03.c **** void puth4(dt) int dt;{ puth2((dt >> 8) & 0xff); puth2(dt & 0xff); }
 3032              		.loc 1 144 48 is_stmt 1 view .LVU915
 3033              	.LBB496:
 3034              	.LBI496:
 143:../USER/main_03.c **** void puth2(dt) int dt;{ puth((dt >> 4) & 0xf); puth(dt & 0xf); }
 3035              		.loc 1 143 6 view .LVU916
 3036              	.LBB497:
 143:../USER/main_03.c **** void puth2(dt) int dt;{ puth((dt >> 4) & 0xf); puth(dt & 0xf); }
 3037              		.loc 1 143 24 view .LVU917
 143:../USER/main_03.c **** void puth2(dt) int dt;{ puth((dt >> 4) & 0xf); puth(dt & 0xf); }
 3038              		.loc 1 143 34 view .LVU918
 143:../USER/main_03.c **** void puth2(dt) int dt;{ puth((dt >> 4) & 0xf); puth(dt & 0xf); }
 3039              		.loc 1 143 55 view .LVU919
 3040 007a E0B2     		uxtb	r0, r4
 143:../USER/main_03.c **** void puth2(dt) int dt;{ puth((dt >> 4) & 0xf); puth(dt & 0xf); }
 3041              		.loc 1 143 26 is_stmt 0 view .LVU920
 3042 007c 092C     		cmp	r4, #9
 143:../USER/main_03.c **** void puth2(dt) int dt;{ puth((dt >> 4) & 0xf); puth(dt & 0xf); }
 3043              		.loc 1 143 34 view .LVU921
 3044 007e D4BF     		ite	le
 3045 0080 3030     		addle	r0, r0, #48
 143:../USER/main_03.c **** void puth2(dt) int dt;{ puth((dt >> 4) & 0xf); puth(dt & 0xf); }
 3046              		.loc 1 143 55 view .LVU922
 3047 0082 3730     		addgt	r0, r0, #55
 3048 0084 FFF7FEFF 		bl	putch_uart
 3049              	.LVL181:
 143:../USER/main_03.c **** void puth2(dt) int dt;{ puth((dt >> 4) & 0xf); puth(dt & 0xf); }
 3050              		.loc 1 143 55 view .LVU923
 3051              	.LBE497:
 3052              	.LBE496:
 3053              	.LBE498:
 3054              	.LBE499:
 145:../USER/main_03.c **** void puth6(dt) long dt;{ int dh,dl; dh = dt >> 16; dl = dt & 0xffff; puth2(dh); puth4(dl); }
 3055              		.loc 1 145 50 is_stmt 1 view .LVU924
 3056              	.LBB500:
 3057              	.LBI500:
 144:../USER/main_03.c **** void puth4(dt) int dt;{ puth2((dt >> 8) & 0xff); puth2(dt & 0xff); }
 3058              		.loc 1 144 6 view .LVU925
 3059              	.LBB501:
 144:../USER/main_03.c **** void puth4(dt) int dt;{ puth2((dt >> 8) & 0xff); puth2(dt & 0xff); }
 3060              		.loc 1 144 25 view .LVU926
 144:../USER/main_03.c **** void puth4(dt) int dt;{ puth2((dt >> 8) & 0xff); puth2(dt & 0xff); }
 3061              		.loc 1 144 34 is_stmt 0 view .LVU927
 3062 0088 C5F30313 		ubfx	r3, r5, #4, #4
 3063              	.LVL182:
 3064              	.LBB502:
 3065              	.LBI502:
 143:../USER/main_03.c **** void puth2(dt) int dt;{ puth((dt >> 4) & 0xf); puth(dt & 0xf); }
 3066              		.loc 1 143 6 is_stmt 1 view .LVU928
 3067              	.LBB503:
 143:../USER/main_03.c **** void puth2(dt) int dt;{ puth((dt >> 4) & 0xf); puth(dt & 0xf); }
 3068              		.loc 1 143 24 view .LVU929
 143:../USER/main_03.c **** void puth2(dt) int dt;{ puth((dt >> 4) & 0xf); puth(dt & 0xf); }
 3069              		.loc 1 143 34 view .LVU930
 143:../USER/main_03.c **** void puth2(dt) int dt;{ puth((dt >> 4) & 0xf); puth(dt & 0xf); }
 3070              		.loc 1 143 55 view .LVU931
 3071 008c D8B2     		uxtb	r0, r3
 143:../USER/main_03.c **** void puth2(dt) int dt;{ puth((dt >> 4) & 0xf); puth(dt & 0xf); }
 3072              		.loc 1 143 26 is_stmt 0 view .LVU932
 3073 008e 092B     		cmp	r3, #9
 143:../USER/main_03.c **** void puth2(dt) int dt;{ puth((dt >> 4) & 0xf); puth(dt & 0xf); }
 3074              		.loc 1 143 34 view .LVU933
 3075 0090 D4BF     		ite	le
 3076 0092 3030     		addle	r0, r0, #48
 143:../USER/main_03.c **** void puth2(dt) int dt;{ puth((dt >> 4) & 0xf); puth(dt & 0xf); }
 3077              		.loc 1 143 55 view .LVU934
 3078 0094 3730     		addgt	r0, r0, #55
 3079              	.LBE503:
 3080              	.LBE502:
 144:../USER/main_03.c **** void puth4(dt) int dt;{ puth2((dt >> 8) & 0xff); puth2(dt & 0xff); }
 3081              		.loc 1 144 48 view .LVU935
 3082 0096 05F00F05 		and	r5, r5, #15
 3083              	.LVL183:
 3084              	.LBB505:
 3085              	.LBB504:
 143:../USER/main_03.c **** void puth2(dt) int dt;{ puth((dt >> 4) & 0xf); puth(dt & 0xf); }
 3086              		.loc 1 143 55 view .LVU936
 3087 009a FFF7FEFF 		bl	putch_uart
 3088              	.LVL184:
 143:../USER/main_03.c **** void puth2(dt) int dt;{ puth((dt >> 4) & 0xf); puth(dt & 0xf); }
 3089              		.loc 1 143 55 view .LVU937
 3090              	.LBE504:
 3091              	.LBE505:
 144:../USER/main_03.c **** void puth4(dt) int dt;{ puth2((dt >> 8) & 0xff); puth2(dt & 0xff); }
 3092              		.loc 1 144 48 is_stmt 1 view .LVU938
 3093              	.LBB506:
 3094              	.LBI506:
 143:../USER/main_03.c **** void puth2(dt) int dt;{ puth((dt >> 4) & 0xf); puth(dt & 0xf); }
 3095              		.loc 1 143 6 view .LVU939
 3096              	.LBB507:
 143:../USER/main_03.c **** void puth2(dt) int dt;{ puth((dt >> 4) & 0xf); puth(dt & 0xf); }
 3097              		.loc 1 143 24 view .LVU940
 143:../USER/main_03.c **** void puth2(dt) int dt;{ puth((dt >> 4) & 0xf); puth(dt & 0xf); }
 3098              		.loc 1 143 34 view .LVU941
 143:../USER/main_03.c **** void puth2(dt) int dt;{ puth((dt >> 4) & 0xf); puth(dt & 0xf); }
 3099              		.loc 1 143 55 view .LVU942
 3100 009e E8B2     		uxtb	r0, r5
 143:../USER/main_03.c **** void puth2(dt) int dt;{ puth((dt >> 4) & 0xf); puth(dt & 0xf); }
 3101              		.loc 1 143 26 is_stmt 0 view .LVU943
 3102 00a0 092D     		cmp	r5, #9
 143:../USER/main_03.c **** void puth2(dt) int dt;{ puth((dt >> 4) & 0xf); puth(dt & 0xf); }
 3103              		.loc 1 143 34 view .LVU944
 3104 00a2 D4BF     		ite	le
 3105 00a4 3030     		addle	r0, r0, #48
 143:../USER/main_03.c **** void puth2(dt) int dt;{ puth((dt >> 4) & 0xf); puth(dt & 0xf); }
 3106              		.loc 1 143 55 view .LVU945
 3107 00a6 3730     		addgt	r0, r0, #55
 3108 00a8 FFF7FEFF 		bl	putch_uart
 3109              	.LVL185:
 143:../USER/main_03.c **** void puth2(dt) int dt;{ puth((dt >> 4) & 0xf); puth(dt & 0xf); }
 3110              		.loc 1 143 55 view .LVU946
 3111              	.LBE507:
 3112              	.LBE506:
 3113              	.LBE501:
 3114              	.LBE500:
 3115              	.LBE487:
 3116              	.LBE486:
 3117              	.LBE509:
 3118              	.LBE511:
 169:../USER/main_03.c **** 
 3119              		.loc 1 169 56 is_stmt 1 view .LVU947
 169:../USER/main_03.c **** 
 3120              		.loc 1 169 1 is_stmt 0 view .LVU948
 3121 00ac BDE8F840 		pop	{r3, r4, r5, r6, r7, lr}
 3122              		.cfi_restore 14
 3123              		.cfi_restore 7
 3124              		.cfi_restore 6
 3125              		.cfi_restore 5
 3126              		.cfi_restore 4
 3127              		.cfi_restore 3
 3128              		.cfi_def_cfa_offset 0
 169:../USER/main_03.c **** 
 3129              		.loc 1 169 56 view .LVU949
 3130 00b0 3A20     		movs	r0, #58
 3131 00b2 FFF7FEBF 		b	putch_uart
 3132              	.LVL186:
 3133              	.L261:
 3134 00b6 00BF     		.align	2
 3135              	.L260:
 3136 00b8 00000000 		.word	.LC0
 3137              		.cfi_endproc
 3138              	.LFE50:
 3140              		.section	.text.getsh,"ax",%progbits
 3141              		.align	1
 3142              		.p2align 2,,3
 3143              		.global	getsh
 3144              		.syntax unified
 3145              		.thumb
 3146              		.thumb_func
 3147              		.fpu softvfp
 3149              	getsh:
 3150              	.LVL187:
 3151              	.LFB51:
 171:../USER/main_03.c ****   long num = 0; int hd;
 3152              		.loc 1 171 28 is_stmt 1 view -0
 3153              		.cfi_startproc
 3154              		@ args = 0, pretend = 0, frame = 0
 3155              		@ frame_needed = 0, uses_anonymous_args = 0
 3156              		@ link register save eliminated.
 172:../USER/main_03.c ****   if(**buf==0x0d) return -1;
 3157              		.loc 1 172 3 view .LVU951
 172:../USER/main_03.c ****   if(**buf==0x0d) return -1;
 3158              		.loc 1 172 17 view .LVU952
 173:../USER/main_03.c ****   while(**buf==' ') (*buf)++; /* spip sp*/
 3159              		.loc 1 173 3 view .LVU953
 173:../USER/main_03.c ****   while(**buf==' ') (*buf)++; /* spip sp*/
 3160              		.loc 1 173 7 is_stmt 0 view .LVU954
 3161 0000 0268     		ldr	r2, [r0]
 173:../USER/main_03.c ****   while(**buf==' ') (*buf)++; /* spip sp*/
 3162              		.loc 1 173 6 view .LVU955
 3163 0002 92F90030 		ldrsb	r3, [r2]
 173:../USER/main_03.c ****   while(**buf==' ') (*buf)++; /* spip sp*/
 3164              		.loc 1 173 5 view .LVU956
 3165 0006 0D2B     		cmp	r3, #13
 3166 0008 22D0     		beq	.L270
 3167              	.LBB516:
 3168              	.LBB517:
 174:../USER/main_03.c ****   while( (hd=ishex(**buf)) != -1){ num = num * 16 + hd; (*buf)++; }
 3169              		.loc 1 174 8 view .LVU957
 3170 000a 202B     		cmp	r3, #32
 3171              	.LBE517:
 3172              	.LBE516:
 171:../USER/main_03.c ****   long num = 0; int hd;
 3173              		.loc 1 171 28 view .LVU958
 3174 000c 30B4     		push	{r4, r5}
 3175              		.cfi_def_cfa_offset 8
 3176              		.cfi_offset 4, -8
 3177              		.cfi_offset 5, -4
 3178 000e 0546     		mov	r5, r0
 3179              	.LBB527:
 3180              	.LBB526:
 174:../USER/main_03.c ****   while( (hd=ishex(**buf)) != -1){ num = num * 16 + hd; (*buf)++; }
 3181              		.loc 1 174 8 view .LVU959
 3182 0010 05D1     		bne	.L264
 3183              	.L265:
 174:../USER/main_03.c ****   while( (hd=ishex(**buf)) != -1){ num = num * 16 + hd; (*buf)++; }
 3184              		.loc 1 174 21 is_stmt 1 view .LVU960
 174:../USER/main_03.c ****   while( (hd=ishex(**buf)) != -1){ num = num * 16 + hd; (*buf)++; }
 3185              		.loc 1 174 27 is_stmt 0 view .LVU961
 3186 0012 0132     		adds	r2, r2, #1
 3187 0014 2A60     		str	r2, [r5]
 174:../USER/main_03.c ****   while( (hd=ishex(**buf)) != -1){ num = num * 16 + hd; (*buf)++; }
 3188              		.loc 1 174 9 view .LVU962
 3189 0016 92F90030 		ldrsb	r3, [r2]
 174:../USER/main_03.c ****   while( (hd=ishex(**buf)) != -1){ num = num * 16 + hd; (*buf)++; }
 3190              		.loc 1 174 8 view .LVU963
 3191 001a 202B     		cmp	r3, #32
 3192 001c F9D0     		beq	.L265
 3193              	.L264:
 172:../USER/main_03.c ****   if(**buf==0x0d) return -1;
 3194              		.loc 1 172 8 view .LVU964
 3195 001e 0020     		movs	r0, #0
 3196              	.LVL188:
 172:../USER/main_03.c ****   if(**buf==0x0d) return -1;
 3197              		.loc 1 172 8 view .LVU965
 3198 0020 08E0     		b	.L266
 3199              	.LVL189:
 3200              	.L277:
 3201              	.LBB518:
 3202              	.LBB519:
 163:../USER/main_03.c ****   else if(ch>='A' && ch<='F') hd = ch - 0x37;
 3203              		.loc 1 163 29 view .LVU966
 3204 0022 303B     		subs	r3, r3, #48
 3205              	.LVL190:
 163:../USER/main_03.c ****   else if(ch>='A' && ch<='F') hd = ch - 0x37;
 3206              		.loc 1 163 29 view .LVU967
 3207              	.LBE519:
 3208              	.LBE518:
 175:../USER/main_03.c ****   return num;
 3209              		.loc 1 175 36 is_stmt 1 view .LVU968
 3210              	.LBB523:
 3211              	.LBB520:
 166:../USER/main_03.c **** }
 3212              		.loc 1 166 3 view .LVU969
 166:../USER/main_03.c **** }
 3213              		.loc 1 166 3 is_stmt 0 view .LVU970
 3214              	.LBE520:
 3215              	.LBE523:
 175:../USER/main_03.c ****   return num;
 3216              		.loc 1 175 8 view .LVU971
 3217 0024 591C     		adds	r1, r3, #1
 3218 0026 11D0     		beq	.L262
 3219              	.L269:
 175:../USER/main_03.c ****   return num;
 3220              		.loc 1 175 63 view .LVU972
 3221 0028 0132     		adds	r2, r2, #1
 3222 002a 2A60     		str	r2, [r5]
 175:../USER/main_03.c ****   return num;
 3223              		.loc 1 175 40 view .LVU973
 3224 002c 03EB0010 		add	r0, r3, r0, lsl #4
 3225              	.LVL191:
 175:../USER/main_03.c ****   return num;
 3226              		.loc 1 175 57 is_stmt 1 view .LVU974
 3227 0030 92F90030 		ldrsb	r3, [r2]
 3228              	.LVL192:
 3229              	.L266:
 3230              	.LBB524:
 3231              	.LBI518:
 161:../USER/main_03.c ****   int hd;
 3232              		.loc 1 161 5 view .LVU975
 3233              	.LBB521:
 162:../USER/main_03.c ****   if(ch>='0' && ch<='9') hd = ch - 0x30;
 3234              		.loc 1 162 3 view .LVU976
 163:../USER/main_03.c ****   else if(ch>='A' && ch<='F') hd = ch - 0x37;
 3235              		.loc 1 163 3 view .LVU977
 163:../USER/main_03.c ****   else if(ch>='A' && ch<='F') hd = ch - 0x37;
 3236              		.loc 1 163 26 view .LVU978
 164:../USER/main_03.c ****   else hd = -1;
 3237              		.loc 1 164 8 view .LVU979
 164:../USER/main_03.c ****   else hd = -1;
 3238              		.loc 1 164 31 view .LVU980
 163:../USER/main_03.c ****   else if(ch>='A' && ch<='F') hd = ch - 0x37;
 3239              		.loc 1 163 14 is_stmt 0 view .LVU981
 3240 0034 D9B2     		uxtb	r1, r3
 163:../USER/main_03.c ****   else if(ch>='A' && ch<='F') hd = ch - 0x37;
 3241              		.loc 1 163 5 view .LVU982
 3242 0036 A1F13004 		sub	r4, r1, #48
 3243 003a 092C     		cmp	r4, #9
 164:../USER/main_03.c ****   else hd = -1;
 3244              		.loc 1 164 10 view .LVU983
 3245 003c A1F14101 		sub	r1, r1, #65
 163:../USER/main_03.c ****   else if(ch>='A' && ch<='F') hd = ch - 0x37;
 3246              		.loc 1 163 5 view .LVU984
 3247 0040 EFD9     		bls	.L277
 164:../USER/main_03.c ****   else hd = -1;
 3248              		.loc 1 164 10 view .LVU985
 3249 0042 0529     		cmp	r1, #5
 3250 0044 02D8     		bhi	.L262
 164:../USER/main_03.c ****   else hd = -1;
 3251              		.loc 1 164 34 view .LVU986
 3252 0046 373B     		subs	r3, r3, #55
 3253              	.LVL193:
 164:../USER/main_03.c ****   else hd = -1;
 3254              		.loc 1 164 34 view .LVU987
 3255              	.LBE521:
 3256              	.LBE524:
 175:../USER/main_03.c ****   return num;
 3257              		.loc 1 175 36 is_stmt 1 view .LVU988
 3258              	.LBB525:
 3259              	.LBB522:
 166:../USER/main_03.c **** }
 3260              		.loc 1 166 3 view .LVU989
 166:../USER/main_03.c **** }
 3261              		.loc 1 166 3 is_stmt 0 view .LVU990
 3262              	.LBE522:
 3263              	.LBE525:
 175:../USER/main_03.c ****   return num;
 3264              		.loc 1 175 8 view .LVU991
 3265 0048 591C     		adds	r1, r3, #1
 3266 004a EDD1     		bne	.L269
 3267              	.LVL194:
 3268              	.L262:
 175:../USER/main_03.c ****   return num;
 3269              		.loc 1 175 8 view .LVU992
 3270              	.LBE526:
 3271              	.LBE527:
 3272              		.loc 1 177 1 view .LVU993
 3273 004c 30BC     		pop	{r4, r5}
 3274              		.cfi_restore 5
 3275              		.cfi_restore 4
 3276              		.cfi_def_cfa_offset 0
 3277              	.LVL195:
 3278              		.loc 1 177 1 view .LVU994
 3279 004e 7047     		bx	lr
 3280              	.LVL196:
 3281              	.L270:
 173:../USER/main_03.c ****   while(**buf==' ') (*buf)++; /* spip sp*/
 3282              		.loc 1 173 26 view .LVU995
 3283 0050 4FF0FF30 		mov	r0, #-1
 3284              	.LVL197:
 3285              		.loc 1 177 1 view .LVU996
 3286 0054 7047     		bx	lr
 3287              		.cfi_endproc
 3288              	.LFE51:
 3290 0056 00BF     		.section	.text.startup.main,"ax",%progbits
 3291              		.align	1
 3292              		.p2align 2,,3
 3293              		.global	main
 3294              		.syntax unified
 3295              		.thumb
 3296              		.thumb_func
 3297              		.fpu softvfp
 3299              	main:
 3300              	.LFB52:
 178:../USER/main_03.c **** 
 179:../USER/main_03.c **** int main(void){
 3301              		.loc 1 179 15 is_stmt 1 view -0
 3302              		.cfi_startproc
 3303              		@ args = 0, pretend = 0, frame = 184
 3304              		@ frame_needed = 0, uses_anonymous_args = 0
 180:../USER/main_03.c **** 	unsigned char *mbase;
 3305              		.loc 1 180 2 view .LVU998
 181:../USER/main_03.c **** 	  long adr,ade,adro,dt,dtr,wk,sct,scr,sl;
 3306              		.loc 1 181 4 view .LVU999
 182:../USER/main_03.c **** 	  long i,j,mmd,rno;
 3307              		.loc 1 182 4 view .LVU1000
 183:../USER/main_03.c **** 	  unsigned int * cmp, *wrp, *sbp;
 3308              		.loc 1 183 4 view .LVU1001
 184:../USER/main_03.c **** 	  char cmd, cbuf[32], *cbp, **cbpp;
 3309              		.loc 1 184 4 view .LVU1002
 185:../USER/main_03.c **** 
 186:../USER/main_03.c **** 		char ch,kd;
 3310              		.loc 1 186 3 view .LVU1003
 187:../USER/main_03.c **** 		SystemInit();	//Initializes system
 3311              		.loc 1 187 3 view .LVU1004
 179:../USER/main_03.c **** 	unsigned char *mbase;
 3312              		.loc 1 179 15 is_stmt 0 view .LVU1005
 3313 0000 2DE9F04F 		push	{r4, r5, r6, r7, r8, r9, r10, fp, lr}
 3314              		.cfi_def_cfa_offset 36
 3315              		.cfi_offset 4, -36
 3316              		.cfi_offset 5, -32
 3317              		.cfi_offset 6, -28
 3318              		.cfi_offset 7, -24
 3319              		.cfi_offset 8, -20
 3320              		.cfi_offset 9, -16
 3321              		.cfi_offset 10, -12
 3322              		.cfi_offset 11, -8
 3323              		.cfi_offset 14, -4
 3324 0004 B1B0     		sub	sp, sp, #196
 3325              		.cfi_def_cfa_offset 232
 3326              		.loc 1 187 3 view .LVU1006
 3327 0006 FFF7FEFF 		bl	SystemInit
 3328              	.LVL198:
 188:../USER/main_03.c **** 		UartInit();
 3329              		.loc 1 188 3 is_stmt 1 view .LVU1007
 3330 000a FFF7FEFF 		bl	UartInit
 3331              	.LVL199:
 189:../USER/main_03.c **** 		SPIInit();		//Initializes SPI
 3332              		.loc 1 189 3 view .LVU1008
 3333              	.LBB900:
 3334              	.LBI900:
  72:../USER/main_03.c **** {
 3335              		.loc 1 72 6 view .LVU1009
 3336              	.LBB901:
  74:../USER/main_03.c ****   init_spi.CLKSEL= CLKSEL_CLK_DIV_4;		//80MHZ / 8
 3337              		.loc 1 74 2 view .LVU1010
  75:../USER/main_03.c ****   init_spi.DIRECTION = DISABLE;					//MSB First
 3338              		.loc 1 75 3 view .LVU1011
  76:../USER/main_03.c ****   init_spi.PHASE =DISABLE;							//ENABLE;//posedge
 3339              		.loc 1 76 3 view .LVU1012
  77:../USER/main_03.c ****   init_spi.POLARITY =DISABLE;						//polarity 0
 3340              		.loc 1 77 3 view .LVU1013
  78:../USER/main_03.c ****   SPI_Init(&init_spi);
 3341              		.loc 1 78 3 view .LVU1014
  76:../USER/main_03.c ****   init_spi.PHASE =DISABLE;							//ENABLE;//posedge
 3342              		.loc 1 76 22 is_stmt 0 view .LVU1015
 3343 000e 4FF08073 		mov	r3, #16777216
  79:../USER/main_03.c **** }
 3344              		.loc 1 79 3 view .LVU1016
 3345 0012 28A8     		add	r0, sp, #160
  76:../USER/main_03.c ****   init_spi.PHASE =DISABLE;							//ENABLE;//posedge
 3346              		.loc 1 76 22 view .LVU1017
 3347 0014 2893     		str	r3, [sp, #160]
  79:../USER/main_03.c **** }
 3348              		.loc 1 79 3 is_stmt 1 view .LVU1018
 3349 0016 FFF7FEFF 		bl	SPI_Init
 3350              	.LVL200:
 3351              	.LBE901:
 3352              	.LBE900:
 190:../USER/main_03.c **** 		check_gpio();
 3353              		.loc 1 190 3 view .LVU1019
 3354 001a FFF7FEFF 		bl	check_gpio
 3355              	.LVL201:
 191:../USER/main_03.c **** 
 192:../USER/main_03.c **** 		cbpp = &cbp; adro = 0; mbase = 0;
 3356              		.loc 1 192 3 view .LVU1020
 3357              		.loc 1 192 16 view .LVU1021
 3358              		.loc 1 192 26 view .LVU1022
 193:../USER/main_03.c **** 	  puts("\r\nMon_TN4K");
 3359              		.loc 1 193 4 view .LVU1023
 3360              	.LBB902:
 3361              	.LBI902:
 148:../USER/main_03.c **** 	while(1){
 3362              		.loc 1 148 6 view .LVU1024
 3363              	.LBB903:
 149:../USER/main_03.c **** 		if(*buf==0) break;
 3364              		.loc 1 149 2 view .LVU1025
 150:../USER/main_03.c **** 		else        putch(*buf++);
 3365              		.loc 1 150 3 view .LVU1026
 150:../USER/main_03.c **** 		else        putch(*buf++);
 3366              		.loc 1 150 6 is_stmt 0 view .LVU1027
 3367 001e 0D20     		movs	r0, #13
 3368              	.LBE903:
 3369              	.LBE902:
 190:../USER/main_03.c **** 
 3370              		.loc 1 190 3 view .LVU1028
 3371 0020 B74C     		ldr	r4, .L1219
 3372              	.LVL202:
 3373              	.L280:
 3374              	.LBB905:
 3375              	.LBB904:
 151:../USER/main_03.c **** 	}
 3376              		.loc 1 151 15 is_stmt 1 view .LVU1029
 151:../USER/main_03.c **** 	}
 3377              		.loc 1 151 15 is_stmt 0 view .LVU1030
 3378 0022 FFF7FEFF 		bl	putch_uart
 3379              	.LVL203:
 149:../USER/main_03.c **** 		if(*buf==0) break;
 3380              		.loc 1 149 2 is_stmt 1 view .LVU1031
 150:../USER/main_03.c **** 		else        putch(*buf++);
 3381              		.loc 1 150 3 view .LVU1032
 150:../USER/main_03.c **** 		else        putch(*buf++);
 3382              		.loc 1 150 6 is_stmt 0 view .LVU1033
 3383 0026 14F9010F 		ldrsb	r0, [r4, #1]!
 3384              	.LVL204:
 150:../USER/main_03.c **** 		else        putch(*buf++);
 3385              		.loc 1 150 5 view .LVU1034
 3386 002a 0028     		cmp	r0, #0
 3387 002c F9D1     		bne	.L280
 3388              	.LBE904:
 3389              	.LBE905:
 3390              	.LBB906:
 3391              	.LBB907:
 3392              	.LBB908:
 3393              	.LBB909:
 3394              	.LBB910:
 3395              	.LBB911:
 114:../USER/main_03.c **** 	//
 3396              		.loc 1 114 25 view .LVU1035
 3397 002e 0746     		mov	r7, r0
 3398 0030 DFF8D8A2 		ldr	r10, .L1219+12
 3399 0034 DFF8D882 		ldr	r8, .L1219+16
 3400 0038 DFF8D892 		ldr	r9, .L1219+20
 3401              	.LBE911:
 3402              	.LBE910:
 3403              	.LBE909:
 3404              	.LBE908:
 3405              	.LBE907:
 3406              	.LBE906:
 192:../USER/main_03.c **** 	  puts("\r\nMon_TN4K");
 3407              		.loc 1 192 21 view .LVU1036
 3408 003c 0B90     		str	r0, [sp, #44]
 3409              	.LVL205:
 3410              	.L279:
 194:../USER/main_03.c **** 	  while(1){
 3411              		.loc 1 194 4 is_stmt 1 view .LVU1037
 195:../USER/main_03.c **** 		  puts("\r\n>"); getssu(cbuf);
 3412              		.loc 1 195 5 view .LVU1038
 3413              	.LBB927:
 3414              	.LBI906:
 148:../USER/main_03.c **** 	while(1){
 3415              		.loc 1 148 6 view .LVU1039
 3416              	.LBB924:
 149:../USER/main_03.c **** 		if(*buf==0) break;
 3417              		.loc 1 149 2 view .LVU1040
 150:../USER/main_03.c **** 		else        putch(*buf++);
 3418              		.loc 1 150 3 view .LVU1041
 3419 003e DFF8D8B2 		ldr	fp, .L1219+24
 150:../USER/main_03.c **** 		else        putch(*buf++);
 3420              		.loc 1 150 6 is_stmt 0 view .LVU1042
 3421 0042 0D24     		movs	r4, #13
 3422              	.LBE924:
 3423              	.LBE927:
 192:../USER/main_03.c **** 	  puts("\r\nMon_TN4K");
 3424              		.loc 1 192 21 view .LVU1043
 3425 0044 5E46     		mov	r6, fp
 3426              	.LVL206:
 3427              	.L281:
 3428              	.LBB928:
 3429              	.LBB925:
 151:../USER/main_03.c **** 	}
 3430              		.loc 1 151 15 is_stmt 1 view .LVU1044
 3431              	.LBB922:
 3432              	.LBI908:
 127:../USER/main_03.c **** 	volatile uint32_t gpiord;
 3433              		.loc 1 127 6 view .LVU1045
 3434              	.LBB920:
 128:../USER/main_03.c **** 	if((mdgpio & 0x2000)==0)
 3435              		.loc 1 128 2 view .LVU1046
 129:../USER/main_03.c **** 		UART_SendChar(UART0,ch);
 3436              		.loc 1 129 2 view .LVU1047
 129:../USER/main_03.c **** 		UART_SendChar(UART0,ch);
 3437              		.loc 1 129 13 is_stmt 0 view .LVU1048
 3438 0046 DAF80030 		ldr	r3, [r10]
 129:../USER/main_03.c **** 		UART_SendChar(UART0,ch);
 3439              		.loc 1 129 4 view .LVU1049
 3440 004a 9B04     		lsls	r3, r3, #18
 3441 004c 40F1AA84 		bpl	.L1107
 132:../USER/main_03.c **** 		while((gpiord & 0x4000)!=0) {
 3442              		.loc 1 132 3 is_stmt 1 view .LVU1050
 132:../USER/main_03.c **** 		while((gpiord & 0x4000)!=0) {
 3443              		.loc 1 132 10 is_stmt 0 view .LVU1051
 3444 0050 4FF48043 		mov	r3, #16384
 3445 0054 0E93     		str	r3, [sp, #56]
 133:../USER/main_03.c **** 			key_check();
 3446              		.loc 1 133 3 is_stmt 1 view .LVU1052
 133:../USER/main_03.c **** 			key_check();
 3447              		.loc 1 133 17 is_stmt 0 view .LVU1053
 3448 0056 0E9B     		ldr	r3, [sp, #56]
 133:../USER/main_03.c **** 			key_check();
 3449              		.loc 1 133 8 view .LVU1054
 3450 0058 5D04     		lsls	r5, r3, #17
 3451 005a 2CD5     		bpl	.L291
 135:../USER/main_03.c **** 		}
 3452              		.loc 1 135 13 view .LVU1055
 3453 005c A94D     		ldr	r5, .L1219+4
 3454 005e 1DE0     		b	.L285
 3455              	.LVL207:
 3456              	.L1108:
 135:../USER/main_03.c **** 		}
 3457              		.loc 1 135 13 view .LVU1056
 3458 0060 D8F80030 		ldr	r3, [r8]
 3459              	.L287:
 3460              	.LBB914:
 3461              	.LBB912:
 114:../USER/main_03.c **** 	//
 3462              		.loc 1 114 2 is_stmt 1 view .LVU1057
 114:../USER/main_03.c **** 	//
 3463              		.loc 1 114 18 view .LVU1058
 114:../USER/main_03.c **** 	//
 3464              		.loc 1 114 4 is_stmt 0 view .LVU1059
 3465 0064 FF2B     		cmp	r3, #255
 3466 0066 02DD     		ble	.L288
 114:../USER/main_03.c **** 	//
 3467              		.loc 1 114 25 view .LVU1060
 3468 0068 0023     		movs	r3, #0
 3469 006a C8F80070 		str	r7, [r8]
 3470              	.L288:
 116:../USER/main_03.c **** 	if(kinbwp>=256) kinbwp = 0;
 3471              		.loc 1 116 39 is_stmt 1 view .LVU1061
 116:../USER/main_03.c **** 	if(kinbwp>=256) kinbwp = 0;
 3472              		.loc 1 116 2 view .LVU1062
 116:../USER/main_03.c **** 	if(kinbwp>=256) kinbwp = 0;
 3473              		.loc 1 116 11 is_stmt 0 view .LVU1063
 3474 006e 4FF04021 		mov	r1, #1073758208
 3475 0072 4868     		ldr	r0, [r1, #4]
 3476              	.LVL208:
 116:../USER/main_03.c **** 	if(kinbwp>=256) kinbwp = 0;
 3477              		.loc 1 116 52 view .LVU1064
 3478 0074 5A1C     		adds	r2, r3, #1
 116:../USER/main_03.c **** 	if(kinbwp>=256) kinbwp = 0;
 3479              		.loc 1 116 4 view .LVU1065
 3480 0076 8007     		lsls	r0, r0, #30
 3481 0078 09D5     		bpl	.L290
 117:../USER/main_03.c **** 	//
 3482              		.loc 1 117 25 view .LVU1066
 3483 007a B2F5807F 		cmp	r2, #256
 116:../USER/main_03.c **** 	if(kinbwp>=256) kinbwp = 0;
 3484              		.loc 1 116 63 view .LVU1067
 3485 007e 0868     		ldr	r0, [r1]
 117:../USER/main_03.c **** 	//
 3486              		.loc 1 117 25 view .LVU1068
 3487 0080 14BF     		ite	ne
 3488 0082 1146     		movne	r1, r2
 3489 0084 3946     		moveq	r1, r7
 116:../USER/main_03.c **** 	if(kinbwp>=256) kinbwp = 0;
 3490              		.loc 1 116 56 view .LVU1069
 3491 0086 09F80300 		strb	r0, [r9, r3]
 117:../USER/main_03.c **** 	//
 3492              		.loc 1 117 2 is_stmt 1 view .LVU1070
 117:../USER/main_03.c **** 	//
 3493              		.loc 1 117 25 is_stmt 0 view .LVU1071
 3494 008a C8F80010 		str	r1, [r8]
 3495              	.L290:
 117:../USER/main_03.c **** 	//
 3496              		.loc 1 117 25 view .LVU1072
 3497              	.LBE912:
 3498              	.LBE914:
 135:../USER/main_03.c **** 		}
 3499              		.loc 1 135 4 is_stmt 1 view .LVU1073
 135:../USER/main_03.c **** 		}
 3500              		.loc 1 135 13 is_stmt 0 view .LVU1074
 3501 008e 2846     		mov	r0, r5
 3502 0090 FFF7FEFF 		bl	GPIO_ReadBits
 3503              	.LVL209:
 135:../USER/main_03.c **** 		}
 3504              		.loc 1 135 11 view .LVU1075
 3505 0094 0E90     		str	r0, [sp, #56]
 133:../USER/main_03.c **** 			key_check();
 3506              		.loc 1 133 17 view .LVU1076
 3507 0096 0E9B     		ldr	r3, [sp, #56]
 133:../USER/main_03.c **** 			key_check();
 3508              		.loc 1 133 8 view .LVU1077
 3509 0098 5804     		lsls	r0, r3, #17
 3510 009a 0CD5     		bpl	.L291
 3511              	.L285:
 134:../USER/main_03.c **** 			gpiord = GPIO_ReadBits(GPIO0);
 3512              		.loc 1 134 4 is_stmt 1 view .LVU1078
 3513              	.LBB915:
 3514              	.LBI910:
 109:../USER/main_03.c **** 	char ch;
 3515              		.loc 1 109 6 view .LVU1079
 3516              	.LBB913:
 110:../USER/main_03.c **** 	//
 3517              		.loc 1 110 2 view .LVU1080
 112:../USER/main_03.c **** 	if(ch!=0) kinbuf[kinbwp++] = ch;
 3518              		.loc 1 112 2 view .LVU1081
 112:../USER/main_03.c **** 	if(ch!=0) kinbuf[kinbwp++] = ch;
 3519              		.loc 1 112 7 is_stmt 0 view .LVU1082
 3520 009c FFF7FEFF 		bl	SPI_ReadData
 3521              	.LVL210:
 113:../USER/main_03.c **** 	if(kinbwp>=256) kinbwp = 0;
 3522              		.loc 1 113 12 is_stmt 1 view .LVU1083
 112:../USER/main_03.c **** 	if(ch!=0) kinbuf[kinbwp++] = ch;
 3523              		.loc 1 112 5 is_stmt 0 view .LVU1084
 3524 00a0 40B2     		sxtb	r0, r0
 3525              	.LVL211:
 113:../USER/main_03.c **** 	if(kinbwp>=256) kinbwp = 0;
 3526              		.loc 1 113 2 is_stmt 1 view .LVU1085
 113:../USER/main_03.c **** 	if(kinbwp>=256) kinbwp = 0;
 3527              		.loc 1 113 4 is_stmt 0 view .LVU1086
 3528 00a2 0028     		cmp	r0, #0
 3529 00a4 DCD0     		beq	.L1108
 113:../USER/main_03.c **** 	if(kinbwp>=256) kinbwp = 0;
 3530              		.loc 1 113 25 view .LVU1087
 3531 00a6 D8F80020 		ldr	r2, [r8]
 3532 00aa 531C     		adds	r3, r2, #1
 113:../USER/main_03.c **** 	if(kinbwp>=256) kinbwp = 0;
 3533              		.loc 1 113 29 view .LVU1088
 3534 00ac 09F80200 		strb	r0, [r9, r2]
 113:../USER/main_03.c **** 	if(kinbwp>=256) kinbwp = 0;
 3535              		.loc 1 113 25 view .LVU1089
 3536 00b0 C8F80030 		str	r3, [r8]
 3537 00b4 D6E7     		b	.L287
 3538              	.LVL212:
 3539              	.L291:
 113:../USER/main_03.c **** 	if(kinbwp>=256) kinbwp = 0;
 3540              		.loc 1 113 25 view .LVU1090
 3541              	.LBE913:
 3542              	.LBE915:
 137:../USER/main_03.c **** 	}
 3543              		.loc 1 137 3 is_stmt 1 view .LVU1091
 3544 00b6 E0B2     		uxtb	r0, r4
 3545 00b8 FFF7FEFF 		bl	SPI_WriteData
 3546              	.LVL213:
 3547              	.L284:
 3548              	.LBB916:
 3549              	.LBB917:
 116:../USER/main_03.c **** 	if(kinbwp>=256) kinbwp = 0;
 3550              		.loc 1 116 11 is_stmt 0 view .LVU1092
 3551 00bc 4FF04025 		mov	r5, #1073758208
 3552 00c0 18E0     		b	.L297
 3553              	.LVL214:
 3554              	.L1110:
 116:../USER/main_03.c **** 	if(kinbwp>=256) kinbwp = 0;
 3555              		.loc 1 116 11 view .LVU1093
 3556 00c2 D8F80030 		ldr	r3, [r8]
 3557              	.L293:
 114:../USER/main_03.c **** 	//
 3558              		.loc 1 114 2 is_stmt 1 view .LVU1094
 114:../USER/main_03.c **** 	//
 3559              		.loc 1 114 18 view .LVU1095
 114:../USER/main_03.c **** 	//
 3560              		.loc 1 114 4 is_stmt 0 view .LVU1096
 3561 00c6 FF2B     		cmp	r3, #255
 3562 00c8 02DD     		ble	.L294
 114:../USER/main_03.c **** 	//
 3563              		.loc 1 114 25 view .LVU1097
 3564 00ca 0023     		movs	r3, #0
 3565 00cc C8F80070 		str	r7, [r8]
 3566              	.L294:
 116:../USER/main_03.c **** 	if(kinbwp>=256) kinbwp = 0;
 3567              		.loc 1 116 39 is_stmt 1 view .LVU1098
 116:../USER/main_03.c **** 	if(kinbwp>=256) kinbwp = 0;
 3568              		.loc 1 116 2 view .LVU1099
 116:../USER/main_03.c **** 	if(kinbwp>=256) kinbwp = 0;
 3569              		.loc 1 116 11 is_stmt 0 view .LVU1100
 3570 00d0 6968     		ldr	r1, [r5, #4]
 116:../USER/main_03.c **** 	if(kinbwp>=256) kinbwp = 0;
 3571              		.loc 1 116 52 view .LVU1101
 3572 00d2 5A1C     		adds	r2, r3, #1
 116:../USER/main_03.c **** 	if(kinbwp>=256) kinbwp = 0;
 3573              		.loc 1 116 4 view .LVU1102
 3574 00d4 8807     		lsls	r0, r1, #30
 3575              	.LVL215:
 116:../USER/main_03.c **** 	if(kinbwp>=256) kinbwp = 0;
 3576              		.loc 1 116 4 view .LVU1103
 3577 00d6 09D5     		bpl	.L296
 117:../USER/main_03.c **** 	//
 3578              		.loc 1 117 25 view .LVU1104
 3579 00d8 B2F5807F 		cmp	r2, #256
 3580 00dc 14BF     		ite	ne
 3581 00de 1146     		movne	r1, r2
 3582 00e0 3946     		moveq	r1, r7
 116:../USER/main_03.c **** 	if(kinbwp>=256) kinbwp = 0;
 3583              		.loc 1 116 63 view .LVU1105
 3584 00e2 2868     		ldr	r0, [r5]
 117:../USER/main_03.c **** 	//
 3585              		.loc 1 117 25 view .LVU1106
 3586 00e4 C8F80010 		str	r1, [r8]
 116:../USER/main_03.c **** 	if(kinbwp>=256) kinbwp = 0;
 3587              		.loc 1 116 56 view .LVU1107
 3588 00e8 09F80300 		strb	r0, [r9, r3]
 117:../USER/main_03.c **** 	//
 3589              		.loc 1 117 2 is_stmt 1 view .LVU1108
 3590              	.L296:
 117:../USER/main_03.c **** 	//
 3591              		.loc 1 117 2 is_stmt 0 view .LVU1109
 3592              	.LBE917:
 3593              	.LBE916:
 140:../USER/main_03.c **** }
 3594              		.loc 1 140 27 is_stmt 1 view .LVU1110
 140:../USER/main_03.c **** }
 3595              		.loc 1 140 32 is_stmt 0 view .LVU1111
 3596 00ec 2046     		mov	r0, r4
 3597 00ee FFF7FEFF 		bl	disp_vram
 3598              	.LVL216:
 140:../USER/main_03.c **** }
 3599              		.loc 1 140 2 view .LVU1112
 3600 00f2 60B1     		cbz	r0, .L1109
 3601              	.LVL217:
 3602              	.L297:
 140:../USER/main_03.c **** }
 3603              		.loc 1 140 2 is_stmt 1 view .LVU1113
 140:../USER/main_03.c **** }
 3604              		.loc 1 140 10 view .LVU1114
 140:../USER/main_03.c **** }
 3605              		.loc 1 140 14 view .LVU1115
 3606              	.LBB919:
 3607              	.LBI916:
 109:../USER/main_03.c **** 	char ch;
 3608              		.loc 1 109 6 view .LVU1116
 3609              	.LBB918:
 110:../USER/main_03.c **** 	//
 3610              		.loc 1 110 2 view .LVU1117
 112:../USER/main_03.c **** 	if(ch!=0) kinbuf[kinbwp++] = ch;
 3611              		.loc 1 112 2 view .LVU1118
 112:../USER/main_03.c **** 	if(ch!=0) kinbuf[kinbwp++] = ch;
 3612              		.loc 1 112 7 is_stmt 0 view .LVU1119
 3613 00f4 FFF7FEFF 		bl	SPI_ReadData
 3614              	.LVL218:
 113:../USER/main_03.c **** 	if(kinbwp>=256) kinbwp = 0;
 3615              		.loc 1 113 12 is_stmt 1 view .LVU1120
 112:../USER/main_03.c **** 	if(ch!=0) kinbuf[kinbwp++] = ch;
 3616              		.loc 1 112 5 is_stmt 0 view .LVU1121
 3617 00f8 40B2     		sxtb	r0, r0
 3618              	.LVL219:
 113:../USER/main_03.c **** 	if(kinbwp>=256) kinbwp = 0;
 3619              		.loc 1 113 2 is_stmt 1 view .LVU1122
 113:../USER/main_03.c **** 	if(kinbwp>=256) kinbwp = 0;
 3620              		.loc 1 113 4 is_stmt 0 view .LVU1123
 3621 00fa 0028     		cmp	r0, #0
 3622 00fc E1D0     		beq	.L1110
 113:../USER/main_03.c **** 	if(kinbwp>=256) kinbwp = 0;
 3623              		.loc 1 113 25 view .LVU1124
 3624 00fe D8F80020 		ldr	r2, [r8]
 3625 0102 531C     		adds	r3, r2, #1
 113:../USER/main_03.c **** 	if(kinbwp>=256) kinbwp = 0;
 3626              		.loc 1 113 29 view .LVU1125
 3627 0104 09F80200 		strb	r0, [r9, r2]
 113:../USER/main_03.c **** 	if(kinbwp>=256) kinbwp = 0;
 3628              		.loc 1 113 25 view .LVU1126
 3629 0108 C8F80030 		str	r3, [r8]
 3630 010c DBE7     		b	.L293
 3631              	.LVL220:
 3632              	.L1109:
 113:../USER/main_03.c **** 	if(kinbwp>=256) kinbwp = 0;
 3633              		.loc 1 113 25 view .LVU1127
 3634              	.LBE918:
 3635              	.LBE919:
 3636              	.LBE920:
 3637              	.LBE922:
 149:../USER/main_03.c **** 		if(*buf==0) break;
 3638              		.loc 1 149 2 is_stmt 1 view .LVU1128
 150:../USER/main_03.c **** 		else        putch(*buf++);
 3639              		.loc 1 150 3 view .LVU1129
 150:../USER/main_03.c **** 		else        putch(*buf++);
 3640              		.loc 1 150 6 is_stmt 0 view .LVU1130
 3641 010e 16F9014F 		ldrsb	r4, [r6, #1]!
 3642              	.LVL221:
 150:../USER/main_03.c **** 		else        putch(*buf++);
 3643              		.loc 1 150 5 view .LVU1131
 3644 0112 002C     		cmp	r4, #0
 3645 0114 97D1     		bne	.L281
 3646 0116 28AE     		add	r6, sp, #160
 3647              	.LVL222:
 3648              	.L282:
 150:../USER/main_03.c **** 		else        putch(*buf++);
 3649              		.loc 1 150 5 view .LVU1132
 3650              	.LBE925:
 3651              	.LBE928:
 3652              	.LBB929:
 3653              	.LBB930:
 3654              	.LBB931:
 155:../USER/main_03.c **** 	while(1){
 3655              		.loc 1 155 2 is_stmt 1 view .LVU1133
 156:../USER/main_03.c **** 		ch = getch(); putch(ch); *buf++ = ch;
 3656              		.loc 1 156 2 view .LVU1134
 157:../USER/main_03.c **** 		if(ch==0x0d) break;
 3657              		.loc 1 157 3 view .LVU1135
 3658              	.LBB932:
 3659              	.LBI932:
 120:../USER/main_03.c **** 	char dt;
 3660              		.loc 1 120 6 view .LVU1136
 3661              	.LBB933:
 3662              	.LBB934:
 3663              	.LBB935:
 116:../USER/main_03.c **** 	if(kinbwp>=256) kinbwp = 0;
 3664              		.loc 1 116 11 is_stmt 0 view .LVU1137
 3665 0118 4FF04024 		mov	r4, #1073758208
 3666 011c D8F80030 		ldr	r3, [r8]
 3667              	.L306:
 3668              	.LBE935:
 3669              	.LBE934:
 122:../USER/main_03.c **** 	dt = kinbuf[kinbrp++];
 3670              		.loc 1 122 14 view .LVU1138
 3671 0120 794A     		ldr	r2, .L1219+8
 3672 0122 1268     		ldr	r2, [r2]
 122:../USER/main_03.c **** 	dt = kinbuf[kinbrp++];
 3673              		.loc 1 122 7 view .LVU1139
 3674 0124 9A42     		cmp	r2, r3
 3675 0126 31D1     		bne	.L1111
 3676              	.L307:
 122:../USER/main_03.c **** 	dt = kinbuf[kinbrp++];
 3677              		.loc 1 122 24 is_stmt 1 view .LVU1140
 3678              	.LBB938:
 3679              	.LBI934:
 109:../USER/main_03.c **** 	char ch;
 3680              		.loc 1 109 6 view .LVU1141
 3681              	.LBB936:
 110:../USER/main_03.c **** 	//
 3682              		.loc 1 110 2 view .LVU1142
 112:../USER/main_03.c **** 	if(ch!=0) kinbuf[kinbwp++] = ch;
 3683              		.loc 1 112 2 view .LVU1143
 112:../USER/main_03.c **** 	if(ch!=0) kinbuf[kinbwp++] = ch;
 3684              		.loc 1 112 7 is_stmt 0 view .LVU1144
 3685 0128 FFF7FEFF 		bl	SPI_ReadData
 3686              	.LVL223:
 112:../USER/main_03.c **** 	if(ch!=0) kinbuf[kinbwp++] = ch;
 3687              		.loc 1 112 5 view .LVU1145
 3688 012c 40B2     		sxtb	r0, r0
 3689              	.LVL224:
 113:../USER/main_03.c **** 	if(kinbwp>=256) kinbwp = 0;
 3690              		.loc 1 113 2 is_stmt 1 view .LVU1146
 113:../USER/main_03.c **** 	if(kinbwp>=256) kinbwp = 0;
 3691              		.loc 1 113 4 is_stmt 0 view .LVU1147
 3692 012e 88B9     		cbnz	r0, .L300
 3693 0130 D8F80030 		ldr	r3, [r8]
 114:../USER/main_03.c **** 	//
 3694              		.loc 1 114 2 is_stmt 1 view .LVU1148
 114:../USER/main_03.c **** 	//
 3695              		.loc 1 114 4 is_stmt 0 view .LVU1149
 3696 0134 FF2B     		cmp	r3, #255
 3697 0136 16DD     		ble	.L302
 3698              	.L1112:
 114:../USER/main_03.c **** 	//
 3699              		.loc 1 114 18 is_stmt 1 view .LVU1150
 116:../USER/main_03.c **** 	if(kinbwp>=256) kinbwp = 0;
 3700              		.loc 1 116 11 is_stmt 0 view .LVU1151
 3701 0138 6368     		ldr	r3, [r4, #4]
 114:../USER/main_03.c **** 	//
 3702              		.loc 1 114 25 view .LVU1152
 3703 013a C8F80070 		str	r7, [r8]
 116:../USER/main_03.c **** 	if(kinbwp>=256) kinbwp = 0;
 3704              		.loc 1 116 2 is_stmt 1 view .LVU1153
 116:../USER/main_03.c **** 	if(kinbwp>=256) kinbwp = 0;
 3705              		.loc 1 116 4 is_stmt 0 view .LVU1154
 3706 013e 13F00203 		ands	r3, r3, #2
 3707 0142 EDD0     		beq	.L306
 116:../USER/main_03.c **** 	if(kinbwp>=256) kinbwp = 0;
 3708              		.loc 1 116 39 is_stmt 1 view .LVU1155
 116:../USER/main_03.c **** 	if(kinbwp>=256) kinbwp = 0;
 3709              		.loc 1 116 52 is_stmt 0 view .LVU1156
 3710 0144 0122     		movs	r2, #1
 116:../USER/main_03.c **** 	if(kinbwp>=256) kinbwp = 0;
 3711              		.loc 1 116 63 view .LVU1157
 3712 0146 2368     		ldr	r3, [r4]
 116:../USER/main_03.c **** 	if(kinbwp>=256) kinbwp = 0;
 3713              		.loc 1 116 52 view .LVU1158
 3714 0148 C8F80020 		str	r2, [r8]
 116:../USER/main_03.c **** 	if(kinbwp>=256) kinbwp = 0;
 3715              		.loc 1 116 56 view .LVU1159
 3716 014c 89F80030 		strb	r3, [r9]
 117:../USER/main_03.c **** 	//
 3717              		.loc 1 117 2 is_stmt 1 view .LVU1160
 3718              	.L930:
 116:../USER/main_03.c **** 	if(kinbwp>=256) kinbwp = 0;
 3719              		.loc 1 116 4 is_stmt 0 view .LVU1161
 3720 0150 1346     		mov	r3, r2
 3721 0152 E5E7     		b	.L306
 3722              	.L300:
 113:../USER/main_03.c **** 	if(kinbwp>=256) kinbwp = 0;
 3723              		.loc 1 113 12 is_stmt 1 view .LVU1162
 113:../USER/main_03.c **** 	if(kinbwp>=256) kinbwp = 0;
 3724              		.loc 1 113 25 is_stmt 0 view .LVU1163
 3725 0154 D8F80020 		ldr	r2, [r8]
 3726 0158 531C     		adds	r3, r2, #1
 114:../USER/main_03.c **** 	//
 3727              		.loc 1 114 4 view .LVU1164
 3728 015a FF2B     		cmp	r3, #255
 113:../USER/main_03.c **** 	if(kinbwp>=256) kinbwp = 0;
 3729              		.loc 1 113 29 view .LVU1165
 3730 015c 09F80200 		strb	r0, [r9, r2]
 113:../USER/main_03.c **** 	if(kinbwp>=256) kinbwp = 0;
 3731              		.loc 1 113 25 view .LVU1166
 3732 0160 C8F80030 		str	r3, [r8]
 114:../USER/main_03.c **** 	//
 3733              		.loc 1 114 2 is_stmt 1 view .LVU1167
 114:../USER/main_03.c **** 	//
 3734              		.loc 1 114 4 is_stmt 0 view .LVU1168
 3735 0164 E8DC     		bgt	.L1112
 3736              	.L302:
 116:../USER/main_03.c **** 	if(kinbwp>=256) kinbwp = 0;
 3737              		.loc 1 116 2 is_stmt 1 view .LVU1169
 116:../USER/main_03.c **** 	if(kinbwp>=256) kinbwp = 0;
 3738              		.loc 1 116 11 is_stmt 0 view .LVU1170
 3739 0166 6268     		ldr	r2, [r4, #4]
 116:../USER/main_03.c **** 	if(kinbwp>=256) kinbwp = 0;
 3740              		.loc 1 116 4 view .LVU1171
 3741 0168 9507     		lsls	r5, r2, #30
 3742 016a D9D5     		bpl	.L306
 116:../USER/main_03.c **** 	if(kinbwp>=256) kinbwp = 0;
 3743              		.loc 1 116 39 is_stmt 1 view .LVU1172
 116:../USER/main_03.c **** 	if(kinbwp>=256) kinbwp = 0;
 3744              		.loc 1 116 63 is_stmt 0 view .LVU1173
 3745 016c 2168     		ldr	r1, [r4]
 116:../USER/main_03.c **** 	if(kinbwp>=256) kinbwp = 0;
 3746              		.loc 1 116 52 view .LVU1174
 3747 016e 5A1C     		adds	r2, r3, #1
 117:../USER/main_03.c **** 	//
 3748              		.loc 1 117 4 view .LVU1175
 3749 0170 B2F5807F 		cmp	r2, #256
 116:../USER/main_03.c **** 	if(kinbwp>=256) kinbwp = 0;
 3750              		.loc 1 116 56 view .LVU1176
 3751 0174 09F80310 		strb	r1, [r9, r3]
 117:../USER/main_03.c **** 	//
 3752              		.loc 1 117 2 is_stmt 1 view .LVU1177
 116:../USER/main_03.c **** 	if(kinbwp>=256) kinbwp = 0;
 3753              		.loc 1 116 52 is_stmt 0 view .LVU1178
 3754 0178 C8F80020 		str	r2, [r8]
 117:../USER/main_03.c **** 	//
 3755              		.loc 1 117 4 view .LVU1179
 3756 017c E8D1     		bne	.L930
 117:../USER/main_03.c **** 	//
 3757              		.loc 1 117 18 is_stmt 1 view .LVU1180
 3758 017e 0023     		movs	r3, #0
 3759              	.LBE936:
 3760              	.LBE938:
 122:../USER/main_03.c **** 	dt = kinbuf[kinbrp++];
 3761              		.loc 1 122 14 is_stmt 0 view .LVU1181
 3762 0180 614A     		ldr	r2, .L1219+8
 3763              	.LBB939:
 3764              	.LBB937:
 117:../USER/main_03.c **** 	//
 3765              		.loc 1 117 25 view .LVU1182
 3766 0182 C8F80070 		str	r7, [r8]
 3767              	.LBE937:
 3768              	.LBE939:
 122:../USER/main_03.c **** 	dt = kinbuf[kinbrp++];
 3769              		.loc 1 122 14 view .LVU1183
 3770 0186 1268     		ldr	r2, [r2]
 122:../USER/main_03.c **** 	dt = kinbuf[kinbrp++];
 3771              		.loc 1 122 7 view .LVU1184
 3772 0188 9A42     		cmp	r2, r3
 3773 018a CDD0     		beq	.L307
 3774              	.LVL225:
 3775              	.L1111:
 123:../USER/main_03.c **** 	if(kinbrp>=256) kinbrp = 0;
 3776              		.loc 1 123 2 is_stmt 1 view .LVU1185
 123:../USER/main_03.c **** 	if(kinbrp>=256) kinbrp = 0;
 3777              		.loc 1 123 20 is_stmt 0 view .LVU1186
 3778 018c 531C     		adds	r3, r2, #1
 124:../USER/main_03.c **** 	return dt;
 3779              		.loc 1 124 25 view .LVU1187
 3780 018e B3F5807F 		cmp	r3, #256
 3781 0192 B4BF     		ite	lt
 3782 0194 1946     		movlt	r1, r3
 3783 0196 3946     		movge	r1, r7
 123:../USER/main_03.c **** 	if(kinbrp>=256) kinbrp = 0;
 3784              		.loc 1 123 20 view .LVU1188
 3785 0198 5B48     		ldr	r0, .L1219+8
 3786              	.LBE933:
 3787              	.LBE932:
 3788              	.LBB942:
 3789              	.LBB943:
 129:../USER/main_03.c **** 		UART_SendChar(UART0,ch);
 3790              		.loc 1 129 13 view .LVU1189
 3791 019a DAF80030 		ldr	r3, [r10]
 3792              	.LBE943:
 3793              	.LBE942:
 3794              	.LBB955:
 3795              	.LBB940:
 124:../USER/main_03.c **** 	return dt;
 3796              		.loc 1 124 25 view .LVU1190
 3797 019e 0160     		str	r1, [r0]
 3798              	.LBE940:
 3799              	.LBE955:
 3800              	.LBB956:
 3801              	.LBB952:
 129:../USER/main_03.c **** 		UART_SendChar(UART0,ch);
 3802              		.loc 1 129 4 view .LVU1191
 3803 01a0 9904     		lsls	r1, r3, #18
 3804              	.LBE952:
 3805              	.LBE956:
 3806              	.LBB957:
 3807              	.LBB941:
 123:../USER/main_03.c **** 	if(kinbrp>=256) kinbrp = 0;
 3808              		.loc 1 123 5 view .LVU1192
 3809 01a2 19F90240 		ldrsb	r4, [r9, r2]
 3810              	.LVL226:
 124:../USER/main_03.c **** 	return dt;
 3811              		.loc 1 124 2 is_stmt 1 view .LVU1193
 125:../USER/main_03.c **** }
 3812              		.loc 1 125 2 view .LVU1194
 125:../USER/main_03.c **** }
 3813              		.loc 1 125 2 is_stmt 0 view .LVU1195
 3814              	.LBE941:
 3815              	.LBE957:
 157:../USER/main_03.c **** 		if(ch==0x0d) break;
 3816              		.loc 1 157 17 is_stmt 1 view .LVU1196
 3817              	.LBB958:
 3818              	.LBI942:
 127:../USER/main_03.c **** 	volatile uint32_t gpiord;
 3819              		.loc 1 127 6 view .LVU1197
 3820              	.LBB953:
 128:../USER/main_03.c **** 	if((mdgpio & 0x2000)==0)
 3821              		.loc 1 128 2 view .LVU1198
 129:../USER/main_03.c **** 		UART_SendChar(UART0,ch);
 3822              		.loc 1 129 2 view .LVU1199
 129:../USER/main_03.c **** 		UART_SendChar(UART0,ch);
 3823              		.loc 1 129 4 is_stmt 0 view .LVU1200
 3824 01a6 40F1F783 		bpl	.L1113
 132:../USER/main_03.c **** 		while((gpiord & 0x4000)!=0) {
 3825              		.loc 1 132 3 is_stmt 1 view .LVU1201
 132:../USER/main_03.c **** 		while((gpiord & 0x4000)!=0) {
 3826              		.loc 1 132 10 is_stmt 0 view .LVU1202
 3827 01aa 4FF48043 		mov	r3, #16384
 3828 01ae 0F93     		str	r3, [sp, #60]
 133:../USER/main_03.c **** 			key_check();
 3829              		.loc 1 133 3 is_stmt 1 view .LVU1203
 133:../USER/main_03.c **** 			key_check();
 3830              		.loc 1 133 17 is_stmt 0 view .LVU1204
 3831 01b0 0F9B     		ldr	r3, [sp, #60]
 133:../USER/main_03.c **** 			key_check();
 3832              		.loc 1 133 8 view .LVU1205
 3833 01b2 5A04     		lsls	r2, r3, #17
 3834 01b4 2CD5     		bpl	.L317
 135:../USER/main_03.c **** 		}
 3835              		.loc 1 135 13 view .LVU1206
 3836 01b6 534D     		ldr	r5, .L1219+4
 3837 01b8 1DE0     		b	.L311
 3838              	.LVL227:
 3839              	.L1114:
 135:../USER/main_03.c **** 		}
 3840              		.loc 1 135 13 view .LVU1207
 3841 01ba D8F80030 		ldr	r3, [r8]
 3842              	.L313:
 3843              	.LBB944:
 3844              	.LBB945:
 114:../USER/main_03.c **** 	//
 3845              		.loc 1 114 2 is_stmt 1 view .LVU1208
 114:../USER/main_03.c **** 	//
 3846              		.loc 1 114 18 view .LVU1209
 114:../USER/main_03.c **** 	//
 3847              		.loc 1 114 4 is_stmt 0 view .LVU1210
 3848 01be FF2B     		cmp	r3, #255
 3849 01c0 02DD     		ble	.L314
 114:../USER/main_03.c **** 	//
 3850              		.loc 1 114 25 view .LVU1211
 3851 01c2 0023     		movs	r3, #0
 3852 01c4 C8F80070 		str	r7, [r8]
 3853              	.L314:
 116:../USER/main_03.c **** 	if(kinbwp>=256) kinbwp = 0;
 3854              		.loc 1 116 39 is_stmt 1 view .LVU1212
 116:../USER/main_03.c **** 	if(kinbwp>=256) kinbwp = 0;
 3855              		.loc 1 116 2 view .LVU1213
 116:../USER/main_03.c **** 	if(kinbwp>=256) kinbwp = 0;
 3856              		.loc 1 116 11 is_stmt 0 view .LVU1214
 3857 01c8 4FF04021 		mov	r1, #1073758208
 3858 01cc 4868     		ldr	r0, [r1, #4]
 3859              	.LVL228:
 116:../USER/main_03.c **** 	if(kinbwp>=256) kinbwp = 0;
 3860              		.loc 1 116 52 view .LVU1215
 3861 01ce 5A1C     		adds	r2, r3, #1
 116:../USER/main_03.c **** 	if(kinbwp>=256) kinbwp = 0;
 3862              		.loc 1 116 4 view .LVU1216
 3863 01d0 8007     		lsls	r0, r0, #30
 3864 01d2 09D5     		bpl	.L316
 117:../USER/main_03.c **** 	//
 3865              		.loc 1 117 25 view .LVU1217
 3866 01d4 B2F5807F 		cmp	r2, #256
 116:../USER/main_03.c **** 	if(kinbwp>=256) kinbwp = 0;
 3867              		.loc 1 116 63 view .LVU1218
 3868 01d8 0868     		ldr	r0, [r1]
 117:../USER/main_03.c **** 	//
 3869              		.loc 1 117 25 view .LVU1219
 3870 01da 14BF     		ite	ne
 3871 01dc 1146     		movne	r1, r2
 3872 01de 3946     		moveq	r1, r7
 116:../USER/main_03.c **** 	if(kinbwp>=256) kinbwp = 0;
 3873              		.loc 1 116 56 view .LVU1220
 3874 01e0 09F80300 		strb	r0, [r9, r3]
 117:../USER/main_03.c **** 	//
 3875              		.loc 1 117 2 is_stmt 1 view .LVU1221
 117:../USER/main_03.c **** 	//
 3876              		.loc 1 117 25 is_stmt 0 view .LVU1222
 3877 01e4 C8F80010 		str	r1, [r8]
 3878              	.L316:
 117:../USER/main_03.c **** 	//
 3879              		.loc 1 117 25 view .LVU1223
 3880              	.LBE945:
 3881              	.LBE944:
 135:../USER/main_03.c **** 		}
 3882              		.loc 1 135 4 is_stmt 1 view .LVU1224
 135:../USER/main_03.c **** 		}
 3883              		.loc 1 135 13 is_stmt 0 view .LVU1225
 3884 01e8 2846     		mov	r0, r5
 3885 01ea FFF7FEFF 		bl	GPIO_ReadBits
 3886              	.LVL229:
 135:../USER/main_03.c **** 		}
 3887              		.loc 1 135 11 view .LVU1226
 3888 01ee 0F90     		str	r0, [sp, #60]
 133:../USER/main_03.c **** 			key_check();
 3889              		.loc 1 133 17 view .LVU1227
 3890 01f0 0F9B     		ldr	r3, [sp, #60]
 133:../USER/main_03.c **** 			key_check();
 3891              		.loc 1 133 8 view .LVU1228
 3892 01f2 5B04     		lsls	r3, r3, #17
 3893 01f4 0CD5     		bpl	.L317
 3894              	.L311:
 134:../USER/main_03.c **** 			gpiord = GPIO_ReadBits(GPIO0);
 3895              		.loc 1 134 4 is_stmt 1 view .LVU1229
 3896              	.LBB947:
 3897              	.LBI944:
 109:../USER/main_03.c **** 	char ch;
 3898              		.loc 1 109 6 view .LVU1230
 3899              	.LBB946:
 110:../USER/main_03.c **** 	//
 3900              		.loc 1 110 2 view .LVU1231
 112:../USER/main_03.c **** 	if(ch!=0) kinbuf[kinbwp++] = ch;
 3901              		.loc 1 112 2 view .LVU1232
 112:../USER/main_03.c **** 	if(ch!=0) kinbuf[kinbwp++] = ch;
 3902              		.loc 1 112 7 is_stmt 0 view .LVU1233
 3903 01f6 FFF7FEFF 		bl	SPI_ReadData
 3904              	.LVL230:
 113:../USER/main_03.c **** 	if(kinbwp>=256) kinbwp = 0;
 3905              		.loc 1 113 12 is_stmt 1 view .LVU1234
 112:../USER/main_03.c **** 	if(ch!=0) kinbuf[kinbwp++] = ch;
 3906              		.loc 1 112 5 is_stmt 0 view .LVU1235
 3907 01fa 40B2     		sxtb	r0, r0
 3908              	.LVL231:
 113:../USER/main_03.c **** 	if(kinbwp>=256) kinbwp = 0;
 3909              		.loc 1 113 2 is_stmt 1 view .LVU1236
 113:../USER/main_03.c **** 	if(kinbwp>=256) kinbwp = 0;
 3910              		.loc 1 113 4 is_stmt 0 view .LVU1237
 3911 01fc 0028     		cmp	r0, #0
 3912 01fe DCD0     		beq	.L1114
 113:../USER/main_03.c **** 	if(kinbwp>=256) kinbwp = 0;
 3913              		.loc 1 113 25 view .LVU1238
 3914 0200 D8F80020 		ldr	r2, [r8]
 3915 0204 531C     		adds	r3, r2, #1
 113:../USER/main_03.c **** 	if(kinbwp>=256) kinbwp = 0;
 3916              		.loc 1 113 29 view .LVU1239
 3917 0206 09F80200 		strb	r0, [r9, r2]
 113:../USER/main_03.c **** 	if(kinbwp>=256) kinbwp = 0;
 3918              		.loc 1 113 25 view .LVU1240
 3919 020a C8F80030 		str	r3, [r8]
 3920 020e D6E7     		b	.L313
 3921              	.LVL232:
 3922              	.L317:
 113:../USER/main_03.c **** 	if(kinbwp>=256) kinbwp = 0;
 3923              		.loc 1 113 25 view .LVU1241
 3924              	.LBE946:
 3925              	.LBE947:
 137:../USER/main_03.c **** 	}
 3926              		.loc 1 137 3 is_stmt 1 view .LVU1242
 3927 0210 E0B2     		uxtb	r0, r4
 3928 0212 FFF7FEFF 		bl	SPI_WriteData
 3929              	.LVL233:
 3930              	.L310:
 3931              	.LBB948:
 3932              	.LBB949:
 116:../USER/main_03.c **** 	if(kinbwp>=256) kinbwp = 0;
 3933              		.loc 1 116 11 is_stmt 0 view .LVU1243
 3934 0216 4FF04025 		mov	r5, #1073758208
 3935 021a 18E0     		b	.L323
 3936              	.LVL234:
 3937              	.L1116:
 116:../USER/main_03.c **** 	if(kinbwp>=256) kinbwp = 0;
 3938              		.loc 1 116 11 view .LVU1244
 3939 021c D8F80030 		ldr	r3, [r8]
 3940              	.L319:
 114:../USER/main_03.c **** 	//
 3941              		.loc 1 114 2 is_stmt 1 view .LVU1245
 114:../USER/main_03.c **** 	//
 3942              		.loc 1 114 18 view .LVU1246
 114:../USER/main_03.c **** 	//
 3943              		.loc 1 114 4 is_stmt 0 view .LVU1247
 3944 0220 FF2B     		cmp	r3, #255
 3945 0222 02DD     		ble	.L320
 114:../USER/main_03.c **** 	//
 3946              		.loc 1 114 25 view .LVU1248
 3947 0224 0023     		movs	r3, #0
 3948 0226 C8F80070 		str	r7, [r8]
 3949              	.L320:
 116:../USER/main_03.c **** 	if(kinbwp>=256) kinbwp = 0;
 3950              		.loc 1 116 39 is_stmt 1 view .LVU1249
 116:../USER/main_03.c **** 	if(kinbwp>=256) kinbwp = 0;
 3951              		.loc 1 116 2 view .LVU1250
 116:../USER/main_03.c **** 	if(kinbwp>=256) kinbwp = 0;
 3952              		.loc 1 116 11 is_stmt 0 view .LVU1251
 3953 022a 6968     		ldr	r1, [r5, #4]
 116:../USER/main_03.c **** 	if(kinbwp>=256) kinbwp = 0;
 3954              		.loc 1 116 52 view .LVU1252
 3955 022c 5A1C     		adds	r2, r3, #1
 116:../USER/main_03.c **** 	if(kinbwp>=256) kinbwp = 0;
 3956              		.loc 1 116 4 view .LVU1253
 3957 022e 8807     		lsls	r0, r1, #30
 3958              	.LVL235:
 116:../USER/main_03.c **** 	if(kinbwp>=256) kinbwp = 0;
 3959              		.loc 1 116 4 view .LVU1254
 3960 0230 09D5     		bpl	.L322
 117:../USER/main_03.c **** 	//
 3961              		.loc 1 117 25 view .LVU1255
 3962 0232 B2F5807F 		cmp	r2, #256
 3963 0236 14BF     		ite	ne
 3964 0238 1146     		movne	r1, r2
 3965 023a 3946     		moveq	r1, r7
 116:../USER/main_03.c **** 	if(kinbwp>=256) kinbwp = 0;
 3966              		.loc 1 116 63 view .LVU1256
 3967 023c 2868     		ldr	r0, [r5]
 117:../USER/main_03.c **** 	//
 3968              		.loc 1 117 25 view .LVU1257
 3969 023e C8F80010 		str	r1, [r8]
 116:../USER/main_03.c **** 	if(kinbwp>=256) kinbwp = 0;
 3970              		.loc 1 116 56 view .LVU1258
 3971 0242 09F80300 		strb	r0, [r9, r3]
 117:../USER/main_03.c **** 	//
 3972              		.loc 1 117 2 is_stmt 1 view .LVU1259
 3973              	.L322:
 117:../USER/main_03.c **** 	//
 3974              		.loc 1 117 2 is_stmt 0 view .LVU1260
 3975              	.LBE949:
 3976              	.LBE948:
 140:../USER/main_03.c **** }
 3977              		.loc 1 140 27 is_stmt 1 view .LVU1261
 140:../USER/main_03.c **** }
 3978              		.loc 1 140 32 is_stmt 0 view .LVU1262
 3979 0246 2046     		mov	r0, r4
 3980 0248 FFF7FEFF 		bl	disp_vram
 3981              	.LVL236:
 140:../USER/main_03.c **** }
 3982              		.loc 1 140 2 view .LVU1263
 3983 024c 60B1     		cbz	r0, .L1115
 3984              	.LVL237:
 3985              	.L323:
 140:../USER/main_03.c **** }
 3986              		.loc 1 140 2 is_stmt 1 view .LVU1264
 140:../USER/main_03.c **** }
 3987              		.loc 1 140 10 view .LVU1265
 140:../USER/main_03.c **** }
 3988              		.loc 1 140 14 view .LVU1266
 3989              	.LBB951:
 3990              	.LBI948:
 109:../USER/main_03.c **** 	char ch;
 3991              		.loc 1 109 6 view .LVU1267
 3992              	.LBB950:
 110:../USER/main_03.c **** 	//
 3993              		.loc 1 110 2 view .LVU1268
 112:../USER/main_03.c **** 	if(ch!=0) kinbuf[kinbwp++] = ch;
 3994              		.loc 1 112 2 view .LVU1269
 112:../USER/main_03.c **** 	if(ch!=0) kinbuf[kinbwp++] = ch;
 3995              		.loc 1 112 7 is_stmt 0 view .LVU1270
 3996 024e FFF7FEFF 		bl	SPI_ReadData
 3997              	.LVL238:
 113:../USER/main_03.c **** 	if(kinbwp>=256) kinbwp = 0;
 3998              		.loc 1 113 12 is_stmt 1 view .LVU1271
 112:../USER/main_03.c **** 	if(ch!=0) kinbuf[kinbwp++] = ch;
 3999              		.loc 1 112 5 is_stmt 0 view .LVU1272
 4000 0252 40B2     		sxtb	r0, r0
 4001              	.LVL239:
 113:../USER/main_03.c **** 	if(kinbwp>=256) kinbwp = 0;
 4002              		.loc 1 113 2 is_stmt 1 view .LVU1273
 113:../USER/main_03.c **** 	if(kinbwp>=256) kinbwp = 0;
 4003              		.loc 1 113 4 is_stmt 0 view .LVU1274
 4004 0254 0028     		cmp	r0, #0
 4005 0256 E1D0     		beq	.L1116
 113:../USER/main_03.c **** 	if(kinbwp>=256) kinbwp = 0;
 4006              		.loc 1 113 25 view .LVU1275
 4007 0258 D8F80020 		ldr	r2, [r8]
 4008 025c 531C     		adds	r3, r2, #1
 113:../USER/main_03.c **** 	if(kinbwp>=256) kinbwp = 0;
 4009              		.loc 1 113 29 view .LVU1276
 4010 025e 09F80200 		strb	r0, [r9, r2]
 113:../USER/main_03.c **** 	if(kinbwp>=256) kinbwp = 0;
 4011              		.loc 1 113 25 view .LVU1277
 4012 0262 C8F80030 		str	r3, [r8]
 4013 0266 DBE7     		b	.L319
 4014              	.LVL240:
 4015              	.L1115:
 113:../USER/main_03.c **** 	if(kinbwp>=256) kinbwp = 0;
 4016              		.loc 1 113 25 view .LVU1278
 4017              	.LBE950:
 4018              	.LBE951:
 4019              	.LBE953:
 4020              	.LBE958:
 157:../USER/main_03.c **** 		if(ch==0x0d) break;
 4021              		.loc 1 157 28 is_stmt 1 view .LVU1279
 158:../USER/main_03.c **** 	}
 4022              		.loc 1 158 5 is_stmt 0 view .LVU1280
 4023 0268 0D2C     		cmp	r4, #13
 157:../USER/main_03.c **** 		if(ch==0x0d) break;
 4024              		.loc 1 157 35 view .LVU1281
 4025 026a 06F8014B 		strb	r4, [r6], #1
 4026              	.LVL241:
 158:../USER/main_03.c **** 	}
 4027              		.loc 1 158 3 is_stmt 1 view .LVU1282
 158:../USER/main_03.c **** 	}
 4028              		.loc 1 158 5 is_stmt 0 view .LVU1283
 4029 026e 7FF453AF 		bne	.L282
 4030              	.LVL242:
 158:../USER/main_03.c **** 	}
 4031              		.loc 1 158 5 view .LVU1284
 4032              	.LBE931:
 4033              	.LBE930:
 4034              	.LBB961:
 4035              	.LBB962:
 102:../USER/main_03.c ****    if( *buf>='a' && *buf<='z') *buf = *buf - 0x20;
 4036              		.loc 1 102 9 view .LVU1285
 4037 0272 9DF9A030 		ldrsb	r3, [sp, #160]
 102:../USER/main_03.c ****    if( *buf>='a' && *buf<='z') *buf = *buf - 0x20;
 4038              		.loc 1 102 8 view .LVU1286
 4039 0276 0D2B     		cmp	r3, #13
 4040 0278 00F0DF81 		beq	.L324
 4041 027c 28AA     		add	r2, sp, #160
 4042              	.LVL243:
 4043              	.L328:
 103:../USER/main_03.c ****    buf++;
 4044              		.loc 1 103 4 is_stmt 1 view .LVU1287
 103:../USER/main_03.c ****    buf++;
 4045              		.loc 1 103 32 view .LVU1288
 104:../USER/main_03.c ****   }
 4046              		.loc 1 104 4 view .LVU1289
 103:../USER/main_03.c ****    buf++;
 4047              		.loc 1 103 18 is_stmt 0 view .LVU1290
 4048 027e DBB2     		uxtb	r3, r3
 103:../USER/main_03.c ****    buf++;
 4049              		.loc 1 103 44 view .LVU1291
 4050 0280 A3F12001 		sub	r1, r3, #32
 103:../USER/main_03.c ****    buf++;
 4051              		.loc 1 103 6 view .LVU1292
 4052 0284 613B     		subs	r3, r3, #97
 4053 0286 192B     		cmp	r3, #25
 4054 0288 00F27483 		bhi	.L325
 103:../USER/main_03.c ****    buf++;
 4055              		.loc 1 103 37 view .LVU1293
 4056 028c 1170     		strb	r1, [r2]
 104:../USER/main_03.c ****   }
 4057              		.loc 1 104 4 is_stmt 1 view .LVU1294
 102:../USER/main_03.c ****    if( *buf>='a' && *buf<='z') *buf = *buf - 0x20;
 4058              		.loc 1 102 9 is_stmt 0 view .LVU1295
 4059 028e 12F9013F 		ldrsb	r3, [r2, #1]!
 4060              	.LVL244:
 102:../USER/main_03.c ****    if( *buf>='a' && *buf<='z') *buf = *buf - 0x20;
 4061              		.loc 1 102 8 view .LVU1296
 4062 0292 0D2B     		cmp	r3, #13
 4063 0294 F3D1     		bne	.L328
 4064              	.LVL245:
 4065              	.L327:
 102:../USER/main_03.c ****    if( *buf>='a' && *buf<='z') *buf = *buf - 0x20;
 4066              		.loc 1 102 8 view .LVU1297
 4067              	.LBE962:
 4068              	.LBE961:
 4069              	.LBE929:
 196:../USER/main_03.c **** 		  cmd = cbuf[0]; cbp = &cbuf[1];
 4070              		.loc 1 196 5 is_stmt 1 view .LVU1298
 4071              		.loc 1 196 9 is_stmt 0 view .LVU1299
 4072 0296 9DF9A030 		ldrsb	r3, [sp, #160]
 4073              	.LVL246:
 4074              		.loc 1 196 20 is_stmt 1 view .LVU1300
 4075              		.loc 1 196 24 is_stmt 0 view .LVU1301
 4076 029a 0DF1A102 		add	r2, sp, #161
 197:../USER/main_03.c **** 		  switch(cmd){
 4077              		.loc 1 197 5 view .LVU1302
 4078 029e 423B     		subs	r3, r3, #66
 4079              	.LVL247:
 196:../USER/main_03.c **** 		  cmd = cbuf[0]; cbp = &cbuf[1];
 4080              		.loc 1 196 24 view .LVU1303
 4081 02a0 0D92     		str	r2, [sp, #52]
 4082              		.loc 1 197 5 is_stmt 1 view .LVU1304
 4083 02a2 152B     		cmp	r3, #21
 4084 02a4 00F2CC81 		bhi	.L329
 4085 02a8 DFE813F0 		tbh	[pc, r3, lsl #1]
 4086              	.L331:
 4087 02ac 1B00     		.2byte	(.L335-.L331)/2
 4088 02ae CA01     		.2byte	(.L329-.L331)/2
 4089 02b0 7701     		.2byte	(.L334-.L331)/2
 4090 02b2 CA01     		.2byte	(.L329-.L331)/2
 4091 02b4 CA01     		.2byte	(.L329-.L331)/2
 4092 02b6 CA01     		.2byte	(.L329-.L331)/2
 4093 02b8 CA01     		.2byte	(.L329-.L331)/2
 4094 02ba CA01     		.2byte	(.L329-.L331)/2
 4095 02bc CA01     		.2byte	(.L329-.L331)/2
 4096 02be CA01     		.2byte	(.L329-.L331)/2
 4097 02c0 CA01     		.2byte	(.L329-.L331)/2
 4098 02c2 1B01     		.2byte	(.L333-.L331)/2
 4099 02c4 CA01     		.2byte	(.L329-.L331)/2
 4100 02c6 CA01     		.2byte	(.L329-.L331)/2
 4101 02c8 CA01     		.2byte	(.L329-.L331)/2
 4102 02ca CA01     		.2byte	(.L329-.L331)/2
 4103 02cc 9500     		.2byte	(.L332-.L331)/2
 4104 02ce CA01     		.2byte	(.L329-.L331)/2
 4105 02d0 CA01     		.2byte	(.L329-.L331)/2
 4106 02d2 CA01     		.2byte	(.L329-.L331)/2
 4107 02d4 CA01     		.2byte	(.L329-.L331)/2
 4108 02d6 6400     		.2byte	(.L330-.L331)/2
 4109              	.LVL248:
 4110              		.p2align 1
 4111              	.L1151:
 4112              	.LBB966:
 4113              	.LBB967:
 149:../USER/main_03.c **** 		if(*buf==0) break;
 4114              		.loc 1 149 2 view .LVU1305
 150:../USER/main_03.c **** 		else        putch(*buf++);
 4115              		.loc 1 150 3 view .LVU1306
 150:../USER/main_03.c **** 		else        putch(*buf++);
 4116              		.loc 1 150 6 is_stmt 0 view .LVU1307
 4117 02d8 1BF9014F 		ldrsb	r4, [fp, #1]!
 4118              	.LVL249:
 150:../USER/main_03.c **** 		else        putch(*buf++);
 4119              		.loc 1 150 5 view .LVU1308
 4120 02dc 002C     		cmp	r4, #0
 4121 02de 00F01F84 		beq	.L336
 4122              	.LVL250:
 4123              	.L335:
 151:../USER/main_03.c **** 	}
 4124              		.loc 1 151 15 is_stmt 1 view .LVU1309
 4125              	.LBB968:
 4126              	.LBI968:
 127:../USER/main_03.c **** 	volatile uint32_t gpiord;
 4127              		.loc 1 127 6 view .LVU1310
 4128              	.LBB969:
 128:../USER/main_03.c **** 	if((mdgpio & 0x2000)==0)
 4129              		.loc 1 128 2 view .LVU1311
 129:../USER/main_03.c **** 		UART_SendChar(UART0,ch);
 4130              		.loc 1 129 2 view .LVU1312
 129:../USER/main_03.c **** 		UART_SendChar(UART0,ch);
 4131              		.loc 1 129 13 is_stmt 0 view .LVU1313
 4132 02e2 DAF80030 		ldr	r3, [r10]
 129:../USER/main_03.c **** 		UART_SendChar(UART0,ch);
 4133              		.loc 1 129 4 view .LVU1314
 4134 02e6 9E04     		lsls	r6, r3, #18
 4135 02e8 41F16C83 		bpl	.L1117
 132:../USER/main_03.c **** 		while((gpiord & 0x4000)!=0) {
 4136              		.loc 1 132 3 is_stmt 1 view .LVU1315
 132:../USER/main_03.c **** 		while((gpiord & 0x4000)!=0) {
 4137              		.loc 1 132 10 is_stmt 0 view .LVU1316
 4138 02ec 4FF48043 		mov	r3, #16384
 4139 02f0 1093     		str	r3, [sp, #64]
 133:../USER/main_03.c **** 			key_check();
 4140              		.loc 1 133 3 is_stmt 1 view .LVU1317
 133:../USER/main_03.c **** 			key_check();
 4141              		.loc 1 133 17 is_stmt 0 view .LVU1318
 4142 02f2 109B     		ldr	r3, [sp, #64]
 133:../USER/main_03.c **** 			key_check();
 4143              		.loc 1 133 8 view .LVU1319
 4144 02f4 5D04     		lsls	r5, r3, #17
 4145 02f6 40F1E583 		bpl	.L345
 135:../USER/main_03.c **** 		}
 4146              		.loc 1 135 13 view .LVU1320
 4147 02fa 024D     		ldr	r5, .L1219+4
 4148 02fc 2DE0     		b	.L339
 4149              	.L1220:
 4150 02fe 00BF     		.align	2
 4151              	.L1219:
 4152 0300 00000000 		.word	.LC1
 4153 0304 00000140 		.word	1073807360
 4154 0308 00000000 		.word	.LANCHOR1
 4155 030c 00000000 		.word	mdgpio
 4156 0310 00000000 		.word	.LANCHOR0
 4157 0314 00000000 		.word	kinbuf
 4158 0318 0C000000 		.word	.LC2
 4159              	.LVL251:
 4160              	.L1118:
 135:../USER/main_03.c **** 		}
 4161              		.loc 1 135 13 view .LVU1321
 4162 031c D8F80030 		ldr	r3, [r8]
 4163              	.L341:
 4164              	.LBB970:
 4165              	.LBB971:
 114:../USER/main_03.c **** 	//
 4166              		.loc 1 114 2 is_stmt 1 view .LVU1322
 114:../USER/main_03.c **** 	//
 4167              		.loc 1 114 18 view .LVU1323
 114:../USER/main_03.c **** 	//
 4168              		.loc 1 114 4 is_stmt 0 view .LVU1324
 4169 0320 FF2B     		cmp	r3, #255
 4170 0322 02DD     		ble	.L342
 114:../USER/main_03.c **** 	//
 4171              		.loc 1 114 25 view .LVU1325
 4172 0324 0023     		movs	r3, #0
 4173 0326 C8F80070 		str	r7, [r8]
 4174              	.L342:
 116:../USER/main_03.c **** 	if(kinbwp>=256) kinbwp = 0;
 4175              		.loc 1 116 39 is_stmt 1 view .LVU1326
 116:../USER/main_03.c **** 	if(kinbwp>=256) kinbwp = 0;
 4176              		.loc 1 116 2 view .LVU1327
 116:../USER/main_03.c **** 	if(kinbwp>=256) kinbwp = 0;
 4177              		.loc 1 116 11 is_stmt 0 view .LVU1328
 4178 032a 4FF04021 		mov	r1, #1073758208
 4179 032e 4868     		ldr	r0, [r1, #4]
 4180              	.LVL252:
 116:../USER/main_03.c **** 	if(kinbwp>=256) kinbwp = 0;
 4181              		.loc 1 116 52 view .LVU1329
 4182 0330 5A1C     		adds	r2, r3, #1
 116:../USER/main_03.c **** 	if(kinbwp>=256) kinbwp = 0;
 4183              		.loc 1 116 4 view .LVU1330
 4184 0332 8007     		lsls	r0, r0, #30
 4185 0334 09D5     		bpl	.L344
 117:../USER/main_03.c **** 	//
 4186              		.loc 1 117 25 view .LVU1331
 4187 0336 B2F5807F 		cmp	r2, #256
 116:../USER/main_03.c **** 	if(kinbwp>=256) kinbwp = 0;
 4188              		.loc 1 116 63 view .LVU1332
 4189 033a 0868     		ldr	r0, [r1]
 117:../USER/main_03.c **** 	//
 4190              		.loc 1 117 25 view .LVU1333
 4191 033c 14BF     		ite	ne
 4192 033e 1146     		movne	r1, r2
 4193 0340 3946     		moveq	r1, r7
 116:../USER/main_03.c **** 	if(kinbwp>=256) kinbwp = 0;
 4194              		.loc 1 116 56 view .LVU1334
 4195 0342 09F80300 		strb	r0, [r9, r3]
 117:../USER/main_03.c **** 	//
 4196              		.loc 1 117 2 is_stmt 1 view .LVU1335
 117:../USER/main_03.c **** 	//
 4197              		.loc 1 117 25 is_stmt 0 view .LVU1336
 4198 0346 C8F80010 		str	r1, [r8]
 4199              	.L344:
 117:../USER/main_03.c **** 	//
 4200              		.loc 1 117 25 view .LVU1337
 4201              	.LBE971:
 4202              	.LBE970:
 135:../USER/main_03.c **** 		}
 4203              		.loc 1 135 4 is_stmt 1 view .LVU1338
 135:../USER/main_03.c **** 		}
 4204              		.loc 1 135 13 is_stmt 0 view .LVU1339
 4205 034a 2846     		mov	r0, r5
 4206 034c FFF7FEFF 		bl	GPIO_ReadBits
 4207              	.LVL253:
 135:../USER/main_03.c **** 		}
 4208              		.loc 1 135 11 view .LVU1340
 4209 0350 1090     		str	r0, [sp, #64]
 133:../USER/main_03.c **** 			key_check();
 4210              		.loc 1 133 17 view .LVU1341
 4211 0352 109B     		ldr	r3, [sp, #64]
 133:../USER/main_03.c **** 			key_check();
 4212              		.loc 1 133 8 view .LVU1342
 4213 0354 5804     		lsls	r0, r3, #17
 4214 0356 40F1B583 		bpl	.L345
 4215              	.L339:
 134:../USER/main_03.c **** 			gpiord = GPIO_ReadBits(GPIO0);
 4216              		.loc 1 134 4 is_stmt 1 view .LVU1343
 4217              	.LBB973:
 4218              	.LBI970:
 109:../USER/main_03.c **** 	char ch;
 4219              		.loc 1 109 6 view .LVU1344
 4220              	.LBB972:
 110:../USER/main_03.c **** 	//
 4221              		.loc 1 110 2 view .LVU1345
 112:../USER/main_03.c **** 	if(ch!=0) kinbuf[kinbwp++] = ch;
 4222              		.loc 1 112 2 view .LVU1346
 112:../USER/main_03.c **** 	if(ch!=0) kinbuf[kinbwp++] = ch;
 4223              		.loc 1 112 7 is_stmt 0 view .LVU1347
 4224 035a FFF7FEFF 		bl	SPI_ReadData
 4225              	.LVL254:
 113:../USER/main_03.c **** 	if(kinbwp>=256) kinbwp = 0;
 4226              		.loc 1 113 12 is_stmt 1 view .LVU1348
 112:../USER/main_03.c **** 	if(ch!=0) kinbuf[kinbwp++] = ch;
 4227              		.loc 1 112 5 is_stmt 0 view .LVU1349
 4228 035e 40B2     		sxtb	r0, r0
 4229              	.LVL255:
 113:../USER/main_03.c **** 	if(kinbwp>=256) kinbwp = 0;
 4230              		.loc 1 113 2 is_stmt 1 view .LVU1350
 113:../USER/main_03.c **** 	if(kinbwp>=256) kinbwp = 0;
 4231              		.loc 1 113 4 is_stmt 0 view .LVU1351
 4232 0360 0028     		cmp	r0, #0
 4233 0362 DBD0     		beq	.L1118
 113:../USER/main_03.c **** 	if(kinbwp>=256) kinbwp = 0;
 4234              		.loc 1 113 25 view .LVU1352
 4235 0364 D8F80020 		ldr	r2, [r8]
 4236 0368 531C     		adds	r3, r2, #1
 113:../USER/main_03.c **** 	if(kinbwp>=256) kinbwp = 0;
 4237              		.loc 1 113 29 view .LVU1353
 4238 036a 09F80200 		strb	r0, [r9, r2]
 113:../USER/main_03.c **** 	if(kinbwp>=256) kinbwp = 0;
 4239              		.loc 1 113 25 view .LVU1354
 4240 036e C8F80030 		str	r3, [r8]
 4241 0372 D5E7     		b	.L341
 4242              	.LVL256:
 4243              	.L330:
 113:../USER/main_03.c **** 	if(kinbwp>=256) kinbwp = 0;
 4244              		.loc 1 113 25 view .LVU1355
 4245              	.LBE972:
 4246              	.LBE973:
 4247              	.LBE969:
 4248              	.LBE968:
 4249              	.LBE967:
 4250              	.LBE966:
 198:../USER/main_03.c **** 		  case 'B': puts("\r\n>"); basic();
 199:../USER/main_03.c **** 			  break;
 200:../USER/main_03.c **** 		  case 'D':
 201:../USER/main_03.c **** 	        adr = getsh(cbpp);
 202:../USER/main_03.c **** 	        if(adr==-1) adr = adro;
 203:../USER/main_03.c **** 	        for(i=0; i<8; i++){
 204:../USER/main_03.c **** 	          putadrhd(adr);
 205:../USER/main_03.c **** 	          for(j=0; j<16; j++) { putch(' '); puth2(mbase[adr++]); }
 206:../USER/main_03.c **** 	        }
 207:../USER/main_03.c **** 	        adro = adr;
 208:../USER/main_03.c **** 	        break;
 209:../USER/main_03.c **** 	      case 'W':
 210:../USER/main_03.c **** 	    	if(*cbp=='S'){
 4251              		.loc 1 210 7 is_stmt 1 view .LVU1356
 4252              		.loc 1 210 10 is_stmt 0 view .LVU1357
 4253 0374 9DF9A130 		ldrsb	r3, [sp, #161]
 4254              	.LVL257:
 4255              		.loc 1 210 9 view .LVU1358
 4256 0378 532B     		cmp	r3, #83
 4257 037a 01F00D86 		beq	.L1119
 4258 037e 0DF1A102 		add	r2, sp, #161
 4259              	.LVL258:
 4260              	.L488:
 211:../USER/main_03.c **** 	    		cbp++; dt = 0;
 212:../USER/main_03.c **** 	    		while(dt!=-1){
 213:../USER/main_03.c **** 	    			dt = getsh(cbpp); if(dt!=-1) SPI_WriteData(dt);
 214:../USER/main_03.c **** 	    		}
 215:../USER/main_03.c **** 	    	}
 216:../USER/main_03.c **** 	    	if(*cbp=='D'){
 4261              		.loc 1 216 7 is_stmt 1 view .LVU1359
 4262              		.loc 1 216 9 is_stmt 0 view .LVU1360
 4263 0382 442B     		cmp	r3, #68
 4264 0384 01F07085 		beq	.L1120
 4265              	.LVL259:
 4266              	.L493:
 217:../USER/main_03.c **** 	    		cbp++; set_vramm((int)getsh(cbpp),(int)getsh(cbpp),(int)getsh(cbpp), (int)getsh(cbpp), (int)
 218:../USER/main_03.c **** 	    	}
 219:../USER/main_03.c **** 			if(*cbp=='C') {
 4267              		.loc 1 219 4 is_stmt 1 view .LVU1361
 4268              		.loc 1 219 6 is_stmt 0 view .LVU1362
 4269 0388 432B     		cmp	r3, #67
 4270 038a 01F02F85 		beq	.L1121
 4271              	.L498:
 220:../USER/main_03.c **** 				cbp++; dispfull((int)getsh(cbpp),(int)getsh(cbpp),(int)getsh(cbpp),(int)getsh(cbpp),(int)getsh(
 221:../USER/main_03.c **** 			if(*cbp=='F') {
 4272              		.loc 1 221 4 is_stmt 1 view .LVU1363
 4273              		.loc 1 221 6 is_stmt 0 view .LVU1364
 4274 038e 462B     		cmp	r3, #70
 4275 0390 01F06A84 		beq	.L1122
 222:../USER/main_03.c **** 				cbp++; move_vram((int)getsh(cbpp),(int)getsh(cbpp),(int)getsh(cbpp), 10); }
 223:../USER/main_03.c **** 			if(*cbp=='L'){
 4276              		.loc 1 223 4 is_stmt 1 view .LVU1365
 4277              		.loc 1 223 6 is_stmt 0 view .LVU1366
 4278 0394 4C2B     		cmp	r3, #76
 4279 0396 01F09184 		beq	.L1123
 4280              	.L506:
 224:../USER/main_03.c **** 				cbp++; DLine((int)getsh(cbpp),(int)getsh(cbpp),(int)getsh(cbpp),(int)getsh(cbpp),(int)getsh(cbp
 225:../USER/main_03.c **** 			if(*cbp=='M'){
 4281              		.loc 1 225 4 is_stmt 1 view .LVU1367
 4282              		.loc 1 225 6 is_stmt 0 view .LVU1368
 4283 039a 4D2B     		cmp	r3, #77
 4284 039c 01F0CF84 		beq	.L1124
 4285              	.L510:
 226:../USER/main_03.c **** 				cbp++; move_vram((int)getsh(cbpp),(int)getsh(cbpp),(int)getsh(cbpp), 12); }
 227:../USER/main_03.c **** 			if(*cbp=='P'){
 4286              		.loc 1 227 4 is_stmt 1 view .LVU1369
 4287              		.loc 1 227 6 is_stmt 0 view .LVU1370
 4288 03a0 502B     		cmp	r3, #80
 4289 03a2 01F0F684 		beq	.L1125
 4290              	.L512:
 228:../USER/main_03.c **** 				cbp++; pset((int)getsh(cbpp),(int)getsh(cbpp),(int)getsh(cbpp)); }
 229:../USER/main_03.c **** 			if(*cbp=='R'){
 4291              		.loc 1 229 4 is_stmt 1 view .LVU1371
 4292              		.loc 1 229 6 is_stmt 0 view .LVU1372
 4293 03a6 522B     		cmp	r3, #82
 4294 03a8 01F02B84 		beq	.L1126
 4295              	.L514:
 230:../USER/main_03.c **** 				cbp++; DCircle((int)getsh(cbpp),(int)getsh(cbpp),(int)getsh(cbpp),(int)getsh(cbpp)); }
 231:../USER/main_03.c **** 			if(*cbp=='U'){
 4296              		.loc 1 231 4 is_stmt 1 view .LVU1373
 4297              		.loc 1 231 6 is_stmt 0 view .LVU1374
 4298 03ac 552B     		cmp	r3, #85
 4299 03ae 01F00B84 		beq	.L1127
 4300              	.L517:
 232:../USER/main_03.c **** 				cbp++; dispscroll((int)getsh(cbpp),(int)getsh(cbpp)); }
 233:../USER/main_03.c **** 			if(*cbp=='G'){
 4301              		.loc 1 233 4 is_stmt 1 view .LVU1375
 4302              		.loc 1 233 6 is_stmt 0 view .LVU1376
 4303 03b2 472B     		cmp	r3, #71
 4304 03b4 7FF443AE 		bne	.L279
 234:../USER/main_03.c **** 				cbp++; dt = getsh(cbpp); GPIO_WriteBits(GPIO0,dt); }
 4305              		.loc 1 234 5 is_stmt 1 view .LVU1377
 4306              		.loc 1 234 8 is_stmt 0 view .LVU1378
 4307 03b8 531C     		adds	r3, r2, #1
 4308 03ba 0D93     		str	r3, [sp, #52]
 4309              		.loc 1 234 12 is_stmt 1 view .LVU1379
 4310              	.LVL260:
 4311              	.LBB984:
 4312              	.LBI984:
 171:../USER/main_03.c ****   long num = 0; int hd;
 4313              		.loc 1 171 6 view .LVU1380
 4314              	.LBB985:
 172:../USER/main_03.c ****   if(**buf==0x0d) return -1;
 4315              		.loc 1 172 3 view .LVU1381
 172:../USER/main_03.c ****   if(**buf==0x0d) return -1;
 4316              		.loc 1 172 17 view .LVU1382
 173:../USER/main_03.c ****   while(**buf==' ') (*buf)++; /* spip sp*/
 4317              		.loc 1 173 3 view .LVU1383
 173:../USER/main_03.c ****   while(**buf==' ') (*buf)++; /* spip sp*/
 4318              		.loc 1 173 5 is_stmt 0 view .LVU1384
 4319 03bc 92F90130 		ldrsb	r3, [r2, #1]
 4320 03c0 0D2B     		cmp	r3, #13
 4321 03c2 01F03F86 		beq	.L960
 4322 03c6 0DA8     		add	r0, sp, #52
 4323              	.LVL261:
 173:../USER/main_03.c ****   while(**buf==' ') (*buf)++; /* spip sp*/
 4324              		.loc 1 173 5 view .LVU1385
 4325 03c8 FFF7FEFF 		bl	getsh.part.0
 4326              	.LVL262:
 173:../USER/main_03.c ****   while(**buf==' ') (*buf)++; /* spip sp*/
 4327              		.loc 1 173 5 view .LVU1386
 4328 03cc 0146     		mov	r1, r0
 4329              	.L519:
 4330              	.LVL263:
 173:../USER/main_03.c ****   while(**buf==' ') (*buf)++; /* spip sp*/
 4331              		.loc 1 173 5 view .LVU1387
 4332              	.LBE985:
 4333              	.LBE984:
 4334              		.loc 1 234 30 is_stmt 1 view .LVU1388
 4335 03ce BE48     		ldr	r0, .L1221
 4336 03d0 FFF7FEFF 		bl	GPIO_WriteBits
 4337              	.LVL264:
 4338 03d4 33E6     		b	.L279
 4339              	.LVL265:
 4340              	.L332:
 235:../USER/main_03.c **** 	    	break;
 236:../USER/main_03.c **** 	      case 'R':
 237:../USER/main_03.c **** 	    	if(*cbp=='S'){
 4341              		.loc 1 237 7 view .LVU1389
 4342              		.loc 1 237 10 is_stmt 0 view .LVU1390
 4343 03d6 9DF9A130 		ldrsb	r3, [sp, #161]
 4344              	.LVL266:
 4345              		.loc 1 237 9 view .LVU1391
 4346 03da 532B     		cmp	r3, #83
 4347 03dc 34D0     		beq	.L540
 238:../USER/main_03.c **** 	    		dt = -1;
 239:../USER/main_03.c **** 	    		while(dt!=0){
 240:../USER/main_03.c **** 	    			dt = SPI_ReadData(); puth2(dt); putch(' ');
 241:../USER/main_03.c **** 	    		}
 242:../USER/main_03.c **** 	    	}
 243:../USER/main_03.c **** 	    	if(*cbp=='D'){
 4348              		.loc 1 243 9 view .LVU1392
 4349 03de 442B     		cmp	r3, #68
 4350 03e0 0DF1A102 		add	r2, sp, #161
 4351              		.loc 1 243 7 is_stmt 1 view .LVU1393
 4352              		.loc 1 243 9 is_stmt 0 view .LVU1394
 4353 03e4 01F07F83 		beq	.L1128
 4354              	.LVL267:
 4355              	.L541:
 244:../USER/main_03.c **** 	    		cbp++;
 245:../USER/main_03.c **** 	    		get_vram((int)getsh(cbpp), (int)getsh(cbpp));
 246:../USER/main_03.c **** 	    		for(j=0; j<32; j++) { putch(' '); puth2(wddt[j+4]); }
 247:../USER/main_03.c **** 	    	}
 248:../USER/main_03.c **** 	    	if(*cbp=='G'){ dt = GPIO_ReadBits(GPIO0); puth4(dt); }
 4356              		.loc 1 248 7 is_stmt 1 view .LVU1395
 4357              		.loc 1 248 9 is_stmt 0 view .LVU1396
 4358 03e8 472B     		cmp	r3, #71
 4359 03ea 7FF428AE 		bne	.L279
 4360              		.loc 1 248 22 is_stmt 1 discriminator 1 view .LVU1397
 4361              		.loc 1 248 27 is_stmt 0 discriminator 1 view .LVU1398
 4362 03ee B648     		ldr	r0, .L1221
 4363 03f0 FFF7FEFF 		bl	GPIO_ReadBits
 4364              	.LVL268:
 4365 03f4 0446     		mov	r4, r0
 4366              	.LVL269:
 4367              		.loc 1 248 49 is_stmt 1 discriminator 1 view .LVU1399
 4368              	.LBB987:
 4369              	.LBI987:
 145:../USER/main_03.c **** void puth6(dt) long dt;{ int dh,dl; dh = dt >> 16; dl = dt & 0xffff; puth2(dh); puth4(dl); }
 4370              		.loc 1 145 6 discriminator 1 view .LVU1400
 4371              	.LBB988:
 145:../USER/main_03.c **** void puth6(dt) long dt;{ int dh,dl; dh = dt >> 16; dl = dt & 0xffff; puth2(dh); puth4(dl); }
 4372              		.loc 1 145 25 discriminator 1 view .LVU1401
 4373              	.LBB989:
 4374              	.LBB990:
 144:../USER/main_03.c **** void puth4(dt) int dt;{ puth2((dt >> 8) & 0xff); puth2(dt & 0xff); }
 4375              		.loc 1 144 34 is_stmt 0 discriminator 1 view .LVU1402
 4376 03f6 C0F30333 		ubfx	r3, r0, #12, #4
 4377 03fa D8B2     		uxtb	r0, r3
 4378              	.LVL270:
 4379              	.LBB991:
 4380              	.LBB992:
 143:../USER/main_03.c **** void puth2(dt) int dt;{ puth((dt >> 4) & 0xf); puth(dt & 0xf); }
 4381              		.loc 1 143 26 discriminator 1 view .LVU1403
 4382 03fc 092B     		cmp	r3, #9
 143:../USER/main_03.c **** void puth2(dt) int dt;{ puth((dt >> 4) & 0xf); puth(dt & 0xf); }
 4383              		.loc 1 143 34 discriminator 1 view .LVU1404
 4384 03fe D4BF     		ite	le
 4385 0400 3030     		addle	r0, r0, #48
 143:../USER/main_03.c **** void puth2(dt) int dt;{ puth((dt >> 4) & 0xf); puth(dt & 0xf); }
 4386              		.loc 1 143 55 discriminator 1 view .LVU1405
 4387 0402 3730     		addgt	r0, r0, #55
 4388              	.LBE992:
 4389              	.LBE991:
 4390              	.LBE990:
 4391              	.LBE989:
 145:../USER/main_03.c **** void puth6(dt) long dt;{ int dh,dl; dh = dt >> 16; dl = dt & 0xffff; puth2(dh); puth4(dl); }
 4392              		.loc 1 145 35 discriminator 1 view .LVU1406
 4393 0404 2512     		asrs	r5, r4, #8
 4394              	.LVL271:
 4395              	.LBB998:
 4396              	.LBI989:
 144:../USER/main_03.c **** void puth4(dt) int dt;{ puth2((dt >> 8) & 0xff); puth2(dt & 0xff); }
 4397              		.loc 1 144 6 is_stmt 1 discriminator 1 view .LVU1407
 4398              	.LBB997:
 144:../USER/main_03.c **** void puth4(dt) int dt;{ puth2((dt >> 8) & 0xff); puth2(dt & 0xff); }
 4399              		.loc 1 144 25 discriminator 1 view .LVU1408
 4400              	.LBB994:
 4401              	.LBI991:
 143:../USER/main_03.c **** void puth2(dt) int dt;{ puth((dt >> 4) & 0xf); puth(dt & 0xf); }
 4402              		.loc 1 143 6 discriminator 1 view .LVU1409
 4403              	.LBB993:
 143:../USER/main_03.c **** void puth2(dt) int dt;{ puth((dt >> 4) & 0xf); puth(dt & 0xf); }
 4404              		.loc 1 143 24 discriminator 1 view .LVU1410
 143:../USER/main_03.c **** void puth2(dt) int dt;{ puth((dt >> 4) & 0xf); puth(dt & 0xf); }
 4405              		.loc 1 143 34 discriminator 1 view .LVU1411
 143:../USER/main_03.c **** void puth2(dt) int dt;{ puth((dt >> 4) & 0xf); puth(dt & 0xf); }
 4406              		.loc 1 143 55 discriminator 1 view .LVU1412
 4407 0406 FFF7FEFF 		bl	putch_uart
 4408              	.LVL272:
 143:../USER/main_03.c **** void puth2(dt) int dt;{ puth((dt >> 4) & 0xf); puth(dt & 0xf); }
 4409              		.loc 1 143 55 is_stmt 0 discriminator 1 view .LVU1413
 4410              	.LBE993:
 4411              	.LBE994:
 144:../USER/main_03.c **** void puth4(dt) int dt;{ puth2((dt >> 8) & 0xff); puth2(dt & 0xff); }
 4412              		.loc 1 144 48 is_stmt 1 discriminator 1 view .LVU1414
 4413 040a 05F00F03 		and	r3, r5, #15
 4414              	.LVL273:
 4415              	.LBB995:
 4416              	.LBI995:
 143:../USER/main_03.c **** void puth2(dt) int dt;{ puth((dt >> 4) & 0xf); puth(dt & 0xf); }
 4417              		.loc 1 143 6 discriminator 1 view .LVU1415
 4418              	.LBB996:
 143:../USER/main_03.c **** void puth2(dt) int dt;{ puth((dt >> 4) & 0xf); puth(dt & 0xf); }
 4419              		.loc 1 143 24 discriminator 1 view .LVU1416
 143:../USER/main_03.c **** void puth2(dt) int dt;{ puth((dt >> 4) & 0xf); puth(dt & 0xf); }
 4420              		.loc 1 143 34 discriminator 1 view .LVU1417
 143:../USER/main_03.c **** void puth2(dt) int dt;{ puth((dt >> 4) & 0xf); puth(dt & 0xf); }
 4421              		.loc 1 143 55 discriminator 1 view .LVU1418
 4422 040e D8B2     		uxtb	r0, r3
 143:../USER/main_03.c **** void puth2(dt) int dt;{ puth((dt >> 4) & 0xf); puth(dt & 0xf); }
 4423              		.loc 1 143 26 is_stmt 0 discriminator 1 view .LVU1419
 4424 0410 092B     		cmp	r3, #9
 143:../USER/main_03.c **** void puth2(dt) int dt;{ puth((dt >> 4) & 0xf); puth(dt & 0xf); }
 4425              		.loc 1 143 34 discriminator 1 view .LVU1420
 4426 0412 D4BF     		ite	le
 4427 0414 3030     		addle	r0, r0, #48
 143:../USER/main_03.c **** void puth2(dt) int dt;{ puth((dt >> 4) & 0xf); puth(dt & 0xf); }
 4428              		.loc 1 143 55 discriminator 1 view .LVU1421
 4429 0416 3730     		addgt	r0, r0, #55
 4430 0418 FFF7FEFF 		bl	putch_uart
 4431              	.LVL274:
 143:../USER/main_03.c **** void puth2(dt) int dt;{ puth((dt >> 4) & 0xf); puth(dt & 0xf); }
 4432              		.loc 1 143 55 discriminator 1 view .LVU1422
 4433              	.LBE996:
 4434              	.LBE995:
 4435              	.LBE997:
 4436              	.LBE998:
 145:../USER/main_03.c **** void puth6(dt) long dt;{ int dh,dl; dh = dt >> 16; dl = dt & 0xffff; puth2(dh); puth4(dl); }
 4437              		.loc 1 145 50 is_stmt 1 discriminator 1 view .LVU1423
 4438              	.LBB999:
 4439              	.LBI999:
 144:../USER/main_03.c **** void puth4(dt) int dt;{ puth2((dt >> 8) & 0xff); puth2(dt & 0xff); }
 4440              		.loc 1 144 6 discriminator 1 view .LVU1424
 4441              	.LBB1000:
 144:../USER/main_03.c **** void puth4(dt) int dt;{ puth2((dt >> 8) & 0xff); puth2(dt & 0xff); }
 4442              		.loc 1 144 25 discriminator 1 view .LVU1425
 144:../USER/main_03.c **** void puth4(dt) int dt;{ puth2((dt >> 8) & 0xff); puth2(dt & 0xff); }
 4443              		.loc 1 144 34 is_stmt 0 discriminator 1 view .LVU1426
 4444 041c C4F30313 		ubfx	r3, r4, #4, #4
 4445              	.LVL275:
 4446              	.LBB1001:
 4447              	.LBI1001:
 143:../USER/main_03.c **** void puth2(dt) int dt;{ puth((dt >> 4) & 0xf); puth(dt & 0xf); }
 4448              		.loc 1 143 6 is_stmt 1 discriminator 1 view .LVU1427
 4449              	.LBB1002:
 143:../USER/main_03.c **** void puth2(dt) int dt;{ puth((dt >> 4) & 0xf); puth(dt & 0xf); }
 4450              		.loc 1 143 24 discriminator 1 view .LVU1428
 143:../USER/main_03.c **** void puth2(dt) int dt;{ puth((dt >> 4) & 0xf); puth(dt & 0xf); }
 4451              		.loc 1 143 34 discriminator 1 view .LVU1429
 143:../USER/main_03.c **** void puth2(dt) int dt;{ puth((dt >> 4) & 0xf); puth(dt & 0xf); }
 4452              		.loc 1 143 55 discriminator 1 view .LVU1430
 4453 0420 D8B2     		uxtb	r0, r3
 143:../USER/main_03.c **** void puth2(dt) int dt;{ puth((dt >> 4) & 0xf); puth(dt & 0xf); }
 4454              		.loc 1 143 26 is_stmt 0 discriminator 1 view .LVU1431
 4455 0422 092B     		cmp	r3, #9
 143:../USER/main_03.c **** void puth2(dt) int dt;{ puth((dt >> 4) & 0xf); puth(dt & 0xf); }
 4456              		.loc 1 143 34 discriminator 1 view .LVU1432
 4457 0424 D4BF     		ite	le
 4458 0426 3030     		addle	r0, r0, #48
 143:../USER/main_03.c **** void puth2(dt) int dt;{ puth((dt >> 4) & 0xf); puth(dt & 0xf); }
 4459              		.loc 1 143 55 discriminator 1 view .LVU1433
 4460 0428 3730     		addgt	r0, r0, #55
 4461              	.LBE1002:
 4462              	.LBE1001:
 144:../USER/main_03.c **** void puth4(dt) int dt;{ puth2((dt >> 8) & 0xff); puth2(dt & 0xff); }
 4463              		.loc 1 144 48 discriminator 1 view .LVU1434
 4464 042a 04F00F04 		and	r4, r4, #15
 4465              	.LVL276:
 4466              	.LBB1004:
 4467              	.LBB1003:
 143:../USER/main_03.c **** void puth2(dt) int dt;{ puth((dt >> 4) & 0xf); puth(dt & 0xf); }
 4468              		.loc 1 143 55 discriminator 1 view .LVU1435
 4469 042e FFF7FEFF 		bl	putch_uart
 4470              	.LVL277:
 143:../USER/main_03.c **** void puth2(dt) int dt;{ puth((dt >> 4) & 0xf); puth(dt & 0xf); }
 4471              		.loc 1 143 55 discriminator 1 view .LVU1436
 4472              	.LBE1003:
 4473              	.LBE1004:
 144:../USER/main_03.c **** void puth4(dt) int dt;{ puth2((dt >> 8) & 0xff); puth2(dt & 0xff); }
 4474              		.loc 1 144 48 is_stmt 1 discriminator 1 view .LVU1437
 4475              	.LBB1005:
 4476              	.LBI1005:
 143:../USER/main_03.c **** void puth2(dt) int dt;{ puth((dt >> 4) & 0xf); puth(dt & 0xf); }
 4477              		.loc 1 143 6 discriminator 1 view .LVU1438
 4478              	.LBB1006:
 143:../USER/main_03.c **** void puth2(dt) int dt;{ puth((dt >> 4) & 0xf); puth(dt & 0xf); }
 4479              		.loc 1 143 24 discriminator 1 view .LVU1439
 143:../USER/main_03.c **** void puth2(dt) int dt;{ puth((dt >> 4) & 0xf); puth(dt & 0xf); }
 4480              		.loc 1 143 34 discriminator 1 view .LVU1440
 143:../USER/main_03.c **** void puth2(dt) int dt;{ puth((dt >> 4) & 0xf); puth(dt & 0xf); }
 4481              		.loc 1 143 55 discriminator 1 view .LVU1441
 4482 0432 E0B2     		uxtb	r0, r4
 143:../USER/main_03.c **** void puth2(dt) int dt;{ puth((dt >> 4) & 0xf); puth(dt & 0xf); }
 4483              		.loc 1 143 26 is_stmt 0 discriminator 1 view .LVU1442
 4484 0434 092C     		cmp	r4, #9
 143:../USER/main_03.c **** void puth2(dt) int dt;{ puth((dt >> 4) & 0xf); puth(dt & 0xf); }
 4485              		.loc 1 143 34 discriminator 1 view .LVU1443
 4486 0436 D4BF     		ite	le
 4487 0438 3030     		addle	r0, r0, #48
 143:../USER/main_03.c **** void puth2(dt) int dt;{ puth((dt >> 4) & 0xf); puth(dt & 0xf); }
 4488              		.loc 1 143 55 discriminator 1 view .LVU1444
 4489 043a 3730     		addgt	r0, r0, #55
 4490 043c FFF7FEFF 		bl	putch_uart
 4491              	.LVL278:
 4492 0440 FDE5     		b	.L279
 4493              	.LVL279:
 4494              	.L1212:
 143:../USER/main_03.c **** void puth2(dt) int dt;{ puth((dt >> 4) & 0xf); puth(dt & 0xf); }
 4495              		.loc 1 143 55 discriminator 1 view .LVU1445
 4496              	.LBE1006:
 4497              	.LBE1005:
 4498              	.LBE1000:
 4499              	.LBE999:
 4500              	.LBE988:
 4501              	.LBE987:
 239:../USER/main_03.c **** 	    			dt = SPI_ReadData(); puth2(dt); putch(' ');
 4502              		.loc 1 239 13 view .LVU1446
 4503 0442 002D     		cmp	r5, #0
 4504 0444 01F04983 		beq	.L1129
 4505              	.LVL280:
 4506              	.L540:
 240:../USER/main_03.c **** 	    		}
 4507              		.loc 1 240 9 is_stmt 1 view .LVU1447
 240:../USER/main_03.c **** 	    		}
 4508              		.loc 1 240 14 is_stmt 0 view .LVU1448
 4509 0448 FFF7FEFF 		bl	SPI_ReadData
 4510              	.LVL281:
 4511 044c 0546     		mov	r5, r0
 4512              	.LVL282:
 240:../USER/main_03.c **** 	    		}
 4513              		.loc 1 240 30 is_stmt 1 view .LVU1449
 4514              	.LBB1007:
 4515              	.LBI1007:
 144:../USER/main_03.c **** void puth4(dt) int dt;{ puth2((dt >> 8) & 0xff); puth2(dt & 0xff); }
 4516              		.loc 1 144 6 view .LVU1450
 4517              	.LBB1008:
 144:../USER/main_03.c **** void puth4(dt) int dt;{ puth2((dt >> 8) & 0xff); puth2(dt & 0xff); }
 4518              		.loc 1 144 25 view .LVU1451
 144:../USER/main_03.c **** void puth4(dt) int dt;{ puth2((dt >> 8) & 0xff); puth2(dt & 0xff); }
 4519              		.loc 1 144 34 is_stmt 0 view .LVU1452
 4520 044e 0311     		asrs	r3, r0, #4
 4521              	.LVL283:
 4522              	.LBB1009:
 4523              	.LBI1009:
 143:../USER/main_03.c **** void puth2(dt) int dt;{ puth((dt >> 4) & 0xf); puth(dt & 0xf); }
 4524              		.loc 1 143 6 is_stmt 1 view .LVU1453
 4525              	.LBB1010:
 143:../USER/main_03.c **** void puth2(dt) int dt;{ puth((dt >> 4) & 0xf); puth(dt & 0xf); }
 4526              		.loc 1 143 24 view .LVU1454
 143:../USER/main_03.c **** void puth2(dt) int dt;{ puth((dt >> 4) & 0xf); puth(dt & 0xf); }
 4527              		.loc 1 143 34 view .LVU1455
 143:../USER/main_03.c **** void puth2(dt) int dt;{ puth((dt >> 4) & 0xf); puth(dt & 0xf); }
 4528              		.loc 1 143 55 view .LVU1456
 143:../USER/main_03.c **** void puth2(dt) int dt;{ puth((dt >> 4) & 0xf); puth(dt & 0xf); }
 4529              		.loc 1 143 26 is_stmt 0 view .LVU1457
 4530 0450 092B     		cmp	r3, #9
 143:../USER/main_03.c **** void puth2(dt) int dt;{ puth((dt >> 4) & 0xf); puth(dt & 0xf); }
 4531              		.loc 1 143 44 view .LVU1458
 4532 0452 D4BF     		ite	le
 4533 0454 3033     		addle	r3, r3, #48
 4534              	.LVL284:
 143:../USER/main_03.c **** void puth2(dt) int dt;{ puth((dt >> 4) & 0xf); puth(dt & 0xf); }
 4535              		.loc 1 143 65 view .LVU1459
 4536 0456 3733     		addgt	r3, r3, #55
 143:../USER/main_03.c **** void puth2(dt) int dt;{ puth((dt >> 4) & 0xf); puth(dt & 0xf); }
 4537              		.loc 1 143 55 view .LVU1460
 4538 0458 58B2     		sxtb	r0, r3
 4539              	.LVL285:
 143:../USER/main_03.c **** void puth2(dt) int dt;{ puth((dt >> 4) & 0xf); puth(dt & 0xf); }
 4540              		.loc 1 143 55 view .LVU1461
 4541 045a FFF7FEFF 		bl	putch_uart
 4542              	.LVL286:
 143:../USER/main_03.c **** void puth2(dt) int dt;{ puth((dt >> 4) & 0xf); puth(dt & 0xf); }
 4543              		.loc 1 143 55 view .LVU1462
 4544              	.LBE1010:
 4545              	.LBE1009:
 144:../USER/main_03.c **** void puth4(dt) int dt;{ puth2((dt >> 8) & 0xff); puth2(dt & 0xff); }
 4546              		.loc 1 144 48 is_stmt 1 view .LVU1463
 4547 045e 05F00F00 		and	r0, r5, #15
 4548              	.LVL287:
 4549              	.LBB1011:
 4550              	.LBI1011:
 143:../USER/main_03.c **** void puth2(dt) int dt;{ puth((dt >> 4) & 0xf); puth(dt & 0xf); }
 4551              		.loc 1 143 6 view .LVU1464
 4552              	.LBB1012:
 143:../USER/main_03.c **** void puth2(dt) int dt;{ puth((dt >> 4) & 0xf); puth(dt & 0xf); }
 4553              		.loc 1 143 24 view .LVU1465
 143:../USER/main_03.c **** void puth2(dt) int dt;{ puth((dt >> 4) & 0xf); puth(dt & 0xf); }
 4554              		.loc 1 143 34 view .LVU1466
 143:../USER/main_03.c **** void puth2(dt) int dt;{ puth((dt >> 4) & 0xf); puth(dt & 0xf); }
 4555              		.loc 1 143 55 view .LVU1467
 143:../USER/main_03.c **** void puth2(dt) int dt;{ puth((dt >> 4) & 0xf); puth(dt & 0xf); }
 4556              		.loc 1 143 26 is_stmt 0 view .LVU1468
 4557 0462 0928     		cmp	r0, #9
 143:../USER/main_03.c **** void puth2(dt) int dt;{ puth((dt >> 4) & 0xf); puth(dt & 0xf); }
 4558              		.loc 1 143 34 view .LVU1469
 4559 0464 94BF     		ite	ls
 4560 0466 3030     		addls	r0, r0, #48
 4561              	.LVL288:
 143:../USER/main_03.c **** void puth2(dt) int dt;{ puth((dt >> 4) & 0xf); puth(dt & 0xf); }
 4562              		.loc 1 143 55 view .LVU1470
 4563 0468 3730     		addhi	r0, r0, #55
 4564 046a FFF7FEFF 		bl	putch_uart
 4565              	.LVL289:
 143:../USER/main_03.c **** void puth2(dt) int dt;{ puth((dt >> 4) & 0xf); puth(dt & 0xf); }
 4566              		.loc 1 143 55 view .LVU1471
 4567              	.LBE1012:
 4568              	.LBE1011:
 4569              	.LBE1008:
 4570              	.LBE1007:
 240:../USER/main_03.c **** 	    		}
 4571              		.loc 1 240 41 is_stmt 1 view .LVU1472
 4572              	.LBB1013:
 4573              	.LBI1013:
 127:../USER/main_03.c **** 	volatile uint32_t gpiord;
 4574              		.loc 1 127 6 view .LVU1473
 4575              	.LBB1014:
 128:../USER/main_03.c **** 	if((mdgpio & 0x2000)==0)
 4576              		.loc 1 128 2 view .LVU1474
 129:../USER/main_03.c **** 		UART_SendChar(UART0,ch);
 4577              		.loc 1 129 2 view .LVU1475
 129:../USER/main_03.c **** 		UART_SendChar(UART0,ch);
 4578              		.loc 1 129 13 is_stmt 0 view .LVU1476
 4579 046e DAF80030 		ldr	r3, [r10]
 129:../USER/main_03.c **** 		UART_SendChar(UART0,ch);
 4580              		.loc 1 129 4 view .LVU1477
 4581 0472 9C04     		lsls	r4, r3, #18
 4582 0474 41F19483 		bpl	.L1130
 132:../USER/main_03.c **** 		while((gpiord & 0x4000)!=0) {
 4583              		.loc 1 132 3 is_stmt 1 view .LVU1478
 132:../USER/main_03.c **** 		while((gpiord & 0x4000)!=0) {
 4584              		.loc 1 132 10 is_stmt 0 view .LVU1479
 4585 0478 4FF48043 		mov	r3, #16384
 4586 047c 1893     		str	r3, [sp, #96]
 133:../USER/main_03.c **** 			key_check();
 4587              		.loc 1 133 3 is_stmt 1 view .LVU1480
 133:../USER/main_03.c **** 			key_check();
 4588              		.loc 1 133 17 is_stmt 0 view .LVU1481
 4589 047e 189B     		ldr	r3, [sp, #96]
 133:../USER/main_03.c **** 			key_check();
 4590              		.loc 1 133 8 view .LVU1482
 4591 0480 5804     		lsls	r0, r3, #17
 4592 0482 41F1FC82 		bpl	.L533
 135:../USER/main_03.c **** 		}
 4593              		.loc 1 135 13 view .LVU1483
 4594 0486 904C     		ldr	r4, .L1221
 4595 0488 1EE0     		b	.L527
 4596              	.LVL290:
 4597              	.L1131:
 135:../USER/main_03.c **** 		}
 4598              		.loc 1 135 13 view .LVU1484
 4599 048a D8F80030 		ldr	r3, [r8]
 4600              	.L529:
 4601              	.LBB1015:
 4602              	.LBB1016:
 114:../USER/main_03.c **** 	//
 4603              		.loc 1 114 2 is_stmt 1 view .LVU1485
 114:../USER/main_03.c **** 	//
 4604              		.loc 1 114 18 view .LVU1486
 114:../USER/main_03.c **** 	//
 4605              		.loc 1 114 4 is_stmt 0 view .LVU1487
 4606 048e FF2B     		cmp	r3, #255
 4607 0490 02DD     		ble	.L530
 114:../USER/main_03.c **** 	//
 4608              		.loc 1 114 25 view .LVU1488
 4609 0492 0023     		movs	r3, #0
 4610 0494 C8F80070 		str	r7, [r8]
 4611              	.L530:
 116:../USER/main_03.c **** 	if(kinbwp>=256) kinbwp = 0;
 4612              		.loc 1 116 2 is_stmt 1 view .LVU1489
 116:../USER/main_03.c **** 	if(kinbwp>=256) kinbwp = 0;
 4613              		.loc 1 116 11 is_stmt 0 view .LVU1490
 4614 0498 4FF04022 		mov	r2, #1073758208
 4615 049c 5168     		ldr	r1, [r2, #4]
 116:../USER/main_03.c **** 	if(kinbwp>=256) kinbwp = 0;
 4616              		.loc 1 116 4 view .LVU1491
 4617 049e 8E07     		lsls	r6, r1, #30
 4618 04a0 0AD5     		bpl	.L532
 116:../USER/main_03.c **** 	if(kinbwp>=256) kinbwp = 0;
 4619              		.loc 1 116 39 is_stmt 1 view .LVU1492
 116:../USER/main_03.c **** 	if(kinbwp>=256) kinbwp = 0;
 4620              		.loc 1 116 52 is_stmt 0 view .LVU1493
 4621 04a2 591C     		adds	r1, r3, #1
 117:../USER/main_03.c **** 	//
 4622              		.loc 1 117 25 view .LVU1494
 4623 04a4 B1F5807F 		cmp	r1, #256
 4624 04a8 14BF     		ite	ne
 4625 04aa 0846     		movne	r0, r1
 4626              	.LVL291:
 117:../USER/main_03.c **** 	//
 4627              		.loc 1 117 25 view .LVU1495
 4628 04ac 3846     		moveq	r0, r7
 116:../USER/main_03.c **** 	if(kinbwp>=256) kinbwp = 0;
 4629              		.loc 1 116 63 view .LVU1496
 4630 04ae 1268     		ldr	r2, [r2]
 117:../USER/main_03.c **** 	//
 4631              		.loc 1 117 25 view .LVU1497
 4632 04b0 C8F80000 		str	r0, [r8]
 116:../USER/main_03.c **** 	if(kinbwp>=256) kinbwp = 0;
 4633              		.loc 1 116 56 view .LVU1498
 4634 04b4 09F80320 		strb	r2, [r9, r3]
 117:../USER/main_03.c **** 	//
 4635              		.loc 1 117 2 is_stmt 1 view .LVU1499
 4636              	.L532:
 117:../USER/main_03.c **** 	//
 4637              		.loc 1 117 2 is_stmt 0 view .LVU1500
 4638              	.LBE1016:
 4639              	.LBE1015:
 135:../USER/main_03.c **** 		}
 4640              		.loc 1 135 4 is_stmt 1 view .LVU1501
 135:../USER/main_03.c **** 		}
 4641              		.loc 1 135 13 is_stmt 0 view .LVU1502
 4642 04b8 2046     		mov	r0, r4
 4643 04ba FFF7FEFF 		bl	GPIO_ReadBits
 4644              	.LVL292:
 135:../USER/main_03.c **** 		}
 4645              		.loc 1 135 11 view .LVU1503
 4646 04be 1890     		str	r0, [sp, #96]
 133:../USER/main_03.c **** 			key_check();
 4647              		.loc 1 133 17 view .LVU1504
 4648 04c0 189B     		ldr	r3, [sp, #96]
 133:../USER/main_03.c **** 			key_check();
 4649              		.loc 1 133 8 view .LVU1505
 4650 04c2 5904     		lsls	r1, r3, #17
 4651 04c4 41F1DB82 		bpl	.L533
 4652              	.L527:
 134:../USER/main_03.c **** 			gpiord = GPIO_ReadBits(GPIO0);
 4653              		.loc 1 134 4 is_stmt 1 view .LVU1506
 4654              	.LBB1018:
 4655              	.LBI1015:
 109:../USER/main_03.c **** 	char ch;
 4656              		.loc 1 109 6 view .LVU1507
 4657              	.LBB1017:
 110:../USER/main_03.c **** 	//
 4658              		.loc 1 110 2 view .LVU1508
 112:../USER/main_03.c **** 	if(ch!=0) kinbuf[kinbwp++] = ch;
 4659              		.loc 1 112 2 view .LVU1509
 112:../USER/main_03.c **** 	if(ch!=0) kinbuf[kinbwp++] = ch;
 4660              		.loc 1 112 7 is_stmt 0 view .LVU1510
 4661 04c8 FFF7FEFF 		bl	SPI_ReadData
 4662              	.LVL293:
 113:../USER/main_03.c **** 	if(kinbwp>=256) kinbwp = 0;
 4663              		.loc 1 113 12 is_stmt 1 view .LVU1511
 112:../USER/main_03.c **** 	if(ch!=0) kinbuf[kinbwp++] = ch;
 4664              		.loc 1 112 5 is_stmt 0 view .LVU1512
 4665 04cc 40B2     		sxtb	r0, r0
 4666              	.LVL294:
 113:../USER/main_03.c **** 	if(kinbwp>=256) kinbwp = 0;
 4667              		.loc 1 113 2 is_stmt 1 view .LVU1513
 113:../USER/main_03.c **** 	if(kinbwp>=256) kinbwp = 0;
 4668              		.loc 1 113 4 is_stmt 0 view .LVU1514
 4669 04ce 0028     		cmp	r0, #0
 4670 04d0 DBD0     		beq	.L1131
 113:../USER/main_03.c **** 	if(kinbwp>=256) kinbwp = 0;
 4671              		.loc 1 113 25 view .LVU1515
 4672 04d2 D8F80020 		ldr	r2, [r8]
 4673 04d6 531C     		adds	r3, r2, #1
 113:../USER/main_03.c **** 	if(kinbwp>=256) kinbwp = 0;
 4674              		.loc 1 113 29 view .LVU1516
 4675 04d8 09F80200 		strb	r0, [r9, r2]
 113:../USER/main_03.c **** 	if(kinbwp>=256) kinbwp = 0;
 4676              		.loc 1 113 25 view .LVU1517
 4677 04dc C8F80030 		str	r3, [r8]
 4678 04e0 D5E7     		b	.L529
 4679              	.LVL295:
 4680              	.L333:
 113:../USER/main_03.c **** 	if(kinbwp>=256) kinbwp = 0;
 4681              		.loc 1 113 25 view .LVU1518
 4682              	.LBE1017:
 4683              	.LBE1018:
 4684              	.LBE1014:
 4685              	.LBE1013:
 249:../USER/main_03.c **** 	        break;
 250:../USER/main_03.c **** 	      case 'M':
 251:../USER/main_03.c **** 	        mmd = 1;
 4686              		.loc 1 251 10 is_stmt 1 view .LVU1519
 252:../USER/main_03.c **** 	        if(*cbp=='W'){ mmd = 2; cbp++; }
 4687              		.loc 1 252 10 view .LVU1520
 4688              		.loc 1 252 13 is_stmt 0 view .LVU1521
 4689 04e2 9DF9A130 		ldrsb	r3, [sp, #161]
 4690              	.LVL296:
 4691              		.loc 1 252 12 view .LVU1522
 4692 04e6 572B     		cmp	r3, #87
 4693 04e8 01F06083 		beq	.L1132
 251:../USER/main_03.c **** 	        if(*cbp=='W'){ mmd = 2; cbp++; }
 4694              		.loc 1 251 14 view .LVU1523
 4695 04ec 0122     		movs	r2, #1
 4696              	.LBB1025:
 4697              	.LBB1026:
 173:../USER/main_03.c ****   while(**buf==' ') (*buf)++; /* spip sp*/
 4698              		.loc 1 173 5 view .LVU1524
 4699 04ee 0D2B     		cmp	r3, #13
 4700              	.LBE1026:
 4701              	.LBE1025:
 251:../USER/main_03.c **** 	        if(*cbp=='W'){ mmd = 2; cbp++; }
 4702              		.loc 1 251 14 view .LVU1525
 4703 04f0 0492     		str	r2, [sp, #16]
 4704              	.LVL297:
 253:../USER/main_03.c **** 	        adr = getsh(cbpp);
 4705              		.loc 1 253 10 is_stmt 1 view .LVU1526
 4706              	.LBB1029:
 4707              	.LBI1025:
 171:../USER/main_03.c ****   long num = 0; int hd;
 4708              		.loc 1 171 6 view .LVU1527
 4709              	.LBB1027:
 172:../USER/main_03.c ****   if(**buf==0x0d) return -1;
 4710              		.loc 1 172 3 view .LVU1528
 172:../USER/main_03.c ****   if(**buf==0x0d) return -1;
 4711              		.loc 1 172 17 view .LVU1529
 173:../USER/main_03.c ****   while(**buf==' ') (*buf)++; /* spip sp*/
 4712              		.loc 1 173 3 view .LVU1530
 173:../USER/main_03.c ****   while(**buf==' ') (*buf)++; /* spip sp*/
 4713              		.loc 1 173 5 is_stmt 0 view .LVU1531
 4714 04f2 01F06583 		beq	.L965
 4715              	.L1216:
 173:../USER/main_03.c ****   while(**buf==' ') (*buf)++; /* spip sp*/
 4716              		.loc 1 173 5 view .LVU1532
 4717 04f6 0DA8     		add	r0, sp, #52
 4718              	.LVL298:
 173:../USER/main_03.c ****   while(**buf==' ') (*buf)++; /* spip sp*/
 4719              		.loc 1 173 5 view .LVU1533
 4720 04f8 FFF7FEFF 		bl	getsh.part.0
 4721              	.LVL299:
 173:../USER/main_03.c ****   while(**buf==' ') (*buf)++; /* spip sp*/
 4722              		.loc 1 173 5 view .LVU1534
 4723 04fc 8346     		mov	fp, r0
 4724              	.LVL300:
 4725              	.L1106:
 173:../USER/main_03.c ****   while(**buf==' ') (*buf)++; /* spip sp*/
 4726              		.loc 1 173 5 view .LVU1535
 4727 04fe 4FEA2B43 		asr	r3, fp, #16
 4728 0502 0793     		str	r3, [sp, #28]
 4729 0504 1FFA8BF3 		uxth	r3, fp
 4730 0508 0993     		str	r3, [sp, #36]
 4731 050a 4FEA1B63 		lsr	r3, fp, #24
 4732 050e 0393     		str	r3, [sp, #12]
 4733 0510 4FEA2B53 		asr	r3, fp, #20
 4734 0514 0893     		str	r3, [sp, #32]
 4735 0516 4FEA2B13 		asr	r3, fp, #4
 4736 051a 0593     		str	r3, [sp, #20]
 4737 051c 0BF00F03 		and	r3, fp, #15
 4738 0520 0693     		str	r3, [sp, #24]
 4739              	.L572:
 4740              	.LVL301:
 173:../USER/main_03.c ****   while(**buf==' ') (*buf)++; /* spip sp*/
 4741              		.loc 1 173 5 view .LVU1536
 4742              	.LBE1027:
 4743              	.LBE1029:
 4744              	.LBB1030:
 4745              	.LBB1031:
 4746              	.LBB1032:
 149:../USER/main_03.c **** 		if(*buf==0) break;
 4747              		.loc 1 149 2 is_stmt 1 view .LVU1537
 150:../USER/main_03.c **** 		else        putch(*buf++);
 4748              		.loc 1 150 3 view .LVU1538
 150:../USER/main_03.c **** 		else        putch(*buf++);
 4749              		.loc 1 150 6 is_stmt 0 view .LVU1539
 4750 0522 0D24     		movs	r4, #13
 4751 0524 694E     		ldr	r6, .L1221+4
 4752              	.LVL302:
 4753              	.L573:
 151:../USER/main_03.c **** 	}
 4754              		.loc 1 151 15 is_stmt 1 view .LVU1540
 4755              	.LBB1033:
 4756              	.LBI1033:
 127:../USER/main_03.c **** 	volatile uint32_t gpiord;
 4757              		.loc 1 127 6 view .LVU1541
 4758              	.LBB1034:
 128:../USER/main_03.c **** 	if((mdgpio & 0x2000)==0)
 4759              		.loc 1 128 2 view .LVU1542
 129:../USER/main_03.c **** 		UART_SendChar(UART0,ch);
 4760              		.loc 1 129 2 view .LVU1543
 129:../USER/main_03.c **** 		UART_SendChar(UART0,ch);
 4761              		.loc 1 129 13 is_stmt 0 view .LVU1544
 4762 0526 DAF80030 		ldr	r3, [r10]
 129:../USER/main_03.c **** 		UART_SendChar(UART0,ch);
 4763              		.loc 1 129 4 view .LVU1545
 4764 052a 9804     		lsls	r0, r3, #18
 4765 052c 40F12882 		bpl	.L1133
 132:../USER/main_03.c **** 		while((gpiord & 0x4000)!=0) {
 4766              		.loc 1 132 3 is_stmt 1 view .LVU1546
 132:../USER/main_03.c **** 		while((gpiord & 0x4000)!=0) {
 4767              		.loc 1 132 10 is_stmt 0 view .LVU1547
 4768 0530 4FF48043 		mov	r3, #16384
 4769 0534 1B93     		str	r3, [sp, #108]
 133:../USER/main_03.c **** 			key_check();
 4770              		.loc 1 133 3 is_stmt 1 view .LVU1548
 133:../USER/main_03.c **** 			key_check();
 4771              		.loc 1 133 17 is_stmt 0 view .LVU1549
 4772 0536 1B9B     		ldr	r3, [sp, #108]
 133:../USER/main_03.c **** 			key_check();
 4773              		.loc 1 133 8 view .LVU1550
 4774 0538 5904     		lsls	r1, r3, #17
 4775 053a 40F1BE80 		bpl	.L583
 135:../USER/main_03.c **** 		}
 4776              		.loc 1 135 13 view .LVU1551
 4777 053e 624D     		ldr	r5, .L1221
 4778 0540 1EE0     		b	.L577
 4779              	.LVL303:
 4780              	.L1134:
 135:../USER/main_03.c **** 		}
 4781              		.loc 1 135 13 view .LVU1552
 4782 0542 D8F80030 		ldr	r3, [r8]
 4783              	.L579:
 4784              	.LBB1035:
 4785              	.LBB1036:
 114:../USER/main_03.c **** 	//
 4786              		.loc 1 114 2 is_stmt 1 view .LVU1553
 114:../USER/main_03.c **** 	//
 4787              		.loc 1 114 18 view .LVU1554
 114:../USER/main_03.c **** 	//
 4788              		.loc 1 114 4 is_stmt 0 view .LVU1555
 4789 0546 FF2B     		cmp	r3, #255
 4790 0548 02DD     		ble	.L580
 114:../USER/main_03.c **** 	//
 4791              		.loc 1 114 25 view .LVU1556
 4792 054a 0023     		movs	r3, #0
 4793 054c C8F80070 		str	r7, [r8]
 4794              	.L580:
 116:../USER/main_03.c **** 	if(kinbwp>=256) kinbwp = 0;
 4795              		.loc 1 116 39 is_stmt 1 view .LVU1557
 116:../USER/main_03.c **** 	if(kinbwp>=256) kinbwp = 0;
 4796              		.loc 1 116 2 view .LVU1558
 116:../USER/main_03.c **** 	if(kinbwp>=256) kinbwp = 0;
 4797              		.loc 1 116 11 is_stmt 0 view .LVU1559
 4798 0550 4FF04021 		mov	r1, #1073758208
 4799 0554 4868     		ldr	r0, [r1, #4]
 4800              	.LVL304:
 116:../USER/main_03.c **** 	if(kinbwp>=256) kinbwp = 0;
 4801              		.loc 1 116 52 view .LVU1560
 4802 0556 5A1C     		adds	r2, r3, #1
 116:../USER/main_03.c **** 	if(kinbwp>=256) kinbwp = 0;
 4803              		.loc 1 116 4 view .LVU1561
 4804 0558 8007     		lsls	r0, r0, #30
 4805 055a 09D5     		bpl	.L582
 117:../USER/main_03.c **** 	//
 4806              		.loc 1 117 25 view .LVU1562
 4807 055c B2F5807F 		cmp	r2, #256
 116:../USER/main_03.c **** 	if(kinbwp>=256) kinbwp = 0;
 4808              		.loc 1 116 63 view .LVU1563
 4809 0560 0868     		ldr	r0, [r1]
 117:../USER/main_03.c **** 	//
 4810              		.loc 1 117 25 view .LVU1564
 4811 0562 14BF     		ite	ne
 4812 0564 1146     		movne	r1, r2
 4813 0566 3946     		moveq	r1, r7
 116:../USER/main_03.c **** 	if(kinbwp>=256) kinbwp = 0;
 4814              		.loc 1 116 56 view .LVU1565
 4815 0568 09F80300 		strb	r0, [r9, r3]
 117:../USER/main_03.c **** 	//
 4816              		.loc 1 117 2 is_stmt 1 view .LVU1566
 117:../USER/main_03.c **** 	//
 4817              		.loc 1 117 25 is_stmt 0 view .LVU1567
 4818 056c C8F80010 		str	r1, [r8]
 4819              	.L582:
 117:../USER/main_03.c **** 	//
 4820              		.loc 1 117 25 view .LVU1568
 4821              	.LBE1036:
 4822              	.LBE1035:
 135:../USER/main_03.c **** 		}
 4823              		.loc 1 135 4 is_stmt 1 view .LVU1569
 135:../USER/main_03.c **** 		}
 4824              		.loc 1 135 13 is_stmt 0 view .LVU1570
 4825 0570 2846     		mov	r0, r5
 4826 0572 FFF7FEFF 		bl	GPIO_ReadBits
 4827              	.LVL305:
 135:../USER/main_03.c **** 		}
 4828              		.loc 1 135 11 view .LVU1571
 4829 0576 1B90     		str	r0, [sp, #108]
 133:../USER/main_03.c **** 			key_check();
 4830              		.loc 1 133 17 view .LVU1572
 4831 0578 1B9B     		ldr	r3, [sp, #108]
 133:../USER/main_03.c **** 			key_check();
 4832              		.loc 1 133 8 view .LVU1573
 4833 057a 5A04     		lsls	r2, r3, #17
 4834 057c 40F19D80 		bpl	.L583
 4835              	.L577:
 134:../USER/main_03.c **** 			gpiord = GPIO_ReadBits(GPIO0);
 4836              		.loc 1 134 4 is_stmt 1 view .LVU1574
 4837              	.LBB1038:
 4838              	.LBI1035:
 109:../USER/main_03.c **** 	char ch;
 4839              		.loc 1 109 6 view .LVU1575
 4840              	.LBB1037:
 110:../USER/main_03.c **** 	//
 4841              		.loc 1 110 2 view .LVU1576
 112:../USER/main_03.c **** 	if(ch!=0) kinbuf[kinbwp++] = ch;
 4842              		.loc 1 112 2 view .LVU1577
 112:../USER/main_03.c **** 	if(ch!=0) kinbuf[kinbwp++] = ch;
 4843              		.loc 1 112 7 is_stmt 0 view .LVU1578
 4844 0580 FFF7FEFF 		bl	SPI_ReadData
 4845              	.LVL306:
 113:../USER/main_03.c **** 	if(kinbwp>=256) kinbwp = 0;
 4846              		.loc 1 113 12 is_stmt 1 view .LVU1579
 112:../USER/main_03.c **** 	if(ch!=0) kinbuf[kinbwp++] = ch;
 4847              		.loc 1 112 5 is_stmt 0 view .LVU1580
 4848 0584 40B2     		sxtb	r0, r0
 4849              	.LVL307:
 113:../USER/main_03.c **** 	if(kinbwp>=256) kinbwp = 0;
 4850              		.loc 1 113 2 is_stmt 1 view .LVU1581
 113:../USER/main_03.c **** 	if(kinbwp>=256) kinbwp = 0;
 4851              		.loc 1 113 4 is_stmt 0 view .LVU1582
 4852 0586 0028     		cmp	r0, #0
 4853 0588 DBD0     		beq	.L1134
 113:../USER/main_03.c **** 	if(kinbwp>=256) kinbwp = 0;
 4854              		.loc 1 113 25 view .LVU1583
 4855 058a D8F80020 		ldr	r2, [r8]
 4856 058e 531C     		adds	r3, r2, #1
 113:../USER/main_03.c **** 	if(kinbwp>=256) kinbwp = 0;
 4857              		.loc 1 113 29 view .LVU1584
 4858 0590 09F80200 		strb	r0, [r9, r2]
 113:../USER/main_03.c **** 	if(kinbwp>=256) kinbwp = 0;
 4859              		.loc 1 113 25 view .LVU1585
 4860 0594 C8F80030 		str	r3, [r8]
 4861 0598 D5E7     		b	.L579
 4862              	.LVL308:
 4863              	.L334:
 113:../USER/main_03.c **** 	if(kinbwp>=256) kinbwp = 0;
 4864              		.loc 1 113 25 view .LVU1586
 4865              	.LBE1037:
 4866              	.LBE1038:
 4867              	.LBE1034:
 4868              	.LBE1033:
 4869              	.LBE1032:
 4870              	.LBE1031:
 4871              	.LBE1030:
 201:../USER/main_03.c **** 	        if(adr==-1) adr = adro;
 4872              		.loc 1 201 10 is_stmt 1 view .LVU1587
 4873              	.LBB1288:
 4874              	.LBI1288:
 171:../USER/main_03.c ****   long num = 0; int hd;
 4875              		.loc 1 171 6 view .LVU1588
 4876              	.LBB1289:
 172:../USER/main_03.c ****   if(**buf==0x0d) return -1;
 4877              		.loc 1 172 3 view .LVU1589
 172:../USER/main_03.c ****   if(**buf==0x0d) return -1;
 4878              		.loc 1 172 17 view .LVU1590
 173:../USER/main_03.c ****   while(**buf==' ') (*buf)++; /* spip sp*/
 4879              		.loc 1 173 3 view .LVU1591
 173:../USER/main_03.c ****   while(**buf==' ') (*buf)++; /* spip sp*/
 4880              		.loc 1 173 5 is_stmt 0 view .LVU1592
 4881 059a 9DF9A130 		ldrsb	r3, [sp, #161]
 4882              	.LVL309:
 173:../USER/main_03.c ****   while(**buf==' ') (*buf)++; /* spip sp*/
 4883              		.loc 1 173 5 view .LVU1593
 4884 059e 0D2B     		cmp	r3, #13
 4885 05a0 01F02985 		beq	.L934
 4886 05a4 0DA8     		add	r0, sp, #52
 4887              	.LVL310:
 173:../USER/main_03.c ****   while(**buf==' ') (*buf)++; /* spip sp*/
 4888              		.loc 1 173 5 view .LVU1594
 4889 05a6 FFF7FEFF 		bl	getsh.part.0
 4890              	.LVL311:
 173:../USER/main_03.c ****   while(**buf==' ') (*buf)++; /* spip sp*/
 4891              		.loc 1 173 5 view .LVU1595
 4892              	.LBE1289:
 4893              	.LBE1288:
 202:../USER/main_03.c **** 	        for(i=0; i<8; i++){
 4894              		.loc 1 202 10 is_stmt 1 view .LVU1596
 202:../USER/main_03.c **** 	        for(i=0; i<8; i++){
 4895              		.loc 1 202 26 is_stmt 0 view .LVU1597
 4896 05aa 0B9B     		ldr	r3, [sp, #44]
 4897 05ac B0F1FF3F 		cmp	r0, #-1
 4898 05b0 08BF     		it	eq
 4899 05b2 1846     		moveq	r0, r3
 4900              	.LVL312:
 4901              	.L354:
 202:../USER/main_03.c **** 	        for(i=0; i<8; i++){
 4902              		.loc 1 202 26 view .LVU1598
 4903 05b4 00F11003 		add	r3, r0, #16
 4904 05b8 0393     		str	r3, [sp, #12]
 4905 05ba 00F18003 		add	r3, r0, #128
 4906 05be 0590     		str	r0, [sp, #20]
 4907 05c0 0693     		str	r3, [sp, #24]
 4908              	.LVL313:
 4909              	.L486:
 4910              	.LBB1290:
 4911              	.LBB1291:
 4912              	.LBB1292:
 149:../USER/main_03.c **** 		if(*buf==0) break;
 4913              		.loc 1 149 2 is_stmt 1 view .LVU1599
 150:../USER/main_03.c **** 		else        putch(*buf++);
 4914              		.loc 1 150 3 view .LVU1600
 150:../USER/main_03.c **** 		else        putch(*buf++);
 4915              		.loc 1 150 6 is_stmt 0 view .LVU1601
 4916 05c2 0D24     		movs	r4, #13
 4917 05c4 414E     		ldr	r6, .L1221+4
 4918              	.LVL314:
 4919              	.L355:
 151:../USER/main_03.c **** 	}
 4920              		.loc 1 151 15 is_stmt 1 view .LVU1602
 4921              	.LBB1293:
 4922              	.LBI1293:
 127:../USER/main_03.c **** 	volatile uint32_t gpiord;
 4923              		.loc 1 127 6 view .LVU1603
 4924              	.LBB1294:
 128:../USER/main_03.c **** 	if((mdgpio & 0x2000)==0)
 4925              		.loc 1 128 2 view .LVU1604
 129:../USER/main_03.c **** 		UART_SendChar(UART0,ch);
 4926              		.loc 1 129 2 view .LVU1605
 129:../USER/main_03.c **** 		UART_SendChar(UART0,ch);
 4927              		.loc 1 129 13 is_stmt 0 view .LVU1606
 4928 05c6 DAF80030 		ldr	r3, [r10]
 129:../USER/main_03.c **** 		UART_SendChar(UART0,ch);
 4929              		.loc 1 129 4 view .LVU1607
 4930 05ca 9904     		lsls	r1, r3, #18
 4931 05cc 40F1DE81 		bpl	.L1135
 132:../USER/main_03.c **** 		while((gpiord & 0x4000)!=0) {
 4932              		.loc 1 132 3 is_stmt 1 view .LVU1608
 132:../USER/main_03.c **** 		while((gpiord & 0x4000)!=0) {
 4933              		.loc 1 132 10 is_stmt 0 view .LVU1609
 4934 05d0 4FF48043 		mov	r3, #16384
 4935 05d4 1193     		str	r3, [sp, #68]
 133:../USER/main_03.c **** 			key_check();
 4936              		.loc 1 133 3 is_stmt 1 view .LVU1610
 133:../USER/main_03.c **** 			key_check();
 4937              		.loc 1 133 17 is_stmt 0 view .LVU1611
 4938 05d6 119B     		ldr	r3, [sp, #68]
 133:../USER/main_03.c **** 			key_check();
 4939              		.loc 1 133 8 view .LVU1612
 4940 05d8 5A04     		lsls	r2, r3, #17
 4941 05da 40F11081 		bpl	.L365
 135:../USER/main_03.c **** 		}
 4942              		.loc 1 135 13 view .LVU1613
 4943 05de 3A4D     		ldr	r5, .L1221
 4944 05e0 1EE0     		b	.L359
 4945              	.LVL315:
 4946              	.L1136:
 135:../USER/main_03.c **** 		}
 4947              		.loc 1 135 13 view .LVU1614
 4948 05e2 D8F80030 		ldr	r3, [r8]
 4949              	.L361:
 4950              	.LBB1295:
 4951              	.LBB1296:
 114:../USER/main_03.c **** 	//
 4952              		.loc 1 114 2 is_stmt 1 view .LVU1615
 114:../USER/main_03.c **** 	//
 4953              		.loc 1 114 18 view .LVU1616
 114:../USER/main_03.c **** 	//
 4954              		.loc 1 114 4 is_stmt 0 view .LVU1617
 4955 05e6 FF2B     		cmp	r3, #255
 4956 05e8 02DD     		ble	.L362
 114:../USER/main_03.c **** 	//
 4957              		.loc 1 114 25 view .LVU1618
 4958 05ea 0023     		movs	r3, #0
 4959 05ec C8F80070 		str	r7, [r8]
 4960              	.L362:
 116:../USER/main_03.c **** 	if(kinbwp>=256) kinbwp = 0;
 4961              		.loc 1 116 39 is_stmt 1 view .LVU1619
 116:../USER/main_03.c **** 	if(kinbwp>=256) kinbwp = 0;
 4962              		.loc 1 116 2 view .LVU1620
 116:../USER/main_03.c **** 	if(kinbwp>=256) kinbwp = 0;
 4963              		.loc 1 116 11 is_stmt 0 view .LVU1621
 4964 05f0 4FF04021 		mov	r1, #1073758208
 4965 05f4 4868     		ldr	r0, [r1, #4]
 4966              	.LVL316:
 116:../USER/main_03.c **** 	if(kinbwp>=256) kinbwp = 0;
 4967              		.loc 1 116 52 view .LVU1622
 4968 05f6 5A1C     		adds	r2, r3, #1
 116:../USER/main_03.c **** 	if(kinbwp>=256) kinbwp = 0;
 4969              		.loc 1 116 4 view .LVU1623
 4970 05f8 8007     		lsls	r0, r0, #30
 4971 05fa 09D5     		bpl	.L364
 117:../USER/main_03.c **** 	//
 4972              		.loc 1 117 25 view .LVU1624
 4973 05fc B2F5807F 		cmp	r2, #256
 116:../USER/main_03.c **** 	if(kinbwp>=256) kinbwp = 0;
 4974              		.loc 1 116 63 view .LVU1625
 4975 0600 0868     		ldr	r0, [r1]
 117:../USER/main_03.c **** 	//
 4976              		.loc 1 117 25 view .LVU1626
 4977 0602 14BF     		ite	ne
 4978 0604 1146     		movne	r1, r2
 4979 0606 3946     		moveq	r1, r7
 116:../USER/main_03.c **** 	if(kinbwp>=256) kinbwp = 0;
 4980              		.loc 1 116 56 view .LVU1627
 4981 0608 09F80300 		strb	r0, [r9, r3]
 117:../USER/main_03.c **** 	//
 4982              		.loc 1 117 2 is_stmt 1 view .LVU1628
 117:../USER/main_03.c **** 	//
 4983              		.loc 1 117 25 is_stmt 0 view .LVU1629
 4984 060c C8F80010 		str	r1, [r8]
 4985              	.L364:
 117:../USER/main_03.c **** 	//
 4986              		.loc 1 117 25 view .LVU1630
 4987              	.LBE1296:
 4988              	.LBE1295:
 135:../USER/main_03.c **** 		}
 4989              		.loc 1 135 4 is_stmt 1 view .LVU1631
 135:../USER/main_03.c **** 		}
 4990              		.loc 1 135 13 is_stmt 0 view .LVU1632
 4991 0610 2846     		mov	r0, r5
 4992 0612 FFF7FEFF 		bl	GPIO_ReadBits
 4993              	.LVL317:
 135:../USER/main_03.c **** 		}
 4994              		.loc 1 135 11 view .LVU1633
 4995 0616 1190     		str	r0, [sp, #68]
 133:../USER/main_03.c **** 			key_check();
 4996              		.loc 1 133 17 view .LVU1634
 4997 0618 119B     		ldr	r3, [sp, #68]
 133:../USER/main_03.c **** 			key_check();
 4998              		.loc 1 133 8 view .LVU1635
 4999 061a 5B04     		lsls	r3, r3, #17
 5000 061c 40F1EF80 		bpl	.L365
 5001              	.L359:
 134:../USER/main_03.c **** 			gpiord = GPIO_ReadBits(GPIO0);
 5002              		.loc 1 134 4 is_stmt 1 view .LVU1636
 5003              	.LBB1298:
 5004              	.LBI1295:
 109:../USER/main_03.c **** 	char ch;
 5005              		.loc 1 109 6 view .LVU1637
 5006              	.LBB1297:
 110:../USER/main_03.c **** 	//
 5007              		.loc 1 110 2 view .LVU1638
 112:../USER/main_03.c **** 	if(ch!=0) kinbuf[kinbwp++] = ch;
 5008              		.loc 1 112 2 view .LVU1639
 112:../USER/main_03.c **** 	if(ch!=0) kinbuf[kinbwp++] = ch;
 5009              		.loc 1 112 7 is_stmt 0 view .LVU1640
 5010 0620 FFF7FEFF 		bl	SPI_ReadData
 5011              	.LVL318:
 113:../USER/main_03.c **** 	if(kinbwp>=256) kinbwp = 0;
 5012              		.loc 1 113 12 is_stmt 1 view .LVU1641
 112:../USER/main_03.c **** 	if(ch!=0) kinbuf[kinbwp++] = ch;
 5013              		.loc 1 112 5 is_stmt 0 view .LVU1642
 5014 0624 40B2     		sxtb	r0, r0
 5015              	.LVL319:
 113:../USER/main_03.c **** 	if(kinbwp>=256) kinbwp = 0;
 5016              		.loc 1 113 2 is_stmt 1 view .LVU1643
 113:../USER/main_03.c **** 	if(kinbwp>=256) kinbwp = 0;
 5017              		.loc 1 113 4 is_stmt 0 view .LVU1644
 5018 0626 0028     		cmp	r0, #0
 5019 0628 DBD0     		beq	.L1136
 113:../USER/main_03.c **** 	if(kinbwp>=256) kinbwp = 0;
 5020              		.loc 1 113 25 view .LVU1645
 5021 062a D8F80020 		ldr	r2, [r8]
 5022 062e 531C     		adds	r3, r2, #1
 113:../USER/main_03.c **** 	if(kinbwp>=256) kinbwp = 0;
 5023              		.loc 1 113 29 view .LVU1646
 5024 0630 09F80200 		strb	r0, [r9, r2]
 113:../USER/main_03.c **** 	if(kinbwp>=256) kinbwp = 0;
 5025              		.loc 1 113 25 view .LVU1647
 5026 0634 C8F80030 		str	r3, [r8]
 5027 0638 D5E7     		b	.L361
 5028              	.LVL320:
 5029              	.L324:
 113:../USER/main_03.c **** 	if(kinbwp>=256) kinbwp = 0;
 5030              		.loc 1 113 25 view .LVU1648
 5031              	.LBE1297:
 5032              	.LBE1298:
 5033              	.LBE1294:
 5034              	.LBE1293:
 5035              	.LBE1292:
 5036              	.LBE1291:
 5037              	.LBE1290:
 196:../USER/main_03.c **** 		  switch(cmd){
 5038              		.loc 1 196 5 is_stmt 1 view .LVU1649
 196:../USER/main_03.c **** 		  switch(cmd){
 5039              		.loc 1 196 20 view .LVU1650
 196:../USER/main_03.c **** 		  switch(cmd){
 5040              		.loc 1 196 24 is_stmt 0 view .LVU1651
 5041 063a 0DF1A103 		add	r3, sp, #161
 5042 063e 0D93     		str	r3, [sp, #52]
 197:../USER/main_03.c **** 		  case 'B': puts("\r\n>"); basic();
 5043              		.loc 1 197 5 is_stmt 1 view .LVU1652
 5044              	.LVL321:
 5045              	.L329:
 5046              	.LBB1371:
 5047              	.LBB1372:
 149:../USER/main_03.c **** 		if(*buf==0) break;
 5048              		.loc 1 149 2 view .LVU1653
 150:../USER/main_03.c **** 		else        putch(*buf++);
 5049              		.loc 1 150 3 view .LVU1654
 5050              	.LBB1373:
 5051              	.LBB1374:
 129:../USER/main_03.c **** 		UART_SendChar(UART0,ch);
 5052              		.loc 1 129 13 is_stmt 0 view .LVU1655
 5053 0640 DAF80030 		ldr	r3, [r10]
 5054 0644 224D     		ldr	r5, .L1221+8
 5055              	.LVL322:
 129:../USER/main_03.c **** 		UART_SendChar(UART0,ch);
 5056              		.loc 1 129 13 view .LVU1656
 5057              	.LBE1374:
 5058              	.LBE1373:
 151:../USER/main_03.c **** 	}
 5059              		.loc 1 151 15 is_stmt 1 view .LVU1657
 5060              	.LBB1387:
 5061              	.LBB1383:
 129:../USER/main_03.c **** 		UART_SendChar(UART0,ch);
 5062              		.loc 1 129 4 is_stmt 0 view .LVU1658
 5063 0646 9904     		lsls	r1, r3, #18
 5064              	.LBE1383:
 5065              	.LBE1387:
 150:../USER/main_03.c **** 		else        putch(*buf++);
 5066              		.loc 1 150 6 view .LVU1659
 5067 0648 4FF03F04 		mov	r4, #63
 5068              	.LVL323:
 5069              	.LBB1388:
 5070              	.LBI1373:
 127:../USER/main_03.c **** 	volatile uint32_t gpiord;
 5071              		.loc 1 127 6 is_stmt 1 view .LVU1660
 5072              	.LBB1384:
 128:../USER/main_03.c **** 	if((mdgpio & 0x2000)==0)
 5073              		.loc 1 128 2 view .LVU1661
 129:../USER/main_03.c **** 		UART_SendChar(UART0,ch);
 5074              		.loc 1 129 2 view .LVU1662
 129:../USER/main_03.c **** 		UART_SendChar(UART0,ch);
 5075              		.loc 1 129 4 is_stmt 0 view .LVU1663
 5076 064c 40F13482 		bpl	.L1137
 5077              	.LVL324:
 5078              	.L814:
 132:../USER/main_03.c **** 		while((gpiord & 0x4000)!=0) {
 5079              		.loc 1 132 3 is_stmt 1 view .LVU1664
 132:../USER/main_03.c **** 		while((gpiord & 0x4000)!=0) {
 5080              		.loc 1 132 10 is_stmt 0 view .LVU1665
 5081 0650 4FF48043 		mov	r3, #16384
 5082 0654 2793     		str	r3, [sp, #156]
 133:../USER/main_03.c **** 			key_check();
 5083              		.loc 1 133 3 is_stmt 1 view .LVU1666
 133:../USER/main_03.c **** 			key_check();
 5084              		.loc 1 133 17 is_stmt 0 view .LVU1667
 5085 0656 279B     		ldr	r3, [sp, #156]
 133:../USER/main_03.c **** 			key_check();
 5086              		.loc 1 133 8 view .LVU1668
 5087 0658 5A04     		lsls	r2, r3, #17
 5088 065a 40F1F581 		bpl	.L822
 135:../USER/main_03.c **** 		}
 5089              		.loc 1 135 13 view .LVU1669
 5090 065e 1A4E     		ldr	r6, .L1221
 5091 0660 1EE0     		b	.L816
 5092              	.LVL325:
 5093              	.L1138:
 135:../USER/main_03.c **** 		}
 5094              		.loc 1 135 13 view .LVU1670
 5095 0662 D8F80030 		ldr	r3, [r8]
 5096              	.L818:
 5097              	.LBB1375:
 5098              	.LBB1376:
 114:../USER/main_03.c **** 	//
 5099              		.loc 1 114 2 is_stmt 1 view .LVU1671
 114:../USER/main_03.c **** 	//
 5100              		.loc 1 114 18 view .LVU1672
 114:../USER/main_03.c **** 	//
 5101              		.loc 1 114 4 is_stmt 0 view .LVU1673
 5102 0666 FF2B     		cmp	r3, #255
 5103 0668 02DD     		ble	.L819
 114:../USER/main_03.c **** 	//
 5104              		.loc 1 114 25 view .LVU1674
 5105 066a 0023     		movs	r3, #0
 5106 066c C8F80070 		str	r7, [r8]
 5107              	.L819:
 116:../USER/main_03.c **** 	if(kinbwp>=256) kinbwp = 0;
 5108              		.loc 1 116 39 is_stmt 1 view .LVU1675
 116:../USER/main_03.c **** 	if(kinbwp>=256) kinbwp = 0;
 5109              		.loc 1 116 2 view .LVU1676
 116:../USER/main_03.c **** 	if(kinbwp>=256) kinbwp = 0;
 5110              		.loc 1 116 11 is_stmt 0 view .LVU1677
 5111 0670 4FF04021 		mov	r1, #1073758208
 5112 0674 4868     		ldr	r0, [r1, #4]
 5113              	.LVL326:
 116:../USER/main_03.c **** 	if(kinbwp>=256) kinbwp = 0;
 5114              		.loc 1 116 52 view .LVU1678
 5115 0676 5A1C     		adds	r2, r3, #1
 116:../USER/main_03.c **** 	if(kinbwp>=256) kinbwp = 0;
 5116              		.loc 1 116 4 view .LVU1679
 5117 0678 8007     		lsls	r0, r0, #30
 5118 067a 09D5     		bpl	.L821
 117:../USER/main_03.c **** 	//
 5119              		.loc 1 117 25 view .LVU1680
 5120 067c B2F5807F 		cmp	r2, #256
 116:../USER/main_03.c **** 	if(kinbwp>=256) kinbwp = 0;
 5121              		.loc 1 116 63 view .LVU1681
 5122 0680 0868     		ldr	r0, [r1]
 117:../USER/main_03.c **** 	//
 5123              		.loc 1 117 25 view .LVU1682
 5124 0682 14BF     		ite	ne
 5125 0684 1146     		movne	r1, r2
 5126 0686 3946     		moveq	r1, r7
 116:../USER/main_03.c **** 	if(kinbwp>=256) kinbwp = 0;
 5127              		.loc 1 116 56 view .LVU1683
 5128 0688 09F80300 		strb	r0, [r9, r3]
 117:../USER/main_03.c **** 	//
 5129              		.loc 1 117 2 is_stmt 1 view .LVU1684
 117:../USER/main_03.c **** 	//
 5130              		.loc 1 117 25 is_stmt 0 view .LVU1685
 5131 068c C8F80010 		str	r1, [r8]
 5132              	.L821:
 117:../USER/main_03.c **** 	//
 5133              		.loc 1 117 25 view .LVU1686
 5134              	.LBE1376:
 5135              	.LBE1375:
 135:../USER/main_03.c **** 		}
 5136              		.loc 1 135 4 is_stmt 1 view .LVU1687
 135:../USER/main_03.c **** 		}
 5137              		.loc 1 135 13 is_stmt 0 view .LVU1688
 5138 0690 3046     		mov	r0, r6
 5139 0692 FFF7FEFF 		bl	GPIO_ReadBits
 5140              	.LVL327:
 135:../USER/main_03.c **** 		}
 5141              		.loc 1 135 11 view .LVU1689
 5142 0696 2790     		str	r0, [sp, #156]
 133:../USER/main_03.c **** 			key_check();
 5143              		.loc 1 133 17 view .LVU1690
 5144 0698 279B     		ldr	r3, [sp, #156]
 133:../USER/main_03.c **** 			key_check();
 5145              		.loc 1 133 8 view .LVU1691
 5146 069a 5B04     		lsls	r3, r3, #17
 5147 069c 40F1D481 		bpl	.L822
 5148              	.L816:
 134:../USER/main_03.c **** 			gpiord = GPIO_ReadBits(GPIO0);
 5149              		.loc 1 134 4 is_stmt 1 view .LVU1692
 5150              	.LBB1378:
 5151              	.LBI1375:
 109:../USER/main_03.c **** 	char ch;
 5152              		.loc 1 109 6 view .LVU1693
 5153              	.LBB1377:
 110:../USER/main_03.c **** 	//
 5154              		.loc 1 110 2 view .LVU1694
 112:../USER/main_03.c **** 	if(ch!=0) kinbuf[kinbwp++] = ch;
 5155              		.loc 1 112 2 view .LVU1695
 112:../USER/main_03.c **** 	if(ch!=0) kinbuf[kinbwp++] = ch;
 5156              		.loc 1 112 7 is_stmt 0 view .LVU1696
 5157 06a0 FFF7FEFF 		bl	SPI_ReadData
 5158              	.LVL328:
 113:../USER/main_03.c **** 	if(kinbwp>=256) kinbwp = 0;
 5159              		.loc 1 113 12 is_stmt 1 view .LVU1697
 112:../USER/main_03.c **** 	if(ch!=0) kinbuf[kinbwp++] = ch;
 5160              		.loc 1 112 5 is_stmt 0 view .LVU1698
 5161 06a4 40B2     		sxtb	r0, r0
 5162              	.LVL329:
 113:../USER/main_03.c **** 	if(kinbwp>=256) kinbwp = 0;
 5163              		.loc 1 113 2 is_stmt 1 view .LVU1699
 113:../USER/main_03.c **** 	if(kinbwp>=256) kinbwp = 0;
 5164              		.loc 1 113 4 is_stmt 0 view .LVU1700
 5165 06a6 0028     		cmp	r0, #0
 5166 06a8 DBD0     		beq	.L1138
 113:../USER/main_03.c **** 	if(kinbwp>=256) kinbwp = 0;
 5167              		.loc 1 113 25 view .LVU1701
 5168 06aa D8F80020 		ldr	r2, [r8]
 5169 06ae 531C     		adds	r3, r2, #1
 113:../USER/main_03.c **** 	if(kinbwp>=256) kinbwp = 0;
 5170              		.loc 1 113 29 view .LVU1702
 5171 06b0 09F80200 		strb	r0, [r9, r2]
 113:../USER/main_03.c **** 	if(kinbwp>=256) kinbwp = 0;
 5172              		.loc 1 113 25 view .LVU1703
 5173 06b4 C8F80030 		str	r3, [r8]
 5174 06b8 D5E7     		b	.L818
 5175              	.LVL330:
 5176              	.L583:
 113:../USER/main_03.c **** 	if(kinbwp>=256) kinbwp = 0;
 5177              		.loc 1 113 25 view .LVU1704
 5178              	.LBE1377:
 5179              	.LBE1378:
 5180              	.LBE1384:
 5181              	.LBE1388:
 5182              	.LBE1372:
 5183              	.LBE1371:
 5184              	.LBB1392:
 5185              	.LBB1049:
 5186              	.LBB1047:
 5187              	.LBB1045:
 5188              	.LBB1043:
 137:../USER/main_03.c **** 	}
 5189              		.loc 1 137 3 is_stmt 1 view .LVU1705
 5190 06ba E0B2     		uxtb	r0, r4
 5191 06bc FFF7FEFF 		bl	SPI_WriteData
 5192              	.LVL331:
 5193              	.L576:
 5194              	.LBB1039:
 5195              	.LBB1040:
 116:../USER/main_03.c **** 	if(kinbwp>=256) kinbwp = 0;
 5196              		.loc 1 116 11 is_stmt 0 view .LVU1706
 5197 06c0 4FF04025 		mov	r5, #1073758208
 5198 06c4 1FE0     		b	.L589
 5199              	.L1222:
 5200 06c6 00BF     		.align	2
 5201              	.L1221:
 5202 06c8 00000140 		.word	1073807360
 5203 06cc 00000000 		.word	.LC0
 5204 06d0 10000000 		.word	.LC3
 5205              	.LVL332:
 5206              	.L1140:
 116:../USER/main_03.c **** 	if(kinbwp>=256) kinbwp = 0;
 5207              		.loc 1 116 11 view .LVU1707
 5208 06d4 D8F80030 		ldr	r3, [r8]
 5209              	.L585:
 114:../USER/main_03.c **** 	//
 5210              		.loc 1 114 2 is_stmt 1 view .LVU1708
 114:../USER/main_03.c **** 	//
 5211              		.loc 1 114 18 view .LVU1709
 114:../USER/main_03.c **** 	//
 5212              		.loc 1 114 4 is_stmt 0 view .LVU1710
 5213 06d8 FF2B     		cmp	r3, #255
 5214 06da 02DD     		ble	.L586
 114:../USER/main_03.c **** 	//
 5215              		.loc 1 114 25 view .LVU1711
 5216 06dc 0023     		movs	r3, #0
 5217 06de C8F80070 		str	r7, [r8]
 5218              	.L586:
 116:../USER/main_03.c **** 	if(kinbwp>=256) kinbwp = 0;
 5219              		.loc 1 116 39 is_stmt 1 view .LVU1712
 116:../USER/main_03.c **** 	if(kinbwp>=256) kinbwp = 0;
 5220              		.loc 1 116 2 view .LVU1713
 116:../USER/main_03.c **** 	if(kinbwp>=256) kinbwp = 0;
 5221              		.loc 1 116 11 is_stmt 0 view .LVU1714
 5222 06e2 6968     		ldr	r1, [r5, #4]
 116:../USER/main_03.c **** 	if(kinbwp>=256) kinbwp = 0;
 5223              		.loc 1 116 52 view .LVU1715
 5224 06e4 5A1C     		adds	r2, r3, #1
 116:../USER/main_03.c **** 	if(kinbwp>=256) kinbwp = 0;
 5225              		.loc 1 116 4 view .LVU1716
 5226 06e6 8807     		lsls	r0, r1, #30
 5227              	.LVL333:
 116:../USER/main_03.c **** 	if(kinbwp>=256) kinbwp = 0;
 5228              		.loc 1 116 4 view .LVU1717
 5229 06e8 09D5     		bpl	.L588
 117:../USER/main_03.c **** 	//
 5230              		.loc 1 117 25 view .LVU1718
 5231 06ea B2F5807F 		cmp	r2, #256
 5232 06ee 14BF     		ite	ne
 5233 06f0 1146     		movne	r1, r2
 5234 06f2 3946     		moveq	r1, r7
 116:../USER/main_03.c **** 	if(kinbwp>=256) kinbwp = 0;
 5235              		.loc 1 116 63 view .LVU1719
 5236 06f4 2868     		ldr	r0, [r5]
 117:../USER/main_03.c **** 	//
 5237              		.loc 1 117 25 view .LVU1720
 5238 06f6 C8F80010 		str	r1, [r8]
 116:../USER/main_03.c **** 	if(kinbwp>=256) kinbwp = 0;
 5239              		.loc 1 116 56 view .LVU1721
 5240 06fa 09F80300 		strb	r0, [r9, r3]
 117:../USER/main_03.c **** 	//
 5241              		.loc 1 117 2 is_stmt 1 view .LVU1722
 5242              	.L588:
 117:../USER/main_03.c **** 	//
 5243              		.loc 1 117 2 is_stmt 0 view .LVU1723
 5244              	.LBE1040:
 5245              	.LBE1039:
 140:../USER/main_03.c **** }
 5246              		.loc 1 140 27 is_stmt 1 view .LVU1724
 140:../USER/main_03.c **** }
 5247              		.loc 1 140 32 is_stmt 0 view .LVU1725
 5248 06fe 2046     		mov	r0, r4
 5249 0700 FFF7FEFF 		bl	disp_vram
 5250              	.LVL334:
 140:../USER/main_03.c **** }
 5251              		.loc 1 140 2 view .LVU1726
 5252 0704 60B1     		cbz	r0, .L1139
 5253              	.LVL335:
 5254              	.L589:
 140:../USER/main_03.c **** }
 5255              		.loc 1 140 2 is_stmt 1 view .LVU1727
 140:../USER/main_03.c **** }
 5256              		.loc 1 140 10 view .LVU1728
 140:../USER/main_03.c **** }
 5257              		.loc 1 140 14 view .LVU1729
 5258              	.LBB1042:
 5259              	.LBI1039:
 109:../USER/main_03.c **** 	char ch;
 5260              		.loc 1 109 6 view .LVU1730
 5261              	.LBB1041:
 110:../USER/main_03.c **** 	//
 5262              		.loc 1 110 2 view .LVU1731
 112:../USER/main_03.c **** 	if(ch!=0) kinbuf[kinbwp++] = ch;
 5263              		.loc 1 112 2 view .LVU1732
 112:../USER/main_03.c **** 	if(ch!=0) kinbuf[kinbwp++] = ch;
 5264              		.loc 1 112 7 is_stmt 0 view .LVU1733
 5265 0706 FFF7FEFF 		bl	SPI_ReadData
 5266              	.LVL336:
 113:../USER/main_03.c **** 	if(kinbwp>=256) kinbwp = 0;
 5267              		.loc 1 113 12 is_stmt 1 view .LVU1734
 112:../USER/main_03.c **** 	if(ch!=0) kinbuf[kinbwp++] = ch;
 5268              		.loc 1 112 5 is_stmt 0 view .LVU1735
 5269 070a 40B2     		sxtb	r0, r0
 5270              	.LVL337:
 113:../USER/main_03.c **** 	if(kinbwp>=256) kinbwp = 0;
 5271              		.loc 1 113 2 is_stmt 1 view .LVU1736
 113:../USER/main_03.c **** 	if(kinbwp>=256) kinbwp = 0;
 5272              		.loc 1 113 4 is_stmt 0 view .LVU1737
 5273 070c 0028     		cmp	r0, #0
 5274 070e E1D0     		beq	.L1140
 113:../USER/main_03.c **** 	if(kinbwp>=256) kinbwp = 0;
 5275              		.loc 1 113 25 view .LVU1738
 5276 0710 D8F80020 		ldr	r2, [r8]
 5277 0714 531C     		adds	r3, r2, #1
 113:../USER/main_03.c **** 	if(kinbwp>=256) kinbwp = 0;
 5278              		.loc 1 113 29 view .LVU1739
 5279 0716 09F80200 		strb	r0, [r9, r2]
 113:../USER/main_03.c **** 	if(kinbwp>=256) kinbwp = 0;
 5280              		.loc 1 113 25 view .LVU1740
 5281 071a C8F80030 		str	r3, [r8]
 5282 071e DBE7     		b	.L585
 5283              	.LVL338:
 5284              	.L1139:
 113:../USER/main_03.c **** 	if(kinbwp>=256) kinbwp = 0;
 5285              		.loc 1 113 25 view .LVU1741
 5286              	.LBE1041:
 5287              	.LBE1042:
 5288              	.LBE1043:
 5289              	.LBE1045:
 149:../USER/main_03.c **** 		if(*buf==0) break;
 5290              		.loc 1 149 2 is_stmt 1 view .LVU1742
 150:../USER/main_03.c **** 		else        putch(*buf++);
 5291              		.loc 1 150 3 view .LVU1743
 150:../USER/main_03.c **** 		else        putch(*buf++);
 5292              		.loc 1 150 6 is_stmt 0 view .LVU1744
 5293 0720 16F9014F 		ldrsb	r4, [r6, #1]!
 5294              	.LVL339:
 150:../USER/main_03.c **** 		else        putch(*buf++);
 5295              		.loc 1 150 5 view .LVU1745
 5296 0724 002C     		cmp	r4, #0
 5297 0726 7FF4FEAE 		bne	.L573
 5298              	.LVL340:
 150:../USER/main_03.c **** 		else        putch(*buf++);
 5299              		.loc 1 150 5 view .LVU1746
 5300              	.LBE1047:
 5301              	.LBE1049:
 5302              	.LBE1392:
 169:../USER/main_03.c **** 
 5303              		.loc 1 169 44 is_stmt 1 view .LVU1747
 5304              	.LBB1393:
 5305              	.LBB1050:
 5306              	.LBI1050:
 147:../USER/main_03.c **** void putsuart(char *buf){
 5307              		.loc 1 147 6 view .LVU1748
 5308              	.LBB1051:
 147:../USER/main_03.c **** void putsuart(char *buf){
 5309              		.loc 1 147 26 view .LVU1749
 147:../USER/main_03.c **** void putsuart(char *buf){
 5310              		.loc 1 147 37 view .LVU1750
 147:../USER/main_03.c **** void putsuart(char *buf){
 5311              		.loc 1 147 52 view .LVU1751
 147:../USER/main_03.c **** void putsuart(char *buf){
 5312              		.loc 1 147 70 view .LVU1752
 5313              	.LBB1052:
 5314              	.LBI1052:
 145:../USER/main_03.c **** void puth6(dt) long dt;{ int dh,dl; dh = dt >> 16; dl = dt & 0xffff; puth2(dh); puth4(dl); }
 5315              		.loc 1 145 6 view .LVU1753
 5316              	.LBE1052:
 5317              	.LBE1051:
 5318              	.LBE1050:
 5319              	.LBE1393:
 145:../USER/main_03.c **** void puth6(dt) long dt;{ int dh,dl; dh = dt >> 16; dl = dt & 0xffff; puth2(dh); puth4(dl); }
 5320              		.loc 1 145 25 view .LVU1754
 5321              	.LBB1394:
 5322              	.LBB1269:
 5323              	.LBB1263:
 5324              	.LBB1101:
 5325              	.LBB1053:
 5326              	.LBI1053:
 144:../USER/main_03.c **** void puth4(dt) int dt;{ puth2((dt >> 8) & 0xff); puth2(dt & 0xff); }
 5327              		.loc 1 144 6 view .LVU1755
 5328              	.LBB1054:
 144:../USER/main_03.c **** void puth4(dt) int dt;{ puth2((dt >> 8) & 0xff); puth2(dt & 0xff); }
 5329              		.loc 1 144 25 view .LVU1756
 144:../USER/main_03.c **** void puth4(dt) int dt;{ puth2((dt >> 8) & 0xff); puth2(dt & 0xff); }
 5330              		.loc 1 144 34 is_stmt 0 view .LVU1757
 5331 072a 039B     		ldr	r3, [sp, #12]
 5332 072c 1B11     		asrs	r3, r3, #4
 5333              	.LVL341:
 5334              	.LBB1055:
 5335              	.LBI1055:
 143:../USER/main_03.c **** void puth2(dt) int dt;{ puth((dt >> 4) & 0xf); puth(dt & 0xf); }
 5336              		.loc 1 143 6 is_stmt 1 view .LVU1758
 5337              	.LBB1056:
 143:../USER/main_03.c **** void puth2(dt) int dt;{ puth((dt >> 4) & 0xf); puth(dt & 0xf); }
 5338              		.loc 1 143 24 view .LVU1759
 143:../USER/main_03.c **** void puth2(dt) int dt;{ puth((dt >> 4) & 0xf); puth(dt & 0xf); }
 5339              		.loc 1 143 34 view .LVU1760
 143:../USER/main_03.c **** void puth2(dt) int dt;{ puth((dt >> 4) & 0xf); puth(dt & 0xf); }
 5340              		.loc 1 143 55 view .LVU1761
 5341 072e D8B2     		uxtb	r0, r3
 5342              	.LVL342:
 143:../USER/main_03.c **** void puth2(dt) int dt;{ puth((dt >> 4) & 0xf); puth(dt & 0xf); }
 5343              		.loc 1 143 26 is_stmt 0 view .LVU1762
 5344 0730 092B     		cmp	r3, #9
 143:../USER/main_03.c **** void puth2(dt) int dt;{ puth((dt >> 4) & 0xf); puth(dt & 0xf); }
 5345              		.loc 1 143 34 view .LVU1763
 5346 0732 D4BF     		ite	le
 5347 0734 3030     		addle	r0, r0, #48
 143:../USER/main_03.c **** void puth2(dt) int dt;{ puth((dt >> 4) & 0xf); puth(dt & 0xf); }
 5348              		.loc 1 143 55 view .LVU1764
 5349 0736 3730     		addgt	r0, r0, #55
 5350 0738 FFF7FEFF 		bl	putch_uart
 5351              	.LVL343:
 143:../USER/main_03.c **** void puth2(dt) int dt;{ puth((dt >> 4) & 0xf); puth(dt & 0xf); }
 5352              		.loc 1 143 55 view .LVU1765
 5353              	.LBE1056:
 5354              	.LBE1055:
 144:../USER/main_03.c **** void puth4(dt) int dt;{ puth2((dt >> 8) & 0xff); puth2(dt & 0xff); }
 5355              		.loc 1 144 48 is_stmt 1 view .LVU1766
 5356 073c 039B     		ldr	r3, [sp, #12]
 5357 073e 03F00F03 		and	r3, r3, #15
 5358              	.LVL344:
 5359              	.LBB1057:
 5360              	.LBI1057:
 143:../USER/main_03.c **** void puth2(dt) int dt;{ puth((dt >> 4) & 0xf); puth(dt & 0xf); }
 5361              		.loc 1 143 6 view .LVU1767
 5362              	.LBB1058:
 143:../USER/main_03.c **** void puth2(dt) int dt;{ puth((dt >> 4) & 0xf); puth(dt & 0xf); }
 5363              		.loc 1 143 24 view .LVU1768
 143:../USER/main_03.c **** void puth2(dt) int dt;{ puth((dt >> 4) & 0xf); puth(dt & 0xf); }
 5364              		.loc 1 143 34 view .LVU1769
 143:../USER/main_03.c **** void puth2(dt) int dt;{ puth((dt >> 4) & 0xf); puth(dt & 0xf); }
 5365              		.loc 1 143 55 view .LVU1770
 5366 0742 D8B2     		uxtb	r0, r3
 143:../USER/main_03.c **** void puth2(dt) int dt;{ puth((dt >> 4) & 0xf); puth(dt & 0xf); }
 5367              		.loc 1 143 26 is_stmt 0 view .LVU1771
 5368 0744 092B     		cmp	r3, #9
 143:../USER/main_03.c **** void puth2(dt) int dt;{ puth((dt >> 4) & 0xf); puth(dt & 0xf); }
 5369              		.loc 1 143 34 view .LVU1772
 5370 0746 D4BF     		ite	le
 5371 0748 3030     		addle	r0, r0, #48
 143:../USER/main_03.c **** void puth2(dt) int dt;{ puth((dt >> 4) & 0xf); puth(dt & 0xf); }
 5372              		.loc 1 143 55 view .LVU1773
 5373 074a 3730     		addgt	r0, r0, #55
 5374 074c FFF7FEFF 		bl	putch_uart
 5375              	.LVL345:
 143:../USER/main_03.c **** void puth2(dt) int dt;{ puth((dt >> 4) & 0xf); puth(dt & 0xf); }
 5376              		.loc 1 143 55 view .LVU1774
 5377              	.LBE1058:
 5378              	.LBE1057:
 5379              	.LBE1054:
 5380              	.LBE1053:
 5381              	.LBE1101:
 5382              	.LBE1263:
 5383              	.LBE1269:
 5384              	.LBE1394:
 145:../USER/main_03.c **** void puth6(dt) long dt;{ int dh,dl; dh = dt >> 16; dl = dt & 0xffff; puth2(dh); puth4(dl); }
 5385              		.loc 1 145 50 is_stmt 1 view .LVU1775
 5386              	.LBB1395:
 5387              	.LBB1270:
 5388              	.LBB1264:
 5389              	.LBB1102:
 5390              	.LBB1059:
 5391              	.LBI1059:
 144:../USER/main_03.c **** void puth4(dt) int dt;{ puth2((dt >> 8) & 0xff); puth2(dt & 0xff); }
 5392              		.loc 1 144 6 view .LVU1776
 5393              	.LBB1060:
 144:../USER/main_03.c **** void puth4(dt) int dt;{ puth2((dt >> 8) & 0xff); puth2(dt & 0xff); }
 5394              		.loc 1 144 25 view .LVU1777
 144:../USER/main_03.c **** void puth4(dt) int dt;{ puth2((dt >> 8) & 0xff); puth2(dt & 0xff); }
 5395              		.loc 1 144 34 is_stmt 0 view .LVU1778
 5396 0750 089B     		ldr	r3, [sp, #32]
 5397 0752 03F00F03 		and	r3, r3, #15
 5398              	.LVL346:
 5399              	.LBB1061:
 5400              	.LBI1061:
 143:../USER/main_03.c **** void puth2(dt) int dt;{ puth((dt >> 4) & 0xf); puth(dt & 0xf); }
 5401              		.loc 1 143 6 is_stmt 1 view .LVU1779
 5402              	.LBB1062:
 143:../USER/main_03.c **** void puth2(dt) int dt;{ puth((dt >> 4) & 0xf); puth(dt & 0xf); }
 5403              		.loc 1 143 24 view .LVU1780
 143:../USER/main_03.c **** void puth2(dt) int dt;{ puth((dt >> 4) & 0xf); puth(dt & 0xf); }
 5404              		.loc 1 143 26 is_stmt 0 view .LVU1781
 5405 0756 092B     		cmp	r3, #9
 5406 0758 D8B2     		uxtb	r0, r3
 5407 075a 00F35984 		bgt	.L595
 143:../USER/main_03.c **** void puth2(dt) int dt;{ puth((dt >> 4) & 0xf); puth(dt & 0xf); }
 5408              		.loc 1 143 34 is_stmt 1 view .LVU1782
 5409 075e 3030     		adds	r0, r0, #48
 5410 0760 FFF7FEFF 		bl	putch_uart
 5411              	.LVL347:
 5412              	.L596:
 143:../USER/main_03.c **** void puth2(dt) int dt;{ puth((dt >> 4) & 0xf); puth(dt & 0xf); }
 5413              		.loc 1 143 34 is_stmt 0 view .LVU1783
 5414              	.LBE1062:
 5415              	.LBE1061:
 144:../USER/main_03.c **** void puth4(dt) int dt;{ puth2((dt >> 8) & 0xff); puth2(dt & 0xff); }
 5416              		.loc 1 144 48 is_stmt 1 view .LVU1784
 5417 0764 079B     		ldr	r3, [sp, #28]
 5418 0766 03F00F03 		and	r3, r3, #15
 5419              	.LVL348:
 5420              	.LBB1073:
 5421              	.LBI1073:
 143:../USER/main_03.c **** void puth2(dt) int dt;{ puth((dt >> 4) & 0xf); puth(dt & 0xf); }
 5422              		.loc 1 143 6 view .LVU1785
 5423              	.LBB1074:
 143:../USER/main_03.c **** void puth2(dt) int dt;{ puth((dt >> 4) & 0xf); puth(dt & 0xf); }
 5424              		.loc 1 143 24 view .LVU1786
 143:../USER/main_03.c **** void puth2(dt) int dt;{ puth((dt >> 4) & 0xf); puth(dt & 0xf); }
 5425              		.loc 1 143 26 is_stmt 0 view .LVU1787
 5426 076a 092B     		cmp	r3, #9
 5427 076c D8B2     		uxtb	r0, r3
 5428 076e 00F32081 		bgt	.L602
 143:../USER/main_03.c **** void puth2(dt) int dt;{ puth((dt >> 4) & 0xf); puth(dt & 0xf); }
 5429              		.loc 1 143 34 is_stmt 1 view .LVU1788
 5430              	.LBB1075:
 5431              	.LBB1076:
 129:../USER/main_03.c **** 		UART_SendChar(UART0,ch);
 5432              		.loc 1 129 13 is_stmt 0 view .LVU1789
 5433 0772 DAF80030 		ldr	r3, [r10]
 5434              	.LVL349:
 129:../USER/main_03.c **** 		UART_SendChar(UART0,ch);
 5435              		.loc 1 129 13 view .LVU1790
 5436              	.LBE1076:
 5437              	.LBE1075:
 143:../USER/main_03.c **** void puth2(dt) int dt;{ puth((dt >> 4) & 0xf); puth(dt & 0xf); }
 5438              		.loc 1 143 44 view .LVU1791
 5439 0776 00F13005 		add	r5, r0, #48
 5440              	.LBB1084:
 5441              	.LBB1081:
 129:../USER/main_03.c **** 		UART_SendChar(UART0,ch);
 5442              		.loc 1 129 4 view .LVU1792
 5443 077a 9904     		lsls	r1, r3, #18
 5444              	.LBE1081:
 5445              	.LBE1084:
 143:../USER/main_03.c **** void puth2(dt) int dt;{ puth((dt >> 4) & 0xf); puth(dt & 0xf); }
 5446              		.loc 1 143 34 view .LVU1793
 5447 077c 6CB2     		sxtb	r4, r5
 5448              	.LVL350:
 5449              	.LBB1085:
 5450              	.LBI1075:
 127:../USER/main_03.c **** 	volatile uint32_t gpiord;
 5451              		.loc 1 127 6 is_stmt 1 view .LVU1794
 5452              	.LBB1082:
 128:../USER/main_03.c **** 	if((mdgpio & 0x2000)==0)
 5453              		.loc 1 128 2 view .LVU1795
 129:../USER/main_03.c **** 		UART_SendChar(UART0,ch);
 5454              		.loc 1 129 2 view .LVU1796
 129:../USER/main_03.c **** 		UART_SendChar(UART0,ch);
 5455              		.loc 1 129 4 is_stmt 0 view .LVU1797
 5456 077e 41F17581 		bpl	.L1141
 132:../USER/main_03.c **** 		while((gpiord & 0x4000)!=0) {
 5457              		.loc 1 132 3 is_stmt 1 view .LVU1798
 132:../USER/main_03.c **** 		while((gpiord & 0x4000)!=0) {
 5458              		.loc 1 132 10 is_stmt 0 view .LVU1799
 5459 0782 4FF48043 		mov	r3, #16384
 5460 0786 1E93     		str	r3, [sp, #120]
 133:../USER/main_03.c **** 			key_check();
 5461              		.loc 1 133 3 is_stmt 1 view .LVU1800
 133:../USER/main_03.c **** 			key_check();
 5462              		.loc 1 133 17 is_stmt 0 view .LVU1801
 5463 0788 1E9B     		ldr	r3, [sp, #120]
 133:../USER/main_03.c **** 			key_check();
 5464              		.loc 1 133 8 view .LVU1802
 5465 078a 5A04     		lsls	r2, r3, #17
 5466 078c 09D5     		bpl	.L606
 135:../USER/main_03.c **** 		}
 5467              		.loc 1 135 13 view .LVU1803
 5468 078e B14E     		ldr	r6, .L1223
 5469              	.L605:
 134:../USER/main_03.c **** 			gpiord = GPIO_ReadBits(GPIO0);
 5470              		.loc 1 134 4 is_stmt 1 view .LVU1804
 5471 0790 FFF7FEFF 		bl	key_check
 5472              	.LVL351:
 135:../USER/main_03.c **** 		}
 5473              		.loc 1 135 4 view .LVU1805
 135:../USER/main_03.c **** 		}
 5474              		.loc 1 135 13 is_stmt 0 view .LVU1806
 5475 0794 3046     		mov	r0, r6
 5476 0796 FFF7FEFF 		bl	GPIO_ReadBits
 5477              	.LVL352:
 135:../USER/main_03.c **** 		}
 5478              		.loc 1 135 11 view .LVU1807
 5479 079a 1E90     		str	r0, [sp, #120]
 133:../USER/main_03.c **** 			key_check();
 5480              		.loc 1 133 17 view .LVU1808
 5481 079c 1E9B     		ldr	r3, [sp, #120]
 133:../USER/main_03.c **** 			key_check();
 5482              		.loc 1 133 8 view .LVU1809
 5483 079e 5B04     		lsls	r3, r3, #17
 5484 07a0 F6D4     		bmi	.L605
 5485              	.L606:
 137:../USER/main_03.c **** 	}
 5486              		.loc 1 137 3 is_stmt 1 view .LVU1810
 5487 07a2 2846     		mov	r0, r5
 5488 07a4 FFF7FEFF 		bl	SPI_WriteData
 5489              	.LVL353:
 5490              	.L604:
 5491              	.LBB1077:
 5492              	.LBB1078:
 116:../USER/main_03.c **** 	if(kinbwp>=256) kinbwp = 0;
 5493              		.loc 1 116 11 is_stmt 0 view .LVU1811
 5494 07a8 4FF04025 		mov	r5, #1073758208
 5495 07ac 1AE0     		b	.L612
 5496              	.LVL354:
 5497              	.L1142:
 116:../USER/main_03.c **** 	if(kinbwp>=256) kinbwp = 0;
 5498              		.loc 1 116 11 view .LVU1812
 5499 07ae D8F80030 		ldr	r3, [r8]
 5500              	.L608:
 114:../USER/main_03.c **** 	//
 5501              		.loc 1 114 2 is_stmt 1 view .LVU1813
 114:../USER/main_03.c **** 	//
 5502              		.loc 1 114 18 view .LVU1814
 114:../USER/main_03.c **** 	//
 5503              		.loc 1 114 4 is_stmt 0 view .LVU1815
 5504 07b2 FF2B     		cmp	r3, #255
 5505 07b4 02DD     		ble	.L609
 114:../USER/main_03.c **** 	//
 5506              		.loc 1 114 25 view .LVU1816
 5507 07b6 0023     		movs	r3, #0
 5508 07b8 C8F80070 		str	r7, [r8]
 5509              	.L609:
 116:../USER/main_03.c **** 	if(kinbwp>=256) kinbwp = 0;
 5510              		.loc 1 116 39 is_stmt 1 view .LVU1817
 116:../USER/main_03.c **** 	if(kinbwp>=256) kinbwp = 0;
 5511              		.loc 1 116 2 view .LVU1818
 116:../USER/main_03.c **** 	if(kinbwp>=256) kinbwp = 0;
 5512              		.loc 1 116 11 is_stmt 0 view .LVU1819
 5513 07bc 6968     		ldr	r1, [r5, #4]
 116:../USER/main_03.c **** 	if(kinbwp>=256) kinbwp = 0;
 5514              		.loc 1 116 52 view .LVU1820
 5515 07be 5A1C     		adds	r2, r3, #1
 116:../USER/main_03.c **** 	if(kinbwp>=256) kinbwp = 0;
 5516              		.loc 1 116 4 view .LVU1821
 5517 07c0 8E07     		lsls	r6, r1, #30
 5518 07c2 09D5     		bpl	.L611
 117:../USER/main_03.c **** 	//
 5519              		.loc 1 117 25 view .LVU1822
 5520 07c4 B2F5807F 		cmp	r2, #256
 5521 07c8 14BF     		ite	ne
 5522 07ca 1146     		movne	r1, r2
 5523 07cc 3946     		moveq	r1, r7
 116:../USER/main_03.c **** 	if(kinbwp>=256) kinbwp = 0;
 5524              		.loc 1 116 63 view .LVU1823
 5525 07ce 2868     		ldr	r0, [r5]
 5526              	.LVL355:
 117:../USER/main_03.c **** 	//
 5527              		.loc 1 117 25 view .LVU1824
 5528 07d0 C8F80010 		str	r1, [r8]
 116:../USER/main_03.c **** 	if(kinbwp>=256) kinbwp = 0;
 5529              		.loc 1 116 56 view .LVU1825
 5530 07d4 09F80300 		strb	r0, [r9, r3]
 117:../USER/main_03.c **** 	//
 5531              		.loc 1 117 2 is_stmt 1 view .LVU1826
 5532              	.L611:
 117:../USER/main_03.c **** 	//
 5533              		.loc 1 117 2 is_stmt 0 view .LVU1827
 5534              	.LBE1078:
 5535              	.LBE1077:
 140:../USER/main_03.c **** }
 5536              		.loc 1 140 27 is_stmt 1 view .LVU1828
 140:../USER/main_03.c **** }
 5537              		.loc 1 140 32 is_stmt 0 view .LVU1829
 5538 07d8 2046     		mov	r0, r4
 5539 07da FFF7FEFF 		bl	disp_vram
 5540              	.LVL356:
 140:../USER/main_03.c **** }
 5541              		.loc 1 140 2 view .LVU1830
 5542 07de 0028     		cmp	r0, #0
 5543 07e0 00F0EA80 		beq	.L613
 5544              	.LVL357:
 5545              	.L612:
 140:../USER/main_03.c **** }
 5546              		.loc 1 140 2 is_stmt 1 view .LVU1831
 140:../USER/main_03.c **** }
 5547              		.loc 1 140 10 view .LVU1832
 140:../USER/main_03.c **** }
 5548              		.loc 1 140 14 view .LVU1833
 5549              	.LBB1080:
 5550              	.LBI1077:
 109:../USER/main_03.c **** 	char ch;
 5551              		.loc 1 109 6 view .LVU1834
 5552              	.LBB1079:
 110:../USER/main_03.c **** 	//
 5553              		.loc 1 110 2 view .LVU1835
 112:../USER/main_03.c **** 	if(ch!=0) kinbuf[kinbwp++] = ch;
 5554              		.loc 1 112 2 view .LVU1836
 112:../USER/main_03.c **** 	if(ch!=0) kinbuf[kinbwp++] = ch;
 5555              		.loc 1 112 7 is_stmt 0 view .LVU1837
 5556 07e4 FFF7FEFF 		bl	SPI_ReadData
 5557              	.LVL358:
 113:../USER/main_03.c **** 	if(kinbwp>=256) kinbwp = 0;
 5558              		.loc 1 113 12 is_stmt 1 view .LVU1838
 112:../USER/main_03.c **** 	if(ch!=0) kinbuf[kinbwp++] = ch;
 5559              		.loc 1 112 5 is_stmt 0 view .LVU1839
 5560 07e8 40B2     		sxtb	r0, r0
 5561              	.LVL359:
 113:../USER/main_03.c **** 	if(kinbwp>=256) kinbwp = 0;
 5562              		.loc 1 113 2 is_stmt 1 view .LVU1840
 113:../USER/main_03.c **** 	if(kinbwp>=256) kinbwp = 0;
 5563              		.loc 1 113 4 is_stmt 0 view .LVU1841
 5564 07ea 0028     		cmp	r0, #0
 5565 07ec DFD0     		beq	.L1142
 113:../USER/main_03.c **** 	if(kinbwp>=256) kinbwp = 0;
 5566              		.loc 1 113 25 view .LVU1842
 5567 07ee D8F80020 		ldr	r2, [r8]
 5568 07f2 531C     		adds	r3, r2, #1
 113:../USER/main_03.c **** 	if(kinbwp>=256) kinbwp = 0;
 5569              		.loc 1 113 29 view .LVU1843
 5570 07f4 09F80200 		strb	r0, [r9, r2]
 113:../USER/main_03.c **** 	if(kinbwp>=256) kinbwp = 0;
 5571              		.loc 1 113 25 view .LVU1844
 5572 07f8 C8F80030 		str	r3, [r8]
 5573 07fc D9E7     		b	.L608
 5574              	.LVL360:
 5575              	.L365:
 113:../USER/main_03.c **** 	if(kinbwp>=256) kinbwp = 0;
 5576              		.loc 1 113 25 view .LVU1845
 5577              	.LBE1079:
 5578              	.LBE1080:
 5579              	.LBE1082:
 5580              	.LBE1085:
 5581              	.LBE1074:
 5582              	.LBE1073:
 5583              	.LBE1060:
 5584              	.LBE1059:
 5585              	.LBE1102:
 5586              	.LBE1264:
 5587              	.LBE1270:
 5588              	.LBE1395:
 5589              	.LBB1396:
 5590              	.LBB1309:
 5591              	.LBB1307:
 5592              	.LBB1305:
 5593              	.LBB1303:
 137:../USER/main_03.c **** 	}
 5594              		.loc 1 137 3 is_stmt 1 view .LVU1846
 5595 07fe E0B2     		uxtb	r0, r4
 5596 0800 FFF7FEFF 		bl	SPI_WriteData
 5597              	.LVL361:
 5598              	.L358:
 5599              	.LBB1299:
 5600              	.LBB1300:
 116:../USER/main_03.c **** 	if(kinbwp>=256) kinbwp = 0;
 5601              		.loc 1 116 11 is_stmt 0 view .LVU1847
 5602 0804 4FF04025 		mov	r5, #1073758208
 5603 0808 18E0     		b	.L371
 5604              	.LVL362:
 5605              	.L1144:
 116:../USER/main_03.c **** 	if(kinbwp>=256) kinbwp = 0;
 5606              		.loc 1 116 11 view .LVU1848
 5607 080a D8F80030 		ldr	r3, [r8]
 5608              	.L367:
 114:../USER/main_03.c **** 	//
 5609              		.loc 1 114 2 is_stmt 1 view .LVU1849
 114:../USER/main_03.c **** 	//
 5610              		.loc 1 114 18 view .LVU1850
 114:../USER/main_03.c **** 	//
 5611              		.loc 1 114 4 is_stmt 0 view .LVU1851
 5612 080e FF2B     		cmp	r3, #255
 5613 0810 02DD     		ble	.L368
 114:../USER/main_03.c **** 	//
 5614              		.loc 1 114 25 view .LVU1852
 5615 0812 0023     		movs	r3, #0
 5616 0814 C8F80070 		str	r7, [r8]
 5617              	.L368:
 116:../USER/main_03.c **** 	if(kinbwp>=256) kinbwp = 0;
 5618              		.loc 1 116 39 is_stmt 1 view .LVU1853
 116:../USER/main_03.c **** 	if(kinbwp>=256) kinbwp = 0;
 5619              		.loc 1 116 2 view .LVU1854
 116:../USER/main_03.c **** 	if(kinbwp>=256) kinbwp = 0;
 5620              		.loc 1 116 11 is_stmt 0 view .LVU1855
 5621 0818 6968     		ldr	r1, [r5, #4]
 116:../USER/main_03.c **** 	if(kinbwp>=256) kinbwp = 0;
 5622              		.loc 1 116 52 view .LVU1856
 5623 081a 5A1C     		adds	r2, r3, #1
 116:../USER/main_03.c **** 	if(kinbwp>=256) kinbwp = 0;
 5624              		.loc 1 116 4 view .LVU1857
 5625 081c 8807     		lsls	r0, r1, #30
 5626              	.LVL363:
 116:../USER/main_03.c **** 	if(kinbwp>=256) kinbwp = 0;
 5627              		.loc 1 116 4 view .LVU1858
 5628 081e 09D5     		bpl	.L370
 117:../USER/main_03.c **** 	//
 5629              		.loc 1 117 25 view .LVU1859
 5630 0820 B2F5807F 		cmp	r2, #256
 5631 0824 14BF     		ite	ne
 5632 0826 1146     		movne	r1, r2
 5633 0828 3946     		moveq	r1, r7
 116:../USER/main_03.c **** 	if(kinbwp>=256) kinbwp = 0;
 5634              		.loc 1 116 63 view .LVU1860
 5635 082a 2868     		ldr	r0, [r5]
 117:../USER/main_03.c **** 	//
 5636              		.loc 1 117 25 view .LVU1861
 5637 082c C8F80010 		str	r1, [r8]
 116:../USER/main_03.c **** 	if(kinbwp>=256) kinbwp = 0;
 5638              		.loc 1 116 56 view .LVU1862
 5639 0830 09F80300 		strb	r0, [r9, r3]
 117:../USER/main_03.c **** 	//
 5640              		.loc 1 117 2 is_stmt 1 view .LVU1863
 5641              	.L370:
 117:../USER/main_03.c **** 	//
 5642              		.loc 1 117 2 is_stmt 0 view .LVU1864
 5643              	.LBE1300:
 5644              	.LBE1299:
 140:../USER/main_03.c **** }
 5645              		.loc 1 140 27 is_stmt 1 view .LVU1865
 140:../USER/main_03.c **** }
 5646              		.loc 1 140 32 is_stmt 0 view .LVU1866
 5647 0834 2046     		mov	r0, r4
 5648 0836 FFF7FEFF 		bl	disp_vram
 5649              	.LVL364:
 140:../USER/main_03.c **** }
 5650              		.loc 1 140 2 view .LVU1867
 5651 083a 60B1     		cbz	r0, .L1143
 5652              	.LVL365:
 5653              	.L371:
 140:../USER/main_03.c **** }
 5654              		.loc 1 140 2 is_stmt 1 view .LVU1868
 140:../USER/main_03.c **** }
 5655              		.loc 1 140 10 view .LVU1869
 140:../USER/main_03.c **** }
 5656              		.loc 1 140 14 view .LVU1870
 5657              	.LBB1302:
 5658              	.LBI1299:
 109:../USER/main_03.c **** 	char ch;
 5659              		.loc 1 109 6 view .LVU1871
 5660              	.LBB1301:
 110:../USER/main_03.c **** 	//
 5661              		.loc 1 110 2 view .LVU1872
 112:../USER/main_03.c **** 	if(ch!=0) kinbuf[kinbwp++] = ch;
 5662              		.loc 1 112 2 view .LVU1873
 112:../USER/main_03.c **** 	if(ch!=0) kinbuf[kinbwp++] = ch;
 5663              		.loc 1 112 7 is_stmt 0 view .LVU1874
 5664 083c FFF7FEFF 		bl	SPI_ReadData
 5665              	.LVL366:
 113:../USER/main_03.c **** 	if(kinbwp>=256) kinbwp = 0;
 5666              		.loc 1 113 12 is_stmt 1 view .LVU1875
 112:../USER/main_03.c **** 	if(ch!=0) kinbuf[kinbwp++] = ch;
 5667              		.loc 1 112 5 is_stmt 0 view .LVU1876
 5668 0840 40B2     		sxtb	r0, r0
 5669              	.LVL367:
 113:../USER/main_03.c **** 	if(kinbwp>=256) kinbwp = 0;
 5670              		.loc 1 113 2 is_stmt 1 view .LVU1877
 113:../USER/main_03.c **** 	if(kinbwp>=256) kinbwp = 0;
 5671              		.loc 1 113 4 is_stmt 0 view .LVU1878
 5672 0842 0028     		cmp	r0, #0
 5673 0844 E1D0     		beq	.L1144
 113:../USER/main_03.c **** 	if(kinbwp>=256) kinbwp = 0;
 5674              		.loc 1 113 25 view .LVU1879
 5675 0846 D8F80020 		ldr	r2, [r8]
 5676 084a 531C     		adds	r3, r2, #1
 113:../USER/main_03.c **** 	if(kinbwp>=256) kinbwp = 0;
 5677              		.loc 1 113 29 view .LVU1880
 5678 084c 09F80200 		strb	r0, [r9, r2]
 113:../USER/main_03.c **** 	if(kinbwp>=256) kinbwp = 0;
 5679              		.loc 1 113 25 view .LVU1881
 5680 0850 C8F80030 		str	r3, [r8]
 5681 0854 DBE7     		b	.L367
 5682              	.LVL368:
 5683              	.L1143:
 113:../USER/main_03.c **** 	if(kinbwp>=256) kinbwp = 0;
 5684              		.loc 1 113 25 view .LVU1882
 5685              	.LBE1301:
 5686              	.LBE1302:
 5687              	.LBE1303:
 5688              	.LBE1305:
 149:../USER/main_03.c **** 		if(*buf==0) break;
 5689              		.loc 1 149 2 is_stmt 1 view .LVU1883
 150:../USER/main_03.c **** 		else        putch(*buf++);
 5690              		.loc 1 150 3 view .LVU1884
 150:../USER/main_03.c **** 		else        putch(*buf++);
 5691              		.loc 1 150 6 is_stmt 0 view .LVU1885
 5692 0856 16F9014F 		ldrsb	r4, [r6, #1]!
 5693              	.LVL369:
 150:../USER/main_03.c **** 		else        putch(*buf++);
 5694              		.loc 1 150 5 view .LVU1886
 5695 085a 002C     		cmp	r4, #0
 5696 085c 7FF4B3AE 		bne	.L355
 5697              	.LVL370:
 150:../USER/main_03.c **** 		else        putch(*buf++);
 5698              		.loc 1 150 5 view .LVU1887
 5699              	.LBE1307:
 5700              	.LBE1309:
 5701              	.LBE1396:
 169:../USER/main_03.c **** 
 5702              		.loc 1 169 44 is_stmt 1 view .LVU1888
 5703              	.LBB1397:
 5704              	.LBB1310:
 5705              	.LBI1310:
 147:../USER/main_03.c **** void putsuart(char *buf){
 5706              		.loc 1 147 6 view .LVU1889
 5707              	.LBB1311:
 147:../USER/main_03.c **** void putsuart(char *buf){
 5708              		.loc 1 147 26 view .LVU1890
 147:../USER/main_03.c **** void putsuart(char *buf){
 5709              		.loc 1 147 37 view .LVU1891
 5710 0860 059A     		ldr	r2, [sp, #20]
 5711 0862 160E     		lsrs	r6, r2, #24
 5712              	.LBB1312:
 5713              	.LBB1313:
 5714              	.LBB1314:
 144:../USER/main_03.c **** void puth4(dt) int dt;{ puth2((dt >> 8) & 0xff); puth2(dt & 0xff); }
 5715              		.loc 1 144 34 is_stmt 0 view .LVU1892
 5716 0864 3311     		asrs	r3, r6, #4
 5717 0866 D8B2     		uxtb	r0, r3
 5718              	.LVL371:
 5719              	.LBB1315:
 5720              	.LBB1316:
 143:../USER/main_03.c **** void puth2(dt) int dt;{ puth((dt >> 4) & 0xf); puth(dt & 0xf); }
 5721              		.loc 1 143 26 view .LVU1893
 5722 0868 092B     		cmp	r3, #9
 143:../USER/main_03.c **** void puth2(dt) int dt;{ puth((dt >> 4) & 0xf); puth(dt & 0xf); }
 5723              		.loc 1 143 34 view .LVU1894
 5724 086a D4BF     		ite	le
 5725 086c 3030     		addle	r0, r0, #48
 143:../USER/main_03.c **** void puth2(dt) int dt;{ puth((dt >> 4) & 0xf); puth(dt & 0xf); }
 5726              		.loc 1 143 55 view .LVU1895
 5727 086e 3730     		addgt	r0, r0, #55
 5728              	.LBE1316:
 5729              	.LBE1315:
 144:../USER/main_03.c **** void puth4(dt) int dt;{ puth2((dt >> 8) & 0xff); puth2(dt & 0xff); }
 5730              		.loc 1 144 48 view .LVU1896
 5731 0870 06F00F06 		and	r6, r6, #15
 5732              	.LBE1314:
 5733              	.LBE1313:
 5734              	.LBE1312:
 147:../USER/main_03.c **** void putsuart(char *buf){
 5735              		.loc 1 147 55 view .LVU1897
 5736 0874 94B2     		uxth	r4, r2
 147:../USER/main_03.c **** void putsuart(char *buf){
 5737              		.loc 1 147 40 view .LVU1898
 5738 0876 1514     		asrs	r5, r2, #16
 5739              	.LVL372:
 147:../USER/main_03.c **** void putsuart(char *buf){
 5740              		.loc 1 147 52 is_stmt 1 view .LVU1899
 147:../USER/main_03.c **** void putsuart(char *buf){
 5741              		.loc 1 147 70 view .LVU1900
 5742              	.LBB1329:
 5743              	.LBI1312:
 145:../USER/main_03.c **** void puth6(dt) long dt;{ int dh,dl; dh = dt >> 16; dl = dt & 0xffff; puth2(dh); puth4(dl); }
 5744              		.loc 1 145 6 view .LVU1901
 5745              	.LBE1329:
 5746              	.LBE1311:
 5747              	.LBE1310:
 5748              	.LBE1397:
 145:../USER/main_03.c **** void puth6(dt) long dt;{ int dh,dl; dh = dt >> 16; dl = dt & 0xffff; puth2(dh); puth4(dl); }
 5749              		.loc 1 145 25 view .LVU1902
 5750              	.LBB1398:
 5751              	.LBB1354:
 5752              	.LBB1352:
 5753              	.LBB1330:
 5754              	.LBB1322:
 5755              	.LBI1313:
 144:../USER/main_03.c **** void puth4(dt) int dt;{ puth2((dt >> 8) & 0xff); puth2(dt & 0xff); }
 5756              		.loc 1 144 6 view .LVU1903
 5757              	.LBB1321:
 144:../USER/main_03.c **** void puth4(dt) int dt;{ puth2((dt >> 8) & 0xff); puth2(dt & 0xff); }
 5758              		.loc 1 144 25 view .LVU1904
 5759              	.LBB1318:
 5760              	.LBI1315:
 143:../USER/main_03.c **** void puth2(dt) int dt;{ puth((dt >> 4) & 0xf); puth(dt & 0xf); }
 5761              		.loc 1 143 6 view .LVU1905
 5762              	.LBB1317:
 143:../USER/main_03.c **** void puth2(dt) int dt;{ puth((dt >> 4) & 0xf); puth(dt & 0xf); }
 5763              		.loc 1 143 24 view .LVU1906
 143:../USER/main_03.c **** void puth2(dt) int dt;{ puth((dt >> 4) & 0xf); puth(dt & 0xf); }
 5764              		.loc 1 143 34 view .LVU1907
 143:../USER/main_03.c **** void puth2(dt) int dt;{ puth((dt >> 4) & 0xf); puth(dt & 0xf); }
 5765              		.loc 1 143 55 view .LVU1908
 5766 0878 9346     		mov	fp, r2
 5767 087a FFF7FEFF 		bl	putch_uart
 5768              	.LVL373:
 143:../USER/main_03.c **** void puth2(dt) int dt;{ puth((dt >> 4) & 0xf); puth(dt & 0xf); }
 5769              		.loc 1 143 55 is_stmt 0 view .LVU1909
 5770              	.LBE1317:
 5771              	.LBE1318:
 144:../USER/main_03.c **** void puth4(dt) int dt;{ puth2((dt >> 8) & 0xff); puth2(dt & 0xff); }
 5772              		.loc 1 144 48 is_stmt 1 view .LVU1910
 5773              	.LBB1319:
 5774              	.LBI1319:
 143:../USER/main_03.c **** void puth2(dt) int dt;{ puth((dt >> 4) & 0xf); puth(dt & 0xf); }
 5775              		.loc 1 143 6 view .LVU1911
 5776              	.LBB1320:
 143:../USER/main_03.c **** void puth2(dt) int dt;{ puth((dt >> 4) & 0xf); puth(dt & 0xf); }
 5777              		.loc 1 143 24 view .LVU1912
 143:../USER/main_03.c **** void puth2(dt) int dt;{ puth((dt >> 4) & 0xf); puth(dt & 0xf); }
 5778              		.loc 1 143 34 view .LVU1913
 143:../USER/main_03.c **** void puth2(dt) int dt;{ puth((dt >> 4) & 0xf); puth(dt & 0xf); }
 5779              		.loc 1 143 55 view .LVU1914
 5780 087e F0B2     		uxtb	r0, r6
 143:../USER/main_03.c **** void puth2(dt) int dt;{ puth((dt >> 4) & 0xf); puth(dt & 0xf); }
 5781              		.loc 1 143 26 is_stmt 0 view .LVU1915
 5782 0880 092E     		cmp	r6, #9
 143:../USER/main_03.c **** void puth2(dt) int dt;{ puth((dt >> 4) & 0xf); puth(dt & 0xf); }
 5783              		.loc 1 143 34 view .LVU1916
 5784 0882 D4BF     		ite	le
 5785 0884 3030     		addle	r0, r0, #48
 143:../USER/main_03.c **** void puth2(dt) int dt;{ puth((dt >> 4) & 0xf); puth(dt & 0xf); }
 5786              		.loc 1 143 55 view .LVU1917
 5787 0886 3730     		addgt	r0, r0, #55
 5788 0888 FFF7FEFF 		bl	putch_uart
 5789              	.LVL374:
 143:../USER/main_03.c **** void puth2(dt) int dt;{ puth((dt >> 4) & 0xf); puth(dt & 0xf); }
 5790              		.loc 1 143 55 view .LVU1918
 5791              	.LBE1320:
 5792              	.LBE1319:
 5793              	.LBE1321:
 5794              	.LBE1322:
 5795              	.LBE1330:
 5796              	.LBE1352:
 5797              	.LBE1354:
 5798              	.LBE1398:
 145:../USER/main_03.c **** void puth6(dt) long dt;{ int dh,dl; dh = dt >> 16; dl = dt & 0xffff; puth2(dh); puth4(dl); }
 5799              		.loc 1 145 50 is_stmt 1 view .LVU1919
 5800              	.LBB1399:
 5801              	.LBB1355:
 5802              	.LBB1353:
 5803              	.LBB1331:
 5804              	.LBB1323:
 5805              	.LBI1323:
 144:../USER/main_03.c **** void puth4(dt) int dt;{ puth2((dt >> 8) & 0xff); puth2(dt & 0xff); }
 5806              		.loc 1 144 6 view .LVU1920
 5807              	.LBB1324:
 144:../USER/main_03.c **** void puth4(dt) int dt;{ puth2((dt >> 8) & 0xff); puth2(dt & 0xff); }
 5808              		.loc 1 144 25 view .LVU1921
 144:../USER/main_03.c **** void puth4(dt) int dt;{ puth2((dt >> 8) & 0xff); puth2(dt & 0xff); }
 5809              		.loc 1 144 34 is_stmt 0 view .LVU1922
 5810 088c 059B     		ldr	r3, [sp, #20]
 144:../USER/main_03.c **** void puth4(dt) int dt;{ puth2((dt >> 8) & 0xff); puth2(dt & 0xff); }
 5811              		.loc 1 144 48 view .LVU1923
 5812 088e 05F00F05 		and	r5, r5, #15
 5813              	.LVL375:
 144:../USER/main_03.c **** void puth4(dt) int dt;{ puth2((dt >> 8) & 0xff); puth2(dt & 0xff); }
 5814              		.loc 1 144 34 view .LVU1924
 5815 0892 C3F30353 		ubfx	r3, r3, #20, #4
 5816              	.LVL376:
 5817              	.LBB1325:
 5818              	.LBI1325:
 143:../USER/main_03.c **** void puth2(dt) int dt;{ puth((dt >> 4) & 0xf); puth(dt & 0xf); }
 5819              		.loc 1 143 6 is_stmt 1 view .LVU1925
 5820              	.LBB1326:
 143:../USER/main_03.c **** void puth2(dt) int dt;{ puth((dt >> 4) & 0xf); puth(dt & 0xf); }
 5821              		.loc 1 143 24 view .LVU1926
 143:../USER/main_03.c **** void puth2(dt) int dt;{ puth((dt >> 4) & 0xf); puth(dt & 0xf); }
 5822              		.loc 1 143 34 view .LVU1927
 143:../USER/main_03.c **** void puth2(dt) int dt;{ puth((dt >> 4) & 0xf); puth(dt & 0xf); }
 5823              		.loc 1 143 55 view .LVU1928
 5824 0896 D8B2     		uxtb	r0, r3
 143:../USER/main_03.c **** void puth2(dt) int dt;{ puth((dt >> 4) & 0xf); puth(dt & 0xf); }
 5825              		.loc 1 143 26 is_stmt 0 view .LVU1929
 5826 0898 092B     		cmp	r3, #9
 143:../USER/main_03.c **** void puth2(dt) int dt;{ puth((dt >> 4) & 0xf); puth(dt & 0xf); }
 5827              		.loc 1 143 34 view .LVU1930
 5828 089a D4BF     		ite	le
 5829 089c 3030     		addle	r0, r0, #48
 143:../USER/main_03.c **** void puth2(dt) int dt;{ puth((dt >> 4) & 0xf); puth(dt & 0xf); }
 5830              		.loc 1 143 55 view .LVU1931
 5831 089e 3730     		addgt	r0, r0, #55
 5832 08a0 FFF7FEFF 		bl	putch_uart
 5833              	.LVL377:
 143:../USER/main_03.c **** void puth2(dt) int dt;{ puth((dt >> 4) & 0xf); puth(dt & 0xf); }
 5834              		.loc 1 143 55 view .LVU1932
 5835              	.LBE1326:
 5836              	.LBE1325:
 144:../USER/main_03.c **** void puth4(dt) int dt;{ puth2((dt >> 8) & 0xff); puth2(dt & 0xff); }
 5837              		.loc 1 144 48 is_stmt 1 view .LVU1933
 5838              	.LBB1327:
 5839              	.LBI1327:
 143:../USER/main_03.c **** void puth2(dt) int dt;{ puth((dt >> 4) & 0xf); puth(dt & 0xf); }
 5840              		.loc 1 143 6 view .LVU1934
 5841              	.LBB1328:
 143:../USER/main_03.c **** void puth2(dt) int dt;{ puth((dt >> 4) & 0xf); puth(dt & 0xf); }
 5842              		.loc 1 143 24 view .LVU1935
 143:../USER/main_03.c **** void puth2(dt) int dt;{ puth((dt >> 4) & 0xf); puth(dt & 0xf); }
 5843              		.loc 1 143 34 view .LVU1936
 143:../USER/main_03.c **** void puth2(dt) int dt;{ puth((dt >> 4) & 0xf); puth(dt & 0xf); }
 5844              		.loc 1 143 55 view .LVU1937
 5845 08a4 E8B2     		uxtb	r0, r5
 143:../USER/main_03.c **** void puth2(dt) int dt;{ puth((dt >> 4) & 0xf); puth(dt & 0xf); }
 5846              		.loc 1 143 26 is_stmt 0 view .LVU1938
 5847 08a6 092D     		cmp	r5, #9
 143:../USER/main_03.c **** void puth2(dt) int dt;{ puth((dt >> 4) & 0xf); puth(dt & 0xf); }
 5848              		.loc 1 143 34 view .LVU1939
 5849 08a8 D4BF     		ite	le
 5850 08aa 3030     		addle	r0, r0, #48
 143:../USER/main_03.c **** void puth2(dt) int dt;{ puth((dt >> 4) & 0xf); puth(dt & 0xf); }
 5851              		.loc 1 143 55 view .LVU1940
 5852 08ac 3730     		addgt	r0, r0, #55
 5853 08ae FFF7FEFF 		bl	putch_uart
 5854              	.LVL378:
 143:../USER/main_03.c **** void puth2(dt) int dt;{ puth((dt >> 4) & 0xf); puth(dt & 0xf); }
 5855              		.loc 1 143 55 view .LVU1941
 5856              	.LBE1328:
 5857              	.LBE1327:
 5858              	.LBE1324:
 5859              	.LBE1323:
 5860              	.LBE1331:
 147:../USER/main_03.c **** void putsuart(char *buf){
 5861              		.loc 1 147 81 is_stmt 1 view .LVU1942
 5862              	.LBB1332:
 5863              	.LBI1332:
 145:../USER/main_03.c **** void puth6(dt) long dt;{ int dh,dl; dh = dt >> 16; dl = dt & 0xffff; puth2(dh); puth4(dl); }
 5864              		.loc 1 145 6 view .LVU1943
 5865              	.LBB1333:
 145:../USER/main_03.c **** void puth6(dt) long dt;{ int dh,dl; dh = dt >> 16; dl = dt & 0xffff; puth2(dh); puth4(dl); }
 5866              		.loc 1 145 25 view .LVU1944
 5867              	.LBB1334:
 5868              	.LBB1335:
 144:../USER/main_03.c **** void puth4(dt) int dt;{ puth2((dt >> 8) & 0xff); puth2(dt & 0xff); }
 5869              		.loc 1 144 34 is_stmt 0 view .LVU1945
 5870 08b2 2313     		asrs	r3, r4, #12
 5871 08b4 D8B2     		uxtb	r0, r3
 5872              	.LBB1336:
 5873              	.LBB1337:
 143:../USER/main_03.c **** void puth2(dt) int dt;{ puth((dt >> 4) & 0xf); puth(dt & 0xf); }
 5874              		.loc 1 143 26 view .LVU1946
 5875 08b6 092B     		cmp	r3, #9
 5876              	.LBE1337:
 5877              	.LBE1336:
 5878              	.LBE1335:
 5879              	.LBE1334:
 145:../USER/main_03.c **** void puth6(dt) long dt;{ int dh,dl; dh = dt >> 16; dl = dt & 0xffff; puth2(dh); puth4(dl); }
 5880              		.loc 1 145 35 view .LVU1947
 5881 08b8 4FEA2424 		asr	r4, r4, #8
 5882              	.LVL379:
 5883              	.LBB1345:
 5884              	.LBI1334:
 144:../USER/main_03.c **** void puth4(dt) int dt;{ puth2((dt >> 8) & 0xff); puth2(dt & 0xff); }
 5885              		.loc 1 144 6 is_stmt 1 view .LVU1948
 5886              	.LBB1344:
 144:../USER/main_03.c **** void puth4(dt) int dt;{ puth2((dt >> 8) & 0xff); puth2(dt & 0xff); }
 5887              		.loc 1 144 25 view .LVU1949
 5888              	.LBB1340:
 5889              	.LBI1336:
 143:../USER/main_03.c **** void puth2(dt) int dt;{ puth((dt >> 4) & 0xf); puth(dt & 0xf); }
 5890              		.loc 1 143 6 view .LVU1950
 5891              	.LBB1338:
 143:../USER/main_03.c **** void puth2(dt) int dt;{ puth((dt >> 4) & 0xf); puth(dt & 0xf); }
 5892              		.loc 1 143 24 view .LVU1951
 143:../USER/main_03.c **** void puth2(dt) int dt;{ puth((dt >> 4) & 0xf); puth(dt & 0xf); }
 5893              		.loc 1 143 34 view .LVU1952
 143:../USER/main_03.c **** void puth2(dt) int dt;{ puth((dt >> 4) & 0xf); puth(dt & 0xf); }
 5894              		.loc 1 143 55 view .LVU1953
 143:../USER/main_03.c **** void puth2(dt) int dt;{ puth((dt >> 4) & 0xf); puth(dt & 0xf); }
 5895              		.loc 1 143 34 is_stmt 0 view .LVU1954
 5896 08bc D4BF     		ite	le
 5897 08be 3030     		addle	r0, r0, #48
 143:../USER/main_03.c **** void puth2(dt) int dt;{ puth((dt >> 4) & 0xf); puth(dt & 0xf); }
 5898              		.loc 1 143 55 view .LVU1955
 5899 08c0 3730     		addgt	r0, r0, #55
 5900              	.LBE1338:
 5901              	.LBE1340:
 144:../USER/main_03.c **** void puth4(dt) int dt;{ puth2((dt >> 8) & 0xff); puth2(dt & 0xff); }
 5902              		.loc 1 144 48 view .LVU1956
 5903 08c2 04F00F04 		and	r4, r4, #15
 5904              	.LVL380:
 5905              	.LBB1341:
 5906              	.LBB1339:
 143:../USER/main_03.c **** void puth2(dt) int dt;{ puth((dt >> 4) & 0xf); puth(dt & 0xf); }
 5907              		.loc 1 143 55 view .LVU1957
 5908 08c6 FFF7FEFF 		bl	putch_uart
 5909              	.LVL381:
 143:../USER/main_03.c **** void puth2(dt) int dt;{ puth((dt >> 4) & 0xf); puth(dt & 0xf); }
 5910              		.loc 1 143 55 view .LVU1958
 5911              	.LBE1339:
 5912              	.LBE1341:
 144:../USER/main_03.c **** void puth4(dt) int dt;{ puth2((dt >> 8) & 0xff); puth2(dt & 0xff); }
 5913              		.loc 1 144 48 is_stmt 1 view .LVU1959
 5914              	.LBB1342:
 5915              	.LBI1342:
 143:../USER/main_03.c **** void puth2(dt) int dt;{ puth((dt >> 4) & 0xf); puth(dt & 0xf); }
 5916              		.loc 1 143 6 view .LVU1960
 5917              	.LBB1343:
 143:../USER/main_03.c **** void puth2(dt) int dt;{ puth((dt >> 4) & 0xf); puth(dt & 0xf); }
 5918              		.loc 1 143 24 view .LVU1961
 143:../USER/main_03.c **** void puth2(dt) int dt;{ puth((dt >> 4) & 0xf); puth(dt & 0xf); }
 5919              		.loc 1 143 34 view .LVU1962
 143:../USER/main_03.c **** void puth2(dt) int dt;{ puth((dt >> 4) & 0xf); puth(dt & 0xf); }
 5920              		.loc 1 143 55 view .LVU1963
 5921 08ca E0B2     		uxtb	r0, r4
 143:../USER/main_03.c **** void puth2(dt) int dt;{ puth((dt >> 4) & 0xf); puth(dt & 0xf); }
 5922              		.loc 1 143 26 is_stmt 0 view .LVU1964
 5923 08cc 092C     		cmp	r4, #9
 143:../USER/main_03.c **** void puth2(dt) int dt;{ puth((dt >> 4) & 0xf); puth(dt & 0xf); }
 5924              		.loc 1 143 34 view .LVU1965
 5925 08ce D4BF     		ite	le
 5926 08d0 3030     		addle	r0, r0, #48
 143:../USER/main_03.c **** void puth2(dt) int dt;{ puth((dt >> 4) & 0xf); puth(dt & 0xf); }
 5927              		.loc 1 143 55 view .LVU1966
 5928 08d2 3730     		addgt	r0, r0, #55
 5929 08d4 FFF7FEFF 		bl	putch_uart
 5930              	.LVL382:
 143:../USER/main_03.c **** void puth2(dt) int dt;{ puth((dt >> 4) & 0xf); puth(dt & 0xf); }
 5931              		.loc 1 143 55 view .LVU1967
 5932              	.LBE1343:
 5933              	.LBE1342:
 5934              	.LBE1344:
 5935              	.LBE1345:
 145:../USER/main_03.c **** void puth6(dt) long dt;{ int dh,dl; dh = dt >> 16; dl = dt & 0xffff; puth2(dh); puth4(dl); }
 5936              		.loc 1 145 50 is_stmt 1 view .LVU1968
 5937              	.LBB1346:
 5938              	.LBI1346:
 144:../USER/main_03.c **** void puth4(dt) int dt;{ puth2((dt >> 8) & 0xff); puth2(dt & 0xff); }
 5939              		.loc 1 144 6 view .LVU1969
 5940              	.LBB1347:
 144:../USER/main_03.c **** void puth4(dt) int dt;{ puth2((dt >> 8) & 0xff); puth2(dt & 0xff); }
 5941              		.loc 1 144 25 view .LVU1970
 144:../USER/main_03.c **** void puth4(dt) int dt;{ puth2((dt >> 8) & 0xff); puth2(dt & 0xff); }
 5942              		.loc 1 144 34 is_stmt 0 view .LVU1971
 5943 08d8 059B     		ldr	r3, [sp, #20]
 5944 08da C3F30313 		ubfx	r3, r3, #4, #4
 5945              	.LVL383:
 5946              	.LBB1348:
 5947              	.LBI1348:
 143:../USER/main_03.c **** void puth2(dt) int dt;{ puth((dt >> 4) & 0xf); puth(dt & 0xf); }
 5948              		.loc 1 143 6 is_stmt 1 view .LVU1972
 5949              	.LBB1349:
 143:../USER/main_03.c **** void puth2(dt) int dt;{ puth((dt >> 4) & 0xf); puth(dt & 0xf); }
 5950              		.loc 1 143 24 view .LVU1973
 143:../USER/main_03.c **** void puth2(dt) int dt;{ puth((dt >> 4) & 0xf); puth(dt & 0xf); }
 5951              		.loc 1 143 34 view .LVU1974
 143:../USER/main_03.c **** void puth2(dt) int dt;{ puth((dt >> 4) & 0xf); puth(dt & 0xf); }
 5952              		.loc 1 143 55 view .LVU1975
 5953 08de D8B2     		uxtb	r0, r3
 143:../USER/main_03.c **** void puth2(dt) int dt;{ puth((dt >> 4) & 0xf); puth(dt & 0xf); }
 5954              		.loc 1 143 26 is_stmt 0 view .LVU1976
 5955 08e0 092B     		cmp	r3, #9
 143:../USER/main_03.c **** void puth2(dt) int dt;{ puth((dt >> 4) & 0xf); puth(dt & 0xf); }
 5956              		.loc 1 143 34 view .LVU1977
 5957 08e2 D4BF     		ite	le
 5958 08e4 3030     		addle	r0, r0, #48
 143:../USER/main_03.c **** void puth2(dt) int dt;{ puth((dt >> 4) & 0xf); puth(dt & 0xf); }
 5959              		.loc 1 143 55 view .LVU1978
 5960 08e6 3730     		addgt	r0, r0, #55
 5961 08e8 FFF7FEFF 		bl	putch_uart
 5962              	.LVL384:
 143:../USER/main_03.c **** void puth2(dt) int dt;{ puth((dt >> 4) & 0xf); puth(dt & 0xf); }
 5963              		.loc 1 143 55 view .LVU1979
 5964              	.LBE1349:
 5965              	.LBE1348:
 144:../USER/main_03.c **** void puth4(dt) int dt;{ puth2((dt >> 8) & 0xff); puth2(dt & 0xff); }
 5966              		.loc 1 144 48 is_stmt 1 view .LVU1980
 5967 08ec 059B     		ldr	r3, [sp, #20]
 5968 08ee 03F00F03 		and	r3, r3, #15
 5969              	.LVL385:
 5970              	.LBB1350:
 5971              	.LBI1350:
 143:../USER/main_03.c **** void puth2(dt) int dt;{ puth((dt >> 4) & 0xf); puth(dt & 0xf); }
 5972              		.loc 1 143 6 view .LVU1981
 5973              	.LBB1351:
 143:../USER/main_03.c **** void puth2(dt) int dt;{ puth((dt >> 4) & 0xf); puth(dt & 0xf); }
 5974              		.loc 1 143 24 view .LVU1982
 143:../USER/main_03.c **** void puth2(dt) int dt;{ puth((dt >> 4) & 0xf); puth(dt & 0xf); }
 5975              		.loc 1 143 34 view .LVU1983
 143:../USER/main_03.c **** void puth2(dt) int dt;{ puth((dt >> 4) & 0xf); puth(dt & 0xf); }
 5976              		.loc 1 143 55 view .LVU1984
 5977 08f2 D8B2     		uxtb	r0, r3
 143:../USER/main_03.c **** void puth2(dt) int dt;{ puth((dt >> 4) & 0xf); puth(dt & 0xf); }
 5978              		.loc 1 143 26 is_stmt 0 view .LVU1985
 5979 08f4 092B     		cmp	r3, #9
 143:../USER/main_03.c **** void puth2(dt) int dt;{ puth((dt >> 4) & 0xf); puth(dt & 0xf); }
 5980              		.loc 1 143 34 view .LVU1986
 5981 08f6 D4BF     		ite	le
 5982 08f8 3030     		addle	r0, r0, #48
 143:../USER/main_03.c **** void puth2(dt) int dt;{ puth((dt >> 4) & 0xf); puth(dt & 0xf); }
 5983              		.loc 1 143 55 view .LVU1987
 5984 08fa 3730     		addgt	r0, r0, #55
 5985 08fc FFF7FEFF 		bl	putch_uart
 5986              	.LVL386:
 143:../USER/main_03.c **** void puth2(dt) int dt;{ puth((dt >> 4) & 0xf); puth(dt & 0xf); }
 5987              		.loc 1 143 55 view .LVU1988
 5988              	.LBE1351:
 5989              	.LBE1350:
 5990              	.LBE1347:
 5991              	.LBE1346:
 5992              	.LBE1333:
 5993              	.LBE1332:
 5994              	.LBE1353:
 5995              	.LBE1355:
 5996              	.LBE1399:
 169:../USER/main_03.c **** 
 5997              		.loc 1 169 56 is_stmt 1 view .LVU1989
 5998              	.LBB1400:
 5999              	.LBB1356:
 6000              	.LBI1356:
 127:../USER/main_03.c **** 	volatile uint32_t gpiord;
 6001              		.loc 1 127 6 view .LVU1990
 6002              	.LBB1357:
 128:../USER/main_03.c **** 	if((mdgpio & 0x2000)==0)
 6003              		.loc 1 128 2 view .LVU1991
 129:../USER/main_03.c **** 		UART_SendChar(UART0,ch);
 6004              		.loc 1 129 2 view .LVU1992
 129:../USER/main_03.c **** 		UART_SendChar(UART0,ch);
 6005              		.loc 1 129 13 is_stmt 0 view .LVU1993
 6006 0900 DAF80030 		ldr	r3, [r10]
 129:../USER/main_03.c **** 		UART_SendChar(UART0,ch);
 6007              		.loc 1 129 4 view .LVU1994
 6008 0904 9804     		lsls	r0, r3, #18
 6009 0906 41F16480 		bpl	.L1145
 132:../USER/main_03.c **** 		while((gpiord & 0x4000)!=0) {
 6010              		.loc 1 132 3 is_stmt 1 view .LVU1995
 132:../USER/main_03.c **** 		while((gpiord & 0x4000)!=0) {
 6011              		.loc 1 132 10 is_stmt 0 view .LVU1996
 6012 090a 4FF48043 		mov	r3, #16384
 6013 090e 1293     		str	r3, [sp, #72]
 133:../USER/main_03.c **** 			key_check();
 6014              		.loc 1 133 3 is_stmt 1 view .LVU1997
 133:../USER/main_03.c **** 			key_check();
 6015              		.loc 1 133 17 is_stmt 0 view .LVU1998
 6016 0910 129B     		ldr	r3, [sp, #72]
 133:../USER/main_03.c **** 			key_check();
 6017              		.loc 1 133 8 view .LVU1999
 6018 0912 5904     		lsls	r1, r3, #17
 6019 0914 40F10881 		bpl	.L397
 135:../USER/main_03.c **** 		}
 6020              		.loc 1 135 13 view .LVU2000
 6021 0918 4E4C     		ldr	r4, .L1223
 6022 091a 1EE0     		b	.L391
 6023              	.LVL387:
 6024              	.L1146:
 135:../USER/main_03.c **** 		}
 6025              		.loc 1 135 13 view .LVU2001
 6026 091c D8F80030 		ldr	r3, [r8]
 6027              	.L393:
 6028              	.LBB1358:
 6029              	.LBB1359:
 114:../USER/main_03.c **** 	//
 6030              		.loc 1 114 2 is_stmt 1 view .LVU2002
 114:../USER/main_03.c **** 	//
 6031              		.loc 1 114 18 view .LVU2003
 114:../USER/main_03.c **** 	//
 6032              		.loc 1 114 4 is_stmt 0 view .LVU2004
 6033 0920 FF2B     		cmp	r3, #255
 6034 0922 02DD     		ble	.L394
 114:../USER/main_03.c **** 	//
 6035              		.loc 1 114 25 view .LVU2005
 6036 0924 0023     		movs	r3, #0
 6037 0926 C8F80070 		str	r7, [r8]
 6038              	.L394:
 116:../USER/main_03.c **** 	if(kinbwp>=256) kinbwp = 0;
 6039              		.loc 1 116 39 is_stmt 1 view .LVU2006
 116:../USER/main_03.c **** 	if(kinbwp>=256) kinbwp = 0;
 6040              		.loc 1 116 2 view .LVU2007
 116:../USER/main_03.c **** 	if(kinbwp>=256) kinbwp = 0;
 6041              		.loc 1 116 11 is_stmt 0 view .LVU2008
 6042 092a 4FF04021 		mov	r1, #1073758208
 6043 092e 4868     		ldr	r0, [r1, #4]
 6044              	.LVL388:
 116:../USER/main_03.c **** 	if(kinbwp>=256) kinbwp = 0;
 6045              		.loc 1 116 52 view .LVU2009
 6046 0930 5A1C     		adds	r2, r3, #1
 116:../USER/main_03.c **** 	if(kinbwp>=256) kinbwp = 0;
 6047              		.loc 1 116 4 view .LVU2010
 6048 0932 8507     		lsls	r5, r0, #30
 6049 0934 09D5     		bpl	.L396
 117:../USER/main_03.c **** 	//
 6050              		.loc 1 117 25 view .LVU2011
 6051 0936 B2F5807F 		cmp	r2, #256
 116:../USER/main_03.c **** 	if(kinbwp>=256) kinbwp = 0;
 6052              		.loc 1 116 63 view .LVU2012
 6053 093a 0868     		ldr	r0, [r1]
 117:../USER/main_03.c **** 	//
 6054              		.loc 1 117 25 view .LVU2013
 6055 093c 14BF     		ite	ne
 6056 093e 1146     		movne	r1, r2
 6057 0940 3946     		moveq	r1, r7
 116:../USER/main_03.c **** 	if(kinbwp>=256) kinbwp = 0;
 6058              		.loc 1 116 56 view .LVU2014
 6059 0942 09F80300 		strb	r0, [r9, r3]
 117:../USER/main_03.c **** 	//
 6060              		.loc 1 117 2 is_stmt 1 view .LVU2015
 117:../USER/main_03.c **** 	//
 6061              		.loc 1 117 25 is_stmt 0 view .LVU2016
 6062 0946 C8F80010 		str	r1, [r8]
 6063              	.L396:
 117:../USER/main_03.c **** 	//
 6064              		.loc 1 117 25 view .LVU2017
 6065              	.LBE1359:
 6066              	.LBE1358:
 135:../USER/main_03.c **** 		}
 6067              		.loc 1 135 4 is_stmt 1 view .LVU2018
 135:../USER/main_03.c **** 		}
 6068              		.loc 1 135 13 is_stmt 0 view .LVU2019
 6069 094a 2046     		mov	r0, r4
 6070 094c FFF7FEFF 		bl	GPIO_ReadBits
 6071              	.LVL389:
 135:../USER/main_03.c **** 		}
 6072              		.loc 1 135 11 view .LVU2020
 6073 0950 1290     		str	r0, [sp, #72]
 133:../USER/main_03.c **** 			key_check();
 6074              		.loc 1 133 17 view .LVU2021
 6075 0952 129B     		ldr	r3, [sp, #72]
 133:../USER/main_03.c **** 			key_check();
 6076              		.loc 1 133 8 view .LVU2022
 6077 0954 5A04     		lsls	r2, r3, #17
 6078 0956 40F1E780 		bpl	.L397
 6079              	.L391:
 134:../USER/main_03.c **** 			gpiord = GPIO_ReadBits(GPIO0);
 6080              		.loc 1 134 4 is_stmt 1 view .LVU2023
 6081              	.LBB1361:
 6082              	.LBI1358:
 109:../USER/main_03.c **** 	char ch;
 6083              		.loc 1 109 6 view .LVU2024
 6084              	.LBB1360:
 110:../USER/main_03.c **** 	//
 6085              		.loc 1 110 2 view .LVU2025
 112:../USER/main_03.c **** 	if(ch!=0) kinbuf[kinbwp++] = ch;
 6086              		.loc 1 112 2 view .LVU2026
 112:../USER/main_03.c **** 	if(ch!=0) kinbuf[kinbwp++] = ch;
 6087              		.loc 1 112 7 is_stmt 0 view .LVU2027
 6088 095a FFF7FEFF 		bl	SPI_ReadData
 6089              	.LVL390:
 113:../USER/main_03.c **** 	if(kinbwp>=256) kinbwp = 0;
 6090              		.loc 1 113 12 is_stmt 1 view .LVU2028
 112:../USER/main_03.c **** 	if(ch!=0) kinbuf[kinbwp++] = ch;
 6091              		.loc 1 112 5 is_stmt 0 view .LVU2029
 6092 095e 40B2     		sxtb	r0, r0
 6093              	.LVL391:
 113:../USER/main_03.c **** 	if(kinbwp>=256) kinbwp = 0;
 6094              		.loc 1 113 2 is_stmt 1 view .LVU2030
 113:../USER/main_03.c **** 	if(kinbwp>=256) kinbwp = 0;
 6095              		.loc 1 113 4 is_stmt 0 view .LVU2031
 6096 0960 0028     		cmp	r0, #0
 6097 0962 DBD0     		beq	.L1146
 113:../USER/main_03.c **** 	if(kinbwp>=256) kinbwp = 0;
 6098              		.loc 1 113 25 view .LVU2032
 6099 0964 D8F80020 		ldr	r2, [r8]
 6100 0968 531C     		adds	r3, r2, #1
 113:../USER/main_03.c **** 	if(kinbwp>=256) kinbwp = 0;
 6101              		.loc 1 113 29 view .LVU2033
 6102 096a 09F80200 		strb	r0, [r9, r2]
 113:../USER/main_03.c **** 	if(kinbwp>=256) kinbwp = 0;
 6103              		.loc 1 113 25 view .LVU2034
 6104 096e C8F80030 		str	r3, [r8]
 6105 0972 D5E7     		b	.L393
 6106              	.LVL392:
 6107              	.L325:
 113:../USER/main_03.c **** 	if(kinbwp>=256) kinbwp = 0;
 6108              		.loc 1 113 25 view .LVU2035
 6109              	.LBE1360:
 6110              	.LBE1361:
 6111              	.LBE1357:
 6112              	.LBE1356:
 6113              	.LBE1400:
 6114              	.LBB1401:
 6115              	.LBB964:
 6116              	.LBB963:
 102:../USER/main_03.c ****    if( *buf>='a' && *buf<='z') *buf = *buf - 0x20;
 6117              		.loc 1 102 9 view .LVU2036
 6118 0974 12F9013F 		ldrsb	r3, [r2, #1]!
 6119              	.LVL393:
 102:../USER/main_03.c ****    if( *buf>='a' && *buf<='z') *buf = *buf - 0x20;
 6120              		.loc 1 102 8 view .LVU2037
 6121 0978 0D2B     		cmp	r3, #13
 6122 097a 7FF480AC 		bne	.L328
 6123 097e 8AE4     		b	.L327
 6124              	.LVL394:
 6125              	.L1133:
 102:../USER/main_03.c ****    if( *buf>='a' && *buf<='z') *buf = *buf - 0x20;
 6126              		.loc 1 102 8 view .LVU2038
 6127              	.LBE963:
 6128              	.LBE964:
 6129              	.LBE1401:
 6130              	.LBB1402:
 6131              	.LBB1271:
 6132              	.LBB1048:
 6133              	.LBB1046:
 6134              	.LBB1044:
 130:../USER/main_03.c **** 	else {
 6135              		.loc 1 130 3 is_stmt 1 view .LVU2039
 6136 0980 2146     		mov	r1, r4
 6137 0982 4FF04020 		mov	r0, #1073758208
 6138 0986 FFF7FEFF 		bl	UART_SendChar
 6139              	.LVL395:
 6140 098a 99E6     		b	.L576
 6141              	.LVL396:
 6142              	.L1135:
 130:../USER/main_03.c **** 	else {
 6143              		.loc 1 130 3 is_stmt 0 view .LVU2040
 6144              	.LBE1044:
 6145              	.LBE1046:
 6146              	.LBE1048:
 6147              	.LBE1271:
 6148              	.LBE1402:
 6149              	.LBB1403:
 6150              	.LBB1368:
 6151              	.LBB1308:
 6152              	.LBB1306:
 6153              	.LBB1304:
 130:../USER/main_03.c **** 	else {
 6154              		.loc 1 130 3 is_stmt 1 view .LVU2041
 6155 098c 2146     		mov	r1, r4
 6156 098e 4FF04020 		mov	r0, #1073758208
 6157 0992 FFF7FEFF 		bl	UART_SendChar
 6158              	.LVL397:
 6159 0996 35E7     		b	.L358
 6160              	.LVL398:
 6161              	.L1113:
 130:../USER/main_03.c **** 	else {
 6162              		.loc 1 130 3 is_stmt 0 view .LVU2042
 6163              	.LBE1304:
 6164              	.LBE1306:
 6165              	.LBE1308:
 6166              	.LBE1368:
 6167              	.LBE1403:
 6168              	.LBB1404:
 6169              	.LBB965:
 6170              	.LBB960:
 6171              	.LBB959:
 6172              	.LBB954:
 130:../USER/main_03.c **** 	else {
 6173              		.loc 1 130 3 is_stmt 1 view .LVU2043
 6174 0998 2146     		mov	r1, r4
 6175 099a 4FF04020 		mov	r0, #1073758208
 6176 099e FFF7FEFF 		bl	UART_SendChar
 6177              	.LVL399:
 6178 09a2 38E4     		b	.L310
 6179              	.LVL400:
 6180              	.L1107:
 130:../USER/main_03.c **** 	else {
 6181              		.loc 1 130 3 is_stmt 0 view .LVU2044
 6182              	.LBE954:
 6183              	.LBE959:
 6184              	.LBE960:
 6185              	.LBE965:
 6186              	.LBE1404:
 6187              	.LBB1405:
 6188              	.LBB926:
 6189              	.LBB923:
 6190              	.LBB921:
 130:../USER/main_03.c **** 	else {
 6191              		.loc 1 130 3 is_stmt 1 view .LVU2045
 6192 09a4 2146     		mov	r1, r4
 6193 09a6 4FF04020 		mov	r0, #1073758208
 6194 09aa FFF7FEFF 		bl	UART_SendChar
 6195              	.LVL401:
 6196 09ae FFF785BB 		b	.L284
 6197              	.LVL402:
 6198              	.L602:
 130:../USER/main_03.c **** 	else {
 6199              		.loc 1 130 3 is_stmt 0 view .LVU2046
 6200              	.LBE921:
 6201              	.LBE923:
 6202              	.LBE926:
 6203              	.LBE1405:
 6204              	.LBB1406:
 6205              	.LBB1272:
 6206              	.LBB1265:
 6207              	.LBB1103:
 6208              	.LBB1097:
 6209              	.LBB1093:
 6210              	.LBB1089:
 6211              	.LBB1087:
 143:../USER/main_03.c **** void puth2(dt) int dt;{ puth((dt >> 4) & 0xf); puth(dt & 0xf); }
 6212              		.loc 1 143 55 is_stmt 1 view .LVU2047
 6213 09b2 3730     		adds	r0, r0, #55
 6214 09b4 FFF7FEFF 		bl	putch_uart
 6215              	.LVL403:
 6216              	.L613:
 143:../USER/main_03.c **** void puth2(dt) int dt;{ puth((dt >> 4) & 0xf); puth(dt & 0xf); }
 6217              		.loc 1 143 55 is_stmt 0 view .LVU2048
 6218              	.LBE1087:
 6219              	.LBE1089:
 6220              	.LBE1093:
 6221              	.LBE1097:
 6222              	.LBE1103:
 147:../USER/main_03.c **** void putsuart(char *buf){
 6223              		.loc 1 147 81 is_stmt 1 view .LVU2049
 6224              	.LBB1104:
 6225              	.LBI1104:
 145:../USER/main_03.c **** void puth6(dt) long dt;{ int dh,dl; dh = dt >> 16; dl = dt & 0xffff; puth2(dh); puth4(dl); }
 6226              		.loc 1 145 6 view .LVU2050
 6227              	.LBB1105:
 145:../USER/main_03.c **** void puth6(dt) long dt;{ int dh,dl; dh = dt >> 16; dl = dt & 0xffff; puth2(dh); puth4(dl); }
 6228              		.loc 1 145 25 view .LVU2051
 6229              	.LBB1106:
 6230              	.LBB1107:
 144:../USER/main_03.c **** void puth4(dt) int dt;{ puth2((dt >> 8) & 0xff); puth2(dt & 0xff); }
 6231              		.loc 1 144 34 is_stmt 0 view .LVU2052
 6232 09b8 0999     		ldr	r1, [sp, #36]
 6233 09ba DAF80020 		ldr	r2, [r10]
 6234 09be 0B13     		asrs	r3, r1, #12
 6235              	.LBB1108:
 6236              	.LBB1109:
 143:../USER/main_03.c **** void puth2(dt) int dt;{ puth((dt >> 4) & 0xf); puth(dt & 0xf); }
 6237              		.loc 1 143 26 view .LVU2053
 6238 09c0 092B     		cmp	r3, #9
 6239 09c2 02F40052 		and	r2, r2, #8192
 6240 09c6 DEB2     		uxtb	r6, r3
 6241              	.LBE1109:
 6242              	.LBE1108:
 6243              	.LBE1107:
 6244              	.LBE1106:
 145:../USER/main_03.c **** void puth6(dt) long dt;{ int dh,dl; dh = dt >> 16; dl = dt & 0xffff; puth2(dh); puth4(dl); }
 6245              		.loc 1 145 35 view .LVU2054
 6246 09c8 4FEA2125 		asr	r5, r1, #8
 6247              	.LVL404:
 6248              	.LBB1176:
 6249              	.LBI1106:
 144:../USER/main_03.c **** void puth4(dt) int dt;{ puth2((dt >> 8) & 0xff); puth2(dt & 0xff); }
 6250              		.loc 1 144 6 is_stmt 1 view .LVU2055
 6251              	.LBB1170:
 144:../USER/main_03.c **** void puth4(dt) int dt;{ puth2((dt >> 8) & 0xff); puth2(dt & 0xff); }
 6252              		.loc 1 144 25 view .LVU2056
 6253              	.LBB1141:
 6254              	.LBI1108:
 143:../USER/main_03.c **** void puth2(dt) int dt;{ puth((dt >> 4) & 0xf); puth(dt & 0xf); }
 6255              		.loc 1 143 6 view .LVU2057
 6256              	.LBB1136:
 143:../USER/main_03.c **** void puth2(dt) int dt;{ puth((dt >> 4) & 0xf); puth(dt & 0xf); }
 6257              		.loc 1 143 24 view .LVU2058
 143:../USER/main_03.c **** void puth2(dt) int dt;{ puth((dt >> 4) & 0xf); puth(dt & 0xf); }
 6258              		.loc 1 143 26 is_stmt 0 view .LVU2059
 6259 09cc 00F34483 		bgt	.L614
 143:../USER/main_03.c **** void puth2(dt) int dt;{ puth((dt >> 4) & 0xf); puth(dt & 0xf); }
 6260              		.loc 1 143 34 is_stmt 1 view .LVU2060
 143:../USER/main_03.c **** void puth2(dt) int dt;{ puth((dt >> 4) & 0xf); puth(dt & 0xf); }
 6261              		.loc 1 143 44 is_stmt 0 view .LVU2061
 6262 09d0 06F13003 		add	r3, r6, #48
 6263              	.LVL405:
 143:../USER/main_03.c **** void puth2(dt) int dt;{ puth((dt >> 4) & 0xf); puth(dt & 0xf); }
 6264              		.loc 1 143 44 view .LVU2062
 6265 09d4 0A93     		str	r3, [sp, #40]
 143:../USER/main_03.c **** void puth2(dt) int dt;{ puth((dt >> 4) & 0xf); puth(dt & 0xf); }
 6266              		.loc 1 143 34 view .LVU2063
 6267 09d6 5CB2     		sxtb	r4, r3
 6268              	.LVL406:
 6269              	.LBB1110:
 6270              	.LBI1110:
 127:../USER/main_03.c **** 	volatile uint32_t gpiord;
 6271              		.loc 1 127 6 is_stmt 1 view .LVU2064
 6272              	.LBB1111:
 128:../USER/main_03.c **** 	if((mdgpio & 0x2000)==0)
 6273              		.loc 1 128 2 view .LVU2065
 129:../USER/main_03.c **** 		UART_SendChar(UART0,ch);
 6274              		.loc 1 129 2 view .LVU2066
 129:../USER/main_03.c **** 		UART_SendChar(UART0,ch);
 6275              		.loc 1 129 4 is_stmt 0 view .LVU2067
 6276 09d8 002A     		cmp	r2, #0
 6277 09da 01F03580 		beq	.L1147
 132:../USER/main_03.c **** 		while((gpiord & 0x4000)!=0) {
 6278              		.loc 1 132 3 is_stmt 1 view .LVU2068
 132:../USER/main_03.c **** 		while((gpiord & 0x4000)!=0) {
 6279              		.loc 1 132 10 is_stmt 0 view .LVU2069
 6280 09de 4FF48043 		mov	r3, #16384
 6281 09e2 1F93     		str	r3, [sp, #124]
 133:../USER/main_03.c **** 			key_check();
 6282              		.loc 1 133 3 is_stmt 1 view .LVU2070
 133:../USER/main_03.c **** 			key_check();
 6283              		.loc 1 133 17 is_stmt 0 view .LVU2071
 6284 09e4 1F9B     		ldr	r3, [sp, #124]
 133:../USER/main_03.c **** 			key_check();
 6285              		.loc 1 133 8 view .LVU2072
 6286 09e6 5E04     		lsls	r6, r3, #17
 6287 09e8 40F14B87 		bpl	.L623
 135:../USER/main_03.c **** 		}
 6288              		.loc 1 135 13 view .LVU2073
 6289 09ec 194E     		ldr	r6, .L1223
 6290 09ee 1EE0     		b	.L617
 6291              	.LVL407:
 6292              	.L1148:
 135:../USER/main_03.c **** 		}
 6293              		.loc 1 135 13 view .LVU2074
 6294 09f0 D8F80030 		ldr	r3, [r8]
 6295              	.L619:
 6296              	.LBB1112:
 6297              	.LBB1113:
 114:../USER/main_03.c **** 	//
 6298              		.loc 1 114 2 is_stmt 1 view .LVU2075
 114:../USER/main_03.c **** 	//
 6299              		.loc 1 114 18 view .LVU2076
 114:../USER/main_03.c **** 	//
 6300              		.loc 1 114 4 is_stmt 0 view .LVU2077
 6301 09f4 FF2B     		cmp	r3, #255
 6302 09f6 02DD     		ble	.L620
 114:../USER/main_03.c **** 	//
 6303              		.loc 1 114 25 view .LVU2078
 6304 09f8 0023     		movs	r3, #0
 6305 09fa C8F80070 		str	r7, [r8]
 6306              	.L620:
 116:../USER/main_03.c **** 	if(kinbwp>=256) kinbwp = 0;
 6307              		.loc 1 116 39 is_stmt 1 view .LVU2079
 116:../USER/main_03.c **** 	if(kinbwp>=256) kinbwp = 0;
 6308              		.loc 1 116 2 view .LVU2080
 116:../USER/main_03.c **** 	if(kinbwp>=256) kinbwp = 0;
 6309              		.loc 1 116 11 is_stmt 0 view .LVU2081
 6310 09fe 4FF04022 		mov	r2, #1073758208
 6311 0a02 5068     		ldr	r0, [r2, #4]
 6312              	.LVL408:
 116:../USER/main_03.c **** 	if(kinbwp>=256) kinbwp = 0;
 6313              		.loc 1 116 52 view .LVU2082
 6314 0a04 591C     		adds	r1, r3, #1
 116:../USER/main_03.c **** 	if(kinbwp>=256) kinbwp = 0;
 6315              		.loc 1 116 4 view .LVU2083
 6316 0a06 8007     		lsls	r0, r0, #30
 6317 0a08 09D5     		bpl	.L622
 117:../USER/main_03.c **** 	//
 6318              		.loc 1 117 25 view .LVU2084
 6319 0a0a B1F5807F 		cmp	r1, #256
 116:../USER/main_03.c **** 	if(kinbwp>=256) kinbwp = 0;
 6320              		.loc 1 116 63 view .LVU2085
 6321 0a0e 1068     		ldr	r0, [r2]
 117:../USER/main_03.c **** 	//
 6322              		.loc 1 117 25 view .LVU2086
 6323 0a10 14BF     		ite	ne
 6324 0a12 0A46     		movne	r2, r1
 6325 0a14 3A46     		moveq	r2, r7
 116:../USER/main_03.c **** 	if(kinbwp>=256) kinbwp = 0;
 6326              		.loc 1 116 56 view .LVU2087
 6327 0a16 09F80300 		strb	r0, [r9, r3]
 117:../USER/main_03.c **** 	//
 6328              		.loc 1 117 2 is_stmt 1 view .LVU2088
 117:../USER/main_03.c **** 	//
 6329              		.loc 1 117 25 is_stmt 0 view .LVU2089
 6330 0a1a C8F80020 		str	r2, [r8]
 6331              	.L622:
 117:../USER/main_03.c **** 	//
 6332              		.loc 1 117 25 view .LVU2090
 6333              	.LBE1113:
 6334              	.LBE1112:
 135:../USER/main_03.c **** 		}
 6335              		.loc 1 135 4 is_stmt 1 view .LVU2091
 135:../USER/main_03.c **** 		}
 6336              		.loc 1 135 13 is_stmt 0 view .LVU2092
 6337 0a1e 3046     		mov	r0, r6
 6338 0a20 FFF7FEFF 		bl	GPIO_ReadBits
 6339              	.LVL409:
 135:../USER/main_03.c **** 		}
 6340              		.loc 1 135 11 view .LVU2093
 6341 0a24 1F90     		str	r0, [sp, #124]
 133:../USER/main_03.c **** 			key_check();
 6342              		.loc 1 133 17 view .LVU2094
 6343 0a26 1F9B     		ldr	r3, [sp, #124]
 133:../USER/main_03.c **** 			key_check();
 6344              		.loc 1 133 8 view .LVU2095
 6345 0a28 5804     		lsls	r0, r3, #17
 6346 0a2a 40F12A87 		bpl	.L623
 6347              	.L617:
 134:../USER/main_03.c **** 			gpiord = GPIO_ReadBits(GPIO0);
 6348              		.loc 1 134 4 is_stmt 1 view .LVU2096
 6349              	.LBB1115:
 6350              	.LBI1112:
 109:../USER/main_03.c **** 	char ch;
 6351              		.loc 1 109 6 view .LVU2097
 6352              	.LBB1114:
 110:../USER/main_03.c **** 	//
 6353              		.loc 1 110 2 view .LVU2098
 112:../USER/main_03.c **** 	if(ch!=0) kinbuf[kinbwp++] = ch;
 6354              		.loc 1 112 2 view .LVU2099
 112:../USER/main_03.c **** 	if(ch!=0) kinbuf[kinbwp++] = ch;
 6355              		.loc 1 112 7 is_stmt 0 view .LVU2100
 6356 0a2e FFF7FEFF 		bl	SPI_ReadData
 6357              	.LVL410:
 113:../USER/main_03.c **** 	if(kinbwp>=256) kinbwp = 0;
 6358              		.loc 1 113 12 is_stmt 1 view .LVU2101
 112:../USER/main_03.c **** 	if(ch!=0) kinbuf[kinbwp++] = ch;
 6359              		.loc 1 112 5 is_stmt 0 view .LVU2102
 6360 0a32 40B2     		sxtb	r0, r0
 6361              	.LVL411:
 113:../USER/main_03.c **** 	if(kinbwp>=256) kinbwp = 0;
 6362              		.loc 1 113 2 is_stmt 1 view .LVU2103
 113:../USER/main_03.c **** 	if(kinbwp>=256) kinbwp = 0;
 6363              		.loc 1 113 4 is_stmt 0 view .LVU2104
 6364 0a34 0028     		cmp	r0, #0
 6365 0a36 DBD0     		beq	.L1148
 113:../USER/main_03.c **** 	if(kinbwp>=256) kinbwp = 0;
 6366              		.loc 1 113 25 view .LVU2105
 6367 0a38 D8F80020 		ldr	r2, [r8]
 6368 0a3c 531C     		adds	r3, r2, #1
 113:../USER/main_03.c **** 	if(kinbwp>=256) kinbwp = 0;
 6369              		.loc 1 113 29 view .LVU2106
 6370 0a3e 09F80200 		strb	r0, [r9, r2]
 113:../USER/main_03.c **** 	if(kinbwp>=256) kinbwp = 0;
 6371              		.loc 1 113 25 view .LVU2107
 6372 0a42 C8F80030 		str	r3, [r8]
 6373 0a46 D5E7     		b	.L619
 6374              	.LVL412:
 6375              	.L822:
 113:../USER/main_03.c **** 	if(kinbwp>=256) kinbwp = 0;
 6376              		.loc 1 113 25 view .LVU2108
 6377              	.LBE1114:
 6378              	.LBE1115:
 6379              	.LBE1111:
 6380              	.LBE1110:
 6381              	.LBE1136:
 6382              	.LBE1141:
 6383              	.LBE1170:
 6384              	.LBE1176:
 6385              	.LBE1105:
 6386              	.LBE1104:
 6387              	.LBE1265:
 6388              	.LBE1272:
 6389              	.LBE1406:
 6390              	.LBB1407:
 6391              	.LBB1391:
 6392              	.LBB1389:
 6393              	.LBB1385:
 137:../USER/main_03.c **** 	}
 6394              		.loc 1 137 3 is_stmt 1 view .LVU2109
 6395 0a48 E0B2     		uxtb	r0, r4
 6396 0a4a FFF7FEFF 		bl	SPI_WriteData
 6397              	.LVL413:
 6398              	.L815:
 6399              	.LBB1379:
 6400              	.LBB1380:
 116:../USER/main_03.c **** 	if(kinbwp>=256) kinbwp = 0;
 6401              		.loc 1 116 11 is_stmt 0 view .LVU2110
 6402 0a4e 4FF04026 		mov	r6, #1073758208
 6403 0a52 1AE0     		b	.L828
 6404              	.L1224:
 6405              		.align	2
 6406              	.L1223:
 6407 0a54 00000140 		.word	1073807360
 6408              	.LVL414:
 6409              	.L1150:
 116:../USER/main_03.c **** 	if(kinbwp>=256) kinbwp = 0;
 6410              		.loc 1 116 11 view .LVU2111
 6411 0a58 D8F80030 		ldr	r3, [r8]
 6412              	.L824:
 114:../USER/main_03.c **** 	//
 6413              		.loc 1 114 2 is_stmt 1 view .LVU2112
 114:../USER/main_03.c **** 	//
 6414              		.loc 1 114 18 view .LVU2113
 114:../USER/main_03.c **** 	//
 6415              		.loc 1 114 4 is_stmt 0 view .LVU2114
 6416 0a5c FF2B     		cmp	r3, #255
 6417 0a5e 02DD     		ble	.L825
 114:../USER/main_03.c **** 	//
 6418              		.loc 1 114 25 view .LVU2115
 6419 0a60 0023     		movs	r3, #0
 6420 0a62 C8F80070 		str	r7, [r8]
 6421              	.L825:
 116:../USER/main_03.c **** 	if(kinbwp>=256) kinbwp = 0;
 6422              		.loc 1 116 39 is_stmt 1 view .LVU2116
 116:../USER/main_03.c **** 	if(kinbwp>=256) kinbwp = 0;
 6423              		.loc 1 116 2 view .LVU2117
 116:../USER/main_03.c **** 	if(kinbwp>=256) kinbwp = 0;
 6424              		.loc 1 116 11 is_stmt 0 view .LVU2118
 6425 0a66 7168     		ldr	r1, [r6, #4]
 116:../USER/main_03.c **** 	if(kinbwp>=256) kinbwp = 0;
 6426              		.loc 1 116 52 view .LVU2119
 6427 0a68 5A1C     		adds	r2, r3, #1
 116:../USER/main_03.c **** 	if(kinbwp>=256) kinbwp = 0;
 6428              		.loc 1 116 4 view .LVU2120
 6429 0a6a 8807     		lsls	r0, r1, #30
 6430              	.LVL415:
 116:../USER/main_03.c **** 	if(kinbwp>=256) kinbwp = 0;
 6431              		.loc 1 116 4 view .LVU2121
 6432 0a6c 09D5     		bpl	.L827
 117:../USER/main_03.c **** 	//
 6433              		.loc 1 117 25 view .LVU2122
 6434 0a6e B2F5807F 		cmp	r2, #256
 6435 0a72 14BF     		ite	ne
 6436 0a74 1146     		movne	r1, r2
 6437 0a76 3946     		moveq	r1, r7
 116:../USER/main_03.c **** 	if(kinbwp>=256) kinbwp = 0;
 6438              		.loc 1 116 63 view .LVU2123
 6439 0a78 3068     		ldr	r0, [r6]
 117:../USER/main_03.c **** 	//
 6440              		.loc 1 117 25 view .LVU2124
 6441 0a7a C8F80010 		str	r1, [r8]
 116:../USER/main_03.c **** 	if(kinbwp>=256) kinbwp = 0;
 6442              		.loc 1 116 56 view .LVU2125
 6443 0a7e 09F80300 		strb	r0, [r9, r3]
 117:../USER/main_03.c **** 	//
 6444              		.loc 1 117 2 is_stmt 1 view .LVU2126
 6445              	.L827:
 117:../USER/main_03.c **** 	//
 6446              		.loc 1 117 2 is_stmt 0 view .LVU2127
 6447              	.LBE1380:
 6448              	.LBE1379:
 140:../USER/main_03.c **** }
 6449              		.loc 1 140 27 is_stmt 1 view .LVU2128
 140:../USER/main_03.c **** }
 6450              		.loc 1 140 32 is_stmt 0 view .LVU2129
 6451 0a82 2046     		mov	r0, r4
 6452 0a84 FFF7FEFF 		bl	disp_vram
 6453              	.LVL416:
 140:../USER/main_03.c **** }
 6454              		.loc 1 140 2 view .LVU2130
 6455 0a88 60B1     		cbz	r0, .L1149
 6456              	.LVL417:
 6457              	.L828:
 140:../USER/main_03.c **** }
 6458              		.loc 1 140 2 is_stmt 1 view .LVU2131
 140:../USER/main_03.c **** }
 6459              		.loc 1 140 10 view .LVU2132
 140:../USER/main_03.c **** }
 6460              		.loc 1 140 14 view .LVU2133
 6461              	.LBB1382:
 6462              	.LBI1379:
 109:../USER/main_03.c **** 	char ch;
 6463              		.loc 1 109 6 view .LVU2134
 6464              	.LBB1381:
 110:../USER/main_03.c **** 	//
 6465              		.loc 1 110 2 view .LVU2135
 112:../USER/main_03.c **** 	if(ch!=0) kinbuf[kinbwp++] = ch;
 6466              		.loc 1 112 2 view .LVU2136
 112:../USER/main_03.c **** 	if(ch!=0) kinbuf[kinbwp++] = ch;
 6467              		.loc 1 112 7 is_stmt 0 view .LVU2137
 6468 0a8a FFF7FEFF 		bl	SPI_ReadData
 6469              	.LVL418:
 113:../USER/main_03.c **** 	if(kinbwp>=256) kinbwp = 0;
 6470              		.loc 1 113 12 is_stmt 1 view .LVU2138
 112:../USER/main_03.c **** 	if(ch!=0) kinbuf[kinbwp++] = ch;
 6471              		.loc 1 112 5 is_stmt 0 view .LVU2139
 6472 0a8e 40B2     		sxtb	r0, r0
 6473              	.LVL419:
 113:../USER/main_03.c **** 	if(kinbwp>=256) kinbwp = 0;
 6474              		.loc 1 113 2 is_stmt 1 view .LVU2140
 113:../USER/main_03.c **** 	if(kinbwp>=256) kinbwp = 0;
 6475              		.loc 1 113 4 is_stmt 0 view .LVU2141
 6476 0a90 0028     		cmp	r0, #0
 6477 0a92 E1D0     		beq	.L1150
 113:../USER/main_03.c **** 	if(kinbwp>=256) kinbwp = 0;
 6478              		.loc 1 113 25 view .LVU2142
 6479 0a94 D8F80020 		ldr	r2, [r8]
 6480 0a98 531C     		adds	r3, r2, #1
 113:../USER/main_03.c **** 	if(kinbwp>=256) kinbwp = 0;
 6481              		.loc 1 113 29 view .LVU2143
 6482 0a9a 09F80200 		strb	r0, [r9, r2]
 113:../USER/main_03.c **** 	if(kinbwp>=256) kinbwp = 0;
 6483              		.loc 1 113 25 view .LVU2144
 6484 0a9e C8F80030 		str	r3, [r8]
 6485 0aa2 DBE7     		b	.L824
 6486              	.LVL420:
 6487              	.L1149:
 113:../USER/main_03.c **** 	if(kinbwp>=256) kinbwp = 0;
 6488              		.loc 1 113 25 view .LVU2145
 6489              	.LBE1381:
 6490              	.LBE1382:
 6491              	.LBE1385:
 6492              	.LBE1389:
 149:../USER/main_03.c **** 		if(*buf==0) break;
 6493              		.loc 1 149 2 is_stmt 1 view .LVU2146
 150:../USER/main_03.c **** 		else        putch(*buf++);
 6494              		.loc 1 150 3 view .LVU2147
 150:../USER/main_03.c **** 		else        putch(*buf++);
 6495              		.loc 1 150 6 is_stmt 0 view .LVU2148
 6496 0aa4 15F9014F 		ldrsb	r4, [r5, #1]!
 6497              	.LVL421:
 150:../USER/main_03.c **** 		else        putch(*buf++);
 6498              		.loc 1 150 5 view .LVU2149
 6499 0aa8 002C     		cmp	r4, #0
 6500 0aaa 3FF4C8AA 		beq	.L279
 6501              	.LVL422:
 151:../USER/main_03.c **** 	}
 6502              		.loc 1 151 15 is_stmt 1 view .LVU2150
 6503              	.LBB1390:
 127:../USER/main_03.c **** 	volatile uint32_t gpiord;
 6504              		.loc 1 127 6 view .LVU2151
 6505              	.LBB1386:
 128:../USER/main_03.c **** 	if((mdgpio & 0x2000)==0)
 6506              		.loc 1 128 2 view .LVU2152
 129:../USER/main_03.c **** 		UART_SendChar(UART0,ch);
 6507              		.loc 1 129 2 view .LVU2153
 129:../USER/main_03.c **** 		UART_SendChar(UART0,ch);
 6508              		.loc 1 129 13 is_stmt 0 view .LVU2154
 6509 0aae DAF80030 		ldr	r3, [r10]
 129:../USER/main_03.c **** 		UART_SendChar(UART0,ch);
 6510              		.loc 1 129 4 view .LVU2155
 6511 0ab2 9904     		lsls	r1, r3, #18
 6512 0ab4 3FF5CCAD 		bmi	.L814
 6513              	.LVL423:
 6514              	.L1137:
 130:../USER/main_03.c **** 	else {
 6515              		.loc 1 130 3 is_stmt 1 view .LVU2156
 6516 0ab8 2146     		mov	r1, r4
 6517 0aba 4FF04020 		mov	r0, #1073758208
 6518 0abe FFF7FEFF 		bl	UART_SendChar
 6519              	.LVL424:
 6520 0ac2 C4E7     		b	.L815
 6521              	.LVL425:
 6522              	.L345:
 130:../USER/main_03.c **** 	else {
 6523              		.loc 1 130 3 is_stmt 0 view .LVU2157
 6524              	.LBE1386:
 6525              	.LBE1390:
 6526              	.LBE1391:
 6527              	.LBE1407:
 6528              	.LBB1408:
 6529              	.LBB982:
 6530              	.LBB980:
 6531              	.LBB978:
 137:../USER/main_03.c **** 	}
 6532              		.loc 1 137 3 is_stmt 1 view .LVU2158
 6533 0ac4 E0B2     		uxtb	r0, r4
 6534 0ac6 FFF7FEFF 		bl	SPI_WriteData
 6535              	.LVL426:
 6536              	.L338:
 6537              	.LBB974:
 6538              	.LBB975:
 116:../USER/main_03.c **** 	if(kinbwp>=256) kinbwp = 0;
 6539              		.loc 1 116 11 is_stmt 0 view .LVU2159
 6540 0aca 4FF04025 		mov	r5, #1073758208
 6541 0ace 1AE0     		b	.L351
 6542              	.LVL427:
 6543              	.L1152:
 116:../USER/main_03.c **** 	if(kinbwp>=256) kinbwp = 0;
 6544              		.loc 1 116 11 view .LVU2160
 6545 0ad0 D8F80030 		ldr	r3, [r8]
 6546              	.L347:
 114:../USER/main_03.c **** 	//
 6547              		.loc 1 114 2 is_stmt 1 view .LVU2161
 114:../USER/main_03.c **** 	//
 6548              		.loc 1 114 18 view .LVU2162
 114:../USER/main_03.c **** 	//
 6549              		.loc 1 114 4 is_stmt 0 view .LVU2163
 6550 0ad4 FF2B     		cmp	r3, #255
 6551 0ad6 02DD     		ble	.L348
 114:../USER/main_03.c **** 	//
 6552              		.loc 1 114 25 view .LVU2164
 6553 0ad8 0023     		movs	r3, #0
 6554 0ada C8F80070 		str	r7, [r8]
 6555              	.L348:
 116:../USER/main_03.c **** 	if(kinbwp>=256) kinbwp = 0;
 6556              		.loc 1 116 39 is_stmt 1 view .LVU2165
 116:../USER/main_03.c **** 	if(kinbwp>=256) kinbwp = 0;
 6557              		.loc 1 116 2 view .LVU2166
 116:../USER/main_03.c **** 	if(kinbwp>=256) kinbwp = 0;
 6558              		.loc 1 116 11 is_stmt 0 view .LVU2167
 6559 0ade 6968     		ldr	r1, [r5, #4]
 116:../USER/main_03.c **** 	if(kinbwp>=256) kinbwp = 0;
 6560              		.loc 1 116 52 view .LVU2168
 6561 0ae0 5A1C     		adds	r2, r3, #1
 116:../USER/main_03.c **** 	if(kinbwp>=256) kinbwp = 0;
 6562              		.loc 1 116 4 view .LVU2169
 6563 0ae2 8E07     		lsls	r6, r1, #30
 6564 0ae4 09D5     		bpl	.L350
 117:../USER/main_03.c **** 	//
 6565              		.loc 1 117 25 view .LVU2170
 6566 0ae6 B2F5807F 		cmp	r2, #256
 6567 0aea 14BF     		ite	ne
 6568 0aec 1146     		movne	r1, r2
 6569 0aee 3946     		moveq	r1, r7
 116:../USER/main_03.c **** 	if(kinbwp>=256) kinbwp = 0;
 6570              		.loc 1 116 63 view .LVU2171
 6571 0af0 2868     		ldr	r0, [r5]
 6572              	.LVL428:
 117:../USER/main_03.c **** 	//
 6573              		.loc 1 117 25 view .LVU2172
 6574 0af2 C8F80010 		str	r1, [r8]
 116:../USER/main_03.c **** 	if(kinbwp>=256) kinbwp = 0;
 6575              		.loc 1 116 56 view .LVU2173
 6576 0af6 09F80300 		strb	r0, [r9, r3]
 117:../USER/main_03.c **** 	//
 6577              		.loc 1 117 2 is_stmt 1 view .LVU2174
 6578              	.L350:
 117:../USER/main_03.c **** 	//
 6579              		.loc 1 117 2 is_stmt 0 view .LVU2175
 6580              	.LBE975:
 6581              	.LBE974:
 140:../USER/main_03.c **** }
 6582              		.loc 1 140 27 is_stmt 1 view .LVU2176
 140:../USER/main_03.c **** }
 6583              		.loc 1 140 32 is_stmt 0 view .LVU2177
 6584 0afa 2046     		mov	r0, r4
 6585 0afc FFF7FEFF 		bl	disp_vram
 6586              	.LVL429:
 140:../USER/main_03.c **** }
 6587              		.loc 1 140 2 view .LVU2178
 6588 0b00 0028     		cmp	r0, #0
 6589 0b02 3FF4E9AB 		beq	.L1151
 6590              	.LVL430:
 6591              	.L351:
 140:../USER/main_03.c **** }
 6592              		.loc 1 140 2 is_stmt 1 view .LVU2179
 140:../USER/main_03.c **** }
 6593              		.loc 1 140 10 view .LVU2180
 140:../USER/main_03.c **** }
 6594              		.loc 1 140 14 view .LVU2181
 6595              	.LBB977:
 6596              	.LBI974:
 109:../USER/main_03.c **** 	char ch;
 6597              		.loc 1 109 6 view .LVU2182
 6598              	.LBB976:
 110:../USER/main_03.c **** 	//
 6599              		.loc 1 110 2 view .LVU2183
 112:../USER/main_03.c **** 	if(ch!=0) kinbuf[kinbwp++] = ch;
 6600              		.loc 1 112 2 view .LVU2184
 112:../USER/main_03.c **** 	if(ch!=0) kinbuf[kinbwp++] = ch;
 6601              		.loc 1 112 7 is_stmt 0 view .LVU2185
 6602 0b06 FFF7FEFF 		bl	SPI_ReadData
 6603              	.LVL431:
 113:../USER/main_03.c **** 	if(kinbwp>=256) kinbwp = 0;
 6604              		.loc 1 113 12 is_stmt 1 view .LVU2186
 112:../USER/main_03.c **** 	if(ch!=0) kinbuf[kinbwp++] = ch;
 6605              		.loc 1 112 5 is_stmt 0 view .LVU2187
 6606 0b0a 40B2     		sxtb	r0, r0
 6607              	.LVL432:
 113:../USER/main_03.c **** 	if(kinbwp>=256) kinbwp = 0;
 6608              		.loc 1 113 2 is_stmt 1 view .LVU2188
 113:../USER/main_03.c **** 	if(kinbwp>=256) kinbwp = 0;
 6609              		.loc 1 113 4 is_stmt 0 view .LVU2189
 6610 0b0c 0028     		cmp	r0, #0
 6611 0b0e DFD0     		beq	.L1152
 113:../USER/main_03.c **** 	if(kinbwp>=256) kinbwp = 0;
 6612              		.loc 1 113 25 view .LVU2190
 6613 0b10 D8F80020 		ldr	r2, [r8]
 6614 0b14 531C     		adds	r3, r2, #1
 113:../USER/main_03.c **** 	if(kinbwp>=256) kinbwp = 0;
 6615              		.loc 1 113 29 view .LVU2191
 6616 0b16 09F80200 		strb	r0, [r9, r2]
 113:../USER/main_03.c **** 	if(kinbwp>=256) kinbwp = 0;
 6617              		.loc 1 113 25 view .LVU2192
 6618 0b1a C8F80030 		str	r3, [r8]
 6619 0b1e D9E7     		b	.L347
 6620              	.LVL433:
 6621              	.L336:
 113:../USER/main_03.c **** 	if(kinbwp>=256) kinbwp = 0;
 6622              		.loc 1 113 25 view .LVU2193
 6623              	.LBE976:
 6624              	.LBE977:
 6625              	.LBE978:
 6626              	.LBE980:
 6627              	.LBE982:
 6628              	.LBE1408:
 198:../USER/main_03.c **** 			  break;
 6629              		.loc 1 198 30 is_stmt 1 view .LVU2194
 6630 0b20 FFF7FEFF 		bl	basic
 6631              	.LVL434:
 199:../USER/main_03.c **** 		  case 'D':
 6632              		.loc 1 199 6 view .LVU2195
 6633 0b24 FFF78BBA 		b	.L279
 6634              	.LVL435:
 6635              	.L397:
 6636              	.LBB1409:
 6637              	.LBB1369:
 6638              	.LBB1366:
 137:../USER/main_03.c **** 	}
 6639              		.loc 1 137 3 view .LVU2196
 6640 0b28 3A20     		movs	r0, #58
 6641 0b2a FFF7FEFF 		bl	SPI_WriteData
 6642              	.LVL436:
 6643              	.L390:
 6644              	.LBB1362:
 6645              	.LBB1363:
 116:../USER/main_03.c **** 	if(kinbwp>=256) kinbwp = 0;
 6646              		.loc 1 116 11 is_stmt 0 view .LVU2197
 6647 0b2e 4FF04024 		mov	r4, #1073758208
 6648 0b32 18E0     		b	.L403
 6649              	.LVL437:
 6650              	.L1153:
 116:../USER/main_03.c **** 	if(kinbwp>=256) kinbwp = 0;
 6651              		.loc 1 116 11 view .LVU2198
 6652 0b34 D8F80030 		ldr	r3, [r8]
 6653              	.L399:
 114:../USER/main_03.c **** 	//
 6654              		.loc 1 114 2 is_stmt 1 view .LVU2199
 114:../USER/main_03.c **** 	//
 6655              		.loc 1 114 18 view .LVU2200
 114:../USER/main_03.c **** 	//
 6656              		.loc 1 114 4 is_stmt 0 view .LVU2201
 6657 0b38 FF2B     		cmp	r3, #255
 6658 0b3a 02DD     		ble	.L400
 114:../USER/main_03.c **** 	//
 6659              		.loc 1 114 25 view .LVU2202
 6660 0b3c 0023     		movs	r3, #0
 6661 0b3e C8F80070 		str	r7, [r8]
 6662              	.L400:
 116:../USER/main_03.c **** 	if(kinbwp>=256) kinbwp = 0;
 6663              		.loc 1 116 39 is_stmt 1 view .LVU2203
 116:../USER/main_03.c **** 	if(kinbwp>=256) kinbwp = 0;
 6664              		.loc 1 116 2 view .LVU2204
 116:../USER/main_03.c **** 	if(kinbwp>=256) kinbwp = 0;
 6665              		.loc 1 116 11 is_stmt 0 view .LVU2205
 6666 0b42 6168     		ldr	r1, [r4, #4]
 116:../USER/main_03.c **** 	if(kinbwp>=256) kinbwp = 0;
 6667              		.loc 1 116 52 view .LVU2206
 6668 0b44 5A1C     		adds	r2, r3, #1
 116:../USER/main_03.c **** 	if(kinbwp>=256) kinbwp = 0;
 6669              		.loc 1 116 4 view .LVU2207
 6670 0b46 8E07     		lsls	r6, r1, #30
 6671 0b48 09D5     		bpl	.L402
 117:../USER/main_03.c **** 	//
 6672              		.loc 1 117 25 view .LVU2208
 6673 0b4a B2F5807F 		cmp	r2, #256
 6674 0b4e 14BF     		ite	ne
 6675 0b50 1146     		movne	r1, r2
 6676 0b52 3946     		moveq	r1, r7
 116:../USER/main_03.c **** 	if(kinbwp>=256) kinbwp = 0;
 6677              		.loc 1 116 63 view .LVU2209
 6678 0b54 2068     		ldr	r0, [r4]
 6679              	.LVL438:
 117:../USER/main_03.c **** 	//
 6680              		.loc 1 117 25 view .LVU2210
 6681 0b56 C8F80010 		str	r1, [r8]
 116:../USER/main_03.c **** 	if(kinbwp>=256) kinbwp = 0;
 6682              		.loc 1 116 56 view .LVU2211
 6683 0b5a 09F80300 		strb	r0, [r9, r3]
 117:../USER/main_03.c **** 	//
 6684              		.loc 1 117 2 is_stmt 1 view .LVU2212
 6685              	.L402:
 117:../USER/main_03.c **** 	//
 6686              		.loc 1 117 2 is_stmt 0 view .LVU2213
 6687              	.LBE1363:
 6688              	.LBE1362:
 140:../USER/main_03.c **** }
 6689              		.loc 1 140 27 is_stmt 1 view .LVU2214
 140:../USER/main_03.c **** }
 6690              		.loc 1 140 32 is_stmt 0 view .LVU2215
 6691 0b5e 3A20     		movs	r0, #58
 6692 0b60 FFF7FEFF 		bl	disp_vram
 6693              	.LVL439:
 140:../USER/main_03.c **** }
 6694              		.loc 1 140 2 view .LVU2216
 6695 0b64 90B1     		cbz	r0, .L468
 6696              	.LVL440:
 6697              	.L403:
 140:../USER/main_03.c **** }
 6698              		.loc 1 140 2 is_stmt 1 view .LVU2217
 140:../USER/main_03.c **** }
 6699              		.loc 1 140 10 view .LVU2218
 140:../USER/main_03.c **** }
 6700              		.loc 1 140 14 view .LVU2219
 6701              	.LBB1365:
 6702              	.LBI1362:
 109:../USER/main_03.c **** 	char ch;
 6703              		.loc 1 109 6 view .LVU2220
 6704              	.LBB1364:
 110:../USER/main_03.c **** 	//
 6705              		.loc 1 110 2 view .LVU2221
 112:../USER/main_03.c **** 	if(ch!=0) kinbuf[kinbwp++] = ch;
 6706              		.loc 1 112 2 view .LVU2222
 112:../USER/main_03.c **** 	if(ch!=0) kinbuf[kinbwp++] = ch;
 6707              		.loc 1 112 7 is_stmt 0 view .LVU2223
 6708 0b66 FFF7FEFF 		bl	SPI_ReadData
 6709              	.LVL441:
 113:../USER/main_03.c **** 	if(kinbwp>=256) kinbwp = 0;
 6710              		.loc 1 113 12 is_stmt 1 view .LVU2224
 112:../USER/main_03.c **** 	if(ch!=0) kinbuf[kinbwp++] = ch;
 6711              		.loc 1 112 5 is_stmt 0 view .LVU2225
 6712 0b6a 40B2     		sxtb	r0, r0
 6713              	.LVL442:
 113:../USER/main_03.c **** 	if(kinbwp>=256) kinbwp = 0;
 6714              		.loc 1 113 2 is_stmt 1 view .LVU2226
 113:../USER/main_03.c **** 	if(kinbwp>=256) kinbwp = 0;
 6715              		.loc 1 113 4 is_stmt 0 view .LVU2227
 6716 0b6c 0028     		cmp	r0, #0
 6717 0b6e E1D0     		beq	.L1153
 113:../USER/main_03.c **** 	if(kinbwp>=256) kinbwp = 0;
 6718              		.loc 1 113 25 view .LVU2228
 6719 0b70 D8F80020 		ldr	r2, [r8]
 6720 0b74 531C     		adds	r3, r2, #1
 113:../USER/main_03.c **** 	if(kinbwp>=256) kinbwp = 0;
 6721              		.loc 1 113 29 view .LVU2229
 6722 0b76 09F80200 		strb	r0, [r9, r2]
 113:../USER/main_03.c **** 	if(kinbwp>=256) kinbwp = 0;
 6723              		.loc 1 113 25 view .LVU2230
 6724 0b7a C8F80030 		str	r3, [r8]
 6725 0b7e DBE7     		b	.L399
 6726              	.LVL443:
 6727              	.L485:
 113:../USER/main_03.c **** 	if(kinbwp>=256) kinbwp = 0;
 6728              		.loc 1 113 25 view .LVU2231
 6729              	.LBE1364:
 6730              	.LBE1365:
 6731              	.LBE1366:
 6732              	.LBE1369:
 6733              	.LBE1409:
 205:../USER/main_03.c **** 	        }
 6734              		.loc 1 205 12 view .LVU2232
 6735 0b80 039B     		ldr	r3, [sp, #12]
 6736 0b82 0BF1010B 		add	fp, fp, #1
 6737              	.LVL444:
 205:../USER/main_03.c **** 	        }
 6738              		.loc 1 205 12 view .LVU2233
 6739 0b86 9B45     		cmp	fp, r3
 6740 0b88 00F0BB81 		beq	.L1154
 6741              	.LVL445:
 6742              	.L468:
 205:../USER/main_03.c **** 	        }
 6743              		.loc 1 205 34 is_stmt 1 view .LVU2234
 6744              	.LBB1410:
 6745              	.LBI1410:
 127:../USER/main_03.c **** 	volatile uint32_t gpiord;
 6746              		.loc 1 127 6 view .LVU2235
 6747              	.LBB1411:
 128:../USER/main_03.c **** 	if((mdgpio & 0x2000)==0)
 6748              		.loc 1 128 2 view .LVU2236
 129:../USER/main_03.c **** 		UART_SendChar(UART0,ch);
 6749              		.loc 1 129 2 view .LVU2237
 129:../USER/main_03.c **** 		UART_SendChar(UART0,ch);
 6750              		.loc 1 129 13 is_stmt 0 view .LVU2238
 6751 0b8c DAF80030 		ldr	r3, [r10]
 129:../USER/main_03.c **** 		UART_SendChar(UART0,ch);
 6752              		.loc 1 129 4 view .LVU2239
 6753 0b90 9B04     		lsls	r3, r3, #18
 6754 0b92 40F11F82 		bpl	.L1155
 132:../USER/main_03.c **** 		while((gpiord & 0x4000)!=0) {
 6755              		.loc 1 132 3 is_stmt 1 view .LVU2240
 132:../USER/main_03.c **** 		while((gpiord & 0x4000)!=0) {
 6756              		.loc 1 132 10 is_stmt 0 view .LVU2241
 6757 0b96 4FF48043 		mov	r3, #16384
 6758 0b9a 1393     		str	r3, [sp, #76]
 133:../USER/main_03.c **** 			key_check();
 6759              		.loc 1 133 3 is_stmt 1 view .LVU2242
 133:../USER/main_03.c **** 			key_check();
 6760              		.loc 1 133 17 is_stmt 0 view .LVU2243
 6761 0b9c 139B     		ldr	r3, [sp, #76]
 133:../USER/main_03.c **** 			key_check();
 6762              		.loc 1 133 8 view .LVU2244
 6763 0b9e 5E04     		lsls	r6, r3, #17
 6764 0ba0 2CD5     		bpl	.L412
 135:../USER/main_03.c **** 		}
 6765              		.loc 1 135 13 view .LVU2245
 6766 0ba2 AA4C     		ldr	r4, .L1225
 6767 0ba4 1DE0     		b	.L406
 6768              	.LVL446:
 6769              	.L1156:
 135:../USER/main_03.c **** 		}
 6770              		.loc 1 135 13 view .LVU2246
 6771 0ba6 D8F80030 		ldr	r3, [r8]
 6772              	.L408:
 6773              	.LBB1412:
 6774              	.LBB1413:
 114:../USER/main_03.c **** 	//
 6775              		.loc 1 114 2 is_stmt 1 view .LVU2247
 114:../USER/main_03.c **** 	//
 6776              		.loc 1 114 18 view .LVU2248
 114:../USER/main_03.c **** 	//
 6777              		.loc 1 114 4 is_stmt 0 view .LVU2249
 6778 0baa FF2B     		cmp	r3, #255
 6779 0bac 02DD     		ble	.L409
 114:../USER/main_03.c **** 	//
 6780              		.loc 1 114 25 view .LVU2250
 6781 0bae 0023     		movs	r3, #0
 6782 0bb0 C8F80070 		str	r7, [r8]
 6783              	.L409:
 116:../USER/main_03.c **** 	if(kinbwp>=256) kinbwp = 0;
 6784              		.loc 1 116 39 is_stmt 1 view .LVU2251
 116:../USER/main_03.c **** 	if(kinbwp>=256) kinbwp = 0;
 6785              		.loc 1 116 2 view .LVU2252
 116:../USER/main_03.c **** 	if(kinbwp>=256) kinbwp = 0;
 6786              		.loc 1 116 11 is_stmt 0 view .LVU2253
 6787 0bb4 4FF04021 		mov	r1, #1073758208
 6788 0bb8 4868     		ldr	r0, [r1, #4]
 6789              	.LVL447:
 116:../USER/main_03.c **** 	if(kinbwp>=256) kinbwp = 0;
 6790              		.loc 1 116 52 view .LVU2254
 6791 0bba 5A1C     		adds	r2, r3, #1
 116:../USER/main_03.c **** 	if(kinbwp>=256) kinbwp = 0;
 6792              		.loc 1 116 4 view .LVU2255
 6793 0bbc 8007     		lsls	r0, r0, #30
 6794 0bbe 09D5     		bpl	.L411
 117:../USER/main_03.c **** 	//
 6795              		.loc 1 117 25 view .LVU2256
 6796 0bc0 B2F5807F 		cmp	r2, #256
 116:../USER/main_03.c **** 	if(kinbwp>=256) kinbwp = 0;
 6797              		.loc 1 116 63 view .LVU2257
 6798 0bc4 0868     		ldr	r0, [r1]
 117:../USER/main_03.c **** 	//
 6799              		.loc 1 117 25 view .LVU2258
 6800 0bc6 14BF     		ite	ne
 6801 0bc8 1146     		movne	r1, r2
 6802 0bca 3946     		moveq	r1, r7
 116:../USER/main_03.c **** 	if(kinbwp>=256) kinbwp = 0;
 6803              		.loc 1 116 56 view .LVU2259
 6804 0bcc 09F80300 		strb	r0, [r9, r3]
 117:../USER/main_03.c **** 	//
 6805              		.loc 1 117 2 is_stmt 1 view .LVU2260
 117:../USER/main_03.c **** 	//
 6806              		.loc 1 117 25 is_stmt 0 view .LVU2261
 6807 0bd0 C8F80010 		str	r1, [r8]
 6808              	.L411:
 117:../USER/main_03.c **** 	//
 6809              		.loc 1 117 25 view .LVU2262
 6810              	.LBE1413:
 6811              	.LBE1412:
 135:../USER/main_03.c **** 		}
 6812              		.loc 1 135 4 is_stmt 1 view .LVU2263
 135:../USER/main_03.c **** 		}
 6813              		.loc 1 135 13 is_stmt 0 view .LVU2264
 6814 0bd4 2046     		mov	r0, r4
 6815 0bd6 FFF7FEFF 		bl	GPIO_ReadBits
 6816              	.LVL448:
 135:../USER/main_03.c **** 		}
 6817              		.loc 1 135 11 view .LVU2265
 6818 0bda 1390     		str	r0, [sp, #76]
 133:../USER/main_03.c **** 			key_check();
 6819              		.loc 1 133 17 view .LVU2266
 6820 0bdc 139B     		ldr	r3, [sp, #76]
 133:../USER/main_03.c **** 			key_check();
 6821              		.loc 1 133 8 view .LVU2267
 6822 0bde 5D04     		lsls	r5, r3, #17
 6823 0be0 0CD5     		bpl	.L412
 6824              	.L406:
 134:../USER/main_03.c **** 			gpiord = GPIO_ReadBits(GPIO0);
 6825              		.loc 1 134 4 is_stmt 1 view .LVU2268
 6826              	.LBB1415:
 6827              	.LBI1412:
 109:../USER/main_03.c **** 	char ch;
 6828              		.loc 1 109 6 view .LVU2269
 6829              	.LBB1414:
 110:../USER/main_03.c **** 	//
 6830              		.loc 1 110 2 view .LVU2270
 112:../USER/main_03.c **** 	if(ch!=0) kinbuf[kinbwp++] = ch;
 6831              		.loc 1 112 2 view .LVU2271
 112:../USER/main_03.c **** 	if(ch!=0) kinbuf[kinbwp++] = ch;
 6832              		.loc 1 112 7 is_stmt 0 view .LVU2272
 6833 0be2 FFF7FEFF 		bl	SPI_ReadData
 6834              	.LVL449:
 113:../USER/main_03.c **** 	if(kinbwp>=256) kinbwp = 0;
 6835              		.loc 1 113 12 is_stmt 1 view .LVU2273
 112:../USER/main_03.c **** 	if(ch!=0) kinbuf[kinbwp++] = ch;
 6836              		.loc 1 112 5 is_stmt 0 view .LVU2274
 6837 0be6 40B2     		sxtb	r0, r0
 6838              	.LVL450:
 113:../USER/main_03.c **** 	if(kinbwp>=256) kinbwp = 0;
 6839              		.loc 1 113 2 is_stmt 1 view .LVU2275
 113:../USER/main_03.c **** 	if(kinbwp>=256) kinbwp = 0;
 6840              		.loc 1 113 4 is_stmt 0 view .LVU2276
 6841 0be8 0028     		cmp	r0, #0
 6842 0bea DCD0     		beq	.L1156
 113:../USER/main_03.c **** 	if(kinbwp>=256) kinbwp = 0;
 6843              		.loc 1 113 25 view .LVU2277
 6844 0bec D8F80020 		ldr	r2, [r8]
 6845 0bf0 531C     		adds	r3, r2, #1
 113:../USER/main_03.c **** 	if(kinbwp>=256) kinbwp = 0;
 6846              		.loc 1 113 29 view .LVU2278
 6847 0bf2 09F80200 		strb	r0, [r9, r2]
 113:../USER/main_03.c **** 	if(kinbwp>=256) kinbwp = 0;
 6848              		.loc 1 113 25 view .LVU2279
 6849 0bf6 C8F80030 		str	r3, [r8]
 6850 0bfa D6E7     		b	.L408
 6851              	.LVL451:
 6852              	.L412:
 113:../USER/main_03.c **** 	if(kinbwp>=256) kinbwp = 0;
 6853              		.loc 1 113 25 view .LVU2280
 6854              	.LBE1414:
 6855              	.LBE1415:
 137:../USER/main_03.c **** 	}
 6856              		.loc 1 137 3 is_stmt 1 view .LVU2281
 6857 0bfc 2020     		movs	r0, #32
 6858 0bfe FFF7FEFF 		bl	SPI_WriteData
 6859              	.LVL452:
 6860              	.L405:
 6861              	.LBB1416:
 6862              	.LBB1417:
 116:../USER/main_03.c **** 	if(kinbwp>=256) kinbwp = 0;
 6863              		.loc 1 116 11 is_stmt 0 view .LVU2282
 6864 0c02 4FF04024 		mov	r4, #1073758208
 6865 0c06 18E0     		b	.L418
 6866              	.LVL453:
 6867              	.L1158:
 116:../USER/main_03.c **** 	if(kinbwp>=256) kinbwp = 0;
 6868              		.loc 1 116 11 view .LVU2283
 6869 0c08 D8F80030 		ldr	r3, [r8]
 6870              	.L414:
 114:../USER/main_03.c **** 	//
 6871              		.loc 1 114 2 is_stmt 1 view .LVU2284
 114:../USER/main_03.c **** 	//
 6872              		.loc 1 114 18 view .LVU2285
 114:../USER/main_03.c **** 	//
 6873              		.loc 1 114 4 is_stmt 0 view .LVU2286
 6874 0c0c FF2B     		cmp	r3, #255
 6875 0c0e 02DD     		ble	.L415
 114:../USER/main_03.c **** 	//
 6876              		.loc 1 114 25 view .LVU2287
 6877 0c10 0023     		movs	r3, #0
 6878 0c12 C8F80070 		str	r7, [r8]
 6879              	.L415:
 116:../USER/main_03.c **** 	if(kinbwp>=256) kinbwp = 0;
 6880              		.loc 1 116 39 is_stmt 1 view .LVU2288
 116:../USER/main_03.c **** 	if(kinbwp>=256) kinbwp = 0;
 6881              		.loc 1 116 2 view .LVU2289
 116:../USER/main_03.c **** 	if(kinbwp>=256) kinbwp = 0;
 6882              		.loc 1 116 11 is_stmt 0 view .LVU2290
 6883 0c16 6168     		ldr	r1, [r4, #4]
 116:../USER/main_03.c **** 	if(kinbwp>=256) kinbwp = 0;
 6884              		.loc 1 116 52 view .LVU2291
 6885 0c18 5A1C     		adds	r2, r3, #1
 116:../USER/main_03.c **** 	if(kinbwp>=256) kinbwp = 0;
 6886              		.loc 1 116 4 view .LVU2292
 6887 0c1a 8D07     		lsls	r5, r1, #30
 6888 0c1c 09D5     		bpl	.L417
 117:../USER/main_03.c **** 	//
 6889              		.loc 1 117 25 view .LVU2293
 6890 0c1e B2F5807F 		cmp	r2, #256
 6891 0c22 14BF     		ite	ne
 6892 0c24 1146     		movne	r1, r2
 6893 0c26 3946     		moveq	r1, r7
 116:../USER/main_03.c **** 	if(kinbwp>=256) kinbwp = 0;
 6894              		.loc 1 116 63 view .LVU2294
 6895 0c28 2068     		ldr	r0, [r4]
 6896              	.LVL454:
 117:../USER/main_03.c **** 	//
 6897              		.loc 1 117 25 view .LVU2295
 6898 0c2a C8F80010 		str	r1, [r8]
 116:../USER/main_03.c **** 	if(kinbwp>=256) kinbwp = 0;
 6899              		.loc 1 116 56 view .LVU2296
 6900 0c2e 09F80300 		strb	r0, [r9, r3]
 117:../USER/main_03.c **** 	//
 6901              		.loc 1 117 2 is_stmt 1 view .LVU2297
 6902              	.L417:
 117:../USER/main_03.c **** 	//
 6903              		.loc 1 117 2 is_stmt 0 view .LVU2298
 6904              	.LBE1417:
 6905              	.LBE1416:
 140:../USER/main_03.c **** }
 6906              		.loc 1 140 27 is_stmt 1 view .LVU2299
 140:../USER/main_03.c **** }
 6907              		.loc 1 140 32 is_stmt 0 view .LVU2300
 6908 0c32 2020     		movs	r0, #32
 6909 0c34 FFF7FEFF 		bl	disp_vram
 6910              	.LVL455:
 140:../USER/main_03.c **** }
 6911              		.loc 1 140 2 view .LVU2301
 6912 0c38 60B1     		cbz	r0, .L1157
 6913              	.LVL456:
 6914              	.L418:
 140:../USER/main_03.c **** }
 6915              		.loc 1 140 2 is_stmt 1 view .LVU2302
 140:../USER/main_03.c **** }
 6916              		.loc 1 140 10 view .LVU2303
 140:../USER/main_03.c **** }
 6917              		.loc 1 140 14 view .LVU2304
 6918              	.LBB1419:
 6919              	.LBI1416:
 109:../USER/main_03.c **** 	char ch;
 6920              		.loc 1 109 6 view .LVU2305
 6921              	.LBB1418:
 110:../USER/main_03.c **** 	//
 6922              		.loc 1 110 2 view .LVU2306
 112:../USER/main_03.c **** 	if(ch!=0) kinbuf[kinbwp++] = ch;
 6923              		.loc 1 112 2 view .LVU2307
 112:../USER/main_03.c **** 	if(ch!=0) kinbuf[kinbwp++] = ch;
 6924              		.loc 1 112 7 is_stmt 0 view .LVU2308
 6925 0c3a FFF7FEFF 		bl	SPI_ReadData
 6926              	.LVL457:
 113:../USER/main_03.c **** 	if(kinbwp>=256) kinbwp = 0;
 6927              		.loc 1 113 12 is_stmt 1 view .LVU2309
 112:../USER/main_03.c **** 	if(ch!=0) kinbuf[kinbwp++] = ch;
 6928              		.loc 1 112 5 is_stmt 0 view .LVU2310
 6929 0c3e 40B2     		sxtb	r0, r0
 6930              	.LVL458:
 113:../USER/main_03.c **** 	if(kinbwp>=256) kinbwp = 0;
 6931              		.loc 1 113 2 is_stmt 1 view .LVU2311
 113:../USER/main_03.c **** 	if(kinbwp>=256) kinbwp = 0;
 6932              		.loc 1 113 4 is_stmt 0 view .LVU2312
 6933 0c40 0028     		cmp	r0, #0
 6934 0c42 E1D0     		beq	.L1158
 113:../USER/main_03.c **** 	if(kinbwp>=256) kinbwp = 0;
 6935              		.loc 1 113 25 view .LVU2313
 6936 0c44 D8F80020 		ldr	r2, [r8]
 6937 0c48 531C     		adds	r3, r2, #1
 113:../USER/main_03.c **** 	if(kinbwp>=256) kinbwp = 0;
 6938              		.loc 1 113 29 view .LVU2314
 6939 0c4a 09F80200 		strb	r0, [r9, r2]
 113:../USER/main_03.c **** 	if(kinbwp>=256) kinbwp = 0;
 6940              		.loc 1 113 25 view .LVU2315
 6941 0c4e C8F80030 		str	r3, [r8]
 6942 0c52 DBE7     		b	.L414
 6943              	.LVL459:
 6944              	.L1157:
 113:../USER/main_03.c **** 	if(kinbwp>=256) kinbwp = 0;
 6945              		.loc 1 113 25 view .LVU2316
 6946              	.LBE1418:
 6947              	.LBE1419:
 6948              	.LBE1411:
 6949              	.LBE1410:
 205:../USER/main_03.c **** 	        }
 6950              		.loc 1 205 46 is_stmt 1 discriminator 3 view .LVU2317
 205:../USER/main_03.c **** 	        }
 6951              		.loc 1 205 57 is_stmt 0 discriminator 3 view .LVU2318
 6952 0c54 9BF80040 		ldrb	r4, [fp]	@ zero_extendqisi2
 6953              	.LVL460:
 6954              	.LBB1421:
 6955              	.LBI1421:
 144:../USER/main_03.c **** void puth4(dt) int dt;{ puth2((dt >> 8) & 0xff); puth2(dt & 0xff); }
 6956              		.loc 1 144 6 is_stmt 1 discriminator 3 view .LVU2319
 6957              	.LBB1422:
 144:../USER/main_03.c **** void puth4(dt) int dt;{ puth2((dt >> 8) & 0xff); puth2(dt & 0xff); }
 6958              		.loc 1 144 25 discriminator 3 view .LVU2320
 6959 0c58 DAF80030 		ldr	r3, [r10]
 144:../USER/main_03.c **** void puth4(dt) int dt;{ puth2((dt >> 8) & 0xff); puth2(dt & 0xff); }
 6960              		.loc 1 144 34 is_stmt 0 discriminator 3 view .LVU2321
 6961 0c5c 2211     		asrs	r2, r4, #4
 6962              	.LVL461:
 6963              	.LBB1423:
 6964              	.LBI1423:
 143:../USER/main_03.c **** void puth2(dt) int dt;{ puth((dt >> 4) & 0xf); puth(dt & 0xf); }
 6965              		.loc 1 143 6 is_stmt 1 discriminator 3 view .LVU2322
 6966              	.LBB1424:
 143:../USER/main_03.c **** void puth2(dt) int dt;{ puth((dt >> 4) & 0xf); puth(dt & 0xf); }
 6967              		.loc 1 143 24 discriminator 3 view .LVU2323
 143:../USER/main_03.c **** void puth2(dt) int dt;{ puth((dt >> 4) & 0xf); puth(dt & 0xf); }
 6968              		.loc 1 143 26 is_stmt 0 discriminator 3 view .LVU2324
 6969 0c5e 092A     		cmp	r2, #9
 6970 0c60 D5B2     		uxtb	r5, r2
 6971 0c62 03F40053 		and	r3, r3, #8192
 6972 0c66 3BDC     		bgt	.L419
 143:../USER/main_03.c **** void puth2(dt) int dt;{ puth((dt >> 4) & 0xf); puth(dt & 0xf); }
 6973              		.loc 1 143 34 is_stmt 1 view .LVU2325
 143:../USER/main_03.c **** void puth2(dt) int dt;{ puth((dt >> 4) & 0xf); puth(dt & 0xf); }
 6974              		.loc 1 143 44 is_stmt 0 view .LVU2326
 6975 0c68 05F13002 		add	r2, r5, #48
 6976              	.LVL462:
 143:../USER/main_03.c **** void puth2(dt) int dt;{ puth((dt >> 4) & 0xf); puth(dt & 0xf); }
 6977              		.loc 1 143 44 view .LVU2327
 6978 0c6c 0492     		str	r2, [sp, #16]
 143:../USER/main_03.c **** void puth2(dt) int dt;{ puth((dt >> 4) & 0xf); puth(dt & 0xf); }
 6979              		.loc 1 143 34 view .LVU2328
 6980 0c6e 56B2     		sxtb	r6, r2
 6981              	.LVL463:
 6982              	.LBB1425:
 6983              	.LBI1425:
 127:../USER/main_03.c **** 	volatile uint32_t gpiord;
 6984              		.loc 1 127 6 is_stmt 1 view .LVU2329
 6985              	.LBB1426:
 128:../USER/main_03.c **** 	if((mdgpio & 0x2000)==0)
 6986              		.loc 1 128 2 view .LVU2330
 129:../USER/main_03.c **** 		UART_SendChar(UART0,ch);
 6987              		.loc 1 129 2 view .LVU2331
 129:../USER/main_03.c **** 		UART_SendChar(UART0,ch);
 6988              		.loc 1 129 4 is_stmt 0 view .LVU2332
 6989 0c70 002B     		cmp	r3, #0
 6990 0c72 00F0B581 		beq	.L1159
 132:../USER/main_03.c **** 		while((gpiord & 0x4000)!=0) {
 6991              		.loc 1 132 3 is_stmt 1 view .LVU2333
 132:../USER/main_03.c **** 		while((gpiord & 0x4000)!=0) {
 6992              		.loc 1 132 10 is_stmt 0 view .LVU2334
 6993 0c76 4FF48043 		mov	r3, #16384
 6994 0c7a 1493     		str	r3, [sp, #80]
 133:../USER/main_03.c **** 			key_check();
 6995              		.loc 1 133 3 is_stmt 1 view .LVU2335
 133:../USER/main_03.c **** 			key_check();
 6996              		.loc 1 133 17 is_stmt 0 view .LVU2336
 6997 0c7c 149B     		ldr	r3, [sp, #80]
 133:../USER/main_03.c **** 			key_check();
 6998              		.loc 1 133 8 view .LVU2337
 6999 0c7e 5804     		lsls	r0, r3, #17
 7000 0c80 40F17A81 		bpl	.L428
 135:../USER/main_03.c **** 		}
 7001              		.loc 1 135 13 view .LVU2338
 7002 0c84 714D     		ldr	r5, .L1225
 7003 0c86 1EE0     		b	.L422
 7004              	.LVL464:
 7005              	.L1160:
 135:../USER/main_03.c **** 		}
 7006              		.loc 1 135 13 view .LVU2339
 7007 0c88 D8F80030 		ldr	r3, [r8]
 7008              	.L424:
 7009              	.LBB1427:
 7010              	.LBB1428:
 114:../USER/main_03.c **** 	//
 7011              		.loc 1 114 2 is_stmt 1 view .LVU2340
 114:../USER/main_03.c **** 	//
 7012              		.loc 1 114 18 view .LVU2341
 114:../USER/main_03.c **** 	//
 7013              		.loc 1 114 4 is_stmt 0 view .LVU2342
 7014 0c8c FF2B     		cmp	r3, #255
 7015 0c8e 02DD     		ble	.L425
 114:../USER/main_03.c **** 	//
 7016              		.loc 1 114 25 view .LVU2343
 7017 0c90 0023     		movs	r3, #0
 7018 0c92 C8F80070 		str	r7, [r8]
 7019              	.L425:
 116:../USER/main_03.c **** 	if(kinbwp>=256) kinbwp = 0;
 7020              		.loc 1 116 39 is_stmt 1 view .LVU2344
 116:../USER/main_03.c **** 	if(kinbwp>=256) kinbwp = 0;
 7021              		.loc 1 116 2 view .LVU2345
 116:../USER/main_03.c **** 	if(kinbwp>=256) kinbwp = 0;
 7022              		.loc 1 116 11 is_stmt 0 view .LVU2346
 7023 0c96 4FF04021 		mov	r1, #1073758208
 7024 0c9a 4868     		ldr	r0, [r1, #4]
 7025              	.LVL465:
 116:../USER/main_03.c **** 	if(kinbwp>=256) kinbwp = 0;
 7026              		.loc 1 116 52 view .LVU2347
 7027 0c9c 5A1C     		adds	r2, r3, #1
 116:../USER/main_03.c **** 	if(kinbwp>=256) kinbwp = 0;
 7028              		.loc 1 116 4 view .LVU2348
 7029 0c9e 8007     		lsls	r0, r0, #30
 7030 0ca0 09D5     		bpl	.L427
 117:../USER/main_03.c **** 	//
 7031              		.loc 1 117 25 view .LVU2349
 7032 0ca2 B2F5807F 		cmp	r2, #256
 116:../USER/main_03.c **** 	if(kinbwp>=256) kinbwp = 0;
 7033              		.loc 1 116 63 view .LVU2350
 7034 0ca6 0868     		ldr	r0, [r1]
 117:../USER/main_03.c **** 	//
 7035              		.loc 1 117 25 view .LVU2351
 7036 0ca8 14BF     		ite	ne
 7037 0caa 1146     		movne	r1, r2
 7038 0cac 3946     		moveq	r1, r7
 116:../USER/main_03.c **** 	if(kinbwp>=256) kinbwp = 0;
 7039              		.loc 1 116 56 view .LVU2352
 7040 0cae 09F80300 		strb	r0, [r9, r3]
 117:../USER/main_03.c **** 	//
 7041              		.loc 1 117 2 is_stmt 1 view .LVU2353
 117:../USER/main_03.c **** 	//
 7042              		.loc 1 117 25 is_stmt 0 view .LVU2354
 7043 0cb2 C8F80010 		str	r1, [r8]
 7044              	.L427:
 117:../USER/main_03.c **** 	//
 7045              		.loc 1 117 25 view .LVU2355
 7046              	.LBE1428:
 7047              	.LBE1427:
 135:../USER/main_03.c **** 		}
 7048              		.loc 1 135 4 is_stmt 1 view .LVU2356
 135:../USER/main_03.c **** 		}
 7049              		.loc 1 135 13 is_stmt 0 view .LVU2357
 7050 0cb6 2846     		mov	r0, r5
 7051 0cb8 FFF7FEFF 		bl	GPIO_ReadBits
 7052              	.LVL466:
 135:../USER/main_03.c **** 		}
 7053              		.loc 1 135 11 view .LVU2358
 7054 0cbc 1490     		str	r0, [sp, #80]
 133:../USER/main_03.c **** 			key_check();
 7055              		.loc 1 133 17 view .LVU2359
 7056 0cbe 149B     		ldr	r3, [sp, #80]
 133:../USER/main_03.c **** 			key_check();
 7057              		.loc 1 133 8 view .LVU2360
 7058 0cc0 5904     		lsls	r1, r3, #17
 7059 0cc2 40F15981 		bpl	.L428
 7060              	.L422:
 134:../USER/main_03.c **** 			gpiord = GPIO_ReadBits(GPIO0);
 7061              		.loc 1 134 4 is_stmt 1 view .LVU2361
 7062              	.LBB1430:
 7063              	.LBI1427:
 109:../USER/main_03.c **** 	char ch;
 7064              		.loc 1 109 6 view .LVU2362
 7065              	.LBB1429:
 110:../USER/main_03.c **** 	//
 7066              		.loc 1 110 2 view .LVU2363
 112:../USER/main_03.c **** 	if(ch!=0) kinbuf[kinbwp++] = ch;
 7067              		.loc 1 112 2 view .LVU2364
 112:../USER/main_03.c **** 	if(ch!=0) kinbuf[kinbwp++] = ch;
 7068              		.loc 1 112 7 is_stmt 0 view .LVU2365
 7069 0cc6 FFF7FEFF 		bl	SPI_ReadData
 7070              	.LVL467:
 113:../USER/main_03.c **** 	if(kinbwp>=256) kinbwp = 0;
 7071              		.loc 1 113 12 is_stmt 1 view .LVU2366
 112:../USER/main_03.c **** 	if(ch!=0) kinbuf[kinbwp++] = ch;
 7072              		.loc 1 112 5 is_stmt 0 view .LVU2367
 7073 0cca 40B2     		sxtb	r0, r0
 7074              	.LVL468:
 113:../USER/main_03.c **** 	if(kinbwp>=256) kinbwp = 0;
 7075              		.loc 1 113 2 is_stmt 1 view .LVU2368
 113:../USER/main_03.c **** 	if(kinbwp>=256) kinbwp = 0;
 7076              		.loc 1 113 4 is_stmt 0 view .LVU2369
 7077 0ccc 0028     		cmp	r0, #0
 7078 0cce DBD0     		beq	.L1160
 113:../USER/main_03.c **** 	if(kinbwp>=256) kinbwp = 0;
 7079              		.loc 1 113 25 view .LVU2370
 7080 0cd0 D8F80020 		ldr	r2, [r8]
 7081 0cd4 531C     		adds	r3, r2, #1
 113:../USER/main_03.c **** 	if(kinbwp>=256) kinbwp = 0;
 7082              		.loc 1 113 29 view .LVU2371
 7083 0cd6 09F80200 		strb	r0, [r9, r2]
 113:../USER/main_03.c **** 	if(kinbwp>=256) kinbwp = 0;
 7084              		.loc 1 113 25 view .LVU2372
 7085 0cda C8F80030 		str	r3, [r8]
 7086 0cde D5E7     		b	.L424
 7087              	.LVL469:
 7088              	.L419:
 113:../USER/main_03.c **** 	if(kinbwp>=256) kinbwp = 0;
 7089              		.loc 1 113 25 view .LVU2373
 7090              	.LBE1429:
 7091              	.LBE1430:
 7092              	.LBE1426:
 7093              	.LBE1425:
 143:../USER/main_03.c **** void puth2(dt) int dt;{ puth((dt >> 4) & 0xf); puth(dt & 0xf); }
 7094              		.loc 1 143 55 is_stmt 1 view .LVU2374
 143:../USER/main_03.c **** void puth2(dt) int dt;{ puth((dt >> 4) & 0xf); puth(dt & 0xf); }
 7095              		.loc 1 143 65 is_stmt 0 view .LVU2375
 7096 0ce0 05F13702 		add	r2, r5, #55
 7097              	.LVL470:
 143:../USER/main_03.c **** void puth2(dt) int dt;{ puth((dt >> 4) & 0xf); puth(dt & 0xf); }
 7098              		.loc 1 143 65 view .LVU2376
 7099 0ce4 0492     		str	r2, [sp, #16]
 143:../USER/main_03.c **** void puth2(dt) int dt;{ puth((dt >> 4) & 0xf); puth(dt & 0xf); }
 7100              		.loc 1 143 55 view .LVU2377
 7101 0ce6 56B2     		sxtb	r6, r2
 7102              	.LVL471:
 7103              	.LBB1437:
 7104              	.LBI1437:
 127:../USER/main_03.c **** 	volatile uint32_t gpiord;
 7105              		.loc 1 127 6 is_stmt 1 view .LVU2378
 7106              	.LBB1438:
 128:../USER/main_03.c **** 	if((mdgpio & 0x2000)==0)
 7107              		.loc 1 128 2 view .LVU2379
 129:../USER/main_03.c **** 		UART_SendChar(UART0,ch);
 7108              		.loc 1 129 2 view .LVU2380
 129:../USER/main_03.c **** 		UART_SendChar(UART0,ch);
 7109              		.loc 1 129 4 is_stmt 0 view .LVU2381
 7110 0ce8 002B     		cmp	r3, #0
 7111 0cea 00F07F81 		beq	.L1161
 132:../USER/main_03.c **** 		while((gpiord & 0x4000)!=0) {
 7112              		.loc 1 132 3 is_stmt 1 view .LVU2382
 132:../USER/main_03.c **** 		while((gpiord & 0x4000)!=0) {
 7113              		.loc 1 132 10 is_stmt 0 view .LVU2383
 7114 0cee 4FF48043 		mov	r3, #16384
 7115 0cf2 1593     		str	r3, [sp, #84]
 133:../USER/main_03.c **** 			key_check();
 7116              		.loc 1 133 3 is_stmt 1 view .LVU2384
 133:../USER/main_03.c **** 			key_check();
 7117              		.loc 1 133 17 is_stmt 0 view .LVU2385
 7118 0cf4 159B     		ldr	r3, [sp, #84]
 133:../USER/main_03.c **** 			key_check();
 7119              		.loc 1 133 8 view .LVU2386
 7120 0cf6 5A04     		lsls	r2, r3, #17
 7121 0cf8 2CD5     		bpl	.L445
 135:../USER/main_03.c **** 		}
 7122              		.loc 1 135 13 view .LVU2387
 7123 0cfa 544D     		ldr	r5, .L1225
 7124 0cfc 1DE0     		b	.L439
 7125              	.LVL472:
 7126              	.L1162:
 135:../USER/main_03.c **** 		}
 7127              		.loc 1 135 13 view .LVU2388
 7128 0cfe D8F80030 		ldr	r3, [r8]
 7129              	.L441:
 7130              	.LBB1439:
 7131              	.LBB1440:
 114:../USER/main_03.c **** 	//
 7132              		.loc 1 114 2 is_stmt 1 view .LVU2389
 114:../USER/main_03.c **** 	//
 7133              		.loc 1 114 18 view .LVU2390
 114:../USER/main_03.c **** 	//
 7134              		.loc 1 114 4 is_stmt 0 view .LVU2391
 7135 0d02 FF2B     		cmp	r3, #255
 7136 0d04 02DD     		ble	.L442
 114:../USER/main_03.c **** 	//
 7137              		.loc 1 114 25 view .LVU2392
 7138 0d06 0023     		movs	r3, #0
 7139 0d08 C8F80070 		str	r7, [r8]
 7140              	.L442:
 116:../USER/main_03.c **** 	if(kinbwp>=256) kinbwp = 0;
 7141              		.loc 1 116 39 is_stmt 1 view .LVU2393
 116:../USER/main_03.c **** 	if(kinbwp>=256) kinbwp = 0;
 7142              		.loc 1 116 2 view .LVU2394
 116:../USER/main_03.c **** 	if(kinbwp>=256) kinbwp = 0;
 7143              		.loc 1 116 11 is_stmt 0 view .LVU2395
 7144 0d0c 4FF04021 		mov	r1, #1073758208
 7145 0d10 4868     		ldr	r0, [r1, #4]
 7146              	.LVL473:
 116:../USER/main_03.c **** 	if(kinbwp>=256) kinbwp = 0;
 7147              		.loc 1 116 52 view .LVU2396
 7148 0d12 5A1C     		adds	r2, r3, #1
 116:../USER/main_03.c **** 	if(kinbwp>=256) kinbwp = 0;
 7149              		.loc 1 116 4 view .LVU2397
 7150 0d14 8007     		lsls	r0, r0, #30
 7151 0d16 09D5     		bpl	.L444
 117:../USER/main_03.c **** 	//
 7152              		.loc 1 117 25 view .LVU2398
 7153 0d18 B2F5807F 		cmp	r2, #256
 116:../USER/main_03.c **** 	if(kinbwp>=256) kinbwp = 0;
 7154              		.loc 1 116 63 view .LVU2399
 7155 0d1c 0868     		ldr	r0, [r1]
 117:../USER/main_03.c **** 	//
 7156              		.loc 1 117 25 view .LVU2400
 7157 0d1e 14BF     		ite	ne
 7158 0d20 1146     		movne	r1, r2
 7159 0d22 3946     		moveq	r1, r7
 116:../USER/main_03.c **** 	if(kinbwp>=256) kinbwp = 0;
 7160              		.loc 1 116 56 view .LVU2401
 7161 0d24 09F80300 		strb	r0, [r9, r3]
 117:../USER/main_03.c **** 	//
 7162              		.loc 1 117 2 is_stmt 1 view .LVU2402
 117:../USER/main_03.c **** 	//
 7163              		.loc 1 117 25 is_stmt 0 view .LVU2403
 7164 0d28 C8F80010 		str	r1, [r8]
 7165              	.L444:
 117:../USER/main_03.c **** 	//
 7166              		.loc 1 117 25 view .LVU2404
 7167              	.LBE1440:
 7168              	.LBE1439:
 135:../USER/main_03.c **** 		}
 7169              		.loc 1 135 4 is_stmt 1 view .LVU2405
 135:../USER/main_03.c **** 		}
 7170              		.loc 1 135 13 is_stmt 0 view .LVU2406
 7171 0d2c 2846     		mov	r0, r5
 7172 0d2e FFF7FEFF 		bl	GPIO_ReadBits
 7173              	.LVL474:
 135:../USER/main_03.c **** 		}
 7174              		.loc 1 135 11 view .LVU2407
 7175 0d32 1590     		str	r0, [sp, #84]
 133:../USER/main_03.c **** 			key_check();
 7176              		.loc 1 133 17 view .LVU2408
 7177 0d34 159B     		ldr	r3, [sp, #84]
 133:../USER/main_03.c **** 			key_check();
 7178              		.loc 1 133 8 view .LVU2409
 7179 0d36 5B04     		lsls	r3, r3, #17
 7180 0d38 0CD5     		bpl	.L445
 7181              	.L439:
 134:../USER/main_03.c **** 			gpiord = GPIO_ReadBits(GPIO0);
 7182              		.loc 1 134 4 is_stmt 1 view .LVU2410
 7183              	.LBB1442:
 7184              	.LBI1439:
 109:../USER/main_03.c **** 	char ch;
 7185              		.loc 1 109 6 view .LVU2411
 7186              	.LBB1441:
 110:../USER/main_03.c **** 	//
 7187              		.loc 1 110 2 view .LVU2412
 112:../USER/main_03.c **** 	if(ch!=0) kinbuf[kinbwp++] = ch;
 7188              		.loc 1 112 2 view .LVU2413
 112:../USER/main_03.c **** 	if(ch!=0) kinbuf[kinbwp++] = ch;
 7189              		.loc 1 112 7 is_stmt 0 view .LVU2414
 7190 0d3a FFF7FEFF 		bl	SPI_ReadData
 7191              	.LVL475:
 113:../USER/main_03.c **** 	if(kinbwp>=256) kinbwp = 0;
 7192              		.loc 1 113 12 is_stmt 1 view .LVU2415
 112:../USER/main_03.c **** 	if(ch!=0) kinbuf[kinbwp++] = ch;
 7193              		.loc 1 112 5 is_stmt 0 view .LVU2416
 7194 0d3e 40B2     		sxtb	r0, r0
 7195              	.LVL476:
 113:../USER/main_03.c **** 	if(kinbwp>=256) kinbwp = 0;
 7196              		.loc 1 113 2 is_stmt 1 view .LVU2417
 113:../USER/main_03.c **** 	if(kinbwp>=256) kinbwp = 0;
 7197              		.loc 1 113 4 is_stmt 0 view .LVU2418
 7198 0d40 0028     		cmp	r0, #0
 7199 0d42 DCD0     		beq	.L1162
 113:../USER/main_03.c **** 	if(kinbwp>=256) kinbwp = 0;
 7200              		.loc 1 113 25 view .LVU2419
 7201 0d44 D8F80020 		ldr	r2, [r8]
 7202 0d48 531C     		adds	r3, r2, #1
 113:../USER/main_03.c **** 	if(kinbwp>=256) kinbwp = 0;
 7203              		.loc 1 113 29 view .LVU2420
 7204 0d4a 09F80200 		strb	r0, [r9, r2]
 113:../USER/main_03.c **** 	if(kinbwp>=256) kinbwp = 0;
 7205              		.loc 1 113 25 view .LVU2421
 7206 0d4e C8F80030 		str	r3, [r8]
 7207 0d52 D6E7     		b	.L441
 7208              	.LVL477:
 7209              	.L445:
 113:../USER/main_03.c **** 	if(kinbwp>=256) kinbwp = 0;
 7210              		.loc 1 113 25 view .LVU2422
 7211              	.LBE1441:
 7212              	.LBE1442:
 137:../USER/main_03.c **** 	}
 7213              		.loc 1 137 3 is_stmt 1 view .LVU2423
 7214 0d54 0498     		ldr	r0, [sp, #16]
 7215 0d56 FFF7FEFF 		bl	SPI_WriteData
 7216              	.LVL478:
 7217              	.L438:
 7218              	.LBB1443:
 7219              	.LBB1444:
 116:../USER/main_03.c **** 	if(kinbwp>=256) kinbwp = 0;
 7220              		.loc 1 116 11 is_stmt 0 view .LVU2424
 7221 0d5a 4FF04025 		mov	r5, #1073758208
 7222 0d5e 18E0     		b	.L451
 7223              	.LVL479:
 7224              	.L1163:
 116:../USER/main_03.c **** 	if(kinbwp>=256) kinbwp = 0;
 7225              		.loc 1 116 11 view .LVU2425
 7226 0d60 D8F80030 		ldr	r3, [r8]
 7227              	.L447:
 114:../USER/main_03.c **** 	//
 7228              		.loc 1 114 2 is_stmt 1 view .LVU2426
 114:../USER/main_03.c **** 	//
 7229              		.loc 1 114 18 view .LVU2427
 114:../USER/main_03.c **** 	//
 7230              		.loc 1 114 4 is_stmt 0 view .LVU2428
 7231 0d64 FF2B     		cmp	r3, #255
 7232 0d66 02DD     		ble	.L448
 114:../USER/main_03.c **** 	//
 7233              		.loc 1 114 25 view .LVU2429
 7234 0d68 0023     		movs	r3, #0
 7235 0d6a C8F80070 		str	r7, [r8]
 7236              	.L448:
 116:../USER/main_03.c **** 	if(kinbwp>=256) kinbwp = 0;
 7237              		.loc 1 116 39 is_stmt 1 view .LVU2430
 116:../USER/main_03.c **** 	if(kinbwp>=256) kinbwp = 0;
 7238              		.loc 1 116 2 view .LVU2431
 116:../USER/main_03.c **** 	if(kinbwp>=256) kinbwp = 0;
 7239              		.loc 1 116 11 is_stmt 0 view .LVU2432
 7240 0d6e 6968     		ldr	r1, [r5, #4]
 116:../USER/main_03.c **** 	if(kinbwp>=256) kinbwp = 0;
 7241              		.loc 1 116 52 view .LVU2433
 7242 0d70 5A1C     		adds	r2, r3, #1
 116:../USER/main_03.c **** 	if(kinbwp>=256) kinbwp = 0;
 7243              		.loc 1 116 4 view .LVU2434
 7244 0d72 8807     		lsls	r0, r1, #30
 7245              	.LVL480:
 116:../USER/main_03.c **** 	if(kinbwp>=256) kinbwp = 0;
 7246              		.loc 1 116 4 view .LVU2435
 7247 0d74 09D5     		bpl	.L450
 117:../USER/main_03.c **** 	//
 7248              		.loc 1 117 25 view .LVU2436
 7249 0d76 B2F5807F 		cmp	r2, #256
 7250 0d7a 14BF     		ite	ne
 7251 0d7c 1146     		movne	r1, r2
 7252 0d7e 3946     		moveq	r1, r7
 116:../USER/main_03.c **** 	if(kinbwp>=256) kinbwp = 0;
 7253              		.loc 1 116 63 view .LVU2437
 7254 0d80 2868     		ldr	r0, [r5]
 117:../USER/main_03.c **** 	//
 7255              		.loc 1 117 25 view .LVU2438
 7256 0d82 C8F80010 		str	r1, [r8]
 116:../USER/main_03.c **** 	if(kinbwp>=256) kinbwp = 0;
 7257              		.loc 1 116 56 view .LVU2439
 7258 0d86 09F80300 		strb	r0, [r9, r3]
 117:../USER/main_03.c **** 	//
 7259              		.loc 1 117 2 is_stmt 1 view .LVU2440
 7260              	.L450:
 117:../USER/main_03.c **** 	//
 7261              		.loc 1 117 2 is_stmt 0 view .LVU2441
 7262              	.LBE1444:
 7263              	.LBE1443:
 140:../USER/main_03.c **** }
 7264              		.loc 1 140 27 is_stmt 1 view .LVU2442
 140:../USER/main_03.c **** }
 7265              		.loc 1 140 32 is_stmt 0 view .LVU2443
 7266 0d8a 3046     		mov	r0, r6
 7267 0d8c FFF7FEFF 		bl	disp_vram
 7268              	.LVL481:
 140:../USER/main_03.c **** }
 7269              		.loc 1 140 2 view .LVU2444
 7270 0d90 60B1     		cbz	r0, .L452
 7271              	.LVL482:
 7272              	.L451:
 140:../USER/main_03.c **** }
 7273              		.loc 1 140 2 is_stmt 1 view .LVU2445
 140:../USER/main_03.c **** }
 7274              		.loc 1 140 10 view .LVU2446
 140:../USER/main_03.c **** }
 7275              		.loc 1 140 14 view .LVU2447
 7276              	.LBB1446:
 7277              	.LBI1443:
 109:../USER/main_03.c **** 	char ch;
 7278              		.loc 1 109 6 view .LVU2448
 7279              	.LBB1445:
 110:../USER/main_03.c **** 	//
 7280              		.loc 1 110 2 view .LVU2449
 112:../USER/main_03.c **** 	if(ch!=0) kinbuf[kinbwp++] = ch;
 7281              		.loc 1 112 2 view .LVU2450
 112:../USER/main_03.c **** 	if(ch!=0) kinbuf[kinbwp++] = ch;
 7282              		.loc 1 112 7 is_stmt 0 view .LVU2451
 7283 0d92 FFF7FEFF 		bl	SPI_ReadData
 7284              	.LVL483:
 113:../USER/main_03.c **** 	if(kinbwp>=256) kinbwp = 0;
 7285              		.loc 1 113 12 is_stmt 1 view .LVU2452
 112:../USER/main_03.c **** 	if(ch!=0) kinbuf[kinbwp++] = ch;
 7286              		.loc 1 112 5 is_stmt 0 view .LVU2453
 7287 0d96 40B2     		sxtb	r0, r0
 7288              	.LVL484:
 113:../USER/main_03.c **** 	if(kinbwp>=256) kinbwp = 0;
 7289              		.loc 1 113 2 is_stmt 1 view .LVU2454
 113:../USER/main_03.c **** 	if(kinbwp>=256) kinbwp = 0;
 7290              		.loc 1 113 4 is_stmt 0 view .LVU2455
 7291 0d98 0028     		cmp	r0, #0
 7292 0d9a E1D0     		beq	.L1163
 113:../USER/main_03.c **** 	if(kinbwp>=256) kinbwp = 0;
 7293              		.loc 1 113 25 view .LVU2456
 7294 0d9c D8F80020 		ldr	r2, [r8]
 7295 0da0 531C     		adds	r3, r2, #1
 113:../USER/main_03.c **** 	if(kinbwp>=256) kinbwp = 0;
 7296              		.loc 1 113 29 view .LVU2457
 7297 0da2 09F80200 		strb	r0, [r9, r2]
 113:../USER/main_03.c **** 	if(kinbwp>=256) kinbwp = 0;
 7298              		.loc 1 113 25 view .LVU2458
 7299 0da6 C8F80030 		str	r3, [r8]
 7300 0daa DBE7     		b	.L447
 7301              	.LVL485:
 7302              	.L452:
 113:../USER/main_03.c **** 	if(kinbwp>=256) kinbwp = 0;
 7303              		.loc 1 113 25 view .LVU2459
 7304              	.LBE1445:
 7305              	.LBE1446:
 7306              	.LBE1438:
 7307              	.LBE1437:
 7308              	.LBE1424:
 7309              	.LBE1423:
 144:../USER/main_03.c **** void puth4(dt) int dt;{ puth2((dt >> 8) & 0xff); puth2(dt & 0xff); }
 7310              		.loc 1 144 48 is_stmt 1 view .LVU2460
 7311 0dac DAF80030 		ldr	r3, [r10]
 7312 0db0 04F00F04 		and	r4, r4, #15
 7313              	.LVL486:
 7314              	.LBB1453:
 7315              	.LBI1453:
 143:../USER/main_03.c **** void puth2(dt) int dt;{ puth((dt >> 4) & 0xf); puth(dt & 0xf); }
 7316              		.loc 1 143 6 view .LVU2461
 7317              	.LBB1454:
 143:../USER/main_03.c **** void puth2(dt) int dt;{ puth((dt >> 4) & 0xf); puth(dt & 0xf); }
 7318              		.loc 1 143 24 view .LVU2462
 143:../USER/main_03.c **** void puth2(dt) int dt;{ puth((dt >> 4) & 0xf); puth(dt & 0xf); }
 7319              		.loc 1 143 26 is_stmt 0 view .LVU2463
 7320 0db4 092C     		cmp	r4, #9
 7321 0db6 03F40053 		and	r3, r3, #8192
 7322 0dba 39D8     		bhi	.L1164
 143:../USER/main_03.c **** void puth2(dt) int dt;{ puth((dt >> 4) & 0xf); puth(dt & 0xf); }
 7323              		.loc 1 143 34 is_stmt 1 view .LVU2464
 143:../USER/main_03.c **** void puth2(dt) int dt;{ puth((dt >> 4) & 0xf); puth(dt & 0xf); }
 7324              		.loc 1 143 44 is_stmt 0 view .LVU2465
 7325 0dbc 3034     		adds	r4, r4, #48
 7326              	.LVL487:
 143:../USER/main_03.c **** void puth2(dt) int dt;{ puth((dt >> 4) & 0xf); puth(dt & 0xf); }
 7327              		.loc 1 143 34 view .LVU2466
 7328 0dbe 65B2     		sxtb	r5, r4
 7329              	.LVL488:
 7330              	.LBB1455:
 7331              	.LBI1455:
 127:../USER/main_03.c **** 	volatile uint32_t gpiord;
 7332              		.loc 1 127 6 is_stmt 1 view .LVU2467
 7333              	.LBB1456:
 128:../USER/main_03.c **** 	if((mdgpio & 0x2000)==0)
 7334              		.loc 1 128 2 view .LVU2468
 129:../USER/main_03.c **** 		UART_SendChar(UART0,ch);
 7335              		.loc 1 129 2 view .LVU2469
 129:../USER/main_03.c **** 		UART_SendChar(UART0,ch);
 7336              		.loc 1 129 4 is_stmt 0 view .LVU2470
 7337 0dc0 002B     		cmp	r3, #0
 7338 0dc2 00F01F81 		beq	.L1165
 132:../USER/main_03.c **** 		while((gpiord & 0x4000)!=0) {
 7339              		.loc 1 132 3 is_stmt 1 view .LVU2471
 132:../USER/main_03.c **** 		while((gpiord & 0x4000)!=0) {
 7340              		.loc 1 132 10 is_stmt 0 view .LVU2472
 7341 0dc6 4FF48043 		mov	r3, #16384
 7342 0dca 1693     		str	r3, [sp, #88]
 133:../USER/main_03.c **** 			key_check();
 7343              		.loc 1 133 3 is_stmt 1 view .LVU2473
 133:../USER/main_03.c **** 			key_check();
 7344              		.loc 1 133 17 is_stmt 0 view .LVU2474
 7345 0dcc 169B     		ldr	r3, [sp, #88]
 133:../USER/main_03.c **** 			key_check();
 7346              		.loc 1 133 8 view .LVU2475
 7347 0dce 5804     		lsls	r0, r3, #17
 7348 0dd0 40F1A480 		bpl	.L461
 135:../USER/main_03.c **** 		}
 7349              		.loc 1 135 13 view .LVU2476
 7350 0dd4 1D4E     		ldr	r6, .L1225
 7351 0dd6 1EE0     		b	.L455
 7352              	.LVL489:
 7353              	.L1166:
 135:../USER/main_03.c **** 		}
 7354              		.loc 1 135 13 view .LVU2477
 7355 0dd8 D8F80030 		ldr	r3, [r8]
 7356              	.L457:
 7357              	.LBB1457:
 7358              	.LBB1458:
 114:../USER/main_03.c **** 	//
 7359              		.loc 1 114 2 is_stmt 1 view .LVU2478
 114:../USER/main_03.c **** 	//
 7360              		.loc 1 114 18 view .LVU2479
 114:../USER/main_03.c **** 	//
 7361              		.loc 1 114 4 is_stmt 0 view .LVU2480
 7362 0ddc FF2B     		cmp	r3, #255
 7363 0dde 02DD     		ble	.L458
 114:../USER/main_03.c **** 	//
 7364              		.loc 1 114 25 view .LVU2481
 7365 0de0 0023     		movs	r3, #0
 7366 0de2 C8F80070 		str	r7, [r8]
 7367              	.L458:
 116:../USER/main_03.c **** 	if(kinbwp>=256) kinbwp = 0;
 7368              		.loc 1 116 39 is_stmt 1 view .LVU2482
 116:../USER/main_03.c **** 	if(kinbwp>=256) kinbwp = 0;
 7369              		.loc 1 116 2 view .LVU2483
 116:../USER/main_03.c **** 	if(kinbwp>=256) kinbwp = 0;
 7370              		.loc 1 116 11 is_stmt 0 view .LVU2484
 7371 0de6 4FF04021 		mov	r1, #1073758208
 7372 0dea 4868     		ldr	r0, [r1, #4]
 7373              	.LVL490:
 116:../USER/main_03.c **** 	if(kinbwp>=256) kinbwp = 0;
 7374              		.loc 1 116 52 view .LVU2485
 7375 0dec 5A1C     		adds	r2, r3, #1
 116:../USER/main_03.c **** 	if(kinbwp>=256) kinbwp = 0;
 7376              		.loc 1 116 4 view .LVU2486
 7377 0dee 8007     		lsls	r0, r0, #30
 7378 0df0 09D5     		bpl	.L460
 117:../USER/main_03.c **** 	//
 7379              		.loc 1 117 25 view .LVU2487
 7380 0df2 B2F5807F 		cmp	r2, #256
 116:../USER/main_03.c **** 	if(kinbwp>=256) kinbwp = 0;
 7381              		.loc 1 116 63 view .LVU2488
 7382 0df6 0868     		ldr	r0, [r1]
 117:../USER/main_03.c **** 	//
 7383              		.loc 1 117 25 view .LVU2489
 7384 0df8 14BF     		ite	ne
 7385 0dfa 1146     		movne	r1, r2
 7386 0dfc 3946     		moveq	r1, r7
 116:../USER/main_03.c **** 	if(kinbwp>=256) kinbwp = 0;
 7387              		.loc 1 116 56 view .LVU2490
 7388 0dfe 09F80300 		strb	r0, [r9, r3]
 117:../USER/main_03.c **** 	//
 7389              		.loc 1 117 2 is_stmt 1 view .LVU2491
 117:../USER/main_03.c **** 	//
 7390              		.loc 1 117 25 is_stmt 0 view .LVU2492
 7391 0e02 C8F80010 		str	r1, [r8]
 7392              	.L460:
 117:../USER/main_03.c **** 	//
 7393              		.loc 1 117 25 view .LVU2493
 7394              	.LBE1458:
 7395              	.LBE1457:
 135:../USER/main_03.c **** 		}
 7396              		.loc 1 135 4 is_stmt 1 view .LVU2494
 135:../USER/main_03.c **** 		}
 7397              		.loc 1 135 13 is_stmt 0 view .LVU2495
 7398 0e06 3046     		mov	r0, r6
 7399 0e08 FFF7FEFF 		bl	GPIO_ReadBits
 7400              	.LVL491:
 135:../USER/main_03.c **** 		}
 7401              		.loc 1 135 11 view .LVU2496
 7402 0e0c 1690     		str	r0, [sp, #88]
 133:../USER/main_03.c **** 			key_check();
 7403              		.loc 1 133 17 view .LVU2497
 7404 0e0e 169B     		ldr	r3, [sp, #88]
 133:../USER/main_03.c **** 			key_check();
 7405              		.loc 1 133 8 view .LVU2498
 7406 0e10 5904     		lsls	r1, r3, #17
 7407 0e12 40F18380 		bpl	.L461
 7408              	.L455:
 134:../USER/main_03.c **** 			gpiord = GPIO_ReadBits(GPIO0);
 7409              		.loc 1 134 4 is_stmt 1 view .LVU2499
 7410              	.LBB1460:
 7411              	.LBI1457:
 109:../USER/main_03.c **** 	char ch;
 7412              		.loc 1 109 6 view .LVU2500
 7413              	.LBB1459:
 110:../USER/main_03.c **** 	//
 7414              		.loc 1 110 2 view .LVU2501
 112:../USER/main_03.c **** 	if(ch!=0) kinbuf[kinbwp++] = ch;
 7415              		.loc 1 112 2 view .LVU2502
 112:../USER/main_03.c **** 	if(ch!=0) kinbuf[kinbwp++] = ch;
 7416              		.loc 1 112 7 is_stmt 0 view .LVU2503
 7417 0e16 FFF7FEFF 		bl	SPI_ReadData
 7418              	.LVL492:
 113:../USER/main_03.c **** 	if(kinbwp>=256) kinbwp = 0;
 7419              		.loc 1 113 12 is_stmt 1 view .LVU2504
 112:../USER/main_03.c **** 	if(ch!=0) kinbuf[kinbwp++] = ch;
 7420              		.loc 1 112 5 is_stmt 0 view .LVU2505
 7421 0e1a 40B2     		sxtb	r0, r0
 7422              	.LVL493:
 113:../USER/main_03.c **** 	if(kinbwp>=256) kinbwp = 0;
 7423              		.loc 1 113 2 is_stmt 1 view .LVU2506
 113:../USER/main_03.c **** 	if(kinbwp>=256) kinbwp = 0;
 7424              		.loc 1 113 4 is_stmt 0 view .LVU2507
 7425 0e1c 0028     		cmp	r0, #0
 7426 0e1e DBD0     		beq	.L1166
 113:../USER/main_03.c **** 	if(kinbwp>=256) kinbwp = 0;
 7427              		.loc 1 113 25 view .LVU2508
 7428 0e20 D8F80020 		ldr	r2, [r8]
 7429 0e24 531C     		adds	r3, r2, #1
 113:../USER/main_03.c **** 	if(kinbwp>=256) kinbwp = 0;
 7430              		.loc 1 113 29 view .LVU2509
 7431 0e26 09F80200 		strb	r0, [r9, r2]
 113:../USER/main_03.c **** 	if(kinbwp>=256) kinbwp = 0;
 7432              		.loc 1 113 25 view .LVU2510
 7433 0e2a C8F80030 		str	r3, [r8]
 7434 0e2e D5E7     		b	.L457
 7435              	.LVL494:
 7436              	.L1164:
 113:../USER/main_03.c **** 	if(kinbwp>=256) kinbwp = 0;
 7437              		.loc 1 113 25 view .LVU2511
 7438              	.LBE1459:
 7439              	.LBE1460:
 7440              	.LBE1456:
 7441              	.LBE1455:
 143:../USER/main_03.c **** void puth2(dt) int dt;{ puth((dt >> 4) & 0xf); puth(dt & 0xf); }
 7442              		.loc 1 143 55 is_stmt 1 view .LVU2512
 143:../USER/main_03.c **** void puth2(dt) int dt;{ puth((dt >> 4) & 0xf); puth(dt & 0xf); }
 7443              		.loc 1 143 65 is_stmt 0 view .LVU2513
 7444 0e30 3734     		adds	r4, r4, #55
 7445              	.LVL495:
 143:../USER/main_03.c **** void puth2(dt) int dt;{ puth((dt >> 4) & 0xf); puth(dt & 0xf); }
 7446              		.loc 1 143 55 view .LVU2514
 7447 0e32 65B2     		sxtb	r5, r4
 7448              	.LVL496:
 7449              	.LBB1467:
 7450              	.LBI1467:
 127:../USER/main_03.c **** 	volatile uint32_t gpiord;
 7451              		.loc 1 127 6 is_stmt 1 view .LVU2515
 7452              	.LBB1468:
 128:../USER/main_03.c **** 	if((mdgpio & 0x2000)==0)
 7453              		.loc 1 128 2 view .LVU2516
 129:../USER/main_03.c **** 		UART_SendChar(UART0,ch);
 7454              		.loc 1 129 2 view .LVU2517
 129:../USER/main_03.c **** 		UART_SendChar(UART0,ch);
 7455              		.loc 1 129 4 is_stmt 0 view .LVU2518
 7456 0e34 002B     		cmp	r3, #0
 7457 0e36 00F0DF80 		beq	.L1167
 132:../USER/main_03.c **** 		while((gpiord & 0x4000)!=0) {
 7458              		.loc 1 132 3 is_stmt 1 view .LVU2519
 132:../USER/main_03.c **** 		while((gpiord & 0x4000)!=0) {
 7459              		.loc 1 132 10 is_stmt 0 view .LVU2520
 7460 0e3a 4FF48043 		mov	r3, #16384
 7461 0e3e 1793     		str	r3, [sp, #92]
 133:../USER/main_03.c **** 			key_check();
 7462              		.loc 1 133 3 is_stmt 1 view .LVU2521
 133:../USER/main_03.c **** 			key_check();
 7463              		.loc 1 133 17 is_stmt 0 view .LVU2522
 7464 0e40 179B     		ldr	r3, [sp, #92]
 133:../USER/main_03.c **** 			key_check();
 7465              		.loc 1 133 8 view .LVU2523
 7466 0e42 5A04     		lsls	r2, r3, #17
 7467 0e44 2FD5     		bpl	.L478
 135:../USER/main_03.c **** 		}
 7468              		.loc 1 135 13 view .LVU2524
 7469 0e46 014E     		ldr	r6, .L1225
 7470 0e48 20E0     		b	.L472
 7471              	.L1226:
 7472 0e4a 00BF     		.align	2
 7473              	.L1225:
 7474 0e4c 00000140 		.word	1073807360
 7475              	.LVL497:
 7476              	.L1168:
 135:../USER/main_03.c **** 		}
 7477              		.loc 1 135 13 view .LVU2525
 7478 0e50 D8F80030 		ldr	r3, [r8]
 7479              	.L474:
 7480              	.LBB1469:
 7481              	.LBB1470:
 114:../USER/main_03.c **** 	//
 7482              		.loc 1 114 2 is_stmt 1 view .LVU2526
 114:../USER/main_03.c **** 	//
 7483              		.loc 1 114 18 view .LVU2527
 114:../USER/main_03.c **** 	//
 7484              		.loc 1 114 4 is_stmt 0 view .LVU2528
 7485 0e54 FF2B     		cmp	r3, #255
 7486 0e56 02DD     		ble	.L475
 114:../USER/main_03.c **** 	//
 7487              		.loc 1 114 25 view .LVU2529
 7488 0e58 0023     		movs	r3, #0
 7489 0e5a C8F80070 		str	r7, [r8]
 7490              	.L475:
 116:../USER/main_03.c **** 	if(kinbwp>=256) kinbwp = 0;
 7491              		.loc 1 116 39 is_stmt 1 view .LVU2530
 116:../USER/main_03.c **** 	if(kinbwp>=256) kinbwp = 0;
 7492              		.loc 1 116 2 view .LVU2531
 116:../USER/main_03.c **** 	if(kinbwp>=256) kinbwp = 0;
 7493              		.loc 1 116 11 is_stmt 0 view .LVU2532
 7494 0e5e 4FF04021 		mov	r1, #1073758208
 7495 0e62 4868     		ldr	r0, [r1, #4]
 7496              	.LVL498:
 116:../USER/main_03.c **** 	if(kinbwp>=256) kinbwp = 0;
 7497              		.loc 1 116 52 view .LVU2533
 7498 0e64 5A1C     		adds	r2, r3, #1
 116:../USER/main_03.c **** 	if(kinbwp>=256) kinbwp = 0;
 7499              		.loc 1 116 4 view .LVU2534
 7500 0e66 8007     		lsls	r0, r0, #30
 7501 0e68 09D5     		bpl	.L477
 117:../USER/main_03.c **** 	//
 7502              		.loc 1 117 25 view .LVU2535
 7503 0e6a B2F5807F 		cmp	r2, #256
 116:../USER/main_03.c **** 	if(kinbwp>=256) kinbwp = 0;
 7504              		.loc 1 116 63 view .LVU2536
 7505 0e6e 0868     		ldr	r0, [r1]
 117:../USER/main_03.c **** 	//
 7506              		.loc 1 117 25 view .LVU2537
 7507 0e70 14BF     		ite	ne
 7508 0e72 1146     		movne	r1, r2
 7509 0e74 3946     		moveq	r1, r7
 116:../USER/main_03.c **** 	if(kinbwp>=256) kinbwp = 0;
 7510              		.loc 1 116 56 view .LVU2538
 7511 0e76 09F80300 		strb	r0, [r9, r3]
 117:../USER/main_03.c **** 	//
 7512              		.loc 1 117 2 is_stmt 1 view .LVU2539
 117:../USER/main_03.c **** 	//
 7513              		.loc 1 117 25 is_stmt 0 view .LVU2540
 7514 0e7a C8F80010 		str	r1, [r8]
 7515              	.L477:
 117:../USER/main_03.c **** 	//
 7516              		.loc 1 117 25 view .LVU2541
 7517              	.LBE1470:
 7518              	.LBE1469:
 135:../USER/main_03.c **** 		}
 7519              		.loc 1 135 4 is_stmt 1 view .LVU2542
 135:../USER/main_03.c **** 		}
 7520              		.loc 1 135 13 is_stmt 0 view .LVU2543
 7521 0e7e 3046     		mov	r0, r6
 7522 0e80 FFF7FEFF 		bl	GPIO_ReadBits
 7523              	.LVL499:
 135:../USER/main_03.c **** 		}
 7524              		.loc 1 135 11 view .LVU2544
 7525 0e84 1790     		str	r0, [sp, #92]
 133:../USER/main_03.c **** 			key_check();
 7526              		.loc 1 133 17 view .LVU2545
 7527 0e86 179B     		ldr	r3, [sp, #92]
 133:../USER/main_03.c **** 			key_check();
 7528              		.loc 1 133 8 view .LVU2546
 7529 0e88 5B04     		lsls	r3, r3, #17
 7530 0e8a 0CD5     		bpl	.L478
 7531              	.L472:
 134:../USER/main_03.c **** 			gpiord = GPIO_ReadBits(GPIO0);
 7532              		.loc 1 134 4 is_stmt 1 view .LVU2547
 7533              	.LBB1472:
 7534              	.LBI1469:
 109:../USER/main_03.c **** 	char ch;
 7535              		.loc 1 109 6 view .LVU2548
 7536              	.LBB1471:
 110:../USER/main_03.c **** 	//
 7537              		.loc 1 110 2 view .LVU2549
 112:../USER/main_03.c **** 	if(ch!=0) kinbuf[kinbwp++] = ch;
 7538              		.loc 1 112 2 view .LVU2550
 112:../USER/main_03.c **** 	if(ch!=0) kinbuf[kinbwp++] = ch;
 7539              		.loc 1 112 7 is_stmt 0 view .LVU2551
 7540 0e8c FFF7FEFF 		bl	SPI_ReadData
 7541              	.LVL500:
 113:../USER/main_03.c **** 	if(kinbwp>=256) kinbwp = 0;
 7542              		.loc 1 113 12 is_stmt 1 view .LVU2552
 112:../USER/main_03.c **** 	if(ch!=0) kinbuf[kinbwp++] = ch;
 7543              		.loc 1 112 5 is_stmt 0 view .LVU2553
 7544 0e90 40B2     		sxtb	r0, r0
 7545              	.LVL501:
 113:../USER/main_03.c **** 	if(kinbwp>=256) kinbwp = 0;
 7546              		.loc 1 113 2 is_stmt 1 view .LVU2554
 113:../USER/main_03.c **** 	if(kinbwp>=256) kinbwp = 0;
 7547              		.loc 1 113 4 is_stmt 0 view .LVU2555
 7548 0e92 0028     		cmp	r0, #0
 7549 0e94 DCD0     		beq	.L1168
 113:../USER/main_03.c **** 	if(kinbwp>=256) kinbwp = 0;
 7550              		.loc 1 113 25 view .LVU2556
 7551 0e96 D8F80020 		ldr	r2, [r8]
 7552 0e9a 531C     		adds	r3, r2, #1
 113:../USER/main_03.c **** 	if(kinbwp>=256) kinbwp = 0;
 7553              		.loc 1 113 29 view .LVU2557
 7554 0e9c 09F80200 		strb	r0, [r9, r2]
 113:../USER/main_03.c **** 	if(kinbwp>=256) kinbwp = 0;
 7555              		.loc 1 113 25 view .LVU2558
 7556 0ea0 C8F80030 		str	r3, [r8]
 7557 0ea4 D6E7     		b	.L474
 7558              	.LVL502:
 7559              	.L478:
 113:../USER/main_03.c **** 	if(kinbwp>=256) kinbwp = 0;
 7560              		.loc 1 113 25 view .LVU2559
 7561              	.LBE1471:
 7562              	.LBE1472:
 137:../USER/main_03.c **** 	}
 7563              		.loc 1 137 3 is_stmt 1 view .LVU2560
 7564 0ea6 2046     		mov	r0, r4
 7565 0ea8 FFF7FEFF 		bl	SPI_WriteData
 7566              	.LVL503:
 7567              	.L471:
 7568              	.LBB1473:
 7569              	.LBB1474:
 116:../USER/main_03.c **** 	if(kinbwp>=256) kinbwp = 0;
 7570              		.loc 1 116 11 is_stmt 0 view .LVU2561
 7571 0eac 4FF04024 		mov	r4, #1073758208
 7572              	.LVL504:
 116:../USER/main_03.c **** 	if(kinbwp>=256) kinbwp = 0;
 7573              		.loc 1 116 11 view .LVU2562
 7574 0eb0 1AE0     		b	.L484
 7575              	.LVL505:
 7576              	.L1169:
 116:../USER/main_03.c **** 	if(kinbwp>=256) kinbwp = 0;
 7577              		.loc 1 116 11 view .LVU2563
 7578 0eb2 D8F80030 		ldr	r3, [r8]
 7579              	.L480:
 114:../USER/main_03.c **** 	//
 7580              		.loc 1 114 2 is_stmt 1 view .LVU2564
 114:../USER/main_03.c **** 	//
 7581              		.loc 1 114 18 view .LVU2565
 114:../USER/main_03.c **** 	//
 7582              		.loc 1 114 4 is_stmt 0 view .LVU2566
 7583 0eb6 FF2B     		cmp	r3, #255
 7584 0eb8 02DD     		ble	.L481
 114:../USER/main_03.c **** 	//
 7585              		.loc 1 114 25 view .LVU2567
 7586 0eba 0023     		movs	r3, #0
 7587 0ebc C8F80070 		str	r7, [r8]
 7588              	.L481:
 116:../USER/main_03.c **** 	if(kinbwp>=256) kinbwp = 0;
 7589              		.loc 1 116 39 is_stmt 1 view .LVU2568
 116:../USER/main_03.c **** 	if(kinbwp>=256) kinbwp = 0;
 7590              		.loc 1 116 2 view .LVU2569
 116:../USER/main_03.c **** 	if(kinbwp>=256) kinbwp = 0;
 7591              		.loc 1 116 11 is_stmt 0 view .LVU2570
 7592 0ec0 6168     		ldr	r1, [r4, #4]
 116:../USER/main_03.c **** 	if(kinbwp>=256) kinbwp = 0;
 7593              		.loc 1 116 52 view .LVU2571
 7594 0ec2 5A1C     		adds	r2, r3, #1
 116:../USER/main_03.c **** 	if(kinbwp>=256) kinbwp = 0;
 7595              		.loc 1 116 4 view .LVU2572
 7596 0ec4 8E07     		lsls	r6, r1, #30
 7597 0ec6 09D5     		bpl	.L483
 117:../USER/main_03.c **** 	//
 7598              		.loc 1 117 25 view .LVU2573
 7599 0ec8 B2F5807F 		cmp	r2, #256
 7600 0ecc 14BF     		ite	ne
 7601 0ece 1146     		movne	r1, r2
 7602 0ed0 3946     		moveq	r1, r7
 116:../USER/main_03.c **** 	if(kinbwp>=256) kinbwp = 0;
 7603              		.loc 1 116 63 view .LVU2574
 7604 0ed2 2068     		ldr	r0, [r4]
 7605              	.LVL506:
 117:../USER/main_03.c **** 	//
 7606              		.loc 1 117 25 view .LVU2575
 7607 0ed4 C8F80010 		str	r1, [r8]
 116:../USER/main_03.c **** 	if(kinbwp>=256) kinbwp = 0;
 7608              		.loc 1 116 56 view .LVU2576
 7609 0ed8 09F80300 		strb	r0, [r9, r3]
 117:../USER/main_03.c **** 	//
 7610              		.loc 1 117 2 is_stmt 1 view .LVU2577
 7611              	.L483:
 117:../USER/main_03.c **** 	//
 7612              		.loc 1 117 2 is_stmt 0 view .LVU2578
 7613              	.LBE1474:
 7614              	.LBE1473:
 140:../USER/main_03.c **** }
 7615              		.loc 1 140 27 is_stmt 1 view .LVU2579
 140:../USER/main_03.c **** }
 7616              		.loc 1 140 32 is_stmt 0 view .LVU2580
 7617 0edc 2846     		mov	r0, r5
 7618 0ede FFF7FEFF 		bl	disp_vram
 7619              	.LVL507:
 140:../USER/main_03.c **** }
 7620              		.loc 1 140 2 view .LVU2581
 7621 0ee2 0028     		cmp	r0, #0
 7622 0ee4 3FF44CAE 		beq	.L485
 7623              	.LVL508:
 7624              	.L484:
 140:../USER/main_03.c **** }
 7625              		.loc 1 140 2 is_stmt 1 view .LVU2582
 140:../USER/main_03.c **** }
 7626              		.loc 1 140 10 view .LVU2583
 140:../USER/main_03.c **** }
 7627              		.loc 1 140 14 view .LVU2584
 7628              	.LBB1476:
 7629              	.LBI1473:
 109:../USER/main_03.c **** 	char ch;
 7630              		.loc 1 109 6 view .LVU2585
 7631              	.LBB1475:
 110:../USER/main_03.c **** 	//
 7632              		.loc 1 110 2 view .LVU2586
 112:../USER/main_03.c **** 	if(ch!=0) kinbuf[kinbwp++] = ch;
 7633              		.loc 1 112 2 view .LVU2587
 112:../USER/main_03.c **** 	if(ch!=0) kinbuf[kinbwp++] = ch;
 7634              		.loc 1 112 7 is_stmt 0 view .LVU2588
 7635 0ee8 FFF7FEFF 		bl	SPI_ReadData
 7636              	.LVL509:
 113:../USER/main_03.c **** 	if(kinbwp>=256) kinbwp = 0;
 7637              		.loc 1 113 12 is_stmt 1 view .LVU2589
 112:../USER/main_03.c **** 	if(ch!=0) kinbuf[kinbwp++] = ch;
 7638              		.loc 1 112 5 is_stmt 0 view .LVU2590
 7639 0eec 40B2     		sxtb	r0, r0
 7640              	.LVL510:
 113:../USER/main_03.c **** 	if(kinbwp>=256) kinbwp = 0;
 7641              		.loc 1 113 2 is_stmt 1 view .LVU2591
 113:../USER/main_03.c **** 	if(kinbwp>=256) kinbwp = 0;
 7642              		.loc 1 113 4 is_stmt 0 view .LVU2592
 7643 0eee 0028     		cmp	r0, #0
 7644 0ef0 DFD0     		beq	.L1169
 113:../USER/main_03.c **** 	if(kinbwp>=256) kinbwp = 0;
 7645              		.loc 1 113 25 view .LVU2593
 7646 0ef2 D8F80020 		ldr	r2, [r8]
 7647 0ef6 531C     		adds	r3, r2, #1
 113:../USER/main_03.c **** 	if(kinbwp>=256) kinbwp = 0;
 7648              		.loc 1 113 29 view .LVU2594
 7649 0ef8 09F80200 		strb	r0, [r9, r2]
 113:../USER/main_03.c **** 	if(kinbwp>=256) kinbwp = 0;
 7650              		.loc 1 113 25 view .LVU2595
 7651 0efc C8F80030 		str	r3, [r8]
 7652 0f00 D9E7     		b	.L480
 7653              	.LVL511:
 7654              	.L1154:
 113:../USER/main_03.c **** 	if(kinbwp>=256) kinbwp = 0;
 7655              		.loc 1 113 25 view .LVU2596
 7656 0f02 059B     		ldr	r3, [sp, #20]
 7657 0f04 0BF11002 		add	r2, fp, #16
 7658 0f08 0392     		str	r2, [sp, #12]
 7659              	.LBE1475:
 7660              	.LBE1476:
 7661              	.LBE1468:
 7662              	.LBE1467:
 7663              	.LBE1454:
 7664              	.LBE1453:
 7665              	.LBE1422:
 7666              	.LBE1421:
 203:../USER/main_03.c **** 	          putadrhd(adr);
 7667              		.loc 1 203 10 discriminator 2 view .LVU2597
 7668 0f0a 069A     		ldr	r2, [sp, #24]
 7669 0f0c 1033     		adds	r3, r3, #16
 7670 0f0e 9342     		cmp	r3, r2
 7671 0f10 0593     		str	r3, [sp, #20]
 7672              	.LVL512:
 203:../USER/main_03.c **** 	          putadrhd(adr);
 7673              		.loc 1 203 10 discriminator 2 view .LVU2598
 7674 0f12 7FF456AB 		bne	.L486
 7675 0f16 0B93     		str	r3, [sp, #44]
 7676              	.LVL513:
 203:../USER/main_03.c **** 	          putadrhd(adr);
 7677              		.loc 1 203 10 discriminator 2 view .LVU2599
 7678 0f18 FFF791B8 		b	.L279
 7679              	.LVL514:
 7680              	.L461:
 7681              	.LBB1489:
 7682              	.LBB1487:
 7683              	.LBB1483:
 7684              	.LBB1481:
 7685              	.LBB1478:
 7686              	.LBB1465:
 137:../USER/main_03.c **** 	}
 7687              		.loc 1 137 3 is_stmt 1 view .LVU2600
 7688 0f1c 2046     		mov	r0, r4
 7689 0f1e FFF7FEFF 		bl	SPI_WriteData
 7690              	.LVL515:
 7691              	.L454:
 7692              	.LBB1461:
 7693              	.LBB1462:
 116:../USER/main_03.c **** 	if(kinbwp>=256) kinbwp = 0;
 7694              		.loc 1 116 11 is_stmt 0 view .LVU2601
 7695 0f22 4FF04024 		mov	r4, #1073758208
 7696              	.LVL516:
 116:../USER/main_03.c **** 	if(kinbwp>=256) kinbwp = 0;
 7697              		.loc 1 116 11 view .LVU2602
 7698 0f26 1AE0     		b	.L467
 7699              	.LVL517:
 7700              	.L1170:
 116:../USER/main_03.c **** 	if(kinbwp>=256) kinbwp = 0;
 7701              		.loc 1 116 11 view .LVU2603
 7702 0f28 D8F80030 		ldr	r3, [r8]
 7703              	.L463:
 114:../USER/main_03.c **** 	//
 7704              		.loc 1 114 2 is_stmt 1 view .LVU2604
 114:../USER/main_03.c **** 	//
 7705              		.loc 1 114 18 view .LVU2605
 114:../USER/main_03.c **** 	//
 7706              		.loc 1 114 4 is_stmt 0 view .LVU2606
 7707 0f2c FF2B     		cmp	r3, #255
 7708 0f2e 02DD     		ble	.L464
 114:../USER/main_03.c **** 	//
 7709              		.loc 1 114 25 view .LVU2607
 7710 0f30 0023     		movs	r3, #0
 7711 0f32 C8F80070 		str	r7, [r8]
 7712              	.L464:
 116:../USER/main_03.c **** 	if(kinbwp>=256) kinbwp = 0;
 7713              		.loc 1 116 39 is_stmt 1 view .LVU2608
 116:../USER/main_03.c **** 	if(kinbwp>=256) kinbwp = 0;
 7714              		.loc 1 116 2 view .LVU2609
 116:../USER/main_03.c **** 	if(kinbwp>=256) kinbwp = 0;
 7715              		.loc 1 116 11 is_stmt 0 view .LVU2610
 7716 0f36 6168     		ldr	r1, [r4, #4]
 116:../USER/main_03.c **** 	if(kinbwp>=256) kinbwp = 0;
 7717              		.loc 1 116 52 view .LVU2611
 7718 0f38 5A1C     		adds	r2, r3, #1
 116:../USER/main_03.c **** 	if(kinbwp>=256) kinbwp = 0;
 7719              		.loc 1 116 4 view .LVU2612
 7720 0f3a 8E07     		lsls	r6, r1, #30
 7721 0f3c 09D5     		bpl	.L466
 117:../USER/main_03.c **** 	//
 7722              		.loc 1 117 25 view .LVU2613
 7723 0f3e B2F5807F 		cmp	r2, #256
 7724 0f42 14BF     		ite	ne
 7725 0f44 1146     		movne	r1, r2
 7726 0f46 3946     		moveq	r1, r7
 116:../USER/main_03.c **** 	if(kinbwp>=256) kinbwp = 0;
 7727              		.loc 1 116 63 view .LVU2614
 7728 0f48 2068     		ldr	r0, [r4]
 7729              	.LVL518:
 117:../USER/main_03.c **** 	//
 7730              		.loc 1 117 25 view .LVU2615
 7731 0f4a C8F80010 		str	r1, [r8]
 116:../USER/main_03.c **** 	if(kinbwp>=256) kinbwp = 0;
 7732              		.loc 1 116 56 view .LVU2616
 7733 0f4e 09F80300 		strb	r0, [r9, r3]
 117:../USER/main_03.c **** 	//
 7734              		.loc 1 117 2 is_stmt 1 view .LVU2617
 7735              	.L466:
 117:../USER/main_03.c **** 	//
 7736              		.loc 1 117 2 is_stmt 0 view .LVU2618
 7737              	.LBE1462:
 7738              	.LBE1461:
 140:../USER/main_03.c **** }
 7739              		.loc 1 140 27 is_stmt 1 view .LVU2619
 140:../USER/main_03.c **** }
 7740              		.loc 1 140 32 is_stmt 0 view .LVU2620
 7741 0f52 2846     		mov	r0, r5
 7742 0f54 FFF7FEFF 		bl	disp_vram
 7743              	.LVL519:
 140:../USER/main_03.c **** }
 7744              		.loc 1 140 2 view .LVU2621
 7745 0f58 0028     		cmp	r0, #0
 7746 0f5a 3FF411AE 		beq	.L485
 7747              	.LVL520:
 7748              	.L467:
 140:../USER/main_03.c **** }
 7749              		.loc 1 140 2 is_stmt 1 view .LVU2622
 140:../USER/main_03.c **** }
 7750              		.loc 1 140 10 view .LVU2623
 140:../USER/main_03.c **** }
 7751              		.loc 1 140 14 view .LVU2624
 7752              	.LBB1464:
 7753              	.LBI1461:
 109:../USER/main_03.c **** 	char ch;
 7754              		.loc 1 109 6 view .LVU2625
 7755              	.LBB1463:
 110:../USER/main_03.c **** 	//
 7756              		.loc 1 110 2 view .LVU2626
 112:../USER/main_03.c **** 	if(ch!=0) kinbuf[kinbwp++] = ch;
 7757              		.loc 1 112 2 view .LVU2627
 112:../USER/main_03.c **** 	if(ch!=0) kinbuf[kinbwp++] = ch;
 7758              		.loc 1 112 7 is_stmt 0 view .LVU2628
 7759 0f5e FFF7FEFF 		bl	SPI_ReadData
 7760              	.LVL521:
 113:../USER/main_03.c **** 	if(kinbwp>=256) kinbwp = 0;
 7761              		.loc 1 113 12 is_stmt 1 view .LVU2629
 112:../USER/main_03.c **** 	if(ch!=0) kinbuf[kinbwp++] = ch;
 7762              		.loc 1 112 5 is_stmt 0 view .LVU2630
 7763 0f62 40B2     		sxtb	r0, r0
 7764              	.LVL522:
 113:../USER/main_03.c **** 	if(kinbwp>=256) kinbwp = 0;
 7765              		.loc 1 113 2 is_stmt 1 view .LVU2631
 113:../USER/main_03.c **** 	if(kinbwp>=256) kinbwp = 0;
 7766              		.loc 1 113 4 is_stmt 0 view .LVU2632
 7767 0f64 0028     		cmp	r0, #0
 7768 0f66 DFD0     		beq	.L1170
 113:../USER/main_03.c **** 	if(kinbwp>=256) kinbwp = 0;
 7769              		.loc 1 113 25 view .LVU2633
 7770 0f68 D8F80020 		ldr	r2, [r8]
 7771 0f6c 531C     		adds	r3, r2, #1
 113:../USER/main_03.c **** 	if(kinbwp>=256) kinbwp = 0;
 7772              		.loc 1 113 29 view .LVU2634
 7773 0f6e 09F80200 		strb	r0, [r9, r2]
 113:../USER/main_03.c **** 	if(kinbwp>=256) kinbwp = 0;
 7774              		.loc 1 113 25 view .LVU2635
 7775 0f72 C8F80030 		str	r3, [r8]
 7776 0f76 D9E7     		b	.L463
 7777              	.LVL523:
 7778              	.L428:
 113:../USER/main_03.c **** 	if(kinbwp>=256) kinbwp = 0;
 7779              		.loc 1 113 25 view .LVU2636
 7780              	.LBE1463:
 7781              	.LBE1464:
 7782              	.LBE1465:
 7783              	.LBE1478:
 7784              	.LBE1481:
 7785              	.LBE1483:
 7786              	.LBB1484:
 7787              	.LBB1451:
 7788              	.LBB1448:
 7789              	.LBB1435:
 137:../USER/main_03.c **** 	}
 7790              		.loc 1 137 3 is_stmt 1 view .LVU2637
 7791 0f78 0498     		ldr	r0, [sp, #16]
 7792 0f7a FFF7FEFF 		bl	SPI_WriteData
 7793              	.LVL524:
 7794              	.L421:
 7795              	.LBB1431:
 7796              	.LBB1432:
 116:../USER/main_03.c **** 	if(kinbwp>=256) kinbwp = 0;
 7797              		.loc 1 116 11 is_stmt 0 view .LVU2638
 7798 0f7e 4FF04025 		mov	r5, #1073758208
 7799 0f82 1AE0     		b	.L434
 7800              	.LVL525:
 7801              	.L1171:
 116:../USER/main_03.c **** 	if(kinbwp>=256) kinbwp = 0;
 7802              		.loc 1 116 11 view .LVU2639
 7803 0f84 D8F80030 		ldr	r3, [r8]
 7804              	.L430:
 114:../USER/main_03.c **** 	//
 7805              		.loc 1 114 2 is_stmt 1 view .LVU2640
 114:../USER/main_03.c **** 	//
 7806              		.loc 1 114 18 view .LVU2641
 114:../USER/main_03.c **** 	//
 7807              		.loc 1 114 4 is_stmt 0 view .LVU2642
 7808 0f88 FF2B     		cmp	r3, #255
 7809 0f8a 02DD     		ble	.L431
 114:../USER/main_03.c **** 	//
 7810              		.loc 1 114 25 view .LVU2643
 7811 0f8c 0023     		movs	r3, #0
 7812 0f8e C8F80070 		str	r7, [r8]
 7813              	.L431:
 116:../USER/main_03.c **** 	if(kinbwp>=256) kinbwp = 0;
 7814              		.loc 1 116 39 is_stmt 1 view .LVU2644
 116:../USER/main_03.c **** 	if(kinbwp>=256) kinbwp = 0;
 7815              		.loc 1 116 2 view .LVU2645
 116:../USER/main_03.c **** 	if(kinbwp>=256) kinbwp = 0;
 7816              		.loc 1 116 11 is_stmt 0 view .LVU2646
 7817 0f92 6968     		ldr	r1, [r5, #4]
 116:../USER/main_03.c **** 	if(kinbwp>=256) kinbwp = 0;
 7818              		.loc 1 116 52 view .LVU2647
 7819 0f94 5A1C     		adds	r2, r3, #1
 116:../USER/main_03.c **** 	if(kinbwp>=256) kinbwp = 0;
 7820              		.loc 1 116 4 view .LVU2648
 7821 0f96 8807     		lsls	r0, r1, #30
 7822              	.LVL526:
 116:../USER/main_03.c **** 	if(kinbwp>=256) kinbwp = 0;
 7823              		.loc 1 116 4 view .LVU2649
 7824 0f98 09D5     		bpl	.L433
 117:../USER/main_03.c **** 	//
 7825              		.loc 1 117 25 view .LVU2650
 7826 0f9a B2F5807F 		cmp	r2, #256
 7827 0f9e 14BF     		ite	ne
 7828 0fa0 1146     		movne	r1, r2
 7829 0fa2 3946     		moveq	r1, r7
 116:../USER/main_03.c **** 	if(kinbwp>=256) kinbwp = 0;
 7830              		.loc 1 116 63 view .LVU2651
 7831 0fa4 2868     		ldr	r0, [r5]
 117:../USER/main_03.c **** 	//
 7832              		.loc 1 117 25 view .LVU2652
 7833 0fa6 C8F80010 		str	r1, [r8]
 116:../USER/main_03.c **** 	if(kinbwp>=256) kinbwp = 0;
 7834              		.loc 1 116 56 view .LVU2653
 7835 0faa 09F80300 		strb	r0, [r9, r3]
 117:../USER/main_03.c **** 	//
 7836              		.loc 1 117 2 is_stmt 1 view .LVU2654
 7837              	.L433:
 117:../USER/main_03.c **** 	//
 7838              		.loc 1 117 2 is_stmt 0 view .LVU2655
 7839              	.LBE1432:
 7840              	.LBE1431:
 140:../USER/main_03.c **** }
 7841              		.loc 1 140 27 is_stmt 1 view .LVU2656
 140:../USER/main_03.c **** }
 7842              		.loc 1 140 32 is_stmt 0 view .LVU2657
 7843 0fae 3046     		mov	r0, r6
 7844 0fb0 FFF7FEFF 		bl	disp_vram
 7845              	.LVL527:
 140:../USER/main_03.c **** }
 7846              		.loc 1 140 2 view .LVU2658
 7847 0fb4 0028     		cmp	r0, #0
 7848 0fb6 3FF4F9AE 		beq	.L452
 7849              	.LVL528:
 7850              	.L434:
 140:../USER/main_03.c **** }
 7851              		.loc 1 140 2 is_stmt 1 view .LVU2659
 140:../USER/main_03.c **** }
 7852              		.loc 1 140 10 view .LVU2660
 140:../USER/main_03.c **** }
 7853              		.loc 1 140 14 view .LVU2661
 7854              	.LBB1434:
 7855              	.LBI1431:
 109:../USER/main_03.c **** 	char ch;
 7856              		.loc 1 109 6 view .LVU2662
 7857              	.LBB1433:
 110:../USER/main_03.c **** 	//
 7858              		.loc 1 110 2 view .LVU2663
 112:../USER/main_03.c **** 	if(ch!=0) kinbuf[kinbwp++] = ch;
 7859              		.loc 1 112 2 view .LVU2664
 112:../USER/main_03.c **** 	if(ch!=0) kinbuf[kinbwp++] = ch;
 7860              		.loc 1 112 7 is_stmt 0 view .LVU2665
 7861 0fba FFF7FEFF 		bl	SPI_ReadData
 7862              	.LVL529:
 113:../USER/main_03.c **** 	if(kinbwp>=256) kinbwp = 0;
 7863              		.loc 1 113 12 is_stmt 1 view .LVU2666
 112:../USER/main_03.c **** 	if(ch!=0) kinbuf[kinbwp++] = ch;
 7864              		.loc 1 112 5 is_stmt 0 view .LVU2667
 7865 0fbe 40B2     		sxtb	r0, r0
 7866              	.LVL530:
 113:../USER/main_03.c **** 	if(kinbwp>=256) kinbwp = 0;
 7867              		.loc 1 113 2 is_stmt 1 view .LVU2668
 113:../USER/main_03.c **** 	if(kinbwp>=256) kinbwp = 0;
 7868              		.loc 1 113 4 is_stmt 0 view .LVU2669
 7869 0fc0 0028     		cmp	r0, #0
 7870 0fc2 DFD0     		beq	.L1171
 113:../USER/main_03.c **** 	if(kinbwp>=256) kinbwp = 0;
 7871              		.loc 1 113 25 view .LVU2670
 7872 0fc4 D8F80020 		ldr	r2, [r8]
 7873 0fc8 531C     		adds	r3, r2, #1
 113:../USER/main_03.c **** 	if(kinbwp>=256) kinbwp = 0;
 7874              		.loc 1 113 29 view .LVU2671
 7875 0fca 09F80200 		strb	r0, [r9, r2]
 113:../USER/main_03.c **** 	if(kinbwp>=256) kinbwp = 0;
 7876              		.loc 1 113 25 view .LVU2672
 7877 0fce C8F80030 		str	r3, [r8]
 7878 0fd2 D9E7     		b	.L430
 7879              	.LVL531:
 7880              	.L1155:
 113:../USER/main_03.c **** 	if(kinbwp>=256) kinbwp = 0;
 7881              		.loc 1 113 25 view .LVU2673
 7882              	.LBE1433:
 7883              	.LBE1434:
 7884              	.LBE1435:
 7885              	.LBE1448:
 7886              	.LBE1451:
 7887              	.LBE1484:
 7888              	.LBE1487:
 7889              	.LBE1489:
 7890              	.LBB1490:
 7891              	.LBB1420:
 130:../USER/main_03.c **** 	else {
 7892              		.loc 1 130 3 is_stmt 1 view .LVU2674
 7893 0fd4 2021     		movs	r1, #32
 7894 0fd6 4FF04020 		mov	r0, #1073758208
 7895 0fda FFF7FEFF 		bl	UART_SendChar
 7896              	.LVL532:
 7897 0fde 10E6     		b	.L405
 7898              	.LVL533:
 7899              	.L1159:
 130:../USER/main_03.c **** 	else {
 7900              		.loc 1 130 3 is_stmt 0 view .LVU2675
 7901              	.LBE1420:
 7902              	.LBE1490:
 7903              	.LBB1491:
 7904              	.LBB1488:
 7905              	.LBB1485:
 7906              	.LBB1452:
 7907              	.LBB1449:
 7908              	.LBB1436:
 130:../USER/main_03.c **** 	else {
 7909              		.loc 1 130 3 is_stmt 1 view .LVU2676
 7910 0fe0 3146     		mov	r1, r6
 7911 0fe2 4FF04020 		mov	r0, #1073758208
 7912 0fe6 FFF7FEFF 		bl	UART_SendChar
 7913              	.LVL534:
 7914 0fea C8E7     		b	.L421
 7915              	.LVL535:
 7916              	.L1161:
 130:../USER/main_03.c **** 	else {
 7917              		.loc 1 130 3 is_stmt 0 view .LVU2677
 7918              	.LBE1436:
 7919              	.LBE1449:
 7920              	.LBB1450:
 7921              	.LBB1447:
 130:../USER/main_03.c **** 	else {
 7922              		.loc 1 130 3 is_stmt 1 view .LVU2678
 7923 0fec 3146     		mov	r1, r6
 7924 0fee 4FF04020 		mov	r0, #1073758208
 7925 0ff2 FFF7FEFF 		bl	UART_SendChar
 7926              	.LVL536:
 7927 0ff6 B0E6     		b	.L438
 7928              	.LVL537:
 7929              	.L1167:
 130:../USER/main_03.c **** 	else {
 7930              		.loc 1 130 3 is_stmt 0 view .LVU2679
 7931              	.LBE1447:
 7932              	.LBE1450:
 7933              	.LBE1452:
 7934              	.LBE1485:
 7935              	.LBB1486:
 7936              	.LBB1482:
 7937              	.LBB1479:
 7938              	.LBB1477:
 130:../USER/main_03.c **** 	else {
 7939              		.loc 1 130 3 is_stmt 1 view .LVU2680
 7940 0ff8 2946     		mov	r1, r5
 7941 0ffa 4FF04020 		mov	r0, #1073758208
 7942 0ffe FFF7FEFF 		bl	UART_SendChar
 7943              	.LVL538:
 7944 1002 53E7     		b	.L471
 7945              	.LVL539:
 7946              	.L1165:
 130:../USER/main_03.c **** 	else {
 7947              		.loc 1 130 3 is_stmt 0 view .LVU2681
 7948              	.LBE1477:
 7949              	.LBE1479:
 7950              	.LBB1480:
 7951              	.LBB1466:
 130:../USER/main_03.c **** 	else {
 7952              		.loc 1 130 3 is_stmt 1 view .LVU2682
 7953 1004 2946     		mov	r1, r5
 7954 1006 4FF04020 		mov	r0, #1073758208
 7955 100a FFF7FEFF 		bl	UART_SendChar
 7956              	.LVL540:
 7957 100e 88E7     		b	.L454
 7958              	.LVL541:
 7959              	.L595:
 130:../USER/main_03.c **** 	else {
 7960              		.loc 1 130 3 is_stmt 0 view .LVU2683
 7961              	.LBE1466:
 7962              	.LBE1480:
 7963              	.LBE1482:
 7964              	.LBE1486:
 7965              	.LBE1488:
 7966              	.LBE1491:
 7967              	.LBB1492:
 7968              	.LBB1273:
 7969              	.LBB1266:
 7970              	.LBB1256:
 7971              	.LBB1098:
 7972              	.LBB1094:
 7973              	.LBB1090:
 7974              	.LBB1071:
 143:../USER/main_03.c **** void puth2(dt) int dt;{ puth((dt >> 4) & 0xf); puth(dt & 0xf); }
 7975              		.loc 1 143 55 is_stmt 1 view .LVU2684
 7976              	.LBB1063:
 7977              	.LBB1064:
 129:../USER/main_03.c **** 		UART_SendChar(UART0,ch);
 7978              		.loc 1 129 13 is_stmt 0 view .LVU2685
 7979 1010 DAF80030 		ldr	r3, [r10]
 7980              	.LVL542:
 129:../USER/main_03.c **** 		UART_SendChar(UART0,ch);
 7981              		.loc 1 129 13 view .LVU2686
 7982              	.LBE1064:
 7983              	.LBE1063:
 143:../USER/main_03.c **** void puth2(dt) int dt;{ puth((dt >> 4) & 0xf); puth(dt & 0xf); }
 7984              		.loc 1 143 65 view .LVU2687
 7985 1014 00F13705 		add	r5, r0, #55
 7986              	.LBB1068:
 7987              	.LBB1065:
 129:../USER/main_03.c **** 		UART_SendChar(UART0,ch);
 7988              		.loc 1 129 4 view .LVU2688
 7989 1018 9B04     		lsls	r3, r3, #18
 7990              	.LBE1065:
 7991              	.LBE1068:
 143:../USER/main_03.c **** void puth2(dt) int dt;{ puth((dt >> 4) & 0xf); puth(dt & 0xf); }
 7992              		.loc 1 143 55 view .LVU2689
 7993 101a 6CB2     		sxtb	r4, r5
 7994              	.LVL543:
 7995              	.LBB1069:
 7996              	.LBI1063:
 127:../USER/main_03.c **** 	volatile uint32_t gpiord;
 7997              		.loc 1 127 6 is_stmt 1 view .LVU2690
 7998              	.LBB1066:
 128:../USER/main_03.c **** 	if((mdgpio & 0x2000)==0)
 7999              		.loc 1 128 2 view .LVU2691
 129:../USER/main_03.c **** 		UART_SendChar(UART0,ch);
 8000              		.loc 1 129 2 view .LVU2692
 129:../USER/main_03.c **** 		UART_SendChar(UART0,ch);
 8001              		.loc 1 129 4 is_stmt 0 view .LVU2693
 8002 101c 40F10D85 		bpl	.L1172
 132:../USER/main_03.c **** 		while((gpiord & 0x4000)!=0) {
 8003              		.loc 1 132 3 is_stmt 1 view .LVU2694
 132:../USER/main_03.c **** 		while((gpiord & 0x4000)!=0) {
 8004              		.loc 1 132 10 is_stmt 0 view .LVU2695
 8005 1020 4FF48043 		mov	r3, #16384
 8006 1024 1D93     		str	r3, [sp, #116]
 133:../USER/main_03.c **** 			key_check();
 8007              		.loc 1 133 3 is_stmt 1 view .LVU2696
 133:../USER/main_03.c **** 			key_check();
 8008              		.loc 1 133 17 is_stmt 0 view .LVU2697
 8009 1026 1D9B     		ldr	r3, [sp, #116]
 133:../USER/main_03.c **** 			key_check();
 8010              		.loc 1 133 8 view .LVU2698
 8011 1028 5E04     		lsls	r6, r3, #17
 8012 102a 09D5     		bpl	.L600
 135:../USER/main_03.c **** 		}
 8013              		.loc 1 135 13 view .LVU2699
 8014 102c AA4E     		ldr	r6, .L1227
 8015              	.L599:
 134:../USER/main_03.c **** 			gpiord = GPIO_ReadBits(GPIO0);
 8016              		.loc 1 134 4 is_stmt 1 view .LVU2700
 8017 102e FFF7FEFF 		bl	key_check
 8018              	.LVL544:
 135:../USER/main_03.c **** 		}
 8019              		.loc 1 135 4 view .LVU2701
 135:../USER/main_03.c **** 		}
 8020              		.loc 1 135 13 is_stmt 0 view .LVU2702
 8021 1032 3046     		mov	r0, r6
 8022 1034 FFF7FEFF 		bl	GPIO_ReadBits
 8023              	.LVL545:
 135:../USER/main_03.c **** 		}
 8024              		.loc 1 135 11 view .LVU2703
 8025 1038 1D90     		str	r0, [sp, #116]
 133:../USER/main_03.c **** 			key_check();
 8026              		.loc 1 133 17 view .LVU2704
 8027 103a 1D9B     		ldr	r3, [sp, #116]
 133:../USER/main_03.c **** 			key_check();
 8028              		.loc 1 133 8 view .LVU2705
 8029 103c 5804     		lsls	r0, r3, #17
 8030 103e F6D4     		bmi	.L599
 8031              	.L600:
 137:../USER/main_03.c **** 	}
 8032              		.loc 1 137 3 is_stmt 1 view .LVU2706
 8033 1040 2846     		mov	r0, r5
 8034 1042 FFF7FEFF 		bl	SPI_WriteData
 8035              	.LVL546:
 8036              	.L601:
 140:../USER/main_03.c **** }
 8037              		.loc 1 140 2 view .LVU2707
 140:../USER/main_03.c **** }
 8038              		.loc 1 140 10 view .LVU2708
 140:../USER/main_03.c **** }
 8039              		.loc 1 140 14 view .LVU2709
 8040 1046 FFF7FEFF 		bl	key_check
 8041              	.LVL547:
 140:../USER/main_03.c **** }
 8042              		.loc 1 140 27 view .LVU2710
 140:../USER/main_03.c **** }
 8043              		.loc 1 140 32 is_stmt 0 view .LVU2711
 8044 104a 2046     		mov	r0, r4
 8045 104c FFF7FEFF 		bl	disp_vram
 8046              	.LVL548:
 140:../USER/main_03.c **** }
 8047              		.loc 1 140 2 view .LVU2712
 8048 1050 0028     		cmp	r0, #0
 8049 1052 F8D1     		bne	.L601
 8050 1054 FFF786BB 		b	.L596
 8051              	.LVL549:
 8052              	.L614:
 140:../USER/main_03.c **** }
 8053              		.loc 1 140 2 view .LVU2713
 8054              	.LBE1066:
 8055              	.LBE1069:
 8056              	.LBE1071:
 8057              	.LBE1090:
 8058              	.LBE1094:
 8059              	.LBE1098:
 8060              	.LBE1256:
 8061              	.LBB1257:
 8062              	.LBB1252:
 8063              	.LBB1177:
 8064              	.LBB1171:
 8065              	.LBB1142:
 8066              	.LBB1137:
 143:../USER/main_03.c **** void puth2(dt) int dt;{ puth((dt >> 4) & 0xf); puth(dt & 0xf); }
 8067              		.loc 1 143 55 is_stmt 1 view .LVU2714
 143:../USER/main_03.c **** void puth2(dt) int dt;{ puth((dt >> 4) & 0xf); puth(dt & 0xf); }
 8068              		.loc 1 143 65 is_stmt 0 view .LVU2715
 8069 1058 06F13703 		add	r3, r6, #55
 8070              	.LVL550:
 143:../USER/main_03.c **** void puth2(dt) int dt;{ puth((dt >> 4) & 0xf); puth(dt & 0xf); }
 8071              		.loc 1 143 65 view .LVU2716
 8072 105c 0A93     		str	r3, [sp, #40]
 143:../USER/main_03.c **** void puth2(dt) int dt;{ puth((dt >> 4) & 0xf); puth(dt & 0xf); }
 8073              		.loc 1 143 55 view .LVU2717
 8074 105e 5CB2     		sxtb	r4, r3
 8075              	.LVL551:
 8076              	.LBB1122:
 8077              	.LBI1122:
 127:../USER/main_03.c **** 	volatile uint32_t gpiord;
 8078              		.loc 1 127 6 is_stmt 1 view .LVU2718
 8079              	.LBB1123:
 128:../USER/main_03.c **** 	if((mdgpio & 0x2000)==0)
 8080              		.loc 1 128 2 view .LVU2719
 129:../USER/main_03.c **** 		UART_SendChar(UART0,ch);
 8081              		.loc 1 129 2 view .LVU2720
 129:../USER/main_03.c **** 		UART_SendChar(UART0,ch);
 8082              		.loc 1 129 4 is_stmt 0 view .LVU2721
 8083 1060 002A     		cmp	r2, #0
 8084 1062 00F0DD84 		beq	.L1173
 132:../USER/main_03.c **** 		while((gpiord & 0x4000)!=0) {
 8085              		.loc 1 132 3 is_stmt 1 view .LVU2722
 132:../USER/main_03.c **** 		while((gpiord & 0x4000)!=0) {
 8086              		.loc 1 132 10 is_stmt 0 view .LVU2723
 8087 1066 4FF48043 		mov	r3, #16384
 8088 106a 2093     		str	r3, [sp, #128]
 133:../USER/main_03.c **** 			key_check();
 8089              		.loc 1 133 3 is_stmt 1 view .LVU2724
 133:../USER/main_03.c **** 			key_check();
 8090              		.loc 1 133 17 is_stmt 0 view .LVU2725
 8091 106c 209B     		ldr	r3, [sp, #128]
 133:../USER/main_03.c **** 			key_check();
 8092              		.loc 1 133 8 view .LVU2726
 8093 106e 5904     		lsls	r1, r3, #17
 8094              	.LVL552:
 133:../USER/main_03.c **** 			key_check();
 8095              		.loc 1 133 8 view .LVU2727
 8096 1070 2CD5     		bpl	.L640
 135:../USER/main_03.c **** 		}
 8097              		.loc 1 135 13 view .LVU2728
 8098 1072 994E     		ldr	r6, .L1227
 8099 1074 1DE0     		b	.L634
 8100              	.LVL553:
 8101              	.L1174:
 135:../USER/main_03.c **** 		}
 8102              		.loc 1 135 13 view .LVU2729
 8103 1076 D8F80030 		ldr	r3, [r8]
 8104              	.L636:
 8105              	.LBB1124:
 8106              	.LBB1125:
 114:../USER/main_03.c **** 	//
 8107              		.loc 1 114 2 is_stmt 1 view .LVU2730
 114:../USER/main_03.c **** 	//
 8108              		.loc 1 114 18 view .LVU2731
 114:../USER/main_03.c **** 	//
 8109              		.loc 1 114 4 is_stmt 0 view .LVU2732
 8110 107a FF2B     		cmp	r3, #255
 8111 107c 02DD     		ble	.L637
 114:../USER/main_03.c **** 	//
 8112              		.loc 1 114 25 view .LVU2733
 8113 107e 0023     		movs	r3, #0
 8114 1080 C8F80070 		str	r7, [r8]
 8115              	.L637:
 116:../USER/main_03.c **** 	if(kinbwp>=256) kinbwp = 0;
 8116              		.loc 1 116 39 is_stmt 1 view .LVU2734
 116:../USER/main_03.c **** 	if(kinbwp>=256) kinbwp = 0;
 8117              		.loc 1 116 2 view .LVU2735
 116:../USER/main_03.c **** 	if(kinbwp>=256) kinbwp = 0;
 8118              		.loc 1 116 11 is_stmt 0 view .LVU2736
 8119 1084 4FF04022 		mov	r2, #1073758208
 8120 1088 5068     		ldr	r0, [r2, #4]
 8121              	.LVL554:
 116:../USER/main_03.c **** 	if(kinbwp>=256) kinbwp = 0;
 8122              		.loc 1 116 52 view .LVU2737
 8123 108a 591C     		adds	r1, r3, #1
 116:../USER/main_03.c **** 	if(kinbwp>=256) kinbwp = 0;
 8124              		.loc 1 116 4 view .LVU2738
 8125 108c 8007     		lsls	r0, r0, #30
 8126 108e 09D5     		bpl	.L639
 117:../USER/main_03.c **** 	//
 8127              		.loc 1 117 25 view .LVU2739
 8128 1090 B1F5807F 		cmp	r1, #256
 116:../USER/main_03.c **** 	if(kinbwp>=256) kinbwp = 0;
 8129              		.loc 1 116 63 view .LVU2740
 8130 1094 1068     		ldr	r0, [r2]
 117:../USER/main_03.c **** 	//
 8131              		.loc 1 117 25 view .LVU2741
 8132 1096 14BF     		ite	ne
 8133 1098 0A46     		movne	r2, r1
 8134 109a 3A46     		moveq	r2, r7
 116:../USER/main_03.c **** 	if(kinbwp>=256) kinbwp = 0;
 8135              		.loc 1 116 56 view .LVU2742
 8136 109c 09F80300 		strb	r0, [r9, r3]
 117:../USER/main_03.c **** 	//
 8137              		.loc 1 117 2 is_stmt 1 view .LVU2743
 117:../USER/main_03.c **** 	//
 8138              		.loc 1 117 25 is_stmt 0 view .LVU2744
 8139 10a0 C8F80020 		str	r2, [r8]
 8140              	.L639:
 117:../USER/main_03.c **** 	//
 8141              		.loc 1 117 25 view .LVU2745
 8142              	.LBE1125:
 8143              	.LBE1124:
 135:../USER/main_03.c **** 		}
 8144              		.loc 1 135 4 is_stmt 1 view .LVU2746
 135:../USER/main_03.c **** 		}
 8145              		.loc 1 135 13 is_stmt 0 view .LVU2747
 8146 10a4 3046     		mov	r0, r6
 8147 10a6 FFF7FEFF 		bl	GPIO_ReadBits
 8148              	.LVL555:
 135:../USER/main_03.c **** 		}
 8149              		.loc 1 135 11 view .LVU2748
 8150 10aa 2090     		str	r0, [sp, #128]
 133:../USER/main_03.c **** 			key_check();
 8151              		.loc 1 133 17 view .LVU2749
 8152 10ac 209B     		ldr	r3, [sp, #128]
 133:../USER/main_03.c **** 			key_check();
 8153              		.loc 1 133 8 view .LVU2750
 8154 10ae 5A04     		lsls	r2, r3, #17
 8155 10b0 0CD5     		bpl	.L640
 8156              	.L634:
 134:../USER/main_03.c **** 			gpiord = GPIO_ReadBits(GPIO0);
 8157              		.loc 1 134 4 is_stmt 1 view .LVU2751
 8158              	.LBB1127:
 8159              	.LBI1124:
 109:../USER/main_03.c **** 	char ch;
 8160              		.loc 1 109 6 view .LVU2752
 8161              	.LBB1126:
 110:../USER/main_03.c **** 	//
 8162              		.loc 1 110 2 view .LVU2753
 112:../USER/main_03.c **** 	if(ch!=0) kinbuf[kinbwp++] = ch;
 8163              		.loc 1 112 2 view .LVU2754
 112:../USER/main_03.c **** 	if(ch!=0) kinbuf[kinbwp++] = ch;
 8164              		.loc 1 112 7 is_stmt 0 view .LVU2755
 8165 10b2 FFF7FEFF 		bl	SPI_ReadData
 8166              	.LVL556:
 113:../USER/main_03.c **** 	if(kinbwp>=256) kinbwp = 0;
 8167              		.loc 1 113 12 is_stmt 1 view .LVU2756
 112:../USER/main_03.c **** 	if(ch!=0) kinbuf[kinbwp++] = ch;
 8168              		.loc 1 112 5 is_stmt 0 view .LVU2757
 8169 10b6 40B2     		sxtb	r0, r0
 8170              	.LVL557:
 113:../USER/main_03.c **** 	if(kinbwp>=256) kinbwp = 0;
 8171              		.loc 1 113 2 is_stmt 1 view .LVU2758
 113:../USER/main_03.c **** 	if(kinbwp>=256) kinbwp = 0;
 8172              		.loc 1 113 4 is_stmt 0 view .LVU2759
 8173 10b8 0028     		cmp	r0, #0
 8174 10ba DCD0     		beq	.L1174
 113:../USER/main_03.c **** 	if(kinbwp>=256) kinbwp = 0;
 8175              		.loc 1 113 25 view .LVU2760
 8176 10bc D8F80020 		ldr	r2, [r8]
 8177 10c0 531C     		adds	r3, r2, #1
 113:../USER/main_03.c **** 	if(kinbwp>=256) kinbwp = 0;
 8178              		.loc 1 113 29 view .LVU2761
 8179 10c2 09F80200 		strb	r0, [r9, r2]
 113:../USER/main_03.c **** 	if(kinbwp>=256) kinbwp = 0;
 8180              		.loc 1 113 25 view .LVU2762
 8181 10c6 C8F80030 		str	r3, [r8]
 8182 10ca D6E7     		b	.L636
 8183              	.LVL558:
 8184              	.L640:
 113:../USER/main_03.c **** 	if(kinbwp>=256) kinbwp = 0;
 8185              		.loc 1 113 25 view .LVU2763
 8186              	.LBE1126:
 8187              	.LBE1127:
 137:../USER/main_03.c **** 	}
 8188              		.loc 1 137 3 is_stmt 1 view .LVU2764
 8189 10cc 0A98     		ldr	r0, [sp, #40]
 8190 10ce FFF7FEFF 		bl	SPI_WriteData
 8191              	.LVL559:
 8192              	.L633:
 8193              	.LBB1128:
 8194              	.LBB1129:
 116:../USER/main_03.c **** 	if(kinbwp>=256) kinbwp = 0;
 8195              		.loc 1 116 11 is_stmt 0 view .LVU2765
 8196 10d2 4FF04026 		mov	r6, #1073758208
 8197 10d6 18E0     		b	.L646
 8198              	.LVL560:
 8199              	.L1175:
 116:../USER/main_03.c **** 	if(kinbwp>=256) kinbwp = 0;
 8200              		.loc 1 116 11 view .LVU2766
 8201 10d8 D8F80030 		ldr	r3, [r8]
 8202              	.L642:
 114:../USER/main_03.c **** 	//
 8203              		.loc 1 114 2 is_stmt 1 view .LVU2767
 114:../USER/main_03.c **** 	//
 8204              		.loc 1 114 18 view .LVU2768
 114:../USER/main_03.c **** 	//
 8205              		.loc 1 114 4 is_stmt 0 view .LVU2769
 8206 10dc FF2B     		cmp	r3, #255
 8207 10de 02DD     		ble	.L643
 114:../USER/main_03.c **** 	//
 8208              		.loc 1 114 25 view .LVU2770
 8209 10e0 0023     		movs	r3, #0
 8210 10e2 C8F80070 		str	r7, [r8]
 8211              	.L643:
 116:../USER/main_03.c **** 	if(kinbwp>=256) kinbwp = 0;
 8212              		.loc 1 116 39 is_stmt 1 view .LVU2771
 116:../USER/main_03.c **** 	if(kinbwp>=256) kinbwp = 0;
 8213              		.loc 1 116 2 view .LVU2772
 116:../USER/main_03.c **** 	if(kinbwp>=256) kinbwp = 0;
 8214              		.loc 1 116 11 is_stmt 0 view .LVU2773
 8215 10e6 7168     		ldr	r1, [r6, #4]
 116:../USER/main_03.c **** 	if(kinbwp>=256) kinbwp = 0;
 8216              		.loc 1 116 52 view .LVU2774
 8217 10e8 5A1C     		adds	r2, r3, #1
 116:../USER/main_03.c **** 	if(kinbwp>=256) kinbwp = 0;
 8218              		.loc 1 116 4 view .LVU2775
 8219 10ea 8807     		lsls	r0, r1, #30
 8220              	.LVL561:
 116:../USER/main_03.c **** 	if(kinbwp>=256) kinbwp = 0;
 8221              		.loc 1 116 4 view .LVU2776
 8222 10ec 09D5     		bpl	.L645
 117:../USER/main_03.c **** 	//
 8223              		.loc 1 117 25 view .LVU2777
 8224 10ee B2F5807F 		cmp	r2, #256
 8225 10f2 14BF     		ite	ne
 8226 10f4 1146     		movne	r1, r2
 8227 10f6 3946     		moveq	r1, r7
 116:../USER/main_03.c **** 	if(kinbwp>=256) kinbwp = 0;
 8228              		.loc 1 116 63 view .LVU2778
 8229 10f8 3068     		ldr	r0, [r6]
 117:../USER/main_03.c **** 	//
 8230              		.loc 1 117 25 view .LVU2779
 8231 10fa C8F80010 		str	r1, [r8]
 116:../USER/main_03.c **** 	if(kinbwp>=256) kinbwp = 0;
 8232              		.loc 1 116 56 view .LVU2780
 8233 10fe 09F80300 		strb	r0, [r9, r3]
 117:../USER/main_03.c **** 	//
 8234              		.loc 1 117 2 is_stmt 1 view .LVU2781
 8235              	.L645:
 117:../USER/main_03.c **** 	//
 8236              		.loc 1 117 2 is_stmt 0 view .LVU2782
 8237              	.LBE1129:
 8238              	.LBE1128:
 140:../USER/main_03.c **** }
 8239              		.loc 1 140 27 is_stmt 1 view .LVU2783
 140:../USER/main_03.c **** }
 8240              		.loc 1 140 32 is_stmt 0 view .LVU2784
 8241 1102 2046     		mov	r0, r4
 8242 1104 FFF7FEFF 		bl	disp_vram
 8243              	.LVL562:
 140:../USER/main_03.c **** }
 8244              		.loc 1 140 2 view .LVU2785
 8245 1108 60B1     		cbz	r0, .L647
 8246              	.LVL563:
 8247              	.L646:
 140:../USER/main_03.c **** }
 8248              		.loc 1 140 2 is_stmt 1 view .LVU2786
 140:../USER/main_03.c **** }
 8249              		.loc 1 140 10 view .LVU2787
 140:../USER/main_03.c **** }
 8250              		.loc 1 140 14 view .LVU2788
 8251              	.LBB1131:
 8252              	.LBI1128:
 109:../USER/main_03.c **** 	char ch;
 8253              		.loc 1 109 6 view .LVU2789
 8254              	.LBB1130:
 110:../USER/main_03.c **** 	//
 8255              		.loc 1 110 2 view .LVU2790
 112:../USER/main_03.c **** 	if(ch!=0) kinbuf[kinbwp++] = ch;
 8256              		.loc 1 112 2 view .LVU2791
 112:../USER/main_03.c **** 	if(ch!=0) kinbuf[kinbwp++] = ch;
 8257              		.loc 1 112 7 is_stmt 0 view .LVU2792
 8258 110a FFF7FEFF 		bl	SPI_ReadData
 8259              	.LVL564:
 113:../USER/main_03.c **** 	if(kinbwp>=256) kinbwp = 0;
 8260              		.loc 1 113 12 is_stmt 1 view .LVU2793
 112:../USER/main_03.c **** 	if(ch!=0) kinbuf[kinbwp++] = ch;
 8261              		.loc 1 112 5 is_stmt 0 view .LVU2794
 8262 110e 40B2     		sxtb	r0, r0
 8263              	.LVL565:
 113:../USER/main_03.c **** 	if(kinbwp>=256) kinbwp = 0;
 8264              		.loc 1 113 2 is_stmt 1 view .LVU2795
 113:../USER/main_03.c **** 	if(kinbwp>=256) kinbwp = 0;
 8265              		.loc 1 113 4 is_stmt 0 view .LVU2796
 8266 1110 0028     		cmp	r0, #0
 8267 1112 E1D0     		beq	.L1175
 113:../USER/main_03.c **** 	if(kinbwp>=256) kinbwp = 0;
 8268              		.loc 1 113 25 view .LVU2797
 8269 1114 D8F80020 		ldr	r2, [r8]
 8270 1118 531C     		adds	r3, r2, #1
 113:../USER/main_03.c **** 	if(kinbwp>=256) kinbwp = 0;
 8271              		.loc 1 113 29 view .LVU2798
 8272 111a 09F80200 		strb	r0, [r9, r2]
 113:../USER/main_03.c **** 	if(kinbwp>=256) kinbwp = 0;
 8273              		.loc 1 113 25 view .LVU2799
 8274 111e C8F80030 		str	r3, [r8]
 8275 1122 DBE7     		b	.L642
 8276              	.LVL566:
 8277              	.L647:
 113:../USER/main_03.c **** 	if(kinbwp>=256) kinbwp = 0;
 8278              		.loc 1 113 25 view .LVU2800
 8279              	.LBE1130:
 8280              	.LBE1131:
 8281              	.LBE1123:
 8282              	.LBE1122:
 8283              	.LBE1137:
 8284              	.LBE1142:
 144:../USER/main_03.c **** void puth4(dt) int dt;{ puth2((dt >> 8) & 0xff); puth2(dt & 0xff); }
 8285              		.loc 1 144 48 is_stmt 1 view .LVU2801
 8286 1124 05F00F05 		and	r5, r5, #15
 8287              	.LVL567:
 8288              	.LBB1143:
 8289              	.LBI1143:
 143:../USER/main_03.c **** void puth2(dt) int dt;{ puth((dt >> 4) & 0xf); puth(dt & 0xf); }
 8290              		.loc 1 143 6 view .LVU2802
 8291              	.LBB1144:
 143:../USER/main_03.c **** void puth2(dt) int dt;{ puth((dt >> 4) & 0xf); puth(dt & 0xf); }
 8292              		.loc 1 143 24 view .LVU2803
 143:../USER/main_03.c **** void puth2(dt) int dt;{ puth((dt >> 4) & 0xf); puth(dt & 0xf); }
 8293              		.loc 1 143 26 is_stmt 0 view .LVU2804
 8294 1128 092D     		cmp	r5, #9
 8295 112a E8B2     		uxtb	r0, r5
 8296 112c 3CDC     		bgt	.L1176
 143:../USER/main_03.c **** void puth2(dt) int dt;{ puth((dt >> 4) & 0xf); puth(dt & 0xf); }
 8297              		.loc 1 143 34 is_stmt 1 view .LVU2805
 8298              	.LBB1145:
 8299              	.LBB1146:
 129:../USER/main_03.c **** 		UART_SendChar(UART0,ch);
 8300              		.loc 1 129 13 is_stmt 0 view .LVU2806
 8301 112e DAF80030 		ldr	r3, [r10]
 8302              	.LBE1146:
 8303              	.LBE1145:
 143:../USER/main_03.c **** void puth2(dt) int dt;{ puth((dt >> 4) & 0xf); puth(dt & 0xf); }
 8304              		.loc 1 143 44 view .LVU2807
 8305 1132 00F13005 		add	r5, r0, #48
 8306              	.LVL568:
 8307              	.LBB1159:
 8308              	.LBB1155:
 129:../USER/main_03.c **** 		UART_SendChar(UART0,ch);
 8309              		.loc 1 129 4 view .LVU2808
 8310 1136 9B04     		lsls	r3, r3, #18
 8311              	.LBE1155:
 8312              	.LBE1159:
 143:../USER/main_03.c **** void puth2(dt) int dt;{ puth((dt >> 4) & 0xf); puth(dt & 0xf); }
 8313              		.loc 1 143 34 view .LVU2809
 8314 1138 6CB2     		sxtb	r4, r5
 8315              	.LVL569:
 8316              	.LBB1160:
 8317              	.LBI1145:
 127:../USER/main_03.c **** 	volatile uint32_t gpiord;
 8318              		.loc 1 127 6 is_stmt 1 view .LVU2810
 8319              	.LBB1156:
 128:../USER/main_03.c **** 	if((mdgpio & 0x2000)==0)
 8320              		.loc 1 128 2 view .LVU2811
 129:../USER/main_03.c **** 		UART_SendChar(UART0,ch);
 8321              		.loc 1 129 2 view .LVU2812
 129:../USER/main_03.c **** 		UART_SendChar(UART0,ch);
 8322              		.loc 1 129 4 is_stmt 0 view .LVU2813
 8323 113a 40F18B84 		bpl	.L1177
 132:../USER/main_03.c **** 		while((gpiord & 0x4000)!=0) {
 8324              		.loc 1 132 3 is_stmt 1 view .LVU2814
 132:../USER/main_03.c **** 		while((gpiord & 0x4000)!=0) {
 8325              		.loc 1 132 10 is_stmt 0 view .LVU2815
 8326 113e 4FF48043 		mov	r3, #16384
 8327 1142 2193     		str	r3, [sp, #132]
 133:../USER/main_03.c **** 			key_check();
 8328              		.loc 1 133 3 is_stmt 1 view .LVU2816
 133:../USER/main_03.c **** 			key_check();
 8329              		.loc 1 133 17 is_stmt 0 view .LVU2817
 8330 1144 219B     		ldr	r3, [sp, #132]
 133:../USER/main_03.c **** 			key_check();
 8331              		.loc 1 133 8 view .LVU2818
 8332 1146 5E04     		lsls	r6, r3, #17
 8333 1148 40F1F783 		bpl	.L656
 135:../USER/main_03.c **** 		}
 8334              		.loc 1 135 13 view .LVU2819
 8335 114c 624E     		ldr	r6, .L1227
 8336 114e 1EE0     		b	.L650
 8337              	.LVL570:
 8338              	.L1178:
 135:../USER/main_03.c **** 		}
 8339              		.loc 1 135 13 view .LVU2820
 8340 1150 D8F80030 		ldr	r3, [r8]
 8341              	.L652:
 8342              	.LBB1147:
 8343              	.LBB1148:
 114:../USER/main_03.c **** 	//
 8344              		.loc 1 114 2 is_stmt 1 view .LVU2821
 114:../USER/main_03.c **** 	//
 8345              		.loc 1 114 18 view .LVU2822
 114:../USER/main_03.c **** 	//
 8346              		.loc 1 114 4 is_stmt 0 view .LVU2823
 8347 1154 FF2B     		cmp	r3, #255
 8348 1156 02DD     		ble	.L653
 114:../USER/main_03.c **** 	//
 8349              		.loc 1 114 25 view .LVU2824
 8350 1158 0023     		movs	r3, #0
 8351 115a C8F80070 		str	r7, [r8]
 8352              	.L653:
 116:../USER/main_03.c **** 	if(kinbwp>=256) kinbwp = 0;
 8353              		.loc 1 116 39 is_stmt 1 view .LVU2825
 116:../USER/main_03.c **** 	if(kinbwp>=256) kinbwp = 0;
 8354              		.loc 1 116 2 view .LVU2826
 116:../USER/main_03.c **** 	if(kinbwp>=256) kinbwp = 0;
 8355              		.loc 1 116 11 is_stmt 0 view .LVU2827
 8356 115e 4FF04022 		mov	r2, #1073758208
 8357 1162 5068     		ldr	r0, [r2, #4]
 8358              	.LVL571:
 116:../USER/main_03.c **** 	if(kinbwp>=256) kinbwp = 0;
 8359              		.loc 1 116 52 view .LVU2828
 8360 1164 591C     		adds	r1, r3, #1
 116:../USER/main_03.c **** 	if(kinbwp>=256) kinbwp = 0;
 8361              		.loc 1 116 4 view .LVU2829
 8362 1166 8007     		lsls	r0, r0, #30
 8363 1168 09D5     		bpl	.L655
 117:../USER/main_03.c **** 	//
 8364              		.loc 1 117 25 view .LVU2830
 8365 116a B1F5807F 		cmp	r1, #256
 116:../USER/main_03.c **** 	if(kinbwp>=256) kinbwp = 0;
 8366              		.loc 1 116 63 view .LVU2831
 8367 116e 1068     		ldr	r0, [r2]
 117:../USER/main_03.c **** 	//
 8368              		.loc 1 117 25 view .LVU2832
 8369 1170 14BF     		ite	ne
 8370 1172 0A46     		movne	r2, r1
 8371 1174 3A46     		moveq	r2, r7
 116:../USER/main_03.c **** 	if(kinbwp>=256) kinbwp = 0;
 8372              		.loc 1 116 56 view .LVU2833
 8373 1176 09F80300 		strb	r0, [r9, r3]
 117:../USER/main_03.c **** 	//
 8374              		.loc 1 117 2 is_stmt 1 view .LVU2834
 117:../USER/main_03.c **** 	//
 8375              		.loc 1 117 25 is_stmt 0 view .LVU2835
 8376 117a C8F80020 		str	r2, [r8]
 8377              	.L655:
 117:../USER/main_03.c **** 	//
 8378              		.loc 1 117 25 view .LVU2836
 8379              	.LBE1148:
 8380              	.LBE1147:
 135:../USER/main_03.c **** 		}
 8381              		.loc 1 135 4 is_stmt 1 view .LVU2837
 135:../USER/main_03.c **** 		}
 8382              		.loc 1 135 13 is_stmt 0 view .LVU2838
 8383 117e 3046     		mov	r0, r6
 8384 1180 FFF7FEFF 		bl	GPIO_ReadBits
 8385              	.LVL572:
 135:../USER/main_03.c **** 		}
 8386              		.loc 1 135 11 view .LVU2839
 8387 1184 2190     		str	r0, [sp, #132]
 133:../USER/main_03.c **** 			key_check();
 8388              		.loc 1 133 17 view .LVU2840
 8389 1186 219B     		ldr	r3, [sp, #132]
 133:../USER/main_03.c **** 			key_check();
 8390              		.loc 1 133 8 view .LVU2841
 8391 1188 5804     		lsls	r0, r3, #17
 8392 118a 40F1D683 		bpl	.L656
 8393              	.L650:
 134:../USER/main_03.c **** 			gpiord = GPIO_ReadBits(GPIO0);
 8394              		.loc 1 134 4 is_stmt 1 view .LVU2842
 8395              	.LBB1150:
 8396              	.LBI1147:
 109:../USER/main_03.c **** 	char ch;
 8397              		.loc 1 109 6 view .LVU2843
 8398              	.LBB1149:
 110:../USER/main_03.c **** 	//
 8399              		.loc 1 110 2 view .LVU2844
 112:../USER/main_03.c **** 	if(ch!=0) kinbuf[kinbwp++] = ch;
 8400              		.loc 1 112 2 view .LVU2845
 112:../USER/main_03.c **** 	if(ch!=0) kinbuf[kinbwp++] = ch;
 8401              		.loc 1 112 7 is_stmt 0 view .LVU2846
 8402 118e FFF7FEFF 		bl	SPI_ReadData
 8403              	.LVL573:
 113:../USER/main_03.c **** 	if(kinbwp>=256) kinbwp = 0;
 8404              		.loc 1 113 12 is_stmt 1 view .LVU2847
 112:../USER/main_03.c **** 	if(ch!=0) kinbuf[kinbwp++] = ch;
 8405              		.loc 1 112 5 is_stmt 0 view .LVU2848
 8406 1192 40B2     		sxtb	r0, r0
 8407              	.LVL574:
 113:../USER/main_03.c **** 	if(kinbwp>=256) kinbwp = 0;
 8408              		.loc 1 113 2 is_stmt 1 view .LVU2849
 113:../USER/main_03.c **** 	if(kinbwp>=256) kinbwp = 0;
 8409              		.loc 1 113 4 is_stmt 0 view .LVU2850
 8410 1194 0028     		cmp	r0, #0
 8411 1196 DBD0     		beq	.L1178
 113:../USER/main_03.c **** 	if(kinbwp>=256) kinbwp = 0;
 8412              		.loc 1 113 25 view .LVU2851
 8413 1198 D8F80020 		ldr	r2, [r8]
 8414 119c 531C     		adds	r3, r2, #1
 113:../USER/main_03.c **** 	if(kinbwp>=256) kinbwp = 0;
 8415              		.loc 1 113 29 view .LVU2852
 8416 119e 09F80200 		strb	r0, [r9, r2]
 113:../USER/main_03.c **** 	if(kinbwp>=256) kinbwp = 0;
 8417              		.loc 1 113 25 view .LVU2853
 8418 11a2 C8F80030 		str	r3, [r8]
 8419 11a6 D5E7     		b	.L652
 8420              	.LVL575:
 8421              	.L1176:
 113:../USER/main_03.c **** 	if(kinbwp>=256) kinbwp = 0;
 8422              		.loc 1 113 25 view .LVU2854
 8423              	.LBE1149:
 8424              	.LBE1150:
 8425              	.LBE1156:
 8426              	.LBE1160:
 143:../USER/main_03.c **** void puth2(dt) int dt;{ puth((dt >> 4) & 0xf); puth(dt & 0xf); }
 8427              		.loc 1 143 55 is_stmt 1 view .LVU2855
 8428 11a8 3730     		adds	r0, r0, #55
 8429 11aa FFF7FEFF 		bl	putch_uart
 8430              	.LVL576:
 8431              	.L663:
 143:../USER/main_03.c **** void puth2(dt) int dt;{ puth((dt >> 4) & 0xf); puth(dt & 0xf); }
 8432              		.loc 1 143 55 is_stmt 0 view .LVU2856
 8433              	.LBE1144:
 8434              	.LBE1143:
 8435              	.LBE1171:
 8436              	.LBE1177:
 145:../USER/main_03.c **** void puth6(dt) long dt;{ int dh,dl; dh = dt >> 16; dl = dt & 0xffff; puth2(dh); puth4(dl); }
 8437              		.loc 1 145 50 is_stmt 1 view .LVU2857
 8438              	.LBB1178:
 8439              	.LBI1178:
 144:../USER/main_03.c **** void puth4(dt) int dt;{ puth2((dt >> 8) & 0xff); puth2(dt & 0xff); }
 8440              		.loc 1 144 6 view .LVU2858
 8441              	.LBB1179:
 144:../USER/main_03.c **** void puth4(dt) int dt;{ puth2((dt >> 8) & 0xff); puth2(dt & 0xff); }
 8442              		.loc 1 144 25 view .LVU2859
 144:../USER/main_03.c **** void puth4(dt) int dt;{ puth2((dt >> 8) & 0xff); puth2(dt & 0xff); }
 8443              		.loc 1 144 34 is_stmt 0 view .LVU2860
 8444 11ae 059B     		ldr	r3, [sp, #20]
 8445 11b0 03F00F03 		and	r3, r3, #15
 8446              	.LVL577:
 8447              	.LBB1180:
 8448              	.LBI1180:
 143:../USER/main_03.c **** void puth2(dt) int dt;{ puth((dt >> 4) & 0xf); puth(dt & 0xf); }
 8449              		.loc 1 143 6 is_stmt 1 view .LVU2861
 8450              	.LBB1181:
 143:../USER/main_03.c **** void puth2(dt) int dt;{ puth((dt >> 4) & 0xf); puth(dt & 0xf); }
 8451              		.loc 1 143 24 view .LVU2862
 143:../USER/main_03.c **** void puth2(dt) int dt;{ puth((dt >> 4) & 0xf); puth(dt & 0xf); }
 8452              		.loc 1 143 26 is_stmt 0 view .LVU2863
 8453 11b4 092B     		cmp	r3, #9
 8454 11b6 D8B2     		uxtb	r0, r3
 8455 11b8 3CDC     		bgt	.L664
 143:../USER/main_03.c **** void puth2(dt) int dt;{ puth((dt >> 4) & 0xf); puth(dt & 0xf); }
 8456              		.loc 1 143 34 is_stmt 1 view .LVU2864
 8457              	.LBB1182:
 8458              	.LBB1183:
 129:../USER/main_03.c **** 		UART_SendChar(UART0,ch);
 8459              		.loc 1 129 13 is_stmt 0 view .LVU2865
 8460 11ba DAF80030 		ldr	r3, [r10]
 8461              	.LVL578:
 129:../USER/main_03.c **** 		UART_SendChar(UART0,ch);
 8462              		.loc 1 129 13 view .LVU2866
 8463              	.LBE1183:
 8464              	.LBE1182:
 143:../USER/main_03.c **** void puth2(dt) int dt;{ puth((dt >> 4) & 0xf); puth(dt & 0xf); }
 8465              		.loc 1 143 44 view .LVU2867
 8466 11be 00F13005 		add	r5, r0, #48
 8467              	.LBB1196:
 8468              	.LBB1192:
 129:../USER/main_03.c **** 		UART_SendChar(UART0,ch);
 8469              		.loc 1 129 4 view .LVU2868
 8470 11c2 9904     		lsls	r1, r3, #18
 8471              	.LBE1192:
 8472              	.LBE1196:
 143:../USER/main_03.c **** void puth2(dt) int dt;{ puth((dt >> 4) & 0xf); puth(dt & 0xf); }
 8473              		.loc 1 143 34 view .LVU2869
 8474 11c4 6CB2     		sxtb	r4, r5
 8475              	.LVL579:
 8476              	.LBB1197:
 8477              	.LBI1182:
 127:../USER/main_03.c **** 	volatile uint32_t gpiord;
 8478              		.loc 1 127 6 is_stmt 1 view .LVU2870
 8479              	.LBB1193:
 128:../USER/main_03.c **** 	if((mdgpio & 0x2000)==0)
 8480              		.loc 1 128 2 view .LVU2871
 129:../USER/main_03.c **** 		UART_SendChar(UART0,ch);
 8481              		.loc 1 129 2 view .LVU2872
 129:../USER/main_03.c **** 		UART_SendChar(UART0,ch);
 8482              		.loc 1 129 4 is_stmt 0 view .LVU2873
 8483 11c6 40F14B84 		bpl	.L1179
 132:../USER/main_03.c **** 		while((gpiord & 0x4000)!=0) {
 8484              		.loc 1 132 3 is_stmt 1 view .LVU2874
 132:../USER/main_03.c **** 		while((gpiord & 0x4000)!=0) {
 8485              		.loc 1 132 10 is_stmt 0 view .LVU2875
 8486 11ca 4FF48043 		mov	r3, #16384
 8487 11ce 2293     		str	r3, [sp, #136]
 133:../USER/main_03.c **** 			key_check();
 8488              		.loc 1 133 3 is_stmt 1 view .LVU2876
 133:../USER/main_03.c **** 			key_check();
 8489              		.loc 1 133 17 is_stmt 0 view .LVU2877
 8490 11d0 229B     		ldr	r3, [sp, #136]
 133:../USER/main_03.c **** 			key_check();
 8491              		.loc 1 133 8 view .LVU2878
 8492 11d2 5A04     		lsls	r2, r3, #17
 8493 11d4 40F18383 		bpl	.L673
 135:../USER/main_03.c **** 		}
 8494              		.loc 1 135 13 view .LVU2879
 8495 11d8 3F4E     		ldr	r6, .L1227
 8496 11da 1EE0     		b	.L667
 8497              	.LVL580:
 8498              	.L1180:
 135:../USER/main_03.c **** 		}
 8499              		.loc 1 135 13 view .LVU2880
 8500 11dc D8F80030 		ldr	r3, [r8]
 8501              	.L669:
 8502              	.LBB1184:
 8503              	.LBB1185:
 114:../USER/main_03.c **** 	//
 8504              		.loc 1 114 2 is_stmt 1 view .LVU2881
 114:../USER/main_03.c **** 	//
 8505              		.loc 1 114 18 view .LVU2882
 114:../USER/main_03.c **** 	//
 8506              		.loc 1 114 4 is_stmt 0 view .LVU2883
 8507 11e0 FF2B     		cmp	r3, #255
 8508 11e2 02DD     		ble	.L670
 114:../USER/main_03.c **** 	//
 8509              		.loc 1 114 25 view .LVU2884
 8510 11e4 0023     		movs	r3, #0
 8511 11e6 C8F80070 		str	r7, [r8]
 8512              	.L670:
 116:../USER/main_03.c **** 	if(kinbwp>=256) kinbwp = 0;
 8513              		.loc 1 116 39 is_stmt 1 view .LVU2885
 116:../USER/main_03.c **** 	if(kinbwp>=256) kinbwp = 0;
 8514              		.loc 1 116 2 view .LVU2886
 116:../USER/main_03.c **** 	if(kinbwp>=256) kinbwp = 0;
 8515              		.loc 1 116 11 is_stmt 0 view .LVU2887
 8516 11ea 4FF04022 		mov	r2, #1073758208
 8517 11ee 5068     		ldr	r0, [r2, #4]
 8518              	.LVL581:
 116:../USER/main_03.c **** 	if(kinbwp>=256) kinbwp = 0;
 8519              		.loc 1 116 52 view .LVU2888
 8520 11f0 591C     		adds	r1, r3, #1
 116:../USER/main_03.c **** 	if(kinbwp>=256) kinbwp = 0;
 8521              		.loc 1 116 4 view .LVU2889
 8522 11f2 8007     		lsls	r0, r0, #30
 8523 11f4 09D5     		bpl	.L672
 117:../USER/main_03.c **** 	//
 8524              		.loc 1 117 25 view .LVU2890
 8525 11f6 B1F5807F 		cmp	r1, #256
 116:../USER/main_03.c **** 	if(kinbwp>=256) kinbwp = 0;
 8526              		.loc 1 116 63 view .LVU2891
 8527 11fa 1068     		ldr	r0, [r2]
 117:../USER/main_03.c **** 	//
 8528              		.loc 1 117 25 view .LVU2892
 8529 11fc 14BF     		ite	ne
 8530 11fe 0A46     		movne	r2, r1
 8531 1200 3A46     		moveq	r2, r7
 116:../USER/main_03.c **** 	if(kinbwp>=256) kinbwp = 0;
 8532              		.loc 1 116 56 view .LVU2893
 8533 1202 09F80300 		strb	r0, [r9, r3]
 117:../USER/main_03.c **** 	//
 8534              		.loc 1 117 2 is_stmt 1 view .LVU2894
 117:../USER/main_03.c **** 	//
 8535              		.loc 1 117 25 is_stmt 0 view .LVU2895
 8536 1206 C8F80020 		str	r2, [r8]
 8537              	.L672:
 117:../USER/main_03.c **** 	//
 8538              		.loc 1 117 25 view .LVU2896
 8539              	.LBE1185:
 8540              	.LBE1184:
 135:../USER/main_03.c **** 		}
 8541              		.loc 1 135 4 is_stmt 1 view .LVU2897
 135:../USER/main_03.c **** 		}
 8542              		.loc 1 135 13 is_stmt 0 view .LVU2898
 8543 120a 3046     		mov	r0, r6
 8544 120c FFF7FEFF 		bl	GPIO_ReadBits
 8545              	.LVL582:
 135:../USER/main_03.c **** 		}
 8546              		.loc 1 135 11 view .LVU2899
 8547 1210 2290     		str	r0, [sp, #136]
 133:../USER/main_03.c **** 			key_check();
 8548              		.loc 1 133 17 view .LVU2900
 8549 1212 229B     		ldr	r3, [sp, #136]
 133:../USER/main_03.c **** 			key_check();
 8550              		.loc 1 133 8 view .LVU2901
 8551 1214 5B04     		lsls	r3, r3, #17
 8552 1216 40F16283 		bpl	.L673
 8553              	.L667:
 134:../USER/main_03.c **** 			gpiord = GPIO_ReadBits(GPIO0);
 8554              		.loc 1 134 4 is_stmt 1 view .LVU2902
 8555              	.LBB1187:
 8556              	.LBI1184:
 109:../USER/main_03.c **** 	char ch;
 8557              		.loc 1 109 6 view .LVU2903
 8558              	.LBB1186:
 110:../USER/main_03.c **** 	//
 8559              		.loc 1 110 2 view .LVU2904
 112:../USER/main_03.c **** 	if(ch!=0) kinbuf[kinbwp++] = ch;
 8560              		.loc 1 112 2 view .LVU2905
 112:../USER/main_03.c **** 	if(ch!=0) kinbuf[kinbwp++] = ch;
 8561              		.loc 1 112 7 is_stmt 0 view .LVU2906
 8562 121a FFF7FEFF 		bl	SPI_ReadData
 8563              	.LVL583:
 113:../USER/main_03.c **** 	if(kinbwp>=256) kinbwp = 0;
 8564              		.loc 1 113 12 is_stmt 1 view .LVU2907
 112:../USER/main_03.c **** 	if(ch!=0) kinbuf[kinbwp++] = ch;
 8565              		.loc 1 112 5 is_stmt 0 view .LVU2908
 8566 121e 40B2     		sxtb	r0, r0
 8567              	.LVL584:
 113:../USER/main_03.c **** 	if(kinbwp>=256) kinbwp = 0;
 8568              		.loc 1 113 2 is_stmt 1 view .LVU2909
 113:../USER/main_03.c **** 	if(kinbwp>=256) kinbwp = 0;
 8569              		.loc 1 113 4 is_stmt 0 view .LVU2910
 8570 1220 0028     		cmp	r0, #0
 8571 1222 DBD0     		beq	.L1180
 113:../USER/main_03.c **** 	if(kinbwp>=256) kinbwp = 0;
 8572              		.loc 1 113 25 view .LVU2911
 8573 1224 D8F80020 		ldr	r2, [r8]
 8574 1228 531C     		adds	r3, r2, #1
 113:../USER/main_03.c **** 	if(kinbwp>=256) kinbwp = 0;
 8575              		.loc 1 113 29 view .LVU2912
 8576 122a 09F80200 		strb	r0, [r9, r2]
 113:../USER/main_03.c **** 	if(kinbwp>=256) kinbwp = 0;
 8577              		.loc 1 113 25 view .LVU2913
 8578 122e C8F80030 		str	r3, [r8]
 8579 1232 D5E7     		b	.L669
 8580              	.LVL585:
 8581              	.L664:
 113:../USER/main_03.c **** 	if(kinbwp>=256) kinbwp = 0;
 8582              		.loc 1 113 25 view .LVU2914
 8583              	.LBE1186:
 8584              	.LBE1187:
 8585              	.LBE1193:
 8586              	.LBE1197:
 143:../USER/main_03.c **** void puth2(dt) int dt;{ puth((dt >> 4) & 0xf); puth(dt & 0xf); }
 8587              		.loc 1 143 55 is_stmt 1 view .LVU2915
 8588 1234 3730     		adds	r0, r0, #55
 8589 1236 FFF7FEFF 		bl	putch_uart
 8590              	.LVL586:
 8591              	.L680:
 143:../USER/main_03.c **** void puth2(dt) int dt;{ puth((dt >> 4) & 0xf); puth(dt & 0xf); }
 8592              		.loc 1 143 55 is_stmt 0 view .LVU2916
 8593              	.LBE1181:
 8594              	.LBE1180:
 144:../USER/main_03.c **** void puth4(dt) int dt;{ puth2((dt >> 8) & 0xff); puth2(dt & 0xff); }
 8595              		.loc 1 144 48 is_stmt 1 view .LVU2917
 8596              	.LBB1202:
 8597              	.LBI1202:
 143:../USER/main_03.c **** void puth2(dt) int dt;{ puth((dt >> 4) & 0xf); puth(dt & 0xf); }
 8598              		.loc 1 143 6 view .LVU2918
 8599              	.LBB1203:
 143:../USER/main_03.c **** void puth2(dt) int dt;{ puth((dt >> 4) & 0xf); puth(dt & 0xf); }
 8600              		.loc 1 143 24 view .LVU2919
 8601 123a 069A     		ldr	r2, [sp, #24]
 8602 123c DAF80030 		ldr	r3, [r10]
 143:../USER/main_03.c **** void puth2(dt) int dt;{ puth((dt >> 4) & 0xf); puth(dt & 0xf); }
 8603              		.loc 1 143 26 is_stmt 0 view .LVU2920
 8604 1240 092A     		cmp	r2, #9
 8605 1242 D5B2     		uxtb	r5, r2
 8606 1244 03F40053 		and	r3, r3, #8192
 8607 1248 39DC     		bgt	.L681
 143:../USER/main_03.c **** void puth2(dt) int dt;{ puth((dt >> 4) & 0xf); puth(dt & 0xf); }
 8608              		.loc 1 143 34 is_stmt 1 view .LVU2921
 143:../USER/main_03.c **** void puth2(dt) int dt;{ puth((dt >> 4) & 0xf); puth(dt & 0xf); }
 8609              		.loc 1 143 44 is_stmt 0 view .LVU2922
 8610 124a 3035     		adds	r5, r5, #48
 143:../USER/main_03.c **** void puth2(dt) int dt;{ puth((dt >> 4) & 0xf); puth(dt & 0xf); }
 8611              		.loc 1 143 34 view .LVU2923
 8612 124c 6CB2     		sxtb	r4, r5
 8613              	.LVL587:
 8614              	.LBB1204:
 8615              	.LBI1204:
 127:../USER/main_03.c **** 	volatile uint32_t gpiord;
 8616              		.loc 1 127 6 is_stmt 1 view .LVU2924
 8617              	.LBB1205:
 128:../USER/main_03.c **** 	if((mdgpio & 0x2000)==0)
 8618              		.loc 1 128 2 view .LVU2925
 129:../USER/main_03.c **** 		UART_SendChar(UART0,ch);
 8619              		.loc 1 129 2 view .LVU2926
 129:../USER/main_03.c **** 		UART_SendChar(UART0,ch);
 8620              		.loc 1 129 4 is_stmt 0 view .LVU2927
 8621 124e 002B     		cmp	r3, #0
 8622 1250 00F0ED83 		beq	.L1181
 132:../USER/main_03.c **** 		while((gpiord & 0x4000)!=0) {
 8623              		.loc 1 132 3 is_stmt 1 view .LVU2928
 132:../USER/main_03.c **** 		while((gpiord & 0x4000)!=0) {
 8624              		.loc 1 132 10 is_stmt 0 view .LVU2929
 8625 1254 4FF48043 		mov	r3, #16384
 8626 1258 2393     		str	r3, [sp, #140]
 133:../USER/main_03.c **** 			key_check();
 8627              		.loc 1 133 3 is_stmt 1 view .LVU2930
 133:../USER/main_03.c **** 			key_check();
 8628              		.loc 1 133 17 is_stmt 0 view .LVU2931
 8629 125a 239B     		ldr	r3, [sp, #140]
 133:../USER/main_03.c **** 			key_check();
 8630              		.loc 1 133 8 view .LVU2932
 8631 125c 5E04     		lsls	r6, r3, #17
 8632 125e 40F1E282 		bpl	.L690
 135:../USER/main_03.c **** 		}
 8633              		.loc 1 135 13 view .LVU2933
 8634 1262 1D4E     		ldr	r6, .L1227
 8635 1264 1EE0     		b	.L684
 8636              	.LVL588:
 8637              	.L1182:
 135:../USER/main_03.c **** 		}
 8638              		.loc 1 135 13 view .LVU2934
 8639 1266 D8F80030 		ldr	r3, [r8]
 8640              	.L686:
 8641              	.LBB1206:
 8642              	.LBB1207:
 114:../USER/main_03.c **** 	//
 8643              		.loc 1 114 2 is_stmt 1 view .LVU2935
 114:../USER/main_03.c **** 	//
 8644              		.loc 1 114 18 view .LVU2936
 114:../USER/main_03.c **** 	//
 8645              		.loc 1 114 4 is_stmt 0 view .LVU2937
 8646 126a FF2B     		cmp	r3, #255
 8647 126c 02DD     		ble	.L687
 114:../USER/main_03.c **** 	//
 8648              		.loc 1 114 25 view .LVU2938
 8649 126e 0023     		movs	r3, #0
 8650 1270 C8F80070 		str	r7, [r8]
 8651              	.L687:
 116:../USER/main_03.c **** 	if(kinbwp>=256) kinbwp = 0;
 8652              		.loc 1 116 39 is_stmt 1 view .LVU2939
 116:../USER/main_03.c **** 	if(kinbwp>=256) kinbwp = 0;
 8653              		.loc 1 116 2 view .LVU2940
 116:../USER/main_03.c **** 	if(kinbwp>=256) kinbwp = 0;
 8654              		.loc 1 116 11 is_stmt 0 view .LVU2941
 8655 1274 4FF04022 		mov	r2, #1073758208
 8656 1278 5068     		ldr	r0, [r2, #4]
 8657              	.LVL589:
 116:../USER/main_03.c **** 	if(kinbwp>=256) kinbwp = 0;
 8658              		.loc 1 116 52 view .LVU2942
 8659 127a 591C     		adds	r1, r3, #1
 116:../USER/main_03.c **** 	if(kinbwp>=256) kinbwp = 0;
 8660              		.loc 1 116 4 view .LVU2943
 8661 127c 8007     		lsls	r0, r0, #30
 8662 127e 09D5     		bpl	.L689
 117:../USER/main_03.c **** 	//
 8663              		.loc 1 117 25 view .LVU2944
 8664 1280 B1F5807F 		cmp	r1, #256
 116:../USER/main_03.c **** 	if(kinbwp>=256) kinbwp = 0;
 8665              		.loc 1 116 63 view .LVU2945
 8666 1284 1068     		ldr	r0, [r2]
 117:../USER/main_03.c **** 	//
 8667              		.loc 1 117 25 view .LVU2946
 8668 1286 14BF     		ite	ne
 8669 1288 0A46     		movne	r2, r1
 8670 128a 3A46     		moveq	r2, r7
 116:../USER/main_03.c **** 	if(kinbwp>=256) kinbwp = 0;
 8671              		.loc 1 116 56 view .LVU2947
 8672 128c 09F80300 		strb	r0, [r9, r3]
 117:../USER/main_03.c **** 	//
 8673              		.loc 1 117 2 is_stmt 1 view .LVU2948
 117:../USER/main_03.c **** 	//
 8674              		.loc 1 117 25 is_stmt 0 view .LVU2949
 8675 1290 C8F80020 		str	r2, [r8]
 8676              	.L689:
 117:../USER/main_03.c **** 	//
 8677              		.loc 1 117 25 view .LVU2950
 8678              	.LBE1207:
 8679              	.LBE1206:
 135:../USER/main_03.c **** 		}
 8680              		.loc 1 135 4 is_stmt 1 view .LVU2951
 135:../USER/main_03.c **** 		}
 8681              		.loc 1 135 13 is_stmt 0 view .LVU2952
 8682 1294 3046     		mov	r0, r6
 8683 1296 FFF7FEFF 		bl	GPIO_ReadBits
 8684              	.LVL590:
 135:../USER/main_03.c **** 		}
 8685              		.loc 1 135 11 view .LVU2953
 8686 129a 2390     		str	r0, [sp, #140]
 133:../USER/main_03.c **** 			key_check();
 8687              		.loc 1 133 17 view .LVU2954
 8688 129c 239B     		ldr	r3, [sp, #140]
 133:../USER/main_03.c **** 			key_check();
 8689              		.loc 1 133 8 view .LVU2955
 8690 129e 5804     		lsls	r0, r3, #17
 8691 12a0 40F1C182 		bpl	.L690
 8692              	.L684:
 134:../USER/main_03.c **** 			gpiord = GPIO_ReadBits(GPIO0);
 8693              		.loc 1 134 4 is_stmt 1 view .LVU2956
 8694              	.LBB1209:
 8695              	.LBI1206:
 109:../USER/main_03.c **** 	char ch;
 8696              		.loc 1 109 6 view .LVU2957
 8697              	.LBB1208:
 110:../USER/main_03.c **** 	//
 8698              		.loc 1 110 2 view .LVU2958
 112:../USER/main_03.c **** 	if(ch!=0) kinbuf[kinbwp++] = ch;
 8699              		.loc 1 112 2 view .LVU2959
 112:../USER/main_03.c **** 	if(ch!=0) kinbuf[kinbwp++] = ch;
 8700              		.loc 1 112 7 is_stmt 0 view .LVU2960
 8701 12a4 FFF7FEFF 		bl	SPI_ReadData
 8702              	.LVL591:
 113:../USER/main_03.c **** 	if(kinbwp>=256) kinbwp = 0;
 8703              		.loc 1 113 12 is_stmt 1 view .LVU2961
 112:../USER/main_03.c **** 	if(ch!=0) kinbuf[kinbwp++] = ch;
 8704              		.loc 1 112 5 is_stmt 0 view .LVU2962
 8705 12a8 40B2     		sxtb	r0, r0
 8706              	.LVL592:
 113:../USER/main_03.c **** 	if(kinbwp>=256) kinbwp = 0;
 8707              		.loc 1 113 2 is_stmt 1 view .LVU2963
 113:../USER/main_03.c **** 	if(kinbwp>=256) kinbwp = 0;
 8708              		.loc 1 113 4 is_stmt 0 view .LVU2964
 8709 12aa 0028     		cmp	r0, #0
 8710 12ac DBD0     		beq	.L1182
 113:../USER/main_03.c **** 	if(kinbwp>=256) kinbwp = 0;
 8711              		.loc 1 113 25 view .LVU2965
 8712 12ae D8F80020 		ldr	r2, [r8]
 8713 12b2 531C     		adds	r3, r2, #1
 113:../USER/main_03.c **** 	if(kinbwp>=256) kinbwp = 0;
 8714              		.loc 1 113 29 view .LVU2966
 8715 12b4 09F80200 		strb	r0, [r9, r2]
 113:../USER/main_03.c **** 	if(kinbwp>=256) kinbwp = 0;
 8716              		.loc 1 113 25 view .LVU2967
 8717 12b8 C8F80030 		str	r3, [r8]
 8718 12bc D5E7     		b	.L686
 8719              	.LVL593:
 8720              	.L681:
 113:../USER/main_03.c **** 	if(kinbwp>=256) kinbwp = 0;
 8721              		.loc 1 113 25 view .LVU2968
 8722              	.LBE1208:
 8723              	.LBE1209:
 8724              	.LBE1205:
 8725              	.LBE1204:
 143:../USER/main_03.c **** void puth2(dt) int dt;{ puth((dt >> 4) & 0xf); puth(dt & 0xf); }
 8726              		.loc 1 143 55 is_stmt 1 view .LVU2969
 143:../USER/main_03.c **** void puth2(dt) int dt;{ puth((dt >> 4) & 0xf); puth(dt & 0xf); }
 8727              		.loc 1 143 65 is_stmt 0 view .LVU2970
 8728 12be 3735     		adds	r5, r5, #55
 143:../USER/main_03.c **** void puth2(dt) int dt;{ puth((dt >> 4) & 0xf); puth(dt & 0xf); }
 8729              		.loc 1 143 55 view .LVU2971
 8730 12c0 6CB2     		sxtb	r4, r5
 8731              	.LVL594:
 8732              	.LBB1216:
 8733              	.LBI1216:
 127:../USER/main_03.c **** 	volatile uint32_t gpiord;
 8734              		.loc 1 127 6 is_stmt 1 view .LVU2972
 8735              	.LBB1217:
 128:../USER/main_03.c **** 	if((mdgpio & 0x2000)==0)
 8736              		.loc 1 128 2 view .LVU2973
 129:../USER/main_03.c **** 		UART_SendChar(UART0,ch);
 8737              		.loc 1 129 2 view .LVU2974
 129:../USER/main_03.c **** 		UART_SendChar(UART0,ch);
 8738              		.loc 1 129 4 is_stmt 0 view .LVU2975
 8739 12c2 002B     		cmp	r3, #0
 8740 12c4 00F0A683 		beq	.L1183
 132:../USER/main_03.c **** 		while((gpiord & 0x4000)!=0) {
 8741              		.loc 1 132 3 is_stmt 1 view .LVU2976
 132:../USER/main_03.c **** 		while((gpiord & 0x4000)!=0) {
 8742              		.loc 1 132 10 is_stmt 0 view .LVU2977
 8743 12c8 4FF48043 		mov	r3, #16384
 8744 12cc 2493     		str	r3, [sp, #144]
 133:../USER/main_03.c **** 			key_check();
 8745              		.loc 1 133 3 is_stmt 1 view .LVU2978
 133:../USER/main_03.c **** 			key_check();
 8746              		.loc 1 133 17 is_stmt 0 view .LVU2979
 8747 12ce 249B     		ldr	r3, [sp, #144]
 133:../USER/main_03.c **** 			key_check();
 8748              		.loc 1 133 8 view .LVU2980
 8749 12d0 5A04     		lsls	r2, r3, #17
 8750              	.LVL595:
 133:../USER/main_03.c **** 			key_check();
 8751              		.loc 1 133 8 view .LVU2981
 8752 12d2 2ED5     		bpl	.L707
 135:../USER/main_03.c **** 		}
 8753              		.loc 1 135 13 view .LVU2982
 8754 12d4 004E     		ldr	r6, .L1227
 8755 12d6 1FE0     		b	.L701
 8756              	.L1228:
 8757              		.align	2
 8758              	.L1227:
 8759 12d8 00000140 		.word	1073807360
 8760              	.LVL596:
 8761              	.L1184:
 135:../USER/main_03.c **** 		}
 8762              		.loc 1 135 13 view .LVU2983
 8763 12dc D8F80030 		ldr	r3, [r8]
 8764              	.L703:
 8765              	.LBB1218:
 8766              	.LBB1219:
 114:../USER/main_03.c **** 	//
 8767              		.loc 1 114 2 is_stmt 1 view .LVU2984
 114:../USER/main_03.c **** 	//
 8768              		.loc 1 114 18 view .LVU2985
 114:../USER/main_03.c **** 	//
 8769              		.loc 1 114 4 is_stmt 0 view .LVU2986
 8770 12e0 FF2B     		cmp	r3, #255
 8771 12e2 02DD     		ble	.L704
 114:../USER/main_03.c **** 	//
 8772              		.loc 1 114 25 view .LVU2987
 8773 12e4 0023     		movs	r3, #0
 8774 12e6 C8F80070 		str	r7, [r8]
 8775              	.L704:
 116:../USER/main_03.c **** 	if(kinbwp>=256) kinbwp = 0;
 8776              		.loc 1 116 39 is_stmt 1 view .LVU2988
 116:../USER/main_03.c **** 	if(kinbwp>=256) kinbwp = 0;
 8777              		.loc 1 116 2 view .LVU2989
 116:../USER/main_03.c **** 	if(kinbwp>=256) kinbwp = 0;
 8778              		.loc 1 116 11 is_stmt 0 view .LVU2990
 8779 12ea 4FF04022 		mov	r2, #1073758208
 8780 12ee 5068     		ldr	r0, [r2, #4]
 8781              	.LVL597:
 116:../USER/main_03.c **** 	if(kinbwp>=256) kinbwp = 0;
 8782              		.loc 1 116 52 view .LVU2991
 8783 12f0 591C     		adds	r1, r3, #1
 116:../USER/main_03.c **** 	if(kinbwp>=256) kinbwp = 0;
 8784              		.loc 1 116 4 view .LVU2992
 8785 12f2 8007     		lsls	r0, r0, #30
 8786 12f4 09D5     		bpl	.L706
 117:../USER/main_03.c **** 	//
 8787              		.loc 1 117 25 view .LVU2993
 8788 12f6 B1F5807F 		cmp	r1, #256
 116:../USER/main_03.c **** 	if(kinbwp>=256) kinbwp = 0;
 8789              		.loc 1 116 63 view .LVU2994
 8790 12fa 1068     		ldr	r0, [r2]
 117:../USER/main_03.c **** 	//
 8791              		.loc 1 117 25 view .LVU2995
 8792 12fc 14BF     		ite	ne
 8793 12fe 0A46     		movne	r2, r1
 8794 1300 3A46     		moveq	r2, r7
 116:../USER/main_03.c **** 	if(kinbwp>=256) kinbwp = 0;
 8795              		.loc 1 116 56 view .LVU2996
 8796 1302 09F80300 		strb	r0, [r9, r3]
 117:../USER/main_03.c **** 	//
 8797              		.loc 1 117 2 is_stmt 1 view .LVU2997
 117:../USER/main_03.c **** 	//
 8798              		.loc 1 117 25 is_stmt 0 view .LVU2998
 8799 1306 C8F80020 		str	r2, [r8]
 8800              	.L706:
 117:../USER/main_03.c **** 	//
 8801              		.loc 1 117 25 view .LVU2999
 8802              	.LBE1219:
 8803              	.LBE1218:
 135:../USER/main_03.c **** 		}
 8804              		.loc 1 135 4 is_stmt 1 view .LVU3000
 135:../USER/main_03.c **** 		}
 8805              		.loc 1 135 13 is_stmt 0 view .LVU3001
 8806 130a 3046     		mov	r0, r6
 8807 130c FFF7FEFF 		bl	GPIO_ReadBits
 8808              	.LVL598:
 135:../USER/main_03.c **** 		}
 8809              		.loc 1 135 11 view .LVU3002
 8810 1310 2490     		str	r0, [sp, #144]
 133:../USER/main_03.c **** 			key_check();
 8811              		.loc 1 133 17 view .LVU3003
 8812 1312 249B     		ldr	r3, [sp, #144]
 133:../USER/main_03.c **** 			key_check();
 8813              		.loc 1 133 8 view .LVU3004
 8814 1314 5B04     		lsls	r3, r3, #17
 8815 1316 0CD5     		bpl	.L707
 8816              	.L701:
 134:../USER/main_03.c **** 			gpiord = GPIO_ReadBits(GPIO0);
 8817              		.loc 1 134 4 is_stmt 1 view .LVU3005
 8818              	.LBB1221:
 8819              	.LBI1218:
 109:../USER/main_03.c **** 	char ch;
 8820              		.loc 1 109 6 view .LVU3006
 8821              	.LBB1220:
 110:../USER/main_03.c **** 	//
 8822              		.loc 1 110 2 view .LVU3007
 112:../USER/main_03.c **** 	if(ch!=0) kinbuf[kinbwp++] = ch;
 8823              		.loc 1 112 2 view .LVU3008
 112:../USER/main_03.c **** 	if(ch!=0) kinbuf[kinbwp++] = ch;
 8824              		.loc 1 112 7 is_stmt 0 view .LVU3009
 8825 1318 FFF7FEFF 		bl	SPI_ReadData
 8826              	.LVL599:
 113:../USER/main_03.c **** 	if(kinbwp>=256) kinbwp = 0;
 8827              		.loc 1 113 12 is_stmt 1 view .LVU3010
 112:../USER/main_03.c **** 	if(ch!=0) kinbuf[kinbwp++] = ch;
 8828              		.loc 1 112 5 is_stmt 0 view .LVU3011
 8829 131c 40B2     		sxtb	r0, r0
 8830              	.LVL600:
 113:../USER/main_03.c **** 	if(kinbwp>=256) kinbwp = 0;
 8831              		.loc 1 113 2 is_stmt 1 view .LVU3012
 113:../USER/main_03.c **** 	if(kinbwp>=256) kinbwp = 0;
 8832              		.loc 1 113 4 is_stmt 0 view .LVU3013
 8833 131e 0028     		cmp	r0, #0
 8834 1320 DCD0     		beq	.L1184
 113:../USER/main_03.c **** 	if(kinbwp>=256) kinbwp = 0;
 8835              		.loc 1 113 25 view .LVU3014
 8836 1322 D8F80020 		ldr	r2, [r8]
 8837 1326 531C     		adds	r3, r2, #1
 113:../USER/main_03.c **** 	if(kinbwp>=256) kinbwp = 0;
 8838              		.loc 1 113 29 view .LVU3015
 8839 1328 09F80200 		strb	r0, [r9, r2]
 113:../USER/main_03.c **** 	if(kinbwp>=256) kinbwp = 0;
 8840              		.loc 1 113 25 view .LVU3016
 8841 132c C8F80030 		str	r3, [r8]
 8842 1330 D6E7     		b	.L703
 8843              	.LVL601:
 8844              	.L707:
 113:../USER/main_03.c **** 	if(kinbwp>=256) kinbwp = 0;
 8845              		.loc 1 113 25 view .LVU3017
 8846              	.LBE1220:
 8847              	.LBE1221:
 137:../USER/main_03.c **** 	}
 8848              		.loc 1 137 3 is_stmt 1 view .LVU3018
 8849 1332 2846     		mov	r0, r5
 8850 1334 FFF7FEFF 		bl	SPI_WriteData
 8851              	.LVL602:
 8852              	.L700:
 8853              	.LBB1222:
 8854              	.LBB1223:
 116:../USER/main_03.c **** 	if(kinbwp>=256) kinbwp = 0;
 8855              		.loc 1 116 11 is_stmt 0 view .LVU3019
 8856 1338 4FF04025 		mov	r5, #1073758208
 8857 133c 18E0     		b	.L713
 8858              	.LVL603:
 8859              	.L1185:
 116:../USER/main_03.c **** 	if(kinbwp>=256) kinbwp = 0;
 8860              		.loc 1 116 11 view .LVU3020
 8861 133e D8F80030 		ldr	r3, [r8]
 8862              	.L709:
 114:../USER/main_03.c **** 	//
 8863              		.loc 1 114 2 is_stmt 1 view .LVU3021
 114:../USER/main_03.c **** 	//
 8864              		.loc 1 114 18 view .LVU3022
 114:../USER/main_03.c **** 	//
 8865              		.loc 1 114 4 is_stmt 0 view .LVU3023
 8866 1342 FF2B     		cmp	r3, #255
 8867 1344 02DD     		ble	.L710
 114:../USER/main_03.c **** 	//
 8868              		.loc 1 114 25 view .LVU3024
 8869 1346 0023     		movs	r3, #0
 8870 1348 C8F80070 		str	r7, [r8]
 8871              	.L710:
 116:../USER/main_03.c **** 	if(kinbwp>=256) kinbwp = 0;
 8872              		.loc 1 116 39 is_stmt 1 view .LVU3025
 116:../USER/main_03.c **** 	if(kinbwp>=256) kinbwp = 0;
 8873              		.loc 1 116 2 view .LVU3026
 116:../USER/main_03.c **** 	if(kinbwp>=256) kinbwp = 0;
 8874              		.loc 1 116 11 is_stmt 0 view .LVU3027
 8875 134c 6968     		ldr	r1, [r5, #4]
 116:../USER/main_03.c **** 	if(kinbwp>=256) kinbwp = 0;
 8876              		.loc 1 116 52 view .LVU3028
 8877 134e 5A1C     		adds	r2, r3, #1
 116:../USER/main_03.c **** 	if(kinbwp>=256) kinbwp = 0;
 8878              		.loc 1 116 4 view .LVU3029
 8879 1350 8E07     		lsls	r6, r1, #30
 8880 1352 09D5     		bpl	.L712
 117:../USER/main_03.c **** 	//
 8881              		.loc 1 117 25 view .LVU3030
 8882 1354 B2F5807F 		cmp	r2, #256
 8883 1358 14BF     		ite	ne
 8884 135a 1146     		movne	r1, r2
 8885 135c 3946     		moveq	r1, r7
 116:../USER/main_03.c **** 	if(kinbwp>=256) kinbwp = 0;
 8886              		.loc 1 116 63 view .LVU3031
 8887 135e 2868     		ldr	r0, [r5]
 8888              	.LVL604:
 117:../USER/main_03.c **** 	//
 8889              		.loc 1 117 25 view .LVU3032
 8890 1360 C8F80010 		str	r1, [r8]
 116:../USER/main_03.c **** 	if(kinbwp>=256) kinbwp = 0;
 8891              		.loc 1 116 56 view .LVU3033
 8892 1364 09F80300 		strb	r0, [r9, r3]
 117:../USER/main_03.c **** 	//
 8893              		.loc 1 117 2 is_stmt 1 view .LVU3034
 8894              	.L712:
 117:../USER/main_03.c **** 	//
 8895              		.loc 1 117 2 is_stmt 0 view .LVU3035
 8896              	.LBE1223:
 8897              	.LBE1222:
 140:../USER/main_03.c **** }
 8898              		.loc 1 140 27 is_stmt 1 view .LVU3036
 140:../USER/main_03.c **** }
 8899              		.loc 1 140 32 is_stmt 0 view .LVU3037
 8900 1368 2046     		mov	r0, r4
 8901 136a FFF7FEFF 		bl	disp_vram
 8902              	.LVL605:
 140:../USER/main_03.c **** }
 8903              		.loc 1 140 2 view .LVU3038
 8904 136e 60B1     		cbz	r0, .L714
 8905              	.LVL606:
 8906              	.L713:
 140:../USER/main_03.c **** }
 8907              		.loc 1 140 2 is_stmt 1 view .LVU3039
 140:../USER/main_03.c **** }
 8908              		.loc 1 140 10 view .LVU3040
 140:../USER/main_03.c **** }
 8909              		.loc 1 140 14 view .LVU3041
 8910              	.LBB1225:
 8911              	.LBI1222:
 109:../USER/main_03.c **** 	char ch;
 8912              		.loc 1 109 6 view .LVU3042
 8913              	.LBB1224:
 110:../USER/main_03.c **** 	//
 8914              		.loc 1 110 2 view .LVU3043
 112:../USER/main_03.c **** 	if(ch!=0) kinbuf[kinbwp++] = ch;
 8915              		.loc 1 112 2 view .LVU3044
 112:../USER/main_03.c **** 	if(ch!=0) kinbuf[kinbwp++] = ch;
 8916              		.loc 1 112 7 is_stmt 0 view .LVU3045
 8917 1370 FFF7FEFF 		bl	SPI_ReadData
 8918              	.LVL607:
 113:../USER/main_03.c **** 	if(kinbwp>=256) kinbwp = 0;
 8919              		.loc 1 113 12 is_stmt 1 view .LVU3046
 112:../USER/main_03.c **** 	if(ch!=0) kinbuf[kinbwp++] = ch;
 8920              		.loc 1 112 5 is_stmt 0 view .LVU3047
 8921 1374 40B2     		sxtb	r0, r0
 8922              	.LVL608:
 113:../USER/main_03.c **** 	if(kinbwp>=256) kinbwp = 0;
 8923              		.loc 1 113 2 is_stmt 1 view .LVU3048
 113:../USER/main_03.c **** 	if(kinbwp>=256) kinbwp = 0;
 8924              		.loc 1 113 4 is_stmt 0 view .LVU3049
 8925 1376 0028     		cmp	r0, #0
 8926 1378 E1D0     		beq	.L1185
 113:../USER/main_03.c **** 	if(kinbwp>=256) kinbwp = 0;
 8927              		.loc 1 113 25 view .LVU3050
 8928 137a D8F80020 		ldr	r2, [r8]
 8929 137e 531C     		adds	r3, r2, #1
 113:../USER/main_03.c **** 	if(kinbwp>=256) kinbwp = 0;
 8930              		.loc 1 113 29 view .LVU3051
 8931 1380 09F80200 		strb	r0, [r9, r2]
 113:../USER/main_03.c **** 	if(kinbwp>=256) kinbwp = 0;
 8932              		.loc 1 113 25 view .LVU3052
 8933 1384 C8F80030 		str	r3, [r8]
 8934 1388 DBE7     		b	.L709
 8935              	.LVL609:
 8936              	.L714:
 113:../USER/main_03.c **** 	if(kinbwp>=256) kinbwp = 0;
 8937              		.loc 1 113 25 view .LVU3053
 8938              	.LBE1224:
 8939              	.LBE1225:
 8940              	.LBE1217:
 8941              	.LBE1216:
 8942              	.LBE1203:
 8943              	.LBE1202:
 8944              	.LBE1179:
 8945              	.LBE1178:
 8946              	.LBE1252:
 8947              	.LBE1257:
 8948              	.LBE1266:
 8949              	.LBE1273:
 8950              	.LBE1492:
 169:../USER/main_03.c **** 
 8951              		.loc 1 169 56 is_stmt 1 view .LVU3054
 8952              	.LBB1493:
 8953              	.LBB1274:
 8954              	.LBI1274:
 127:../USER/main_03.c **** 	volatile uint32_t gpiord;
 8955              		.loc 1 127 6 view .LVU3055
 8956              	.LBB1275:
 128:../USER/main_03.c **** 	if((mdgpio & 0x2000)==0)
 8957              		.loc 1 128 2 view .LVU3056
 129:../USER/main_03.c **** 		UART_SendChar(UART0,ch);
 8958              		.loc 1 129 2 view .LVU3057
 129:../USER/main_03.c **** 		UART_SendChar(UART0,ch);
 8959              		.loc 1 129 13 is_stmt 0 view .LVU3058
 8960 138a DAF80030 		ldr	r3, [r10]
 129:../USER/main_03.c **** 		UART_SendChar(UART0,ch);
 8961              		.loc 1 129 4 view .LVU3059
 8962 138e 9904     		lsls	r1, r3, #18
 8963 1390 40F11283 		bpl	.L1186
 132:../USER/main_03.c **** 		while((gpiord & 0x4000)!=0) {
 8964              		.loc 1 132 3 is_stmt 1 view .LVU3060
 132:../USER/main_03.c **** 		while((gpiord & 0x4000)!=0) {
 8965              		.loc 1 132 10 is_stmt 0 view .LVU3061
 8966 1394 4FF48043 		mov	r3, #16384
 8967 1398 1C93     		str	r3, [sp, #112]
 133:../USER/main_03.c **** 			key_check();
 8968              		.loc 1 133 3 is_stmt 1 view .LVU3062
 133:../USER/main_03.c **** 			key_check();
 8969              		.loc 1 133 17 is_stmt 0 view .LVU3063
 8970 139a 1C9B     		ldr	r3, [sp, #112]
 133:../USER/main_03.c **** 			key_check();
 8971              		.loc 1 133 8 view .LVU3064
 8972 139c 5804     		lsls	r0, r3, #17
 8973 139e 2CD5     		bpl	.L722
 135:../USER/main_03.c **** 		}
 8974              		.loc 1 135 13 view .LVU3065
 8975 13a0 AB4C     		ldr	r4, .L1229
 8976 13a2 1DE0     		b	.L716
 8977              	.LVL610:
 8978              	.L1187:
 135:../USER/main_03.c **** 		}
 8979              		.loc 1 135 13 view .LVU3066
 8980 13a4 D8F80030 		ldr	r3, [r8]
 8981              	.L718:
 8982              	.LBB1276:
 8983              	.LBB1277:
 114:../USER/main_03.c **** 	//
 8984              		.loc 1 114 2 is_stmt 1 view .LVU3067
 114:../USER/main_03.c **** 	//
 8985              		.loc 1 114 18 view .LVU3068
 114:../USER/main_03.c **** 	//
 8986              		.loc 1 114 4 is_stmt 0 view .LVU3069
 8987 13a8 FF2B     		cmp	r3, #255
 8988 13aa 02DD     		ble	.L719
 114:../USER/main_03.c **** 	//
 8989              		.loc 1 114 25 view .LVU3070
 8990 13ac 0023     		movs	r3, #0
 8991 13ae C8F80070 		str	r7, [r8]
 8992              	.L719:
 116:../USER/main_03.c **** 	if(kinbwp>=256) kinbwp = 0;
 8993              		.loc 1 116 39 is_stmt 1 view .LVU3071
 116:../USER/main_03.c **** 	if(kinbwp>=256) kinbwp = 0;
 8994              		.loc 1 116 2 view .LVU3072
 116:../USER/main_03.c **** 	if(kinbwp>=256) kinbwp = 0;
 8995              		.loc 1 116 11 is_stmt 0 view .LVU3073
 8996 13b2 4FF04021 		mov	r1, #1073758208
 8997 13b6 4868     		ldr	r0, [r1, #4]
 8998              	.LVL611:
 116:../USER/main_03.c **** 	if(kinbwp>=256) kinbwp = 0;
 8999              		.loc 1 116 52 view .LVU3074
 9000 13b8 5A1C     		adds	r2, r3, #1
 116:../USER/main_03.c **** 	if(kinbwp>=256) kinbwp = 0;
 9001              		.loc 1 116 4 view .LVU3075
 9002 13ba 8007     		lsls	r0, r0, #30
 9003 13bc 09D5     		bpl	.L721
 117:../USER/main_03.c **** 	//
 9004              		.loc 1 117 25 view .LVU3076
 9005 13be B2F5807F 		cmp	r2, #256
 116:../USER/main_03.c **** 	if(kinbwp>=256) kinbwp = 0;
 9006              		.loc 1 116 63 view .LVU3077
 9007 13c2 0868     		ldr	r0, [r1]
 117:../USER/main_03.c **** 	//
 9008              		.loc 1 117 25 view .LVU3078
 9009 13c4 14BF     		ite	ne
 9010 13c6 1146     		movne	r1, r2
 9011 13c8 3946     		moveq	r1, r7
 116:../USER/main_03.c **** 	if(kinbwp>=256) kinbwp = 0;
 9012              		.loc 1 116 56 view .LVU3079
 9013 13ca 09F80300 		strb	r0, [r9, r3]
 117:../USER/main_03.c **** 	//
 9014              		.loc 1 117 2 is_stmt 1 view .LVU3080
 117:../USER/main_03.c **** 	//
 9015              		.loc 1 117 25 is_stmt 0 view .LVU3081
 9016 13ce C8F80010 		str	r1, [r8]
 9017              	.L721:
 117:../USER/main_03.c **** 	//
 9018              		.loc 1 117 25 view .LVU3082
 9019              	.LBE1277:
 9020              	.LBE1276:
 135:../USER/main_03.c **** 		}
 9021              		.loc 1 135 4 is_stmt 1 view .LVU3083
 135:../USER/main_03.c **** 		}
 9022              		.loc 1 135 13 is_stmt 0 view .LVU3084
 9023 13d2 2046     		mov	r0, r4
 9024 13d4 FFF7FEFF 		bl	GPIO_ReadBits
 9025              	.LVL612:
 135:../USER/main_03.c **** 		}
 9026              		.loc 1 135 11 view .LVU3085
 9027 13d8 1C90     		str	r0, [sp, #112]
 133:../USER/main_03.c **** 			key_check();
 9028              		.loc 1 133 17 view .LVU3086
 9029 13da 1C9B     		ldr	r3, [sp, #112]
 133:../USER/main_03.c **** 			key_check();
 9030              		.loc 1 133 8 view .LVU3087
 9031 13dc 5904     		lsls	r1, r3, #17
 9032 13de 0CD5     		bpl	.L722
 9033              	.L716:
 134:../USER/main_03.c **** 			gpiord = GPIO_ReadBits(GPIO0);
 9034              		.loc 1 134 4 is_stmt 1 view .LVU3088
 9035              	.LBB1279:
 9036              	.LBI1276:
 109:../USER/main_03.c **** 	char ch;
 9037              		.loc 1 109 6 view .LVU3089
 9038              	.LBB1278:
 110:../USER/main_03.c **** 	//
 9039              		.loc 1 110 2 view .LVU3090
 112:../USER/main_03.c **** 	if(ch!=0) kinbuf[kinbwp++] = ch;
 9040              		.loc 1 112 2 view .LVU3091
 112:../USER/main_03.c **** 	if(ch!=0) kinbuf[kinbwp++] = ch;
 9041              		.loc 1 112 7 is_stmt 0 view .LVU3092
 9042 13e0 FFF7FEFF 		bl	SPI_ReadData
 9043              	.LVL613:
 113:../USER/main_03.c **** 	if(kinbwp>=256) kinbwp = 0;
 9044              		.loc 1 113 12 is_stmt 1 view .LVU3093
 112:../USER/main_03.c **** 	if(ch!=0) kinbuf[kinbwp++] = ch;
 9045              		.loc 1 112 5 is_stmt 0 view .LVU3094
 9046 13e4 40B2     		sxtb	r0, r0
 9047              	.LVL614:
 113:../USER/main_03.c **** 	if(kinbwp>=256) kinbwp = 0;
 9048              		.loc 1 113 2 is_stmt 1 view .LVU3095
 113:../USER/main_03.c **** 	if(kinbwp>=256) kinbwp = 0;
 9049              		.loc 1 113 4 is_stmt 0 view .LVU3096
 9050 13e6 0028     		cmp	r0, #0
 9051 13e8 DCD0     		beq	.L1187
 113:../USER/main_03.c **** 	if(kinbwp>=256) kinbwp = 0;
 9052              		.loc 1 113 25 view .LVU3097
 9053 13ea D8F80020 		ldr	r2, [r8]
 9054 13ee 531C     		adds	r3, r2, #1
 113:../USER/main_03.c **** 	if(kinbwp>=256) kinbwp = 0;
 9055              		.loc 1 113 29 view .LVU3098
 9056 13f0 09F80200 		strb	r0, [r9, r2]
 113:../USER/main_03.c **** 	if(kinbwp>=256) kinbwp = 0;
 9057              		.loc 1 113 25 view .LVU3099
 9058 13f4 C8F80030 		str	r3, [r8]
 9059 13f8 D6E7     		b	.L718
 9060              	.LVL615:
 9061              	.L722:
 113:../USER/main_03.c **** 	if(kinbwp>=256) kinbwp = 0;
 9062              		.loc 1 113 25 view .LVU3100
 9063              	.LBE1278:
 9064              	.LBE1279:
 137:../USER/main_03.c **** 	}
 9065              		.loc 1 137 3 is_stmt 1 view .LVU3101
 9066 13fa 3A20     		movs	r0, #58
 9067 13fc FFF7FEFF 		bl	SPI_WriteData
 9068              	.LVL616:
 9069              	.L715:
 9070              	.LBB1280:
 9071              	.LBB1281:
 116:../USER/main_03.c **** 	if(kinbwp>=256) kinbwp = 0;
 9072              		.loc 1 116 11 is_stmt 0 view .LVU3102
 9073 1400 4FF04024 		mov	r4, #1073758208
 9074 1404 18E0     		b	.L728
 9075              	.LVL617:
 9076              	.L1189:
 116:../USER/main_03.c **** 	if(kinbwp>=256) kinbwp = 0;
 9077              		.loc 1 116 11 view .LVU3103
 9078 1406 D8F80030 		ldr	r3, [r8]
 9079              	.L724:
 114:../USER/main_03.c **** 	//
 9080              		.loc 1 114 2 is_stmt 1 view .LVU3104
 114:../USER/main_03.c **** 	//
 9081              		.loc 1 114 18 view .LVU3105
 114:../USER/main_03.c **** 	//
 9082              		.loc 1 114 4 is_stmt 0 view .LVU3106
 9083 140a FF2B     		cmp	r3, #255
 9084 140c 02DD     		ble	.L725
 114:../USER/main_03.c **** 	//
 9085              		.loc 1 114 25 view .LVU3107
 9086 140e 0023     		movs	r3, #0
 9087 1410 C8F80070 		str	r7, [r8]
 9088              	.L725:
 116:../USER/main_03.c **** 	if(kinbwp>=256) kinbwp = 0;
 9089              		.loc 1 116 39 is_stmt 1 view .LVU3108
 116:../USER/main_03.c **** 	if(kinbwp>=256) kinbwp = 0;
 9090              		.loc 1 116 2 view .LVU3109
 116:../USER/main_03.c **** 	if(kinbwp>=256) kinbwp = 0;
 9091              		.loc 1 116 11 is_stmt 0 view .LVU3110
 9092 1414 6168     		ldr	r1, [r4, #4]
 116:../USER/main_03.c **** 	if(kinbwp>=256) kinbwp = 0;
 9093              		.loc 1 116 52 view .LVU3111
 9094 1416 5A1C     		adds	r2, r3, #1
 116:../USER/main_03.c **** 	if(kinbwp>=256) kinbwp = 0;
 9095              		.loc 1 116 4 view .LVU3112
 9096 1418 8D07     		lsls	r5, r1, #30
 9097 141a 09D5     		bpl	.L727
 117:../USER/main_03.c **** 	//
 9098              		.loc 1 117 25 view .LVU3113
 9099 141c B2F5807F 		cmp	r2, #256
 9100 1420 14BF     		ite	ne
 9101 1422 1146     		movne	r1, r2
 9102 1424 3946     		moveq	r1, r7
 116:../USER/main_03.c **** 	if(kinbwp>=256) kinbwp = 0;
 9103              		.loc 1 116 63 view .LVU3114
 9104 1426 2068     		ldr	r0, [r4]
 9105              	.LVL618:
 117:../USER/main_03.c **** 	//
 9106              		.loc 1 117 25 view .LVU3115
 9107 1428 C8F80010 		str	r1, [r8]
 116:../USER/main_03.c **** 	if(kinbwp>=256) kinbwp = 0;
 9108              		.loc 1 116 56 view .LVU3116
 9109 142c 09F80300 		strb	r0, [r9, r3]
 117:../USER/main_03.c **** 	//
 9110              		.loc 1 117 2 is_stmt 1 view .LVU3117
 9111              	.L727:
 117:../USER/main_03.c **** 	//
 9112              		.loc 1 117 2 is_stmt 0 view .LVU3118
 9113              	.LBE1281:
 9114              	.LBE1280:
 140:../USER/main_03.c **** }
 9115              		.loc 1 140 27 is_stmt 1 view .LVU3119
 140:../USER/main_03.c **** }
 9116              		.loc 1 140 32 is_stmt 0 view .LVU3120
 9117 1430 3A20     		movs	r0, #58
 9118 1432 FFF7FEFF 		bl	disp_vram
 9119              	.LVL619:
 140:../USER/main_03.c **** }
 9120              		.loc 1 140 2 view .LVU3121
 9121 1436 60B1     		cbz	r0, .L1188
 9122              	.LVL620:
 9123              	.L728:
 140:../USER/main_03.c **** }
 9124              		.loc 1 140 2 is_stmt 1 view .LVU3122
 140:../USER/main_03.c **** }
 9125              		.loc 1 140 10 view .LVU3123
 140:../USER/main_03.c **** }
 9126              		.loc 1 140 14 view .LVU3124
 9127              	.LBB1283:
 9128              	.LBI1280:
 109:../USER/main_03.c **** 	char ch;
 9129              		.loc 1 109 6 view .LVU3125
 9130              	.LBB1282:
 110:../USER/main_03.c **** 	//
 9131              		.loc 1 110 2 view .LVU3126
 112:../USER/main_03.c **** 	if(ch!=0) kinbuf[kinbwp++] = ch;
 9132              		.loc 1 112 2 view .LVU3127
 112:../USER/main_03.c **** 	if(ch!=0) kinbuf[kinbwp++] = ch;
 9133              		.loc 1 112 7 is_stmt 0 view .LVU3128
 9134 1438 FFF7FEFF 		bl	SPI_ReadData
 9135              	.LVL621:
 113:../USER/main_03.c **** 	if(kinbwp>=256) kinbwp = 0;
 9136              		.loc 1 113 12 is_stmt 1 view .LVU3129
 112:../USER/main_03.c **** 	if(ch!=0) kinbuf[kinbwp++] = ch;
 9137              		.loc 1 112 5 is_stmt 0 view .LVU3130
 9138 143c 40B2     		sxtb	r0, r0
 9139              	.LVL622:
 113:../USER/main_03.c **** 	if(kinbwp>=256) kinbwp = 0;
 9140              		.loc 1 113 2 is_stmt 1 view .LVU3131
 113:../USER/main_03.c **** 	if(kinbwp>=256) kinbwp = 0;
 9141              		.loc 1 113 4 is_stmt 0 view .LVU3132
 9142 143e 0028     		cmp	r0, #0
 9143 1440 E1D0     		beq	.L1189
 113:../USER/main_03.c **** 	if(kinbwp>=256) kinbwp = 0;
 9144              		.loc 1 113 25 view .LVU3133
 9145 1442 D8F80020 		ldr	r2, [r8]
 9146 1446 531C     		adds	r3, r2, #1
 113:../USER/main_03.c **** 	if(kinbwp>=256) kinbwp = 0;
 9147              		.loc 1 113 29 view .LVU3134
 9148 1448 09F80200 		strb	r0, [r9, r2]
 113:../USER/main_03.c **** 	if(kinbwp>=256) kinbwp = 0;
 9149              		.loc 1 113 25 view .LVU3135
 9150 144c C8F80030 		str	r3, [r8]
 9151 1450 DBE7     		b	.L724
 9152              	.LVL623:
 9153              	.L1188:
 113:../USER/main_03.c **** 	if(kinbwp>=256) kinbwp = 0;
 9154              		.loc 1 113 25 view .LVU3136
 9155              	.LBE1282:
 9156              	.LBE1283:
 9157              	.LBE1275:
 9158              	.LBE1274:
 9159              	.LBE1493:
 254:../USER/main_03.c **** 	        while(cmd!='.'){
 255:../USER/main_03.c **** 	          putadrhd(adr);
 256:../USER/main_03.c **** 	          putch(' '); puth2(mbase[adr]); if(mmd==2) puth2(mbase[adr+1]);
 9160              		.loc 1 256 12 is_stmt 1 view .LVU3137
 9161              	.LBB1494:
 9162              	.LBI1494:
 127:../USER/main_03.c **** 	volatile uint32_t gpiord;
 9163              		.loc 1 127 6 view .LVU3138
 9164              	.LBB1495:
 128:../USER/main_03.c **** 	if((mdgpio & 0x2000)==0)
 9165              		.loc 1 128 2 view .LVU3139
 129:../USER/main_03.c **** 		UART_SendChar(UART0,ch);
 9166              		.loc 1 129 2 view .LVU3140
 129:../USER/main_03.c **** 		UART_SendChar(UART0,ch);
 9167              		.loc 1 129 13 is_stmt 0 view .LVU3141
 9168 1452 DAF80030 		ldr	r3, [r10]
 129:../USER/main_03.c **** 		UART_SendChar(UART0,ch);
 9169              		.loc 1 129 4 view .LVU3142
 9170 1456 9A04     		lsls	r2, r3, #18
 9171 1458 40F1A882 		bpl	.L1190
 132:../USER/main_03.c **** 		while((gpiord & 0x4000)!=0) {
 9172              		.loc 1 132 3 is_stmt 1 view .LVU3143
 132:../USER/main_03.c **** 		while((gpiord & 0x4000)!=0) {
 9173              		.loc 1 132 10 is_stmt 0 view .LVU3144
 9174 145c 4FF48043 		mov	r3, #16384
 9175 1460 1A93     		str	r3, [sp, #104]
 133:../USER/main_03.c **** 			key_check();
 9176              		.loc 1 133 3 is_stmt 1 view .LVU3145
 133:../USER/main_03.c **** 			key_check();
 9177              		.loc 1 133 17 is_stmt 0 view .LVU3146
 9178 1462 1A9B     		ldr	r3, [sp, #104]
 133:../USER/main_03.c **** 			key_check();
 9179              		.loc 1 133 8 view .LVU3147
 9180 1464 5B04     		lsls	r3, r3, #17
 9181 1466 2CD5     		bpl	.L737
 135:../USER/main_03.c **** 		}
 9182              		.loc 1 135 13 view .LVU3148
 9183 1468 794C     		ldr	r4, .L1229
 9184 146a 1DE0     		b	.L731
 9185              	.LVL624:
 9186              	.L1191:
 135:../USER/main_03.c **** 		}
 9187              		.loc 1 135 13 view .LVU3149
 9188 146c D8F80030 		ldr	r3, [r8]
 9189              	.L733:
 9190              	.LBB1496:
 9191              	.LBB1497:
 114:../USER/main_03.c **** 	//
 9192              		.loc 1 114 2 is_stmt 1 view .LVU3150
 114:../USER/main_03.c **** 	//
 9193              		.loc 1 114 18 view .LVU3151
 114:../USER/main_03.c **** 	//
 9194              		.loc 1 114 4 is_stmt 0 view .LVU3152
 9195 1470 FF2B     		cmp	r3, #255
 9196 1472 02DD     		ble	.L734
 114:../USER/main_03.c **** 	//
 9197              		.loc 1 114 25 view .LVU3153
 9198 1474 0023     		movs	r3, #0
 9199 1476 C8F80070 		str	r7, [r8]
 9200              	.L734:
 116:../USER/main_03.c **** 	if(kinbwp>=256) kinbwp = 0;
 9201              		.loc 1 116 39 is_stmt 1 view .LVU3154
 116:../USER/main_03.c **** 	if(kinbwp>=256) kinbwp = 0;
 9202              		.loc 1 116 2 view .LVU3155
 116:../USER/main_03.c **** 	if(kinbwp>=256) kinbwp = 0;
 9203              		.loc 1 116 11 is_stmt 0 view .LVU3156
 9204 147a 4FF04021 		mov	r1, #1073758208
 9205 147e 4868     		ldr	r0, [r1, #4]
 9206              	.LVL625:
 116:../USER/main_03.c **** 	if(kinbwp>=256) kinbwp = 0;
 9207              		.loc 1 116 52 view .LVU3157
 9208 1480 5A1C     		adds	r2, r3, #1
 116:../USER/main_03.c **** 	if(kinbwp>=256) kinbwp = 0;
 9209              		.loc 1 116 4 view .LVU3158
 9210 1482 8607     		lsls	r6, r0, #30
 9211 1484 09D5     		bpl	.L736
 117:../USER/main_03.c **** 	//
 9212              		.loc 1 117 25 view .LVU3159
 9213 1486 B2F5807F 		cmp	r2, #256
 116:../USER/main_03.c **** 	if(kinbwp>=256) kinbwp = 0;
 9214              		.loc 1 116 63 view .LVU3160
 9215 148a 0868     		ldr	r0, [r1]
 117:../USER/main_03.c **** 	//
 9216              		.loc 1 117 25 view .LVU3161
 9217 148c 14BF     		ite	ne
 9218 148e 1146     		movne	r1, r2
 9219 1490 3946     		moveq	r1, r7
 116:../USER/main_03.c **** 	if(kinbwp>=256) kinbwp = 0;
 9220              		.loc 1 116 56 view .LVU3162
 9221 1492 09F80300 		strb	r0, [r9, r3]
 117:../USER/main_03.c **** 	//
 9222              		.loc 1 117 2 is_stmt 1 view .LVU3163
 117:../USER/main_03.c **** 	//
 9223              		.loc 1 117 25 is_stmt 0 view .LVU3164
 9224 1496 C8F80010 		str	r1, [r8]
 9225              	.L736:
 117:../USER/main_03.c **** 	//
 9226              		.loc 1 117 25 view .LVU3165
 9227              	.LBE1497:
 9228              	.LBE1496:
 135:../USER/main_03.c **** 		}
 9229              		.loc 1 135 4 is_stmt 1 view .LVU3166
 135:../USER/main_03.c **** 		}
 9230              		.loc 1 135 13 is_stmt 0 view .LVU3167
 9231 149a 2046     		mov	r0, r4
 9232 149c FFF7FEFF 		bl	GPIO_ReadBits
 9233              	.LVL626:
 135:../USER/main_03.c **** 		}
 9234              		.loc 1 135 11 view .LVU3168
 9235 14a0 1A90     		str	r0, [sp, #104]
 133:../USER/main_03.c **** 			key_check();
 9236              		.loc 1 133 17 view .LVU3169
 9237 14a2 1A9B     		ldr	r3, [sp, #104]
 133:../USER/main_03.c **** 			key_check();
 9238              		.loc 1 133 8 view .LVU3170
 9239 14a4 5E04     		lsls	r6, r3, #17
 9240 14a6 0CD5     		bpl	.L737
 9241              	.L731:
 134:../USER/main_03.c **** 			gpiord = GPIO_ReadBits(GPIO0);
 9242              		.loc 1 134 4 is_stmt 1 view .LVU3171
 9243              	.LBB1499:
 9244              	.LBI1496:
 109:../USER/main_03.c **** 	char ch;
 9245              		.loc 1 109 6 view .LVU3172
 9246              	.LBB1498:
 110:../USER/main_03.c **** 	//
 9247              		.loc 1 110 2 view .LVU3173
 112:../USER/main_03.c **** 	if(ch!=0) kinbuf[kinbwp++] = ch;
 9248              		.loc 1 112 2 view .LVU3174
 112:../USER/main_03.c **** 	if(ch!=0) kinbuf[kinbwp++] = ch;
 9249              		.loc 1 112 7 is_stmt 0 view .LVU3175
 9250 14a8 FFF7FEFF 		bl	SPI_ReadData
 9251              	.LVL627:
 113:../USER/main_03.c **** 	if(kinbwp>=256) kinbwp = 0;
 9252              		.loc 1 113 12 is_stmt 1 view .LVU3176
 112:../USER/main_03.c **** 	if(ch!=0) kinbuf[kinbwp++] = ch;
 9253              		.loc 1 112 5 is_stmt 0 view .LVU3177
 9254 14ac 40B2     		sxtb	r0, r0
 9255              	.LVL628:
 113:../USER/main_03.c **** 	if(kinbwp>=256) kinbwp = 0;
 9256              		.loc 1 113 2 is_stmt 1 view .LVU3178
 113:../USER/main_03.c **** 	if(kinbwp>=256) kinbwp = 0;
 9257              		.loc 1 113 4 is_stmt 0 view .LVU3179
 9258 14ae 0028     		cmp	r0, #0
 9259 14b0 DCD0     		beq	.L1191
 113:../USER/main_03.c **** 	if(kinbwp>=256) kinbwp = 0;
 9260              		.loc 1 113 25 view .LVU3180
 9261 14b2 D8F80020 		ldr	r2, [r8]
 9262 14b6 531C     		adds	r3, r2, #1
 113:../USER/main_03.c **** 	if(kinbwp>=256) kinbwp = 0;
 9263              		.loc 1 113 29 view .LVU3181
 9264 14b8 09F80200 		strb	r0, [r9, r2]
 113:../USER/main_03.c **** 	if(kinbwp>=256) kinbwp = 0;
 9265              		.loc 1 113 25 view .LVU3182
 9266 14bc C8F80030 		str	r3, [r8]
 9267 14c0 D6E7     		b	.L733
 9268              	.LVL629:
 9269              	.L737:
 113:../USER/main_03.c **** 	if(kinbwp>=256) kinbwp = 0;
 9270              		.loc 1 113 25 view .LVU3183
 9271              	.LBE1498:
 9272              	.LBE1499:
 137:../USER/main_03.c **** 	}
 9273              		.loc 1 137 3 is_stmt 1 view .LVU3184
 9274 14c2 2020     		movs	r0, #32
 9275 14c4 FFF7FEFF 		bl	SPI_WriteData
 9276              	.LVL630:
 9277              	.L730:
 9278              	.LBB1500:
 9279              	.LBB1501:
 116:../USER/main_03.c **** 	if(kinbwp>=256) kinbwp = 0;
 9280              		.loc 1 116 11 is_stmt 0 view .LVU3185
 9281 14c8 4FF04024 		mov	r4, #1073758208
 9282 14cc 18E0     		b	.L743
 9283              	.LVL631:
 9284              	.L1193:
 116:../USER/main_03.c **** 	if(kinbwp>=256) kinbwp = 0;
 9285              		.loc 1 116 11 view .LVU3186
 9286 14ce D8F80030 		ldr	r3, [r8]
 9287              	.L739:
 114:../USER/main_03.c **** 	//
 9288              		.loc 1 114 2 is_stmt 1 view .LVU3187
 114:../USER/main_03.c **** 	//
 9289              		.loc 1 114 18 view .LVU3188
 114:../USER/main_03.c **** 	//
 9290              		.loc 1 114 4 is_stmt 0 view .LVU3189
 9291 14d2 FF2B     		cmp	r3, #255
 9292 14d4 02DD     		ble	.L740
 114:../USER/main_03.c **** 	//
 9293              		.loc 1 114 25 view .LVU3190
 9294 14d6 0023     		movs	r3, #0
 9295 14d8 C8F80070 		str	r7, [r8]
 9296              	.L740:
 116:../USER/main_03.c **** 	if(kinbwp>=256) kinbwp = 0;
 9297              		.loc 1 116 39 is_stmt 1 view .LVU3191
 116:../USER/main_03.c **** 	if(kinbwp>=256) kinbwp = 0;
 9298              		.loc 1 116 2 view .LVU3192
 116:../USER/main_03.c **** 	if(kinbwp>=256) kinbwp = 0;
 9299              		.loc 1 116 11 is_stmt 0 view .LVU3193
 9300 14dc 6168     		ldr	r1, [r4, #4]
 116:../USER/main_03.c **** 	if(kinbwp>=256) kinbwp = 0;
 9301              		.loc 1 116 52 view .LVU3194
 9302 14de 5A1C     		adds	r2, r3, #1
 116:../USER/main_03.c **** 	if(kinbwp>=256) kinbwp = 0;
 9303              		.loc 1 116 4 view .LVU3195
 9304 14e0 8807     		lsls	r0, r1, #30
 9305              	.LVL632:
 116:../USER/main_03.c **** 	if(kinbwp>=256) kinbwp = 0;
 9306              		.loc 1 116 4 view .LVU3196
 9307 14e2 09D5     		bpl	.L742
 117:../USER/main_03.c **** 	//
 9308              		.loc 1 117 25 view .LVU3197
 9309 14e4 B2F5807F 		cmp	r2, #256
 9310 14e8 14BF     		ite	ne
 9311 14ea 1146     		movne	r1, r2
 9312 14ec 3946     		moveq	r1, r7
 116:../USER/main_03.c **** 	if(kinbwp>=256) kinbwp = 0;
 9313              		.loc 1 116 63 view .LVU3198
 9314 14ee 2068     		ldr	r0, [r4]
 117:../USER/main_03.c **** 	//
 9315              		.loc 1 117 25 view .LVU3199
 9316 14f0 C8F80010 		str	r1, [r8]
 116:../USER/main_03.c **** 	if(kinbwp>=256) kinbwp = 0;
 9317              		.loc 1 116 56 view .LVU3200
 9318 14f4 09F80300 		strb	r0, [r9, r3]
 117:../USER/main_03.c **** 	//
 9319              		.loc 1 117 2 is_stmt 1 view .LVU3201
 9320              	.L742:
 117:../USER/main_03.c **** 	//
 9321              		.loc 1 117 2 is_stmt 0 view .LVU3202
 9322              	.LBE1501:
 9323              	.LBE1500:
 140:../USER/main_03.c **** }
 9324              		.loc 1 140 27 is_stmt 1 view .LVU3203
 140:../USER/main_03.c **** }
 9325              		.loc 1 140 32 is_stmt 0 view .LVU3204
 9326 14f8 2020     		movs	r0, #32
 9327 14fa FFF7FEFF 		bl	disp_vram
 9328              	.LVL633:
 140:../USER/main_03.c **** }
 9329              		.loc 1 140 2 view .LVU3205
 9330 14fe 60B1     		cbz	r0, .L1192
 9331              	.LVL634:
 9332              	.L743:
 140:../USER/main_03.c **** }
 9333              		.loc 1 140 2 is_stmt 1 view .LVU3206
 140:../USER/main_03.c **** }
 9334              		.loc 1 140 10 view .LVU3207
 140:../USER/main_03.c **** }
 9335              		.loc 1 140 14 view .LVU3208
 9336              	.LBB1503:
 9337              	.LBI1500:
 109:../USER/main_03.c **** 	char ch;
 9338              		.loc 1 109 6 view .LVU3209
 9339              	.LBB1502:
 110:../USER/main_03.c **** 	//
 9340              		.loc 1 110 2 view .LVU3210
 112:../USER/main_03.c **** 	if(ch!=0) kinbuf[kinbwp++] = ch;
 9341              		.loc 1 112 2 view .LVU3211
 112:../USER/main_03.c **** 	if(ch!=0) kinbuf[kinbwp++] = ch;
 9342              		.loc 1 112 7 is_stmt 0 view .LVU3212
 9343 1500 FFF7FEFF 		bl	SPI_ReadData
 9344              	.LVL635:
 113:../USER/main_03.c **** 	if(kinbwp>=256) kinbwp = 0;
 9345              		.loc 1 113 12 is_stmt 1 view .LVU3213
 112:../USER/main_03.c **** 	if(ch!=0) kinbuf[kinbwp++] = ch;
 9346              		.loc 1 112 5 is_stmt 0 view .LVU3214
 9347 1504 40B2     		sxtb	r0, r0
 9348              	.LVL636:
 113:../USER/main_03.c **** 	if(kinbwp>=256) kinbwp = 0;
 9349              		.loc 1 113 2 is_stmt 1 view .LVU3215
 113:../USER/main_03.c **** 	if(kinbwp>=256) kinbwp = 0;
 9350              		.loc 1 113 4 is_stmt 0 view .LVU3216
 9351 1506 0028     		cmp	r0, #0
 9352 1508 E1D0     		beq	.L1193
 113:../USER/main_03.c **** 	if(kinbwp>=256) kinbwp = 0;
 9353              		.loc 1 113 25 view .LVU3217
 9354 150a D8F80020 		ldr	r2, [r8]
 9355 150e 531C     		adds	r3, r2, #1
 113:../USER/main_03.c **** 	if(kinbwp>=256) kinbwp = 0;
 9356              		.loc 1 113 29 view .LVU3218
 9357 1510 09F80200 		strb	r0, [r9, r2]
 113:../USER/main_03.c **** 	if(kinbwp>=256) kinbwp = 0;
 9358              		.loc 1 113 25 view .LVU3219
 9359 1514 C8F80030 		str	r3, [r8]
 9360 1518 DBE7     		b	.L739
 9361              	.LVL637:
 9362              	.L1192:
 113:../USER/main_03.c **** 	if(kinbwp>=256) kinbwp = 0;
 9363              		.loc 1 113 25 view .LVU3220
 9364              	.LBE1502:
 9365              	.LBE1503:
 9366              	.LBE1495:
 9367              	.LBE1494:
 9368              		.loc 1 256 24 is_stmt 1 view .LVU3221
 9369              		.loc 1 256 35 is_stmt 0 view .LVU3222
 9370 151a 9BF80040 		ldrb	r4, [fp]	@ zero_extendqisi2
 9371              	.LVL638:
 9372              	.LBB1505:
 9373              	.LBI1505:
 144:../USER/main_03.c **** void puth4(dt) int dt;{ puth2((dt >> 8) & 0xff); puth2(dt & 0xff); }
 9374              		.loc 1 144 6 is_stmt 1 view .LVU3223
 9375              	.LBB1506:
 144:../USER/main_03.c **** void puth4(dt) int dt;{ puth2((dt >> 8) & 0xff); puth2(dt & 0xff); }
 9376              		.loc 1 144 25 view .LVU3224
 144:../USER/main_03.c **** void puth4(dt) int dt;{ puth2((dt >> 8) & 0xff); puth2(dt & 0xff); }
 9377              		.loc 1 144 34 is_stmt 0 view .LVU3225
 9378 151e 2311     		asrs	r3, r4, #4
 9379              	.LVL639:
 9380              	.LBB1507:
 9381              	.LBI1507:
 143:../USER/main_03.c **** void puth2(dt) int dt;{ puth((dt >> 4) & 0xf); puth(dt & 0xf); }
 9382              		.loc 1 143 6 is_stmt 1 view .LVU3226
 9383              	.LBB1508:
 143:../USER/main_03.c **** void puth2(dt) int dt;{ puth((dt >> 4) & 0xf); puth(dt & 0xf); }
 9384              		.loc 1 143 24 view .LVU3227
 143:../USER/main_03.c **** void puth2(dt) int dt;{ puth((dt >> 4) & 0xf); puth(dt & 0xf); }
 9385              		.loc 1 143 34 view .LVU3228
 143:../USER/main_03.c **** void puth2(dt) int dt;{ puth((dt >> 4) & 0xf); puth(dt & 0xf); }
 9386              		.loc 1 143 55 view .LVU3229
 9387 1520 D8B2     		uxtb	r0, r3
 143:../USER/main_03.c **** void puth2(dt) int dt;{ puth((dt >> 4) & 0xf); puth(dt & 0xf); }
 9388              		.loc 1 143 26 is_stmt 0 view .LVU3230
 9389 1522 092B     		cmp	r3, #9
 143:../USER/main_03.c **** void puth2(dt) int dt;{ puth((dt >> 4) & 0xf); puth(dt & 0xf); }
 9390              		.loc 1 143 34 view .LVU3231
 9391 1524 D4BF     		ite	le
 9392 1526 3030     		addle	r0, r0, #48
 143:../USER/main_03.c **** void puth2(dt) int dt;{ puth((dt >> 4) & 0xf); puth(dt & 0xf); }
 9393              		.loc 1 143 55 view .LVU3232
 9394 1528 3730     		addgt	r0, r0, #55
 9395 152a 04F00F04 		and	r4, r4, #15
 9396              	.LVL640:
 143:../USER/main_03.c **** void puth2(dt) int dt;{ puth((dt >> 4) & 0xf); puth(dt & 0xf); }
 9397              		.loc 1 143 55 view .LVU3233
 9398 152e FFF7FEFF 		bl	putch_uart
 9399              	.LVL641:
 143:../USER/main_03.c **** void puth2(dt) int dt;{ puth((dt >> 4) & 0xf); puth(dt & 0xf); }
 9400              		.loc 1 143 55 view .LVU3234
 9401              	.LBE1508:
 9402              	.LBE1507:
 144:../USER/main_03.c **** void puth4(dt) int dt;{ puth2((dt >> 8) & 0xff); puth2(dt & 0xff); }
 9403              		.loc 1 144 48 is_stmt 1 view .LVU3235
 9404              	.LBB1509:
 9405              	.LBI1509:
 143:../USER/main_03.c **** void puth2(dt) int dt;{ puth((dt >> 4) & 0xf); puth(dt & 0xf); }
 9406              		.loc 1 143 6 view .LVU3236
 9407              	.LBB1510:
 143:../USER/main_03.c **** void puth2(dt) int dt;{ puth((dt >> 4) & 0xf); puth(dt & 0xf); }
 9408              		.loc 1 143 24 view .LVU3237
 143:../USER/main_03.c **** void puth2(dt) int dt;{ puth((dt >> 4) & 0xf); puth(dt & 0xf); }
 9409              		.loc 1 143 34 view .LVU3238
 143:../USER/main_03.c **** void puth2(dt) int dt;{ puth((dt >> 4) & 0xf); puth(dt & 0xf); }
 9410              		.loc 1 143 55 view .LVU3239
 143:../USER/main_03.c **** void puth2(dt) int dt;{ puth((dt >> 4) & 0xf); puth(dt & 0xf); }
 9411              		.loc 1 143 26 is_stmt 0 view .LVU3240
 9412 1532 092C     		cmp	r4, #9
 143:../USER/main_03.c **** void puth2(dt) int dt;{ puth((dt >> 4) & 0xf); puth(dt & 0xf); }
 9413              		.loc 1 143 34 view .LVU3241
 9414 1534 94BF     		ite	ls
 9415 1536 04F13000 		addls	r0, r4, #48
 143:../USER/main_03.c **** void puth2(dt) int dt;{ puth((dt >> 4) & 0xf); puth(dt & 0xf); }
 9416              		.loc 1 143 55 view .LVU3242
 9417 153a 04F13700 		addhi	r0, r4, #55
 9418 153e FFF7FEFF 		bl	putch_uart
 9419              	.LVL642:
 143:../USER/main_03.c **** void puth2(dt) int dt;{ puth((dt >> 4) & 0xf); puth(dt & 0xf); }
 9420              		.loc 1 143 55 view .LVU3243
 9421              	.LBE1510:
 9422              	.LBE1509:
 9423              	.LBE1506:
 9424              	.LBE1505:
 9425              		.loc 1 256 43 is_stmt 1 view .LVU3244
 9426              		.loc 1 256 45 is_stmt 0 view .LVU3245
 9427 1542 049B     		ldr	r3, [sp, #16]
 9428 1544 022B     		cmp	r3, #2
 9429 1546 00F05282 		beq	.L1194
 9430              	.L748:
 257:../USER/main_03.c **** 	          putch(' ');
 9431              		.loc 1 257 12 is_stmt 1 view .LVU3246
 9432              	.LBB1511:
 9433              	.LBI1511:
 127:../USER/main_03.c **** 	volatile uint32_t gpiord;
 9434              		.loc 1 127 6 view .LVU3247
 9435              	.LVL643:
 9436              	.LBB1512:
 128:../USER/main_03.c **** 	if((mdgpio & 0x2000)==0)
 9437              		.loc 1 128 2 view .LVU3248
 129:../USER/main_03.c **** 		UART_SendChar(UART0,ch);
 9438              		.loc 1 129 2 view .LVU3249
 129:../USER/main_03.c **** 		UART_SendChar(UART0,ch);
 9439              		.loc 1 129 13 is_stmt 0 view .LVU3250
 9440 154a DAF80030 		ldr	r3, [r10]
 129:../USER/main_03.c **** 		UART_SendChar(UART0,ch);
 9441              		.loc 1 129 4 view .LVU3251
 9442 154e 9D04     		lsls	r5, r3, #18
 9443 1550 40F12682 		bpl	.L1195
 132:../USER/main_03.c **** 		while((gpiord & 0x4000)!=0) {
 9444              		.loc 1 132 3 is_stmt 1 view .LVU3252
 132:../USER/main_03.c **** 		while((gpiord & 0x4000)!=0) {
 9445              		.loc 1 132 10 is_stmt 0 view .LVU3253
 9446 1554 4FF48043 		mov	r3, #16384
 9447 1558 2593     		str	r3, [sp, #148]
 133:../USER/main_03.c **** 			key_check();
 9448              		.loc 1 133 3 is_stmt 1 view .LVU3254
 133:../USER/main_03.c **** 			key_check();
 9449              		.loc 1 133 17 is_stmt 0 view .LVU3255
 9450 155a 259B     		ldr	r3, [sp, #148]
 133:../USER/main_03.c **** 			key_check();
 9451              		.loc 1 133 8 view .LVU3256
 9452 155c 5C04     		lsls	r4, r3, #17
 9453 155e 2CD5     		bpl	.L760
 135:../USER/main_03.c **** 		}
 9454              		.loc 1 135 13 view .LVU3257
 9455 1560 3B4C     		ldr	r4, .L1229
 9456 1562 1DE0     		b	.L754
 9457              	.LVL644:
 9458              	.L1196:
 135:../USER/main_03.c **** 		}
 9459              		.loc 1 135 13 view .LVU3258
 9460 1564 D8F80030 		ldr	r3, [r8]
 9461              	.L756:
 9462              	.LBB1513:
 9463              	.LBB1514:
 114:../USER/main_03.c **** 	//
 9464              		.loc 1 114 2 is_stmt 1 view .LVU3259
 114:../USER/main_03.c **** 	//
 9465              		.loc 1 114 18 view .LVU3260
 114:../USER/main_03.c **** 	//
 9466              		.loc 1 114 4 is_stmt 0 view .LVU3261
 9467 1568 FF2B     		cmp	r3, #255
 9468 156a 02DD     		ble	.L757
 114:../USER/main_03.c **** 	//
 9469              		.loc 1 114 25 view .LVU3262
 9470 156c 0023     		movs	r3, #0
 9471 156e C8F80070 		str	r7, [r8]
 9472              	.L757:
 116:../USER/main_03.c **** 	if(kinbwp>=256) kinbwp = 0;
 9473              		.loc 1 116 39 is_stmt 1 view .LVU3263
 116:../USER/main_03.c **** 	if(kinbwp>=256) kinbwp = 0;
 9474              		.loc 1 116 2 view .LVU3264
 116:../USER/main_03.c **** 	if(kinbwp>=256) kinbwp = 0;
 9475              		.loc 1 116 11 is_stmt 0 view .LVU3265
 9476 1572 4FF04021 		mov	r1, #1073758208
 9477 1576 4868     		ldr	r0, [r1, #4]
 9478              	.LVL645:
 116:../USER/main_03.c **** 	if(kinbwp>=256) kinbwp = 0;
 9479              		.loc 1 116 52 view .LVU3266
 9480 1578 5A1C     		adds	r2, r3, #1
 116:../USER/main_03.c **** 	if(kinbwp>=256) kinbwp = 0;
 9481              		.loc 1 116 4 view .LVU3267
 9482 157a 8507     		lsls	r5, r0, #30
 9483 157c 09D5     		bpl	.L759
 117:../USER/main_03.c **** 	//
 9484              		.loc 1 117 25 view .LVU3268
 9485 157e B2F5807F 		cmp	r2, #256
 116:../USER/main_03.c **** 	if(kinbwp>=256) kinbwp = 0;
 9486              		.loc 1 116 63 view .LVU3269
 9487 1582 0868     		ldr	r0, [r1]
 117:../USER/main_03.c **** 	//
 9488              		.loc 1 117 25 view .LVU3270
 9489 1584 14BF     		ite	ne
 9490 1586 1146     		movne	r1, r2
 9491 1588 3946     		moveq	r1, r7
 116:../USER/main_03.c **** 	if(kinbwp>=256) kinbwp = 0;
 9492              		.loc 1 116 56 view .LVU3271
 9493 158a 09F80300 		strb	r0, [r9, r3]
 117:../USER/main_03.c **** 	//
 9494              		.loc 1 117 2 is_stmt 1 view .LVU3272
 117:../USER/main_03.c **** 	//
 9495              		.loc 1 117 25 is_stmt 0 view .LVU3273
 9496 158e C8F80010 		str	r1, [r8]
 9497              	.L759:
 117:../USER/main_03.c **** 	//
 9498              		.loc 1 117 25 view .LVU3274
 9499              	.LBE1514:
 9500              	.LBE1513:
 135:../USER/main_03.c **** 		}
 9501              		.loc 1 135 4 is_stmt 1 view .LVU3275
 135:../USER/main_03.c **** 		}
 9502              		.loc 1 135 13 is_stmt 0 view .LVU3276
 9503 1592 2046     		mov	r0, r4
 9504 1594 FFF7FEFF 		bl	GPIO_ReadBits
 9505              	.LVL646:
 135:../USER/main_03.c **** 		}
 9506              		.loc 1 135 11 view .LVU3277
 9507 1598 2590     		str	r0, [sp, #148]
 133:../USER/main_03.c **** 			key_check();
 9508              		.loc 1 133 17 view .LVU3278
 9509 159a 259B     		ldr	r3, [sp, #148]
 133:../USER/main_03.c **** 			key_check();
 9510              		.loc 1 133 8 view .LVU3279
 9511 159c 5804     		lsls	r0, r3, #17
 9512 159e 0CD5     		bpl	.L760
 9513              	.L754:
 134:../USER/main_03.c **** 			gpiord = GPIO_ReadBits(GPIO0);
 9514              		.loc 1 134 4 is_stmt 1 view .LVU3280
 9515              	.LBB1516:
 9516              	.LBI1513:
 109:../USER/main_03.c **** 	char ch;
 9517              		.loc 1 109 6 view .LVU3281
 9518              	.LBB1515:
 110:../USER/main_03.c **** 	//
 9519              		.loc 1 110 2 view .LVU3282
 112:../USER/main_03.c **** 	if(ch!=0) kinbuf[kinbwp++] = ch;
 9520              		.loc 1 112 2 view .LVU3283
 112:../USER/main_03.c **** 	if(ch!=0) kinbuf[kinbwp++] = ch;
 9521              		.loc 1 112 7 is_stmt 0 view .LVU3284
 9522 15a0 FFF7FEFF 		bl	SPI_ReadData
 9523              	.LVL647:
 113:../USER/main_03.c **** 	if(kinbwp>=256) kinbwp = 0;
 9524              		.loc 1 113 12 is_stmt 1 view .LVU3285
 112:../USER/main_03.c **** 	if(ch!=0) kinbuf[kinbwp++] = ch;
 9525              		.loc 1 112 5 is_stmt 0 view .LVU3286
 9526 15a4 40B2     		sxtb	r0, r0
 9527              	.LVL648:
 113:../USER/main_03.c **** 	if(kinbwp>=256) kinbwp = 0;
 9528              		.loc 1 113 2 is_stmt 1 view .LVU3287
 113:../USER/main_03.c **** 	if(kinbwp>=256) kinbwp = 0;
 9529              		.loc 1 113 4 is_stmt 0 view .LVU3288
 9530 15a6 0028     		cmp	r0, #0
 9531 15a8 DCD0     		beq	.L1196
 113:../USER/main_03.c **** 	if(kinbwp>=256) kinbwp = 0;
 9532              		.loc 1 113 25 view .LVU3289
 9533 15aa D8F80020 		ldr	r2, [r8]
 9534 15ae 531C     		adds	r3, r2, #1
 113:../USER/main_03.c **** 	if(kinbwp>=256) kinbwp = 0;
 9535              		.loc 1 113 29 view .LVU3290
 9536 15b0 09F80200 		strb	r0, [r9, r2]
 113:../USER/main_03.c **** 	if(kinbwp>=256) kinbwp = 0;
 9537              		.loc 1 113 25 view .LVU3291
 9538 15b4 C8F80030 		str	r3, [r8]
 9539 15b8 D6E7     		b	.L756
 9540              	.LVL649:
 9541              	.L760:
 113:../USER/main_03.c **** 	if(kinbwp>=256) kinbwp = 0;
 9542              		.loc 1 113 25 view .LVU3292
 9543              	.LBE1515:
 9544              	.LBE1516:
 137:../USER/main_03.c **** 	}
 9545              		.loc 1 137 3 is_stmt 1 view .LVU3293
 9546 15ba 2020     		movs	r0, #32
 9547 15bc FFF7FEFF 		bl	SPI_WriteData
 9548              	.LVL650:
 9549              	.L753:
 9550              	.LBB1517:
 9551              	.LBB1518:
 116:../USER/main_03.c **** 	if(kinbwp>=256) kinbwp = 0;
 9552              		.loc 1 116 11 is_stmt 0 view .LVU3294
 9553 15c0 4FF04024 		mov	r4, #1073758208
 9554 15c4 18E0     		b	.L766
 9555              	.LVL651:
 9556              	.L1198:
 116:../USER/main_03.c **** 	if(kinbwp>=256) kinbwp = 0;
 9557              		.loc 1 116 11 view .LVU3295
 9558 15c6 D8F80030 		ldr	r3, [r8]
 9559              	.L762:
 114:../USER/main_03.c **** 	//
 9560              		.loc 1 114 2 is_stmt 1 view .LVU3296
 114:../USER/main_03.c **** 	//
 9561              		.loc 1 114 18 view .LVU3297
 114:../USER/main_03.c **** 	//
 9562              		.loc 1 114 4 is_stmt 0 view .LVU3298
 9563 15ca FF2B     		cmp	r3, #255
 9564 15cc 02DD     		ble	.L763
 114:../USER/main_03.c **** 	//
 9565              		.loc 1 114 25 view .LVU3299
 9566 15ce 0023     		movs	r3, #0
 9567 15d0 C8F80070 		str	r7, [r8]
 9568              	.L763:
 116:../USER/main_03.c **** 	if(kinbwp>=256) kinbwp = 0;
 9569              		.loc 1 116 39 is_stmt 1 view .LVU3300
 116:../USER/main_03.c **** 	if(kinbwp>=256) kinbwp = 0;
 9570              		.loc 1 116 2 view .LVU3301
 116:../USER/main_03.c **** 	if(kinbwp>=256) kinbwp = 0;
 9571              		.loc 1 116 11 is_stmt 0 view .LVU3302
 9572 15d4 6168     		ldr	r1, [r4, #4]
 116:../USER/main_03.c **** 	if(kinbwp>=256) kinbwp = 0;
 9573              		.loc 1 116 52 view .LVU3303
 9574 15d6 5A1C     		adds	r2, r3, #1
 116:../USER/main_03.c **** 	if(kinbwp>=256) kinbwp = 0;
 9575              		.loc 1 116 4 view .LVU3304
 9576 15d8 8E07     		lsls	r6, r1, #30
 9577 15da 09D5     		bpl	.L765
 117:../USER/main_03.c **** 	//
 9578              		.loc 1 117 25 view .LVU3305
 9579 15dc B2F5807F 		cmp	r2, #256
 9580 15e0 14BF     		ite	ne
 9581 15e2 1146     		movne	r1, r2
 9582 15e4 3946     		moveq	r1, r7
 116:../USER/main_03.c **** 	if(kinbwp>=256) kinbwp = 0;
 9583              		.loc 1 116 63 view .LVU3306
 9584 15e6 2068     		ldr	r0, [r4]
 9585              	.LVL652:
 117:../USER/main_03.c **** 	//
 9586              		.loc 1 117 25 view .LVU3307
 9587 15e8 C8F80010 		str	r1, [r8]
 116:../USER/main_03.c **** 	if(kinbwp>=256) kinbwp = 0;
 9588              		.loc 1 116 56 view .LVU3308
 9589 15ec 09F80300 		strb	r0, [r9, r3]
 117:../USER/main_03.c **** 	//
 9590              		.loc 1 117 2 is_stmt 1 view .LVU3309
 9591              	.L765:
 117:../USER/main_03.c **** 	//
 9592              		.loc 1 117 2 is_stmt 0 view .LVU3310
 9593              	.LBE1518:
 9594              	.LBE1517:
 140:../USER/main_03.c **** }
 9595              		.loc 1 140 27 is_stmt 1 view .LVU3311
 140:../USER/main_03.c **** }
 9596              		.loc 1 140 32 is_stmt 0 view .LVU3312
 9597 15f0 2020     		movs	r0, #32
 9598 15f2 FFF7FEFF 		bl	disp_vram
 9599              	.LVL653:
 140:../USER/main_03.c **** }
 9600              		.loc 1 140 2 view .LVU3313
 9601 15f6 60B1     		cbz	r0, .L1197
 9602              	.LVL654:
 9603              	.L766:
 140:../USER/main_03.c **** }
 9604              		.loc 1 140 2 is_stmt 1 view .LVU3314
 140:../USER/main_03.c **** }
 9605              		.loc 1 140 10 view .LVU3315
 140:../USER/main_03.c **** }
 9606              		.loc 1 140 14 view .LVU3316
 9607              	.LBB1520:
 9608              	.LBI1517:
 109:../USER/main_03.c **** 	char ch;
 9609              		.loc 1 109 6 view .LVU3317
 9610              	.LBB1519:
 110:../USER/main_03.c **** 	//
 9611              		.loc 1 110 2 view .LVU3318
 112:../USER/main_03.c **** 	if(ch!=0) kinbuf[kinbwp++] = ch;
 9612              		.loc 1 112 2 view .LVU3319
 112:../USER/main_03.c **** 	if(ch!=0) kinbuf[kinbwp++] = ch;
 9613              		.loc 1 112 7 is_stmt 0 view .LVU3320
 9614 15f8 FFF7FEFF 		bl	SPI_ReadData
 9615              	.LVL655:
 113:../USER/main_03.c **** 	if(kinbwp>=256) kinbwp = 0;
 9616              		.loc 1 113 12 is_stmt 1 view .LVU3321
 112:../USER/main_03.c **** 	if(ch!=0) kinbuf[kinbwp++] = ch;
 9617              		.loc 1 112 5 is_stmt 0 view .LVU3322
 9618 15fc 40B2     		sxtb	r0, r0
 9619              	.LVL656:
 113:../USER/main_03.c **** 	if(kinbwp>=256) kinbwp = 0;
 9620              		.loc 1 113 2 is_stmt 1 view .LVU3323
 113:../USER/main_03.c **** 	if(kinbwp>=256) kinbwp = 0;
 9621              		.loc 1 113 4 is_stmt 0 view .LVU3324
 9622 15fe 0028     		cmp	r0, #0
 9623 1600 E1D0     		beq	.L1198
 113:../USER/main_03.c **** 	if(kinbwp>=256) kinbwp = 0;
 9624              		.loc 1 113 25 view .LVU3325
 9625 1602 D8F80020 		ldr	r2, [r8]
 9626 1606 531C     		adds	r3, r2, #1
 113:../USER/main_03.c **** 	if(kinbwp>=256) kinbwp = 0;
 9627              		.loc 1 113 29 view .LVU3326
 9628 1608 09F80200 		strb	r0, [r9, r2]
 113:../USER/main_03.c **** 	if(kinbwp>=256) kinbwp = 0;
 9629              		.loc 1 113 25 view .LVU3327
 9630 160c C8F80030 		str	r3, [r8]
 9631 1610 DBE7     		b	.L762
 9632              	.LVL657:
 9633              	.L1197:
 113:../USER/main_03.c **** 	if(kinbwp>=256) kinbwp = 0;
 9634              		.loc 1 113 25 view .LVU3328
 9635              	.LBE1519:
 9636              	.LBE1520:
 140:../USER/main_03.c **** }
 9637              		.loc 1 140 2 view .LVU3329
 9638 1612 28AE     		add	r6, sp, #160
 9639              	.LVL658:
 9640              	.L792:
 140:../USER/main_03.c **** }
 9641              		.loc 1 140 2 view .LVU3330
 9642              	.LBE1512:
 9643              	.LBE1511:
 9644              	.LBB1522:
 9645              	.LBB1523:
 9646              	.LBB1524:
 155:../USER/main_03.c **** 	while(1){
 9647              		.loc 1 155 2 is_stmt 1 view .LVU3331
 156:../USER/main_03.c **** 		ch = getch(); putch(ch); *buf++ = ch;
 9648              		.loc 1 156 2 view .LVU3332
 157:../USER/main_03.c **** 		if(ch==0x0d) break;
 9649              		.loc 1 157 3 view .LVU3333
 9650              	.LBB1525:
 9651              	.LBI1525:
 120:../USER/main_03.c **** 	char dt;
 9652              		.loc 1 120 6 view .LVU3334
 9653              	.LBB1526:
 9654              	.LBB1527:
 9655              	.LBB1528:
 116:../USER/main_03.c **** 	if(kinbwp>=256) kinbwp = 0;
 9656              		.loc 1 116 11 is_stmt 0 view .LVU3335
 9657 1614 4FF04024 		mov	r4, #1073758208
 9658 1618 D8F80030 		ldr	r3, [r8]
 9659              	.L774:
 9660              	.LBE1528:
 9661              	.LBE1527:
 122:../USER/main_03.c **** 	dt = kinbuf[kinbrp++];
 9662              		.loc 1 122 14 view .LVU3336
 9663 161c 0D4A     		ldr	r2, .L1229+4
 9664 161e 1268     		ldr	r2, [r2]
 122:../USER/main_03.c **** 	dt = kinbuf[kinbrp++];
 9665              		.loc 1 122 7 view .LVU3337
 9666 1620 9A42     		cmp	r2, r3
 9667 1622 35D1     		bne	.L1199
 9668              	.L775:
 122:../USER/main_03.c **** 	dt = kinbuf[kinbrp++];
 9669              		.loc 1 122 24 is_stmt 1 view .LVU3338
 9670              	.LBB1531:
 9671              	.LBI1527:
 109:../USER/main_03.c **** 	char ch;
 9672              		.loc 1 109 6 view .LVU3339
 9673              	.LBB1529:
 110:../USER/main_03.c **** 	//
 9674              		.loc 1 110 2 view .LVU3340
 112:../USER/main_03.c **** 	if(ch!=0) kinbuf[kinbwp++] = ch;
 9675              		.loc 1 112 2 view .LVU3341
 112:../USER/main_03.c **** 	if(ch!=0) kinbuf[kinbwp++] = ch;
 9676              		.loc 1 112 7 is_stmt 0 view .LVU3342
 9677 1624 FFF7FEFF 		bl	SPI_ReadData
 9678              	.LVL659:
 112:../USER/main_03.c **** 	if(ch!=0) kinbuf[kinbwp++] = ch;
 9679              		.loc 1 112 5 view .LVU3343
 9680 1628 40B2     		sxtb	r0, r0
 9681              	.LVL660:
 113:../USER/main_03.c **** 	if(kinbwp>=256) kinbwp = 0;
 9682              		.loc 1 113 2 is_stmt 1 view .LVU3344
 113:../USER/main_03.c **** 	if(kinbwp>=256) kinbwp = 0;
 9683              		.loc 1 113 4 is_stmt 0 view .LVU3345
 9684 162a A8B9     		cbnz	r0, .L768
 9685 162c D8F80030 		ldr	r3, [r8]
 114:../USER/main_03.c **** 	//
 9686              		.loc 1 114 2 is_stmt 1 view .LVU3346
 114:../USER/main_03.c **** 	//
 9687              		.loc 1 114 4 is_stmt 0 view .LVU3347
 9688 1630 FF2B     		cmp	r3, #255
 9689 1632 1ADD     		ble	.L770
 9690              	.L1200:
 114:../USER/main_03.c **** 	//
 9691              		.loc 1 114 18 is_stmt 1 view .LVU3348
 116:../USER/main_03.c **** 	if(kinbwp>=256) kinbwp = 0;
 9692              		.loc 1 116 11 is_stmt 0 view .LVU3349
 9693 1634 6368     		ldr	r3, [r4, #4]
 114:../USER/main_03.c **** 	//
 9694              		.loc 1 114 25 view .LVU3350
 9695 1636 C8F80070 		str	r7, [r8]
 116:../USER/main_03.c **** 	if(kinbwp>=256) kinbwp = 0;
 9696              		.loc 1 116 2 is_stmt 1 view .LVU3351
 116:../USER/main_03.c **** 	if(kinbwp>=256) kinbwp = 0;
 9697              		.loc 1 116 4 is_stmt 0 view .LVU3352
 9698 163a 13F00203 		ands	r3, r3, #2
 9699 163e EDD0     		beq	.L774
 116:../USER/main_03.c **** 	if(kinbwp>=256) kinbwp = 0;
 9700              		.loc 1 116 39 is_stmt 1 view .LVU3353
 116:../USER/main_03.c **** 	if(kinbwp>=256) kinbwp = 0;
 9701              		.loc 1 116 52 is_stmt 0 view .LVU3354
 9702 1640 0122     		movs	r2, #1
 116:../USER/main_03.c **** 	if(kinbwp>=256) kinbwp = 0;
 9703              		.loc 1 116 63 view .LVU3355
 9704 1642 2368     		ldr	r3, [r4]
 116:../USER/main_03.c **** 	if(kinbwp>=256) kinbwp = 0;
 9705              		.loc 1 116 52 view .LVU3356
 9706 1644 C8F80020 		str	r2, [r8]
 116:../USER/main_03.c **** 	if(kinbwp>=256) kinbwp = 0;
 9707              		.loc 1 116 56 view .LVU3357
 9708 1648 89F80030 		strb	r3, [r9]
 117:../USER/main_03.c **** 	//
 9709              		.loc 1 117 2 is_stmt 1 view .LVU3358
 9710              	.L931:
 116:../USER/main_03.c **** 	if(kinbwp>=256) kinbwp = 0;
 9711              		.loc 1 116 4 is_stmt 0 view .LVU3359
 9712 164c 1346     		mov	r3, r2
 9713 164e E5E7     		b	.L774
 9714              	.L1230:
 9715              		.align	2
 9716              	.L1229:
 9717 1650 00000140 		.word	1073807360
 9718 1654 00000000 		.word	.LANCHOR1
 9719              	.L768:
 113:../USER/main_03.c **** 	if(kinbwp>=256) kinbwp = 0;
 9720              		.loc 1 113 12 is_stmt 1 view .LVU3360
 113:../USER/main_03.c **** 	if(kinbwp>=256) kinbwp = 0;
 9721              		.loc 1 113 25 is_stmt 0 view .LVU3361
 9722 1658 D8F80020 		ldr	r2, [r8]
 9723 165c 531C     		adds	r3, r2, #1
 114:../USER/main_03.c **** 	//
 9724              		.loc 1 114 4 view .LVU3362
 9725 165e FF2B     		cmp	r3, #255
 113:../USER/main_03.c **** 	if(kinbwp>=256) kinbwp = 0;
 9726              		.loc 1 113 29 view .LVU3363
 9727 1660 09F80200 		strb	r0, [r9, r2]
 113:../USER/main_03.c **** 	if(kinbwp>=256) kinbwp = 0;
 9728              		.loc 1 113 25 view .LVU3364
 9729 1664 C8F80030 		str	r3, [r8]
 114:../USER/main_03.c **** 	//
 9730              		.loc 1 114 2 is_stmt 1 view .LVU3365
 114:../USER/main_03.c **** 	//
 9731              		.loc 1 114 4 is_stmt 0 view .LVU3366
 9732 1668 E4DC     		bgt	.L1200
 9733              	.L770:
 116:../USER/main_03.c **** 	if(kinbwp>=256) kinbwp = 0;
 9734              		.loc 1 116 2 is_stmt 1 view .LVU3367
 116:../USER/main_03.c **** 	if(kinbwp>=256) kinbwp = 0;
 9735              		.loc 1 116 11 is_stmt 0 view .LVU3368
 9736 166a 6268     		ldr	r2, [r4, #4]
 116:../USER/main_03.c **** 	if(kinbwp>=256) kinbwp = 0;
 9737              		.loc 1 116 4 view .LVU3369
 9738 166c 9507     		lsls	r5, r2, #30
 9739 166e D5D5     		bpl	.L774
 116:../USER/main_03.c **** 	if(kinbwp>=256) kinbwp = 0;
 9740              		.loc 1 116 39 is_stmt 1 view .LVU3370
 116:../USER/main_03.c **** 	if(kinbwp>=256) kinbwp = 0;
 9741              		.loc 1 116 63 is_stmt 0 view .LVU3371
 9742 1670 2168     		ldr	r1, [r4]
 116:../USER/main_03.c **** 	if(kinbwp>=256) kinbwp = 0;
 9743              		.loc 1 116 52 view .LVU3372
 9744 1672 5A1C     		adds	r2, r3, #1
 117:../USER/main_03.c **** 	//
 9745              		.loc 1 117 4 view .LVU3373
 9746 1674 B2F5807F 		cmp	r2, #256
 116:../USER/main_03.c **** 	if(kinbwp>=256) kinbwp = 0;
 9747              		.loc 1 116 56 view .LVU3374
 9748 1678 09F80310 		strb	r1, [r9, r3]
 117:../USER/main_03.c **** 	//
 9749              		.loc 1 117 2 is_stmt 1 view .LVU3375
 116:../USER/main_03.c **** 	if(kinbwp>=256) kinbwp = 0;
 9750              		.loc 1 116 52 is_stmt 0 view .LVU3376
 9751 167c C8F80020 		str	r2, [r8]
 117:../USER/main_03.c **** 	//
 9752              		.loc 1 117 4 view .LVU3377
 9753 1680 E4D1     		bne	.L931
 117:../USER/main_03.c **** 	//
 9754              		.loc 1 117 18 is_stmt 1 view .LVU3378
 9755 1682 0023     		movs	r3, #0
 9756              	.LBE1529:
 9757              	.LBE1531:
 122:../USER/main_03.c **** 	dt = kinbuf[kinbrp++];
 9758              		.loc 1 122 14 is_stmt 0 view .LVU3379
 9759 1684 C44A     		ldr	r2, .L1231
 9760              	.LBB1532:
 9761              	.LBB1530:
 117:../USER/main_03.c **** 	//
 9762              		.loc 1 117 25 view .LVU3380
 9763 1686 C8F80070 		str	r7, [r8]
 9764              	.LBE1530:
 9765              	.LBE1532:
 122:../USER/main_03.c **** 	dt = kinbuf[kinbrp++];
 9766              		.loc 1 122 14 view .LVU3381
 9767 168a 1268     		ldr	r2, [r2]
 122:../USER/main_03.c **** 	dt = kinbuf[kinbrp++];
 9768              		.loc 1 122 7 view .LVU3382
 9769 168c 9A42     		cmp	r2, r3
 9770 168e C9D0     		beq	.L775
 9771              	.LVL661:
 9772              	.L1199:
 123:../USER/main_03.c **** 	if(kinbrp>=256) kinbrp = 0;
 9773              		.loc 1 123 2 is_stmt 1 view .LVU3383
 123:../USER/main_03.c **** 	if(kinbrp>=256) kinbrp = 0;
 9774              		.loc 1 123 20 is_stmt 0 view .LVU3384
 9775 1690 531C     		adds	r3, r2, #1
 124:../USER/main_03.c **** 	return dt;
 9776              		.loc 1 124 25 view .LVU3385
 9777 1692 B3F5807F 		cmp	r3, #256
 9778 1696 B4BF     		ite	lt
 9779 1698 1946     		movlt	r1, r3
 9780 169a 3946     		movge	r1, r7
 123:../USER/main_03.c **** 	if(kinbrp>=256) kinbrp = 0;
 9781              		.loc 1 123 20 view .LVU3386
 9782 169c BE48     		ldr	r0, .L1231
 9783              	.LBE1526:
 9784              	.LBE1525:
 9785              	.LBB1535:
 9786              	.LBB1536:
 129:../USER/main_03.c **** 		UART_SendChar(UART0,ch);
 9787              		.loc 1 129 13 view .LVU3387
 9788 169e DAF80030 		ldr	r3, [r10]
 9789              	.LBE1536:
 9790              	.LBE1535:
 9791              	.LBB1548:
 9792              	.LBB1533:
 124:../USER/main_03.c **** 	return dt;
 9793              		.loc 1 124 25 view .LVU3388
 9794 16a2 0160     		str	r1, [r0]
 9795              	.LBE1533:
 9796              	.LBE1548:
 9797              	.LBB1549:
 9798              	.LBB1545:
 129:../USER/main_03.c **** 		UART_SendChar(UART0,ch);
 9799              		.loc 1 129 4 view .LVU3389
 9800 16a4 9904     		lsls	r1, r3, #18
 9801              	.LBE1545:
 9802              	.LBE1549:
 9803              	.LBB1550:
 9804              	.LBB1534:
 123:../USER/main_03.c **** 	if(kinbrp>=256) kinbrp = 0;
 9805              		.loc 1 123 5 view .LVU3390
 9806 16a6 19F90240 		ldrsb	r4, [r9, r2]
 9807              	.LVL662:
 124:../USER/main_03.c **** 	return dt;
 9808              		.loc 1 124 2 is_stmt 1 view .LVU3391
 125:../USER/main_03.c **** }
 9809              		.loc 1 125 2 view .LVU3392
 125:../USER/main_03.c **** }
 9810              		.loc 1 125 2 is_stmt 0 view .LVU3393
 9811              	.LBE1534:
 9812              	.LBE1550:
 157:../USER/main_03.c **** 		if(ch==0x0d) break;
 9813              		.loc 1 157 17 is_stmt 1 view .LVU3394
 9814              	.LBB1551:
 9815              	.LBI1535:
 127:../USER/main_03.c **** 	volatile uint32_t gpiord;
 9816              		.loc 1 127 6 view .LVU3395
 9817              	.LBB1546:
 128:../USER/main_03.c **** 	if((mdgpio & 0x2000)==0)
 9818              		.loc 1 128 2 view .LVU3396
 129:../USER/main_03.c **** 		UART_SendChar(UART0,ch);
 9819              		.loc 1 129 2 view .LVU3397
 129:../USER/main_03.c **** 		UART_SendChar(UART0,ch);
 9820              		.loc 1 129 4 is_stmt 0 view .LVU3398
 9821 16aa 40F1AB80 		bpl	.L1201
 132:../USER/main_03.c **** 		while((gpiord & 0x4000)!=0) {
 9822              		.loc 1 132 3 is_stmt 1 view .LVU3399
 132:../USER/main_03.c **** 		while((gpiord & 0x4000)!=0) {
 9823              		.loc 1 132 10 is_stmt 0 view .LVU3400
 9824 16ae 4FF48043 		mov	r3, #16384
 9825 16b2 2693     		str	r3, [sp, #152]
 133:../USER/main_03.c **** 			key_check();
 9826              		.loc 1 133 3 is_stmt 1 view .LVU3401
 133:../USER/main_03.c **** 			key_check();
 9827              		.loc 1 133 17 is_stmt 0 view .LVU3402
 9828 16b4 269B     		ldr	r3, [sp, #152]
 133:../USER/main_03.c **** 			key_check();
 9829              		.loc 1 133 8 view .LVU3403
 9830 16b6 5A04     		lsls	r2, r3, #17
 9831 16b8 2CD5     		bpl	.L785
 135:../USER/main_03.c **** 		}
 9832              		.loc 1 135 13 view .LVU3404
 9833 16ba B84D     		ldr	r5, .L1231+4
 9834 16bc 1DE0     		b	.L779
 9835              	.LVL663:
 9836              	.L1202:
 135:../USER/main_03.c **** 		}
 9837              		.loc 1 135 13 view .LVU3405
 9838 16be D8F80030 		ldr	r3, [r8]
 9839              	.L781:
 9840              	.LBB1537:
 9841              	.LBB1538:
 114:../USER/main_03.c **** 	//
 9842              		.loc 1 114 2 is_stmt 1 view .LVU3406
 114:../USER/main_03.c **** 	//
 9843              		.loc 1 114 18 view .LVU3407
 114:../USER/main_03.c **** 	//
 9844              		.loc 1 114 4 is_stmt 0 view .LVU3408
 9845 16c2 FF2B     		cmp	r3, #255
 9846 16c4 02DD     		ble	.L782
 114:../USER/main_03.c **** 	//
 9847              		.loc 1 114 25 view .LVU3409
 9848 16c6 0023     		movs	r3, #0
 9849 16c8 C8F80070 		str	r7, [r8]
 9850              	.L782:
 116:../USER/main_03.c **** 	if(kinbwp>=256) kinbwp = 0;
 9851              		.loc 1 116 39 is_stmt 1 view .LVU3410
 116:../USER/main_03.c **** 	if(kinbwp>=256) kinbwp = 0;
 9852              		.loc 1 116 2 view .LVU3411
 116:../USER/main_03.c **** 	if(kinbwp>=256) kinbwp = 0;
 9853              		.loc 1 116 11 is_stmt 0 view .LVU3412
 9854 16cc 4FF04021 		mov	r1, #1073758208
 9855 16d0 4868     		ldr	r0, [r1, #4]
 9856              	.LVL664:
 116:../USER/main_03.c **** 	if(kinbwp>=256) kinbwp = 0;
 9857              		.loc 1 116 52 view .LVU3413
 9858 16d2 5A1C     		adds	r2, r3, #1
 116:../USER/main_03.c **** 	if(kinbwp>=256) kinbwp = 0;
 9859              		.loc 1 116 4 view .LVU3414
 9860 16d4 8007     		lsls	r0, r0, #30
 9861 16d6 09D5     		bpl	.L784
 117:../USER/main_03.c **** 	//
 9862              		.loc 1 117 25 view .LVU3415
 9863 16d8 B2F5807F 		cmp	r2, #256
 116:../USER/main_03.c **** 	if(kinbwp>=256) kinbwp = 0;
 9864              		.loc 1 116 63 view .LVU3416
 9865 16dc 0868     		ldr	r0, [r1]
 117:../USER/main_03.c **** 	//
 9866              		.loc 1 117 25 view .LVU3417
 9867 16de 14BF     		ite	ne
 9868 16e0 1146     		movne	r1, r2
 9869 16e2 3946     		moveq	r1, r7
 116:../USER/main_03.c **** 	if(kinbwp>=256) kinbwp = 0;
 9870              		.loc 1 116 56 view .LVU3418
 9871 16e4 09F80300 		strb	r0, [r9, r3]
 117:../USER/main_03.c **** 	//
 9872              		.loc 1 117 2 is_stmt 1 view .LVU3419
 117:../USER/main_03.c **** 	//
 9873              		.loc 1 117 25 is_stmt 0 view .LVU3420
 9874 16e8 C8F80010 		str	r1, [r8]
 9875              	.L784:
 117:../USER/main_03.c **** 	//
 9876              		.loc 1 117 25 view .LVU3421
 9877              	.LBE1538:
 9878              	.LBE1537:
 135:../USER/main_03.c **** 		}
 9879              		.loc 1 135 4 is_stmt 1 view .LVU3422
 135:../USER/main_03.c **** 		}
 9880              		.loc 1 135 13 is_stmt 0 view .LVU3423
 9881 16ec 2846     		mov	r0, r5
 9882 16ee FFF7FEFF 		bl	GPIO_ReadBits
 9883              	.LVL665:
 135:../USER/main_03.c **** 		}
 9884              		.loc 1 135 11 view .LVU3424
 9885 16f2 2690     		str	r0, [sp, #152]
 133:../USER/main_03.c **** 			key_check();
 9886              		.loc 1 133 17 view .LVU3425
 9887 16f4 269B     		ldr	r3, [sp, #152]
 133:../USER/main_03.c **** 			key_check();
 9888              		.loc 1 133 8 view .LVU3426
 9889 16f6 5B04     		lsls	r3, r3, #17
 9890 16f8 0CD5     		bpl	.L785
 9891              	.L779:
 134:../USER/main_03.c **** 			gpiord = GPIO_ReadBits(GPIO0);
 9892              		.loc 1 134 4 is_stmt 1 view .LVU3427
 9893              	.LBB1540:
 9894              	.LBI1537:
 109:../USER/main_03.c **** 	char ch;
 9895              		.loc 1 109 6 view .LVU3428
 9896              	.LBB1539:
 110:../USER/main_03.c **** 	//
 9897              		.loc 1 110 2 view .LVU3429
 112:../USER/main_03.c **** 	if(ch!=0) kinbuf[kinbwp++] = ch;
 9898              		.loc 1 112 2 view .LVU3430
 112:../USER/main_03.c **** 	if(ch!=0) kinbuf[kinbwp++] = ch;
 9899              		.loc 1 112 7 is_stmt 0 view .LVU3431
 9900 16fa FFF7FEFF 		bl	SPI_ReadData
 9901              	.LVL666:
 113:../USER/main_03.c **** 	if(kinbwp>=256) kinbwp = 0;
 9902              		.loc 1 113 12 is_stmt 1 view .LVU3432
 112:../USER/main_03.c **** 	if(ch!=0) kinbuf[kinbwp++] = ch;
 9903              		.loc 1 112 5 is_stmt 0 view .LVU3433
 9904 16fe 40B2     		sxtb	r0, r0
 9905              	.LVL667:
 113:../USER/main_03.c **** 	if(kinbwp>=256) kinbwp = 0;
 9906              		.loc 1 113 2 is_stmt 1 view .LVU3434
 113:../USER/main_03.c **** 	if(kinbwp>=256) kinbwp = 0;
 9907              		.loc 1 113 4 is_stmt 0 view .LVU3435
 9908 1700 0028     		cmp	r0, #0
 9909 1702 DCD0     		beq	.L1202
 113:../USER/main_03.c **** 	if(kinbwp>=256) kinbwp = 0;
 9910              		.loc 1 113 25 view .LVU3436
 9911 1704 D8F80020 		ldr	r2, [r8]
 9912 1708 531C     		adds	r3, r2, #1
 113:../USER/main_03.c **** 	if(kinbwp>=256) kinbwp = 0;
 9913              		.loc 1 113 29 view .LVU3437
 9914 170a 09F80200 		strb	r0, [r9, r2]
 113:../USER/main_03.c **** 	if(kinbwp>=256) kinbwp = 0;
 9915              		.loc 1 113 25 view .LVU3438
 9916 170e C8F80030 		str	r3, [r8]
 9917 1712 D6E7     		b	.L781
 9918              	.LVL668:
 9919              	.L785:
 113:../USER/main_03.c **** 	if(kinbwp>=256) kinbwp = 0;
 9920              		.loc 1 113 25 view .LVU3439
 9921              	.LBE1539:
 9922              	.LBE1540:
 137:../USER/main_03.c **** 	}
 9923              		.loc 1 137 3 is_stmt 1 view .LVU3440
 9924 1714 E0B2     		uxtb	r0, r4
 9925 1716 FFF7FEFF 		bl	SPI_WriteData
 9926              	.LVL669:
 9927              	.L778:
 9928              	.LBB1541:
 9929              	.LBB1542:
 116:../USER/main_03.c **** 	if(kinbwp>=256) kinbwp = 0;
 9930              		.loc 1 116 11 is_stmt 0 view .LVU3441
 9931 171a 4FF04025 		mov	r5, #1073758208
 9932 171e 18E0     		b	.L791
 9933              	.LVL670:
 9934              	.L1204:
 116:../USER/main_03.c **** 	if(kinbwp>=256) kinbwp = 0;
 9935              		.loc 1 116 11 view .LVU3442
 9936 1720 D8F80030 		ldr	r3, [r8]
 9937              	.L787:
 114:../USER/main_03.c **** 	//
 9938              		.loc 1 114 2 is_stmt 1 view .LVU3443
 114:../USER/main_03.c **** 	//
 9939              		.loc 1 114 18 view .LVU3444
 114:../USER/main_03.c **** 	//
 9940              		.loc 1 114 4 is_stmt 0 view .LVU3445
 9941 1724 FF2B     		cmp	r3, #255
 9942 1726 02DD     		ble	.L788
 114:../USER/main_03.c **** 	//
 9943              		.loc 1 114 25 view .LVU3446
 9944 1728 0023     		movs	r3, #0
 9945 172a C8F80070 		str	r7, [r8]
 9946              	.L788:
 116:../USER/main_03.c **** 	if(kinbwp>=256) kinbwp = 0;
 9947              		.loc 1 116 39 is_stmt 1 view .LVU3447
 116:../USER/main_03.c **** 	if(kinbwp>=256) kinbwp = 0;
 9948              		.loc 1 116 2 view .LVU3448
 116:../USER/main_03.c **** 	if(kinbwp>=256) kinbwp = 0;
 9949              		.loc 1 116 11 is_stmt 0 view .LVU3449
 9950 172e 6968     		ldr	r1, [r5, #4]
 116:../USER/main_03.c **** 	if(kinbwp>=256) kinbwp = 0;
 9951              		.loc 1 116 52 view .LVU3450
 9952 1730 5A1C     		adds	r2, r3, #1
 116:../USER/main_03.c **** 	if(kinbwp>=256) kinbwp = 0;
 9953              		.loc 1 116 4 view .LVU3451
 9954 1732 8807     		lsls	r0, r1, #30
 9955              	.LVL671:
 116:../USER/main_03.c **** 	if(kinbwp>=256) kinbwp = 0;
 9956              		.loc 1 116 4 view .LVU3452
 9957 1734 09D5     		bpl	.L790
 117:../USER/main_03.c **** 	//
 9958              		.loc 1 117 25 view .LVU3453
 9959 1736 B2F5807F 		cmp	r2, #256
 9960 173a 14BF     		ite	ne
 9961 173c 1146     		movne	r1, r2
 9962 173e 3946     		moveq	r1, r7
 116:../USER/main_03.c **** 	if(kinbwp>=256) kinbwp = 0;
 9963              		.loc 1 116 63 view .LVU3454
 9964 1740 2868     		ldr	r0, [r5]
 117:../USER/main_03.c **** 	//
 9965              		.loc 1 117 25 view .LVU3455
 9966 1742 C8F80010 		str	r1, [r8]
 116:../USER/main_03.c **** 	if(kinbwp>=256) kinbwp = 0;
 9967              		.loc 1 116 56 view .LVU3456
 9968 1746 09F80300 		strb	r0, [r9, r3]
 117:../USER/main_03.c **** 	//
 9969              		.loc 1 117 2 is_stmt 1 view .LVU3457
 9970              	.L790:
 117:../USER/main_03.c **** 	//
 9971              		.loc 1 117 2 is_stmt 0 view .LVU3458
 9972              	.LBE1542:
 9973              	.LBE1541:
 140:../USER/main_03.c **** }
 9974              		.loc 1 140 27 is_stmt 1 view .LVU3459
 140:../USER/main_03.c **** }
 9975              		.loc 1 140 32 is_stmt 0 view .LVU3460
 9976 174a 2046     		mov	r0, r4
 9977 174c FFF7FEFF 		bl	disp_vram
 9978              	.LVL672:
 140:../USER/main_03.c **** }
 9979              		.loc 1 140 2 view .LVU3461
 9980 1750 60B1     		cbz	r0, .L1203
 9981              	.LVL673:
 9982              	.L791:
 140:../USER/main_03.c **** }
 9983              		.loc 1 140 2 is_stmt 1 view .LVU3462
 140:../USER/main_03.c **** }
 9984              		.loc 1 140 10 view .LVU3463
 140:../USER/main_03.c **** }
 9985              		.loc 1 140 14 view .LVU3464
 9986              	.LBB1544:
 9987              	.LBI1541:
 109:../USER/main_03.c **** 	char ch;
 9988              		.loc 1 109 6 view .LVU3465
 9989              	.LBB1543:
 110:../USER/main_03.c **** 	//
 9990              		.loc 1 110 2 view .LVU3466
 112:../USER/main_03.c **** 	if(ch!=0) kinbuf[kinbwp++] = ch;
 9991              		.loc 1 112 2 view .LVU3467
 112:../USER/main_03.c **** 	if(ch!=0) kinbuf[kinbwp++] = ch;
 9992              		.loc 1 112 7 is_stmt 0 view .LVU3468
 9993 1752 FFF7FEFF 		bl	SPI_ReadData
 9994              	.LVL674:
 113:../USER/main_03.c **** 	if(kinbwp>=256) kinbwp = 0;
 9995              		.loc 1 113 12 is_stmt 1 view .LVU3469
 112:../USER/main_03.c **** 	if(ch!=0) kinbuf[kinbwp++] = ch;
 9996              		.loc 1 112 5 is_stmt 0 view .LVU3470
 9997 1756 40B2     		sxtb	r0, r0
 9998              	.LVL675:
 113:../USER/main_03.c **** 	if(kinbwp>=256) kinbwp = 0;
 9999              		.loc 1 113 2 is_stmt 1 view .LVU3471
 113:../USER/main_03.c **** 	if(kinbwp>=256) kinbwp = 0;
 10000              		.loc 1 113 4 is_stmt 0 view .LVU3472
 10001 1758 0028     		cmp	r0, #0
 10002 175a E1D0     		beq	.L1204
 113:../USER/main_03.c **** 	if(kinbwp>=256) kinbwp = 0;
 10003              		.loc 1 113 25 view .LVU3473
 10004 175c D8F80020 		ldr	r2, [r8]
 10005 1760 531C     		adds	r3, r2, #1
 113:../USER/main_03.c **** 	if(kinbwp>=256) kinbwp = 0;
 10006              		.loc 1 113 29 view .LVU3474
 10007 1762 09F80200 		strb	r0, [r9, r2]
 113:../USER/main_03.c **** 	if(kinbwp>=256) kinbwp = 0;
 10008              		.loc 1 113 25 view .LVU3475
 10009 1766 C8F80030 		str	r3, [r8]
 10010 176a DBE7     		b	.L787
 10011              	.LVL676:
 10012              	.L1203:
 113:../USER/main_03.c **** 	if(kinbwp>=256) kinbwp = 0;
 10013              		.loc 1 113 25 view .LVU3476
 10014              	.LBE1543:
 10015              	.LBE1544:
 10016              	.LBE1546:
 10017              	.LBE1551:
 157:../USER/main_03.c **** 		if(ch==0x0d) break;
 10018              		.loc 1 157 28 is_stmt 1 view .LVU3477
 158:../USER/main_03.c **** 	}
 10019              		.loc 1 158 5 is_stmt 0 view .LVU3478
 10020 176c 0D2C     		cmp	r4, #13
 157:../USER/main_03.c **** 		if(ch==0x0d) break;
 10021              		.loc 1 157 35 view .LVU3479
 10022 176e 06F8014B 		strb	r4, [r6], #1
 10023              	.LVL677:
 158:../USER/main_03.c **** 	}
 10024              		.loc 1 158 3 is_stmt 1 view .LVU3480
 158:../USER/main_03.c **** 	}
 10025              		.loc 1 158 5 is_stmt 0 view .LVU3481
 10026 1772 7FF44FAF 		bne	.L792
 10027              	.LVL678:
 158:../USER/main_03.c **** 	}
 10028              		.loc 1 158 5 view .LVU3482
 10029              	.LBE1524:
 10030              	.LBE1523:
 10031              	.LBB1554:
 10032              	.LBB1555:
 102:../USER/main_03.c ****    if( *buf>='a' && *buf<='z') *buf = *buf - 0x20;
 10033              		.loc 1 102 9 view .LVU3483
 10034 1776 9DF9A030 		ldrsb	r3, [sp, #160]
 102:../USER/main_03.c ****    if( *buf>='a' && *buf<='z') *buf = *buf - 0x20;
 10035              		.loc 1 102 8 view .LVU3484
 10036 177a 0D2B     		cmp	r3, #13
 10037 177c 00F02984 		beq	.L793
 10038 1780 28AA     		add	r2, sp, #160
 10039              	.LVL679:
 10040              	.L797:
 103:../USER/main_03.c ****    buf++;
 10041              		.loc 1 103 4 is_stmt 1 view .LVU3485
 103:../USER/main_03.c ****    buf++;
 10042              		.loc 1 103 32 view .LVU3486
 104:../USER/main_03.c ****   }
 10043              		.loc 1 104 4 view .LVU3487
 103:../USER/main_03.c ****    buf++;
 10044              		.loc 1 103 18 is_stmt 0 view .LVU3488
 10045 1782 DBB2     		uxtb	r3, r3
 103:../USER/main_03.c ****    buf++;
 10046              		.loc 1 103 44 view .LVU3489
 10047 1784 A3F12001 		sub	r1, r3, #32
 103:../USER/main_03.c ****    buf++;
 10048              		.loc 1 103 6 view .LVU3490
 10049 1788 613B     		subs	r3, r3, #97
 10050 178a 192B     		cmp	r3, #25
 10051 178c 35D8     		bhi	.L794
 103:../USER/main_03.c ****    buf++;
 10052              		.loc 1 103 37 view .LVU3491
 10053 178e 1170     		strb	r1, [r2]
 104:../USER/main_03.c ****   }
 10054              		.loc 1 104 4 is_stmt 1 view .LVU3492
 102:../USER/main_03.c ****    if( *buf>='a' && *buf<='z') *buf = *buf - 0x20;
 10055              		.loc 1 102 9 is_stmt 0 view .LVU3493
 10056 1790 12F9013F 		ldrsb	r3, [r2, #1]!
 10057              	.LVL680:
 102:../USER/main_03.c ****    if( *buf>='a' && *buf<='z') *buf = *buf - 0x20;
 10058              		.loc 1 102 8 view .LVU3494
 10059 1794 0D2B     		cmp	r3, #13
 10060 1796 F4D1     		bne	.L797
 10061              	.LVL681:
 10062              	.L796:
 102:../USER/main_03.c ****    if( *buf>='a' && *buf<='z') *buf = *buf - 0x20;
 10063              		.loc 1 102 8 view .LVU3495
 10064 1798 9DF9A010 		ldrsb	r1, [sp, #160]
 102:../USER/main_03.c ****    if( *buf>='a' && *buf<='z') *buf = *buf - 0x20;
 10065              		.loc 1 102 8 view .LVU3496
 10066              	.LBE1555:
 10067              	.LBE1554:
 10068              	.LBE1522:
 258:../USER/main_03.c **** 	          getssu(cbuf); cbp = &cbuf[0];
 10069              		.loc 1 258 26 is_stmt 1 view .LVU3497
 10070              		.loc 1 258 30 is_stmt 0 view .LVU3498
 10071 179c 28AB     		add	r3, sp, #160
 10072              	.LBB1559:
 10073              	.LBB1560:
 173:../USER/main_03.c ****   while(**buf==' ') (*buf)++; /* spip sp*/
 10074              		.loc 1 173 5 view .LVU3499
 10075 179e 0D29     		cmp	r1, #13
 10076              	.LBE1560:
 10077              	.LBE1559:
 10078              		.loc 1 258 30 view .LVU3500
 10079 17a0 0D93     		str	r3, [sp, #52]
 259:../USER/main_03.c **** 	          dt = getsh(cbpp); cmd = *cbp;
 10080              		.loc 1 259 12 is_stmt 1 view .LVU3501
 10081              	.LVL682:
 10082              	.LBB1576:
 10083              	.LBI1559:
 171:../USER/main_03.c ****   long num = 0; int hd;
 10084              		.loc 1 171 6 view .LVU3502
 10085              	.LBB1573:
 172:../USER/main_03.c ****   if(**buf==0x0d) return -1;
 10086              		.loc 1 172 3 view .LVU3503
 172:../USER/main_03.c ****   if(**buf==0x0d) return -1;
 10087              		.loc 1 172 17 view .LVU3504
 173:../USER/main_03.c ****   while(**buf==' ') (*buf)++; /* spip sp*/
 10088              		.loc 1 173 3 view .LVU3505
 173:../USER/main_03.c ****   while(**buf==' ') (*buf)++; /* spip sp*/
 10089              		.loc 1 173 5 is_stmt 0 view .LVU3506
 10090 17a2 00F02081 		beq	.L812
 10091              	.LBB1561:
 10092              	.LBB1562:
 174:../USER/main_03.c ****   while( (hd=ishex(**buf)) != -1){ num = num * 16 + hd; (*buf)++; }
 10093              		.loc 1 174 8 view .LVU3507
 10094 17a6 2029     		cmp	r1, #32
 10095 17a8 40F06781 		bne	.L966
 10096              	.L800:
 174:../USER/main_03.c ****   while( (hd=ishex(**buf)) != -1){ num = num * 16 + hd; (*buf)++; }
 10097              		.loc 1 174 21 is_stmt 1 view .LVU3508
 174:../USER/main_03.c ****   while( (hd=ishex(**buf)) != -1){ num = num * 16 + hd; (*buf)++; }
 10098              		.loc 1 174 9 is_stmt 0 view .LVU3509
 10099 17ac 13F9011F 		ldrsb	r1, [r3, #1]!
 174:../USER/main_03.c ****   while( (hd=ishex(**buf)) != -1){ num = num * 16 + hd; (*buf)++; }
 10100              		.loc 1 174 8 view .LVU3510
 10101 17b0 2029     		cmp	r1, #32
 10102 17b2 FBD0     		beq	.L800
 10103 17b4 0D93     		str	r3, [sp, #52]
 10104 17b6 09E0     		b	.L801
 10105              	.LVL683:
 10106              	.L1205:
 10107              	.LBB1563:
 10108              	.LBB1564:
 163:../USER/main_03.c ****   else if(ch>='A' && ch<='F') hd = ch - 0x37;
 10109              		.loc 1 163 29 view .LVU3511
 10110 17b8 A1F13002 		sub	r2, r1, #48
 10111              	.LVL684:
 163:../USER/main_03.c ****   else if(ch>='A' && ch<='F') hd = ch - 0x37;
 10112              		.loc 1 163 29 view .LVU3512
 10113              	.LBE1564:
 10114              	.LBE1563:
 175:../USER/main_03.c ****   return num;
 10115              		.loc 1 175 36 is_stmt 1 view .LVU3513
 10116              	.LBB1568:
 10117              	.LBB1565:
 166:../USER/main_03.c **** }
 10118              		.loc 1 166 3 view .LVU3514
 166:../USER/main_03.c **** }
 10119              		.loc 1 166 3 is_stmt 0 view .LVU3515
 10120              	.LBE1565:
 10121              	.LBE1568:
 175:../USER/main_03.c ****   return num;
 10122              		.loc 1 175 8 view .LVU3516
 10123 17bc 541C     		adds	r4, r2, #1
 10124 17be 12D0     		beq	.L804
 10125              	.LVL685:
 10126              	.L805:
 175:../USER/main_03.c ****   return num;
 10127              		.loc 1 175 63 view .LVU3517
 10128 17c0 0133     		adds	r3, r3, #1
 10129 17c2 0D93     		str	r3, [sp, #52]
 10130 17c4 93F90010 		ldrsb	r1, [r3]
 175:../USER/main_03.c ****   return num;
 10131              		.loc 1 175 40 view .LVU3518
 10132 17c8 02EB0010 		add	r0, r2, r0, lsl #4
 175:../USER/main_03.c ****   return num;
 10133              		.loc 1 175 57 is_stmt 1 view .LVU3519
 10134              	.LVL686:
 10135              	.L801:
 10136              	.LBB1569:
 10137              	.LBI1563:
 161:../USER/main_03.c ****   int hd;
 10138              		.loc 1 161 5 view .LVU3520
 10139              	.LBB1566:
 162:../USER/main_03.c ****   if(ch>='0' && ch<='9') hd = ch - 0x30;
 10140              		.loc 1 162 3 view .LVU3521
 163:../USER/main_03.c ****   else if(ch>='A' && ch<='F') hd = ch - 0x37;
 10141              		.loc 1 163 3 view .LVU3522
 163:../USER/main_03.c ****   else if(ch>='A' && ch<='F') hd = ch - 0x37;
 10142              		.loc 1 163 26 view .LVU3523
 164:../USER/main_03.c ****   else hd = -1;
 10143              		.loc 1 164 8 view .LVU3524
 164:../USER/main_03.c ****   else hd = -1;
 10144              		.loc 1 164 31 view .LVU3525
 163:../USER/main_03.c ****   else if(ch>='A' && ch<='F') hd = ch - 0x37;
 10145              		.loc 1 163 14 is_stmt 0 view .LVU3526
 10146 17cc CAB2     		uxtb	r2, r1
 163:../USER/main_03.c ****   else if(ch>='A' && ch<='F') hd = ch - 0x37;
 10147              		.loc 1 163 5 view .LVU3527
 10148 17ce A2F13004 		sub	r4, r2, #48
 10149 17d2 092C     		cmp	r4, #9
 164:../USER/main_03.c ****   else hd = -1;
 10150              		.loc 1 164 10 view .LVU3528
 10151 17d4 A2F14102 		sub	r2, r2, #65
 163:../USER/main_03.c ****   else if(ch>='A' && ch<='F') hd = ch - 0x37;
 10152              		.loc 1 163 5 view .LVU3529
 10153 17d8 EED9     		bls	.L1205
 164:../USER/main_03.c ****   else hd = -1;
 10154              		.loc 1 164 10 view .LVU3530
 10155 17da 052A     		cmp	r2, #5
 10156 17dc 03D8     		bhi	.L804
 164:../USER/main_03.c ****   else hd = -1;
 10157              		.loc 1 164 34 view .LVU3531
 10158 17de A1F13702 		sub	r2, r1, #55
 10159              	.LVL687:
 164:../USER/main_03.c ****   else hd = -1;
 10160              		.loc 1 164 34 view .LVU3532
 10161              	.LBE1566:
 10162              	.LBE1569:
 175:../USER/main_03.c ****   return num;
 10163              		.loc 1 175 36 is_stmt 1 view .LVU3533
 10164              	.LBB1570:
 10165              	.LBB1567:
 166:../USER/main_03.c **** }
 10166              		.loc 1 166 3 view .LVU3534
 166:../USER/main_03.c **** }
 10167              		.loc 1 166 3 is_stmt 0 view .LVU3535
 10168              	.LBE1567:
 10169              	.LBE1570:
 175:../USER/main_03.c ****   return num;
 10170              		.loc 1 175 8 view .LVU3536
 10171 17e2 541C     		adds	r4, r2, #1
 10172 17e4 ECD1     		bne	.L805
 10173              	.LVL688:
 10174              	.L804:
 175:../USER/main_03.c ****   return num;
 10175              		.loc 1 175 8 view .LVU3537
 10176              	.LBE1562:
 10177              	.LBE1561:
 10178              	.LBE1573:
 10179              	.LBE1576:
 10180              		.loc 1 259 30 is_stmt 1 view .LVU3538
 260:../USER/main_03.c **** 	          if(cmd==0x0d && dt>=0){
 10181              		.loc 1 260 12 view .LVU3539
 10182              		.loc 1 260 14 is_stmt 0 view .LVU3540
 10183 17e6 0D29     		cmp	r1, #13
 10184 17e8 12D0     		beq	.L1206
 10185              	.LVL689:
 261:../USER/main_03.c **** 	            if(mmd==1){
 262:../USER/main_03.c **** 	              if(dt>=0) {
 263:../USER/main_03.c **** 	                mbase[adr] = dt; dtr = mbase[adr];
 264:../USER/main_03.c **** 	                if(dt!=dtr) adr--;
 265:../USER/main_03.c **** 	              }
 266:../USER/main_03.c **** 	            } else {
 267:../USER/main_03.c **** 	              wrp = (unsigned int *)&mbase[adr];
 268:../USER/main_03.c **** 	              if(dt>=0) {
 269:../USER/main_03.c **** 	                *wrp = dt; dtr = *wrp;
 270:../USER/main_03.c **** 	                if(dt!=dtr) wrp--;
 271:../USER/main_03.c **** 	              }
 272:../USER/main_03.c **** 	              adr = (long)wrp;
 273:../USER/main_03.c **** 	            }
 274:../USER/main_03.c **** 	          }
 275:../USER/main_03.c **** 	          if(cmd=='-') adr = adr - mmd;
 10186              		.loc 1 275 12 is_stmt 1 view .LVU3541
 10187              		.loc 1 275 14 is_stmt 0 view .LVU3542
 10188 17ea 2D29     		cmp	r1, #45
 10189 17ec 40F0F880 		bne	.L811
 10190              		.loc 1 275 25 is_stmt 1 discriminator 1 view .LVU3543
 10191              		.loc 1 275 29 is_stmt 0 discriminator 1 view .LVU3544
 10192 17f0 049B     		ldr	r3, [sp, #16]
 10193 17f2 ABEB030B 		sub	fp, fp, r3
 10194              	.LVL690:
 10195              		.loc 1 275 29 discriminator 1 view .LVU3545
 10196 17f6 FEF782BE 		b	.L1106
 10197              	.LVL691:
 10198              	.L794:
 10199              	.LBB1577:
 10200              	.LBB1557:
 10201              	.LBB1556:
 102:../USER/main_03.c ****    if( *buf>='a' && *buf<='z') *buf = *buf - 0x20;
 10202              		.loc 1 102 9 view .LVU3546
 10203 17fa 12F9013F 		ldrsb	r3, [r2, #1]!
 10204              	.LVL692:
 102:../USER/main_03.c ****    if( *buf>='a' && *buf<='z') *buf = *buf - 0x20;
 10205              		.loc 1 102 8 view .LVU3547
 10206 17fe 0D2B     		cmp	r3, #13
 10207 1800 BFD1     		bne	.L797
 10208 1802 C9E7     		b	.L796
 10209              	.LVL693:
 10210              	.L1201:
 102:../USER/main_03.c ****    if( *buf>='a' && *buf<='z') *buf = *buf - 0x20;
 10211              		.loc 1 102 8 view .LVU3548
 10212              	.LBE1556:
 10213              	.LBE1557:
 10214              	.LBB1558:
 10215              	.LBB1553:
 10216              	.LBB1552:
 10217              	.LBB1547:
 130:../USER/main_03.c **** 	else {
 10218              		.loc 1 130 3 is_stmt 1 view .LVU3549
 10219 1804 2146     		mov	r1, r4
 10220 1806 4FF04020 		mov	r0, #1073758208
 10221 180a FFF7FEFF 		bl	UART_SendChar
 10222              	.LVL694:
 10223 180e 84E7     		b	.L778
 10224              	.LVL695:
 10225              	.L1206:
 130:../USER/main_03.c **** 	else {
 10226              		.loc 1 130 3 is_stmt 0 view .LVU3550
 10227              	.LBE1547:
 10228              	.LBE1552:
 10229              	.LBE1553:
 10230              	.LBE1558:
 10231              	.LBE1577:
 260:../USER/main_03.c **** 	            if(mmd==1){
 10232              		.loc 1 260 25 discriminator 1 view .LVU3551
 10233 1810 0028     		cmp	r0, #0
 10234 1812 C0F2E880 		blt	.L812
 261:../USER/main_03.c **** 	              if(dt>=0) {
 10235              		.loc 1 261 14 is_stmt 1 view .LVU3552
 261:../USER/main_03.c **** 	              if(dt>=0) {
 10236              		.loc 1 261 16 is_stmt 0 view .LVU3553
 10237 1816 049B     		ldr	r3, [sp, #16]
 10238 1818 012B     		cmp	r3, #1
 10239 181a 00F0B781 		beq	.L1207
 267:../USER/main_03.c **** 	              if(dt>=0) {
 10240              		.loc 1 267 16 is_stmt 1 view .LVU3554
 10241              	.LVL696:
 268:../USER/main_03.c **** 	                *wrp = dt; dtr = *wrp;
 10242              		.loc 1 268 16 view .LVU3555
 269:../USER/main_03.c **** 	                if(dt!=dtr) wrp--;
 10243              		.loc 1 269 18 view .LVU3556
 269:../USER/main_03.c **** 	                if(dt!=dtr) wrp--;
 10244              		.loc 1 269 23 is_stmt 0 view .LVU3557
 10245 181e 4BF8020B 		str	r0, [fp], #2
 10246              	.LVL697:
 269:../USER/main_03.c **** 	                if(dt!=dtr) wrp--;
 10247              		.loc 1 269 29 is_stmt 1 view .LVU3558
 270:../USER/main_03.c **** 	              }
 10248              		.loc 1 270 18 view .LVU3559
 272:../USER/main_03.c **** 	            }
 10249              		.loc 1 272 16 view .LVU3560
 276:../USER/main_03.c **** 	          else         adr = adr + mmd;
 10250              		.loc 1 276 25 view .LVU3561
 10251              		.loc 1 276 25 is_stmt 0 view .LVU3562
 10252 1822 FEF76CBE 		b	.L1106
 10253              	.LVL698:
 10254              	.L690:
 10255              	.LBB1578:
 10256              	.LBB1285:
 10257              	.LBB1267:
 10258              	.LBB1258:
 10259              	.LBB1253:
 10260              	.LBB1243:
 10261              	.LBB1238:
 10262              	.LBB1233:
 10263              	.LBB1230:
 10264              	.LBB1227:
 10265              	.LBB1214:
 137:../USER/main_03.c **** 	}
 10266              		.loc 1 137 3 is_stmt 1 view .LVU3563
 10267 1826 2846     		mov	r0, r5
 10268 1828 FFF7FEFF 		bl	SPI_WriteData
 10269              	.LVL699:
 10270              	.L683:
 10271              	.LBB1210:
 10272              	.LBB1211:
 116:../USER/main_03.c **** 	if(kinbwp>=256) kinbwp = 0;
 10273              		.loc 1 116 11 is_stmt 0 view .LVU3564
 10274 182c 4FF04025 		mov	r5, #1073758208
 10275 1830 1AE0     		b	.L696
 10276              	.LVL700:
 10277              	.L1208:
 116:../USER/main_03.c **** 	if(kinbwp>=256) kinbwp = 0;
 10278              		.loc 1 116 11 view .LVU3565
 10279 1832 D8F80030 		ldr	r3, [r8]
 10280              	.L692:
 114:../USER/main_03.c **** 	//
 10281              		.loc 1 114 2 is_stmt 1 view .LVU3566
 114:../USER/main_03.c **** 	//
 10282              		.loc 1 114 18 view .LVU3567
 114:../USER/main_03.c **** 	//
 10283              		.loc 1 114 4 is_stmt 0 view .LVU3568
 10284 1836 FF2B     		cmp	r3, #255
 10285 1838 02DD     		ble	.L693
 114:../USER/main_03.c **** 	//
 10286              		.loc 1 114 25 view .LVU3569
 10287 183a 0023     		movs	r3, #0
 10288 183c C8F80070 		str	r7, [r8]
 10289              	.L693:
 116:../USER/main_03.c **** 	if(kinbwp>=256) kinbwp = 0;
 10290              		.loc 1 116 39 is_stmt 1 view .LVU3570
 116:../USER/main_03.c **** 	if(kinbwp>=256) kinbwp = 0;
 10291              		.loc 1 116 2 view .LVU3571
 116:../USER/main_03.c **** 	if(kinbwp>=256) kinbwp = 0;
 10292              		.loc 1 116 11 is_stmt 0 view .LVU3572
 10293 1840 6968     		ldr	r1, [r5, #4]
 116:../USER/main_03.c **** 	if(kinbwp>=256) kinbwp = 0;
 10294              		.loc 1 116 52 view .LVU3573
 10295 1842 5A1C     		adds	r2, r3, #1
 116:../USER/main_03.c **** 	if(kinbwp>=256) kinbwp = 0;
 10296              		.loc 1 116 4 view .LVU3574
 10297 1844 8E07     		lsls	r6, r1, #30
 10298 1846 09D5     		bpl	.L695
 117:../USER/main_03.c **** 	//
 10299              		.loc 1 117 25 view .LVU3575
 10300 1848 B2F5807F 		cmp	r2, #256
 10301 184c 14BF     		ite	ne
 10302 184e 1146     		movne	r1, r2
 10303 1850 3946     		moveq	r1, r7
 116:../USER/main_03.c **** 	if(kinbwp>=256) kinbwp = 0;
 10304              		.loc 1 116 63 view .LVU3576
 10305 1852 2868     		ldr	r0, [r5]
 10306              	.LVL701:
 117:../USER/main_03.c **** 	//
 10307              		.loc 1 117 25 view .LVU3577
 10308 1854 C8F80010 		str	r1, [r8]
 116:../USER/main_03.c **** 	if(kinbwp>=256) kinbwp = 0;
 10309              		.loc 1 116 56 view .LVU3578
 10310 1858 09F80300 		strb	r0, [r9, r3]
 117:../USER/main_03.c **** 	//
 10311              		.loc 1 117 2 is_stmt 1 view .LVU3579
 10312              	.L695:
 117:../USER/main_03.c **** 	//
 10313              		.loc 1 117 2 is_stmt 0 view .LVU3580
 10314              	.LBE1211:
 10315              	.LBE1210:
 140:../USER/main_03.c **** }
 10316              		.loc 1 140 27 is_stmt 1 view .LVU3581
 140:../USER/main_03.c **** }
 10317              		.loc 1 140 32 is_stmt 0 view .LVU3582
 10318 185c 2046     		mov	r0, r4
 10319 185e FFF7FEFF 		bl	disp_vram
 10320              	.LVL702:
 140:../USER/main_03.c **** }
 10321              		.loc 1 140 2 view .LVU3583
 10322 1862 0028     		cmp	r0, #0
 10323 1864 3FF491AD 		beq	.L714
 10324              	.LVL703:
 10325              	.L696:
 140:../USER/main_03.c **** }
 10326              		.loc 1 140 2 is_stmt 1 view .LVU3584
 140:../USER/main_03.c **** }
 10327              		.loc 1 140 10 view .LVU3585
 140:../USER/main_03.c **** }
 10328              		.loc 1 140 14 view .LVU3586
 10329              	.LBB1213:
 10330              	.LBI1210:
 109:../USER/main_03.c **** 	char ch;
 10331              		.loc 1 109 6 view .LVU3587
 10332              	.LBB1212:
 110:../USER/main_03.c **** 	//
 10333              		.loc 1 110 2 view .LVU3588
 112:../USER/main_03.c **** 	if(ch!=0) kinbuf[kinbwp++] = ch;
 10334              		.loc 1 112 2 view .LVU3589
 112:../USER/main_03.c **** 	if(ch!=0) kinbuf[kinbwp++] = ch;
 10335              		.loc 1 112 7 is_stmt 0 view .LVU3590
 10336 1868 FFF7FEFF 		bl	SPI_ReadData
 10337              	.LVL704:
 113:../USER/main_03.c **** 	if(kinbwp>=256) kinbwp = 0;
 10338              		.loc 1 113 12 is_stmt 1 view .LVU3591
 112:../USER/main_03.c **** 	if(ch!=0) kinbuf[kinbwp++] = ch;
 10339              		.loc 1 112 5 is_stmt 0 view .LVU3592
 10340 186c 40B2     		sxtb	r0, r0
 10341              	.LVL705:
 113:../USER/main_03.c **** 	if(kinbwp>=256) kinbwp = 0;
 10342              		.loc 1 113 2 is_stmt 1 view .LVU3593
 113:../USER/main_03.c **** 	if(kinbwp>=256) kinbwp = 0;
 10343              		.loc 1 113 4 is_stmt 0 view .LVU3594
 10344 186e 0028     		cmp	r0, #0
 10345 1870 DFD0     		beq	.L1208
 113:../USER/main_03.c **** 	if(kinbwp>=256) kinbwp = 0;
 10346              		.loc 1 113 25 view .LVU3595
 10347 1872 D8F80020 		ldr	r2, [r8]
 10348 1876 531C     		adds	r3, r2, #1
 113:../USER/main_03.c **** 	if(kinbwp>=256) kinbwp = 0;
 10349              		.loc 1 113 29 view .LVU3596
 10350 1878 09F80200 		strb	r0, [r9, r2]
 113:../USER/main_03.c **** 	if(kinbwp>=256) kinbwp = 0;
 10351              		.loc 1 113 25 view .LVU3597
 10352 187c C8F80030 		str	r3, [r8]
 10353 1880 D9E7     		b	.L692
 10354              	.LVL706:
 10355              	.L623:
 113:../USER/main_03.c **** 	if(kinbwp>=256) kinbwp = 0;
 10356              		.loc 1 113 25 view .LVU3598
 10357              	.LBE1212:
 10358              	.LBE1213:
 10359              	.LBE1214:
 10360              	.LBE1227:
 10361              	.LBE1230:
 10362              	.LBE1233:
 10363              	.LBE1238:
 10364              	.LBE1243:
 10365              	.LBB1244:
 10366              	.LBB1172:
 10367              	.LBB1165:
 10368              	.LBB1138:
 10369              	.LBB1133:
 10370              	.LBB1120:
 137:../USER/main_03.c **** 	}
 10371              		.loc 1 137 3 is_stmt 1 view .LVU3599
 10372 1882 0A98     		ldr	r0, [sp, #40]
 10373 1884 FFF7FEFF 		bl	SPI_WriteData
 10374              	.LVL707:
 10375              	.L616:
 10376              	.LBB1116:
 10377              	.LBB1117:
 116:../USER/main_03.c **** 	if(kinbwp>=256) kinbwp = 0;
 10378              		.loc 1 116 11 is_stmt 0 view .LVU3600
 10379 1888 4FF04026 		mov	r6, #1073758208
 10380 188c 1AE0     		b	.L629
 10381              	.LVL708:
 10382              	.L1209:
 116:../USER/main_03.c **** 	if(kinbwp>=256) kinbwp = 0;
 10383              		.loc 1 116 11 view .LVU3601
 10384 188e D8F80030 		ldr	r3, [r8]
 10385              	.L625:
 114:../USER/main_03.c **** 	//
 10386              		.loc 1 114 2 is_stmt 1 view .LVU3602
 114:../USER/main_03.c **** 	//
 10387              		.loc 1 114 18 view .LVU3603
 114:../USER/main_03.c **** 	//
 10388              		.loc 1 114 4 is_stmt 0 view .LVU3604
 10389 1892 FF2B     		cmp	r3, #255
 10390 1894 02DD     		ble	.L626
 114:../USER/main_03.c **** 	//
 10391              		.loc 1 114 25 view .LVU3605
 10392 1896 0023     		movs	r3, #0
 10393 1898 C8F80070 		str	r7, [r8]
 10394              	.L626:
 116:../USER/main_03.c **** 	if(kinbwp>=256) kinbwp = 0;
 10395              		.loc 1 116 39 is_stmt 1 view .LVU3606
 116:../USER/main_03.c **** 	if(kinbwp>=256) kinbwp = 0;
 10396              		.loc 1 116 2 view .LVU3607
 116:../USER/main_03.c **** 	if(kinbwp>=256) kinbwp = 0;
 10397              		.loc 1 116 11 is_stmt 0 view .LVU3608
 10398 189c 7168     		ldr	r1, [r6, #4]
 116:../USER/main_03.c **** 	if(kinbwp>=256) kinbwp = 0;
 10399              		.loc 1 116 52 view .LVU3609
 10400 189e 5A1C     		adds	r2, r3, #1
 116:../USER/main_03.c **** 	if(kinbwp>=256) kinbwp = 0;
 10401              		.loc 1 116 4 view .LVU3610
 10402 18a0 8807     		lsls	r0, r1, #30
 10403              	.LVL709:
 116:../USER/main_03.c **** 	if(kinbwp>=256) kinbwp = 0;
 10404              		.loc 1 116 4 view .LVU3611
 10405 18a2 09D5     		bpl	.L628
 117:../USER/main_03.c **** 	//
 10406              		.loc 1 117 25 view .LVU3612
 10407 18a4 B2F5807F 		cmp	r2, #256
 10408 18a8 14BF     		ite	ne
 10409 18aa 1146     		movne	r1, r2
 10410 18ac 3946     		moveq	r1, r7
 116:../USER/main_03.c **** 	if(kinbwp>=256) kinbwp = 0;
 10411              		.loc 1 116 63 view .LVU3613
 10412 18ae 3068     		ldr	r0, [r6]
 117:../USER/main_03.c **** 	//
 10413              		.loc 1 117 25 view .LVU3614
 10414 18b0 C8F80010 		str	r1, [r8]
 116:../USER/main_03.c **** 	if(kinbwp>=256) kinbwp = 0;
 10415              		.loc 1 116 56 view .LVU3615
 10416 18b4 09F80300 		strb	r0, [r9, r3]
 117:../USER/main_03.c **** 	//
 10417              		.loc 1 117 2 is_stmt 1 view .LVU3616
 10418              	.L628:
 117:../USER/main_03.c **** 	//
 10419              		.loc 1 117 2 is_stmt 0 view .LVU3617
 10420              	.LBE1117:
 10421              	.LBE1116:
 140:../USER/main_03.c **** }
 10422              		.loc 1 140 27 is_stmt 1 view .LVU3618
 140:../USER/main_03.c **** }
 10423              		.loc 1 140 32 is_stmt 0 view .LVU3619
 10424 18b8 2046     		mov	r0, r4
 10425 18ba FFF7FEFF 		bl	disp_vram
 10426              	.LVL710:
 140:../USER/main_03.c **** }
 10427              		.loc 1 140 2 view .LVU3620
 10428 18be 0028     		cmp	r0, #0
 10429 18c0 3FF430AC 		beq	.L647
 10430              	.LVL711:
 10431              	.L629:
 140:../USER/main_03.c **** }
 10432              		.loc 1 140 2 is_stmt 1 view .LVU3621
 140:../USER/main_03.c **** }
 10433              		.loc 1 140 10 view .LVU3622
 140:../USER/main_03.c **** }
 10434              		.loc 1 140 14 view .LVU3623
 10435              	.LBB1119:
 10436              	.LBI1116:
 109:../USER/main_03.c **** 	char ch;
 10437              		.loc 1 109 6 view .LVU3624
 10438              	.LBB1118:
 110:../USER/main_03.c **** 	//
 10439              		.loc 1 110 2 view .LVU3625
 112:../USER/main_03.c **** 	if(ch!=0) kinbuf[kinbwp++] = ch;
 10440              		.loc 1 112 2 view .LVU3626
 112:../USER/main_03.c **** 	if(ch!=0) kinbuf[kinbwp++] = ch;
 10441              		.loc 1 112 7 is_stmt 0 view .LVU3627
 10442 18c4 FFF7FEFF 		bl	SPI_ReadData
 10443              	.LVL712:
 113:../USER/main_03.c **** 	if(kinbwp>=256) kinbwp = 0;
 10444              		.loc 1 113 12 is_stmt 1 view .LVU3628
 112:../USER/main_03.c **** 	if(ch!=0) kinbuf[kinbwp++] = ch;
 10445              		.loc 1 112 5 is_stmt 0 view .LVU3629
 10446 18c8 40B2     		sxtb	r0, r0
 10447              	.LVL713:
 113:../USER/main_03.c **** 	if(kinbwp>=256) kinbwp = 0;
 10448              		.loc 1 113 2 is_stmt 1 view .LVU3630
 113:../USER/main_03.c **** 	if(kinbwp>=256) kinbwp = 0;
 10449              		.loc 1 113 4 is_stmt 0 view .LVU3631
 10450 18ca 0028     		cmp	r0, #0
 10451 18cc DFD0     		beq	.L1209
 113:../USER/main_03.c **** 	if(kinbwp>=256) kinbwp = 0;
 10452              		.loc 1 113 25 view .LVU3632
 10453 18ce D8F80020 		ldr	r2, [r8]
 10454 18d2 531C     		adds	r3, r2, #1
 113:../USER/main_03.c **** 	if(kinbwp>=256) kinbwp = 0;
 10455              		.loc 1 113 29 view .LVU3633
 10456 18d4 09F80200 		strb	r0, [r9, r2]
 113:../USER/main_03.c **** 	if(kinbwp>=256) kinbwp = 0;
 10457              		.loc 1 113 25 view .LVU3634
 10458 18d8 C8F80030 		str	r3, [r8]
 10459 18dc D9E7     		b	.L625
 10460              	.LVL714:
 10461              	.L673:
 113:../USER/main_03.c **** 	if(kinbwp>=256) kinbwp = 0;
 10462              		.loc 1 113 25 view .LVU3635
 10463              	.LBE1118:
 10464              	.LBE1119:
 10465              	.LBE1120:
 10466              	.LBE1133:
 10467              	.LBE1138:
 10468              	.LBE1165:
 10469              	.LBE1172:
 10470              	.LBE1244:
 10471              	.LBB1245:
 10472              	.LBB1239:
 10473              	.LBB1234:
 10474              	.LBB1200:
 10475              	.LBB1198:
 10476              	.LBB1194:
 137:../USER/main_03.c **** 	}
 10477              		.loc 1 137 3 is_stmt 1 view .LVU3636
 10478 18de 2846     		mov	r0, r5
 10479 18e0 FFF7FEFF 		bl	SPI_WriteData
 10480              	.LVL715:
 10481              	.L666:
 10482              	.LBB1188:
 10483              	.LBB1189:
 116:../USER/main_03.c **** 	if(kinbwp>=256) kinbwp = 0;
 10484              		.loc 1 116 11 is_stmt 0 view .LVU3637
 10485 18e4 4FF04025 		mov	r5, #1073758208
 10486 18e8 1AE0     		b	.L679
 10487              	.LVL716:
 10488              	.L1210:
 116:../USER/main_03.c **** 	if(kinbwp>=256) kinbwp = 0;
 10489              		.loc 1 116 11 view .LVU3638
 10490 18ea D8F80030 		ldr	r3, [r8]
 10491              	.L675:
 114:../USER/main_03.c **** 	//
 10492              		.loc 1 114 2 is_stmt 1 view .LVU3639
 114:../USER/main_03.c **** 	//
 10493              		.loc 1 114 18 view .LVU3640
 114:../USER/main_03.c **** 	//
 10494              		.loc 1 114 4 is_stmt 0 view .LVU3641
 10495 18ee FF2B     		cmp	r3, #255
 10496 18f0 02DD     		ble	.L676
 114:../USER/main_03.c **** 	//
 10497              		.loc 1 114 25 view .LVU3642
 10498 18f2 0023     		movs	r3, #0
 10499 18f4 C8F80070 		str	r7, [r8]
 10500              	.L676:
 116:../USER/main_03.c **** 	if(kinbwp>=256) kinbwp = 0;
 10501              		.loc 1 116 39 is_stmt 1 view .LVU3643
 116:../USER/main_03.c **** 	if(kinbwp>=256) kinbwp = 0;
 10502              		.loc 1 116 2 view .LVU3644
 116:../USER/main_03.c **** 	if(kinbwp>=256) kinbwp = 0;
 10503              		.loc 1 116 11 is_stmt 0 view .LVU3645
 10504 18f8 6968     		ldr	r1, [r5, #4]
 116:../USER/main_03.c **** 	if(kinbwp>=256) kinbwp = 0;
 10505              		.loc 1 116 52 view .LVU3646
 10506 18fa 5A1C     		adds	r2, r3, #1
 116:../USER/main_03.c **** 	if(kinbwp>=256) kinbwp = 0;
 10507              		.loc 1 116 4 view .LVU3647
 10508 18fc 8E07     		lsls	r6, r1, #30
 10509 18fe 09D5     		bpl	.L678
 117:../USER/main_03.c **** 	//
 10510              		.loc 1 117 25 view .LVU3648
 10511 1900 B2F5807F 		cmp	r2, #256
 10512 1904 14BF     		ite	ne
 10513 1906 1146     		movne	r1, r2
 10514 1908 3946     		moveq	r1, r7
 116:../USER/main_03.c **** 	if(kinbwp>=256) kinbwp = 0;
 10515              		.loc 1 116 63 view .LVU3649
 10516 190a 2868     		ldr	r0, [r5]
 10517              	.LVL717:
 117:../USER/main_03.c **** 	//
 10518              		.loc 1 117 25 view .LVU3650
 10519 190c C8F80010 		str	r1, [r8]
 116:../USER/main_03.c **** 	if(kinbwp>=256) kinbwp = 0;
 10520              		.loc 1 116 56 view .LVU3651
 10521 1910 09F80300 		strb	r0, [r9, r3]
 117:../USER/main_03.c **** 	//
 10522              		.loc 1 117 2 is_stmt 1 view .LVU3652
 10523              	.L678:
 117:../USER/main_03.c **** 	//
 10524              		.loc 1 117 2 is_stmt 0 view .LVU3653
 10525              	.LBE1189:
 10526              	.LBE1188:
 140:../USER/main_03.c **** }
 10527              		.loc 1 140 27 is_stmt 1 view .LVU3654
 140:../USER/main_03.c **** }
 10528              		.loc 1 140 32 is_stmt 0 view .LVU3655
 10529 1914 2046     		mov	r0, r4
 10530 1916 FFF7FEFF 		bl	disp_vram
 10531              	.LVL718:
 140:../USER/main_03.c **** }
 10532              		.loc 1 140 2 view .LVU3656
 10533 191a 0028     		cmp	r0, #0
 10534 191c 3FF48DAC 		beq	.L680
 10535              	.LVL719:
 10536              	.L679:
 140:../USER/main_03.c **** }
 10537              		.loc 1 140 2 is_stmt 1 view .LVU3657
 140:../USER/main_03.c **** }
 10538              		.loc 1 140 10 view .LVU3658
 140:../USER/main_03.c **** }
 10539              		.loc 1 140 14 view .LVU3659
 10540              	.LBB1191:
 10541              	.LBI1188:
 109:../USER/main_03.c **** 	char ch;
 10542              		.loc 1 109 6 view .LVU3660
 10543              	.LBB1190:
 110:../USER/main_03.c **** 	//
 10544              		.loc 1 110 2 view .LVU3661
 112:../USER/main_03.c **** 	if(ch!=0) kinbuf[kinbwp++] = ch;
 10545              		.loc 1 112 2 view .LVU3662
 112:../USER/main_03.c **** 	if(ch!=0) kinbuf[kinbwp++] = ch;
 10546              		.loc 1 112 7 is_stmt 0 view .LVU3663
 10547 1920 FFF7FEFF 		bl	SPI_ReadData
 10548              	.LVL720:
 113:../USER/main_03.c **** 	if(kinbwp>=256) kinbwp = 0;
 10549              		.loc 1 113 12 is_stmt 1 view .LVU3664
 112:../USER/main_03.c **** 	if(ch!=0) kinbuf[kinbwp++] = ch;
 10550              		.loc 1 112 5 is_stmt 0 view .LVU3665
 10551 1924 40B2     		sxtb	r0, r0
 10552              	.LVL721:
 113:../USER/main_03.c **** 	if(kinbwp>=256) kinbwp = 0;
 10553              		.loc 1 113 2 is_stmt 1 view .LVU3666
 113:../USER/main_03.c **** 	if(kinbwp>=256) kinbwp = 0;
 10554              		.loc 1 113 4 is_stmt 0 view .LVU3667
 10555 1926 0028     		cmp	r0, #0
 10556 1928 DFD0     		beq	.L1210
 113:../USER/main_03.c **** 	if(kinbwp>=256) kinbwp = 0;
 10557              		.loc 1 113 25 view .LVU3668
 10558 192a D8F80020 		ldr	r2, [r8]
 10559 192e 531C     		adds	r3, r2, #1
 113:../USER/main_03.c **** 	if(kinbwp>=256) kinbwp = 0;
 10560              		.loc 1 113 29 view .LVU3669
 10561 1930 09F80200 		strb	r0, [r9, r2]
 113:../USER/main_03.c **** 	if(kinbwp>=256) kinbwp = 0;
 10562              		.loc 1 113 25 view .LVU3670
 10563 1934 C8F80030 		str	r3, [r8]
 10564 1938 D9E7     		b	.L675
 10565              	.LVL722:
 10566              	.L656:
 113:../USER/main_03.c **** 	if(kinbwp>=256) kinbwp = 0;
 10567              		.loc 1 113 25 view .LVU3671
 10568              	.LBE1190:
 10569              	.LBE1191:
 10570              	.LBE1194:
 10571              	.LBE1198:
 10572              	.LBE1200:
 10573              	.LBE1234:
 10574              	.LBE1239:
 10575              	.LBE1245:
 10576              	.LBB1246:
 10577              	.LBB1173:
 10578              	.LBB1166:
 10579              	.LBB1163:
 10580              	.LBB1161:
 10581              	.LBB1157:
 137:../USER/main_03.c **** 	}
 10582              		.loc 1 137 3 is_stmt 1 view .LVU3672
 10583 193a 2846     		mov	r0, r5
 10584 193c FFF7FEFF 		bl	SPI_WriteData
 10585              	.LVL723:
 10586              	.L649:
 10587              	.LBB1151:
 10588              	.LBB1152:
 116:../USER/main_03.c **** 	if(kinbwp>=256) kinbwp = 0;
 10589              		.loc 1 116 11 is_stmt 0 view .LVU3673
 10590 1940 4FF04025 		mov	r5, #1073758208
 10591 1944 1AE0     		b	.L662
 10592              	.LVL724:
 10593              	.L1211:
 116:../USER/main_03.c **** 	if(kinbwp>=256) kinbwp = 0;
 10594              		.loc 1 116 11 view .LVU3674
 10595 1946 D8F80030 		ldr	r3, [r8]
 10596              	.L658:
 114:../USER/main_03.c **** 	//
 10597              		.loc 1 114 2 is_stmt 1 view .LVU3675
 114:../USER/main_03.c **** 	//
 10598              		.loc 1 114 18 view .LVU3676
 114:../USER/main_03.c **** 	//
 10599              		.loc 1 114 4 is_stmt 0 view .LVU3677
 10600 194a FF2B     		cmp	r3, #255
 10601 194c 02DD     		ble	.L659
 114:../USER/main_03.c **** 	//
 10602              		.loc 1 114 25 view .LVU3678
 10603 194e 0023     		movs	r3, #0
 10604 1950 C8F80070 		str	r7, [r8]
 10605              	.L659:
 116:../USER/main_03.c **** 	if(kinbwp>=256) kinbwp = 0;
 10606              		.loc 1 116 39 is_stmt 1 view .LVU3679
 116:../USER/main_03.c **** 	if(kinbwp>=256) kinbwp = 0;
 10607              		.loc 1 116 2 view .LVU3680
 116:../USER/main_03.c **** 	if(kinbwp>=256) kinbwp = 0;
 10608              		.loc 1 116 11 is_stmt 0 view .LVU3681
 10609 1954 6968     		ldr	r1, [r5, #4]
 116:../USER/main_03.c **** 	if(kinbwp>=256) kinbwp = 0;
 10610              		.loc 1 116 52 view .LVU3682
 10611 1956 5A1C     		adds	r2, r3, #1
 116:../USER/main_03.c **** 	if(kinbwp>=256) kinbwp = 0;
 10612              		.loc 1 116 4 view .LVU3683
 10613 1958 8E07     		lsls	r6, r1, #30
 10614 195a 09D5     		bpl	.L661
 117:../USER/main_03.c **** 	//
 10615              		.loc 1 117 25 view .LVU3684
 10616 195c B2F5807F 		cmp	r2, #256
 10617 1960 14BF     		ite	ne
 10618 1962 1146     		movne	r1, r2
 10619 1964 3946     		moveq	r1, r7
 116:../USER/main_03.c **** 	if(kinbwp>=256) kinbwp = 0;
 10620              		.loc 1 116 63 view .LVU3685
 10621 1966 2868     		ldr	r0, [r5]
 10622              	.LVL725:
 117:../USER/main_03.c **** 	//
 10623              		.loc 1 117 25 view .LVU3686
 10624 1968 C8F80010 		str	r1, [r8]
 116:../USER/main_03.c **** 	if(kinbwp>=256) kinbwp = 0;
 10625              		.loc 1 116 56 view .LVU3687
 10626 196c 09F80300 		strb	r0, [r9, r3]
 117:../USER/main_03.c **** 	//
 10627              		.loc 1 117 2 is_stmt 1 view .LVU3688
 10628              	.L661:
 117:../USER/main_03.c **** 	//
 10629              		.loc 1 117 2 is_stmt 0 view .LVU3689
 10630              	.LBE1152:
 10631              	.LBE1151:
 140:../USER/main_03.c **** }
 10632              		.loc 1 140 27 is_stmt 1 view .LVU3690
 140:../USER/main_03.c **** }
 10633              		.loc 1 140 32 is_stmt 0 view .LVU3691
 10634 1970 2046     		mov	r0, r4
 10635 1972 FFF7FEFF 		bl	disp_vram
 10636              	.LVL726:
 140:../USER/main_03.c **** }
 10637              		.loc 1 140 2 view .LVU3692
 10638 1976 0028     		cmp	r0, #0
 10639 1978 3FF419AC 		beq	.L663
 10640              	.LVL727:
 10641              	.L662:
 140:../USER/main_03.c **** }
 10642              		.loc 1 140 2 is_stmt 1 view .LVU3693
 140:../USER/main_03.c **** }
 10643              		.loc 1 140 10 view .LVU3694
 140:../USER/main_03.c **** }
 10644              		.loc 1 140 14 view .LVU3695
 10645              	.LBB1154:
 10646              	.LBI1151:
 109:../USER/main_03.c **** 	char ch;
 10647              		.loc 1 109 6 view .LVU3696
 10648              	.LBB1153:
 110:../USER/main_03.c **** 	//
 10649              		.loc 1 110 2 view .LVU3697
 112:../USER/main_03.c **** 	if(ch!=0) kinbuf[kinbwp++] = ch;
 10650              		.loc 1 112 2 view .LVU3698
 112:../USER/main_03.c **** 	if(ch!=0) kinbuf[kinbwp++] = ch;
 10651              		.loc 1 112 7 is_stmt 0 view .LVU3699
 10652 197c FFF7FEFF 		bl	SPI_ReadData
 10653              	.LVL728:
 113:../USER/main_03.c **** 	if(kinbwp>=256) kinbwp = 0;
 10654              		.loc 1 113 12 is_stmt 1 view .LVU3700
 112:../USER/main_03.c **** 	if(ch!=0) kinbuf[kinbwp++] = ch;
 10655              		.loc 1 112 5 is_stmt 0 view .LVU3701
 10656 1980 40B2     		sxtb	r0, r0
 10657              	.LVL729:
 113:../USER/main_03.c **** 	if(kinbwp>=256) kinbwp = 0;
 10658              		.loc 1 113 2 is_stmt 1 view .LVU3702
 113:../USER/main_03.c **** 	if(kinbwp>=256) kinbwp = 0;
 10659              		.loc 1 113 4 is_stmt 0 view .LVU3703
 10660 1982 0028     		cmp	r0, #0
 10661 1984 DFD0     		beq	.L1211
 113:../USER/main_03.c **** 	if(kinbwp>=256) kinbwp = 0;
 10662              		.loc 1 113 25 view .LVU3704
 10663 1986 D8F80020 		ldr	r2, [r8]
 10664 198a 531C     		adds	r3, r2, #1
 113:../USER/main_03.c **** 	if(kinbwp>=256) kinbwp = 0;
 10665              		.loc 1 113 29 view .LVU3705
 10666 198c 09F80200 		strb	r0, [r9, r2]
 113:../USER/main_03.c **** 	if(kinbwp>=256) kinbwp = 0;
 10667              		.loc 1 113 25 view .LVU3706
 10668 1990 C8F80030 		str	r3, [r8]
 10669 1994 D9E7     		b	.L658
 10670              	.L1232:
 10671 1996 00BF     		.align	2
 10672              	.L1231:
 10673 1998 00000000 		.word	.LANCHOR1
 10674 199c 00000140 		.word	1073807360
 10675              	.LVL730:
 10676              	.L1195:
 113:../USER/main_03.c **** 	if(kinbwp>=256) kinbwp = 0;
 10677              		.loc 1 113 25 view .LVU3707
 10678              	.LBE1153:
 10679              	.LBE1154:
 10680              	.LBE1157:
 10681              	.LBE1161:
 10682              	.LBE1163:
 10683              	.LBE1166:
 10684              	.LBE1173:
 10685              	.LBE1246:
 10686              	.LBE1253:
 10687              	.LBE1258:
 10688              	.LBE1267:
 10689              	.LBE1285:
 10690              	.LBE1578:
 10691              	.LBB1579:
 10692              	.LBB1521:
 130:../USER/main_03.c **** 	else {
 10693              		.loc 1 130 3 is_stmt 1 view .LVU3708
 10694 19a0 2021     		movs	r1, #32
 10695 19a2 4FF04020 		mov	r0, #1073758208
 10696 19a6 FFF7FEFF 		bl	UART_SendChar
 10697              	.LVL731:
 10698 19aa 09E6     		b	.L753
 10699              	.LVL732:
 10700              	.L1190:
 130:../USER/main_03.c **** 	else {
 10701              		.loc 1 130 3 is_stmt 0 view .LVU3709
 10702              	.LBE1521:
 10703              	.LBE1579:
 10704              	.LBB1580:
 10705              	.LBB1504:
 130:../USER/main_03.c **** 	else {
 10706              		.loc 1 130 3 is_stmt 1 view .LVU3710
 10707 19ac 2021     		movs	r1, #32
 10708 19ae 4FF04020 		mov	r0, #1073758208
 10709 19b2 FFF7FEFF 		bl	UART_SendChar
 10710              	.LVL733:
 10711 19b6 87E5     		b	.L730
 10712              	.LVL734:
 10713              	.L1186:
 130:../USER/main_03.c **** 	else {
 10714              		.loc 1 130 3 is_stmt 0 view .LVU3711
 10715              	.LBE1504:
 10716              	.LBE1580:
 10717              	.LBB1581:
 10718              	.LBB1286:
 10719              	.LBB1284:
 130:../USER/main_03.c **** 	else {
 10720              		.loc 1 130 3 is_stmt 1 view .LVU3712
 10721 19b8 3A21     		movs	r1, #58
 10722 19ba 4FF04020 		mov	r0, #1073758208
 10723 19be FFF7FEFF 		bl	UART_SendChar
 10724              	.LVL735:
 10725 19c2 1DE5     		b	.L715
 10726              	.LVL736:
 10727              	.L1117:
 130:../USER/main_03.c **** 	else {
 10728              		.loc 1 130 3 is_stmt 0 view .LVU3713
 10729              	.LBE1284:
 10730              	.LBE1286:
 10731              	.LBE1581:
 10732              	.LBB1582:
 10733              	.LBB983:
 10734              	.LBB981:
 10735              	.LBB979:
 130:../USER/main_03.c **** 	else {
 10736              		.loc 1 130 3 is_stmt 1 view .LVU3714
 10737 19c4 2146     		mov	r1, r4
 10738 19c6 4FF04020 		mov	r0, #1073758208
 10739 19ca FFF7FEFF 		bl	UART_SendChar
 10740              	.LVL737:
 10741 19ce FFF77CB8 		b	.L338
 10742              	.LVL738:
 10743              	.L1145:
 130:../USER/main_03.c **** 	else {
 10744              		.loc 1 130 3 is_stmt 0 view .LVU3715
 10745              	.LBE979:
 10746              	.LBE981:
 10747              	.LBE983:
 10748              	.LBE1582:
 10749              	.LBB1583:
 10750              	.LBB1370:
 10751              	.LBB1367:
 130:../USER/main_03.c **** 	else {
 10752              		.loc 1 130 3 is_stmt 1 view .LVU3716
 10753 19d2 3A21     		movs	r1, #58
 10754 19d4 4FF04020 		mov	r0, #1073758208
 10755 19d8 FFF7FEFF 		bl	UART_SendChar
 10756              	.LVL739:
 10757 19dc FFF7A7B8 		b	.L390
 10758              	.LVL740:
 10759              	.L811:
 130:../USER/main_03.c **** 	else {
 10760              		.loc 1 130 3 is_stmt 0 view .LVU3717
 10761              	.LBE1367:
 10762              	.LBE1370:
 10763              	.LBE1583:
 10764              		.loc 1 276 25 is_stmt 1 view .LVU3718
 254:../USER/main_03.c **** 	          putadrhd(adr);
 10765              		.loc 1 254 15 is_stmt 0 view .LVU3719
 10766 19e0 2E29     		cmp	r1, #46
 10767 19e2 3EF42CAB 		beq	.L279
 10768              	.LVL741:
 10769              	.L812:
 10770              		.loc 1 276 29 view .LVU3720
 10771 19e6 049B     		ldr	r3, [sp, #16]
 10772 19e8 9B44     		add	fp, fp, r3
 10773 19ea FEF788BD 		b	.L1106
 10774              	.LVL742:
 10775              	.L1194:
 256:../USER/main_03.c **** 	          putch(' ');
 10776              		.loc 1 256 54 is_stmt 1 discriminator 1 view .LVU3721
 256:../USER/main_03.c **** 	          putch(' ');
 10777              		.loc 1 256 65 is_stmt 0 discriminator 1 view .LVU3722
 10778 19ee 9BF80140 		ldrb	r4, [fp, #1]	@ zero_extendqisi2
 10779              	.LVL743:
 10780              	.LBB1584:
 10781              	.LBI1584:
 144:../USER/main_03.c **** void puth4(dt) int dt;{ puth2((dt >> 8) & 0xff); puth2(dt & 0xff); }
 10782              		.loc 1 144 6 is_stmt 1 discriminator 1 view .LVU3723
 10783              	.LBB1585:
 144:../USER/main_03.c **** void puth4(dt) int dt;{ puth2((dt >> 8) & 0xff); puth2(dt & 0xff); }
 10784              		.loc 1 144 25 discriminator 1 view .LVU3724
 144:../USER/main_03.c **** void puth4(dt) int dt;{ puth2((dt >> 8) & 0xff); puth2(dt & 0xff); }
 10785              		.loc 1 144 34 is_stmt 0 discriminator 1 view .LVU3725
 10786 19f2 2311     		asrs	r3, r4, #4
 10787              	.LVL744:
 10788              	.LBB1586:
 10789              	.LBI1586:
 143:../USER/main_03.c **** void puth2(dt) int dt;{ puth((dt >> 4) & 0xf); puth(dt & 0xf); }
 10790              		.loc 1 143 6 is_stmt 1 discriminator 1 view .LVU3726
 10791              	.LBB1587:
 143:../USER/main_03.c **** void puth2(dt) int dt;{ puth((dt >> 4) & 0xf); puth(dt & 0xf); }
 10792              		.loc 1 143 24 discriminator 1 view .LVU3727
 143:../USER/main_03.c **** void puth2(dt) int dt;{ puth((dt >> 4) & 0xf); puth(dt & 0xf); }
 10793              		.loc 1 143 34 discriminator 1 view .LVU3728
 143:../USER/main_03.c **** void puth2(dt) int dt;{ puth((dt >> 4) & 0xf); puth(dt & 0xf); }
 10794              		.loc 1 143 55 discriminator 1 view .LVU3729
 10795 19f4 D8B2     		uxtb	r0, r3
 143:../USER/main_03.c **** void puth2(dt) int dt;{ puth((dt >> 4) & 0xf); puth(dt & 0xf); }
 10796              		.loc 1 143 26 is_stmt 0 discriminator 1 view .LVU3730
 10797 19f6 092B     		cmp	r3, #9
 143:../USER/main_03.c **** void puth2(dt) int dt;{ puth((dt >> 4) & 0xf); puth(dt & 0xf); }
 10798              		.loc 1 143 34 discriminator 1 view .LVU3731
 10799 19f8 D4BF     		ite	le
 10800 19fa 3030     		addle	r0, r0, #48
 143:../USER/main_03.c **** void puth2(dt) int dt;{ puth((dt >> 4) & 0xf); puth(dt & 0xf); }
 10801              		.loc 1 143 55 discriminator 1 view .LVU3732
 10802 19fc 3730     		addgt	r0, r0, #55
 10803 19fe FFF7FEFF 		bl	putch_uart
 10804              	.LVL745:
 143:../USER/main_03.c **** void puth2(dt) int dt;{ puth((dt >> 4) & 0xf); puth(dt & 0xf); }
 10805              		.loc 1 143 55 discriminator 1 view .LVU3733
 10806              	.LBE1587:
 10807              	.LBE1586:
 144:../USER/main_03.c **** void puth4(dt) int dt;{ puth2((dt >> 8) & 0xff); puth2(dt & 0xff); }
 10808              		.loc 1 144 48 is_stmt 1 discriminator 1 view .LVU3734
 10809 1a02 04F00F00 		and	r0, r4, #15
 10810              	.LVL746:
 10811              	.LBB1588:
 10812              	.LBI1588:
 143:../USER/main_03.c **** void puth2(dt) int dt;{ puth((dt >> 4) & 0xf); puth(dt & 0xf); }
 10813              		.loc 1 143 6 discriminator 1 view .LVU3735
 10814              	.LBB1589:
 143:../USER/main_03.c **** void puth2(dt) int dt;{ puth((dt >> 4) & 0xf); puth(dt & 0xf); }
 10815              		.loc 1 143 24 discriminator 1 view .LVU3736
 143:../USER/main_03.c **** void puth2(dt) int dt;{ puth((dt >> 4) & 0xf); puth(dt & 0xf); }
 10816              		.loc 1 143 34 discriminator 1 view .LVU3737
 143:../USER/main_03.c **** void puth2(dt) int dt;{ puth((dt >> 4) & 0xf); puth(dt & 0xf); }
 10817              		.loc 1 143 55 discriminator 1 view .LVU3738
 143:../USER/main_03.c **** void puth2(dt) int dt;{ puth((dt >> 4) & 0xf); puth(dt & 0xf); }
 10818              		.loc 1 143 26 is_stmt 0 discriminator 1 view .LVU3739
 10819 1a06 0928     		cmp	r0, #9
 143:../USER/main_03.c **** void puth2(dt) int dt;{ puth((dt >> 4) & 0xf); puth(dt & 0xf); }
 10820              		.loc 1 143 34 discriminator 1 view .LVU3740
 10821 1a08 94BF     		ite	ls
 10822 1a0a 3030     		addls	r0, r0, #48
 10823              	.LVL747:
 143:../USER/main_03.c **** void puth2(dt) int dt;{ puth((dt >> 4) & 0xf); puth(dt & 0xf); }
 10824              		.loc 1 143 55 discriminator 1 view .LVU3741
 10825 1a0c 3730     		addhi	r0, r0, #55
 10826 1a0e FFF7FEFF 		bl	putch_uart
 10827              	.LVL748:
 10828 1a12 9AE5     		b	.L748
 10829              	.LVL749:
 10830              	.L1183:
 143:../USER/main_03.c **** void puth2(dt) int dt;{ puth((dt >> 4) & 0xf); puth(dt & 0xf); }
 10831              		.loc 1 143 55 discriminator 1 view .LVU3742
 10832              	.LBE1589:
 10833              	.LBE1588:
 10834              	.LBE1585:
 10835              	.LBE1584:
 10836              	.LBB1590:
 10837              	.LBB1287:
 10838              	.LBB1268:
 10839              	.LBB1259:
 10840              	.LBB1254:
 10841              	.LBB1247:
 10842              	.LBB1240:
 10843              	.LBB1235:
 10844              	.LBB1231:
 10845              	.LBB1228:
 10846              	.LBB1226:
 130:../USER/main_03.c **** 	else {
 10847              		.loc 1 130 3 is_stmt 1 view .LVU3743
 10848 1a14 2146     		mov	r1, r4
 10849 1a16 4FF04020 		mov	r0, #1073758208
 10850 1a1a FFF7FEFF 		bl	UART_SendChar
 10851              	.LVL750:
 130:../USER/main_03.c **** 	else {
 10852              		.loc 1 130 3 is_stmt 0 view .LVU3744
 10853 1a1e 8BE4     		b	.L700
 10854              	.LVL751:
 10855              	.L1173:
 130:../USER/main_03.c **** 	else {
 10856              		.loc 1 130 3 view .LVU3745
 10857              	.LBE1226:
 10858              	.LBE1228:
 10859              	.LBE1231:
 10860              	.LBE1235:
 10861              	.LBE1240:
 10862              	.LBE1247:
 10863              	.LBB1248:
 10864              	.LBB1174:
 10865              	.LBB1167:
 10866              	.LBB1139:
 10867              	.LBB1134:
 10868              	.LBB1132:
 130:../USER/main_03.c **** 	else {
 10869              		.loc 1 130 3 is_stmt 1 view .LVU3746
 10870 1a20 2146     		mov	r1, r4
 10871              	.LVL752:
 130:../USER/main_03.c **** 	else {
 10872              		.loc 1 130 3 is_stmt 0 view .LVU3747
 10873 1a22 4FF04020 		mov	r0, #1073758208
 10874 1a26 FFF7FEFF 		bl	UART_SendChar
 10875              	.LVL753:
 10876 1a2a FFF752BB 		b	.L633
 10877              	.LVL754:
 10878              	.L1181:
 130:../USER/main_03.c **** 	else {
 10879              		.loc 1 130 3 view .LVU3748
 10880              	.LBE1132:
 10881              	.LBE1134:
 10882              	.LBE1139:
 10883              	.LBE1167:
 10884              	.LBE1174:
 10885              	.LBE1248:
 10886              	.LBB1249:
 10887              	.LBB1241:
 10888              	.LBB1236:
 10889              	.LBB1232:
 10890              	.LBB1229:
 10891              	.LBB1215:
 130:../USER/main_03.c **** 	else {
 10892              		.loc 1 130 3 is_stmt 1 view .LVU3749
 10893 1a2e 2146     		mov	r1, r4
 10894 1a30 4FF04020 		mov	r0, #1073758208
 10895 1a34 FFF7FEFF 		bl	UART_SendChar
 10896              	.LVL755:
 130:../USER/main_03.c **** 	else {
 10897              		.loc 1 130 3 is_stmt 0 view .LVU3750
 10898 1a38 F8E6     		b	.L683
 10899              	.LVL756:
 10900              	.L1172:
 130:../USER/main_03.c **** 	else {
 10901              		.loc 1 130 3 view .LVU3751
 10902              	.LBE1215:
 10903              	.LBE1229:
 10904              	.LBE1232:
 10905              	.LBE1236:
 10906              	.LBE1241:
 10907              	.LBE1249:
 10908              	.LBE1254:
 10909              	.LBE1259:
 10910              	.LBB1260:
 10911              	.LBB1099:
 10912              	.LBB1095:
 10913              	.LBB1091:
 10914              	.LBB1072:
 10915              	.LBB1070:
 10916              	.LBB1067:
 130:../USER/main_03.c **** 	else {
 10917              		.loc 1 130 3 is_stmt 1 view .LVU3752
 10918 1a3a 2146     		mov	r1, r4
 10919 1a3c 4FF04020 		mov	r0, #1073758208
 10920 1a40 FFF7FEFF 		bl	UART_SendChar
 10921              	.LVL757:
 10922 1a44 FFF7FFBA 		b	.L601
 10923              	.LVL758:
 10924              	.L1147:
 130:../USER/main_03.c **** 	else {
 10925              		.loc 1 130 3 is_stmt 0 view .LVU3753
 10926              	.LBE1067:
 10927              	.LBE1070:
 10928              	.LBE1072:
 10929              	.LBE1091:
 10930              	.LBE1095:
 10931              	.LBE1099:
 10932              	.LBE1260:
 10933              	.LBB1261:
 10934              	.LBB1255:
 10935              	.LBB1250:
 10936              	.LBB1175:
 10937              	.LBB1168:
 10938              	.LBB1140:
 10939              	.LBB1135:
 10940              	.LBB1121:
 130:../USER/main_03.c **** 	else {
 10941              		.loc 1 130 3 is_stmt 1 view .LVU3754
 10942 1a48 2146     		mov	r1, r4
 10943              	.LVL759:
 130:../USER/main_03.c **** 	else {
 10944              		.loc 1 130 3 is_stmt 0 view .LVU3755
 10945 1a4a 4FF04020 		mov	r0, #1073758208
 10946 1a4e FFF7FEFF 		bl	UART_SendChar
 10947              	.LVL760:
 10948 1a52 19E7     		b	.L616
 10949              	.LVL761:
 10950              	.L1177:
 130:../USER/main_03.c **** 	else {
 10951              		.loc 1 130 3 view .LVU3756
 10952              	.LBE1121:
 10953              	.LBE1135:
 10954              	.LBE1140:
 10955              	.LBE1168:
 10956              	.LBB1169:
 10957              	.LBB1164:
 10958              	.LBB1162:
 10959              	.LBB1158:
 130:../USER/main_03.c **** 	else {
 10960              		.loc 1 130 3 is_stmt 1 view .LVU3757
 10961 1a54 2146     		mov	r1, r4
 10962 1a56 4FF04020 		mov	r0, #1073758208
 10963 1a5a FFF7FEFF 		bl	UART_SendChar
 10964              	.LVL762:
 10965 1a5e 6FE7     		b	.L649
 10966              	.LVL763:
 10967              	.L1179:
 130:../USER/main_03.c **** 	else {
 10968              		.loc 1 130 3 is_stmt 0 view .LVU3758
 10969              	.LBE1158:
 10970              	.LBE1162:
 10971              	.LBE1164:
 10972              	.LBE1169:
 10973              	.LBE1175:
 10974              	.LBE1250:
 10975              	.LBB1251:
 10976              	.LBB1242:
 10977              	.LBB1237:
 10978              	.LBB1201:
 10979              	.LBB1199:
 10980              	.LBB1195:
 130:../USER/main_03.c **** 	else {
 10981              		.loc 1 130 3 is_stmt 1 view .LVU3759
 10982 1a60 2146     		mov	r1, r4
 10983 1a62 4FF04020 		mov	r0, #1073758208
 10984 1a66 FFF7FEFF 		bl	UART_SendChar
 10985              	.LVL764:
 10986 1a6a 3BE7     		b	.L666
 10987              	.LVL765:
 10988              	.L1141:
 130:../USER/main_03.c **** 	else {
 10989              		.loc 1 130 3 is_stmt 0 view .LVU3760
 10990              	.LBE1195:
 10991              	.LBE1199:
 10992              	.LBE1201:
 10993              	.LBE1237:
 10994              	.LBE1242:
 10995              	.LBE1251:
 10996              	.LBE1255:
 10997              	.LBE1261:
 10998              	.LBB1262:
 10999              	.LBB1100:
 11000              	.LBB1096:
 11001              	.LBB1092:
 11002              	.LBB1088:
 11003              	.LBB1086:
 11004              	.LBB1083:
 130:../USER/main_03.c **** 	else {
 11005              		.loc 1 130 3 is_stmt 1 view .LVU3761
 11006 1a6c 2146     		mov	r1, r4
 11007 1a6e 4FF04020 		mov	r0, #1073758208
 11008 1a72 FFF7FEFF 		bl	UART_SendChar
 11009              	.LVL766:
 11010 1a76 FEF797BE 		b	.L604
 11011              	.LVL767:
 11012              	.L966:
 130:../USER/main_03.c **** 	else {
 11013              		.loc 1 130 3 is_stmt 0 view .LVU3762
 11014              	.LBE1083:
 11015              	.LBE1086:
 11016              	.LBE1088:
 11017              	.LBE1092:
 11018              	.LBE1096:
 11019              	.LBE1100:
 11020              	.LBE1262:
 11021              	.LBE1268:
 11022              	.LBE1287:
 11023              	.LBE1590:
 11024              	.LBB1591:
 11025              	.LBB1574:
 11026              	.LBB1572:
 11027              	.LBB1571:
 174:../USER/main_03.c ****   while( (hd=ishex(**buf)) != -1){ num = num * 16 + hd; (*buf)++; }
 11028              		.loc 1 174 8 view .LVU3763
 11029 1a7a 28AB     		add	r3, sp, #160
 11030 1a7c A6E6     		b	.L801
 11031              	.LVL768:
 11032              	.L533:
 174:../USER/main_03.c ****   while( (hd=ishex(**buf)) != -1){ num = num * 16 + hd; (*buf)++; }
 11033              		.loc 1 174 8 view .LVU3764
 11034              	.LBE1571:
 11035              	.LBE1572:
 11036              	.LBE1574:
 11037              	.LBE1591:
 11038              	.LBB1592:
 11039              	.LBB1023:
 137:../USER/main_03.c **** 	}
 11040              		.loc 1 137 3 is_stmt 1 view .LVU3765
 11041 1a7e 2020     		movs	r0, #32
 11042 1a80 FFF7FEFF 		bl	SPI_WriteData
 11043              	.LVL769:
 11044              	.L526:
 11045              	.LBB1019:
 11046              	.LBB1020:
 116:../USER/main_03.c **** 	if(kinbwp>=256) kinbwp = 0;
 11047              		.loc 1 116 11 is_stmt 0 view .LVU3766
 11048 1a84 4FF04024 		mov	r4, #1073758208
 11049 1a88 1AE0     		b	.L539
 11050              	.LVL770:
 11051              	.L1213:
 116:../USER/main_03.c **** 	if(kinbwp>=256) kinbwp = 0;
 11052              		.loc 1 116 11 view .LVU3767
 11053 1a8a D8F80030 		ldr	r3, [r8]
 11054              	.L535:
 114:../USER/main_03.c **** 	//
 11055              		.loc 1 114 2 is_stmt 1 view .LVU3768
 114:../USER/main_03.c **** 	//
 11056              		.loc 1 114 18 view .LVU3769
 114:../USER/main_03.c **** 	//
 11057              		.loc 1 114 4 is_stmt 0 view .LVU3770
 11058 1a8e FF2B     		cmp	r3, #255
 11059 1a90 02DD     		ble	.L536
 114:../USER/main_03.c **** 	//
 11060              		.loc 1 114 25 view .LVU3771
 11061 1a92 0023     		movs	r3, #0
 11062 1a94 C8F80070 		str	r7, [r8]
 11063              	.L536:
 116:../USER/main_03.c **** 	if(kinbwp>=256) kinbwp = 0;
 11064              		.loc 1 116 39 is_stmt 1 view .LVU3772
 116:../USER/main_03.c **** 	if(kinbwp>=256) kinbwp = 0;
 11065              		.loc 1 116 2 view .LVU3773
 116:../USER/main_03.c **** 	if(kinbwp>=256) kinbwp = 0;
 11066              		.loc 1 116 11 is_stmt 0 view .LVU3774
 11067 1a98 6168     		ldr	r1, [r4, #4]
 116:../USER/main_03.c **** 	if(kinbwp>=256) kinbwp = 0;
 11068              		.loc 1 116 52 view .LVU3775
 11069 1a9a 5A1C     		adds	r2, r3, #1
 116:../USER/main_03.c **** 	if(kinbwp>=256) kinbwp = 0;
 11070              		.loc 1 116 4 view .LVU3776
 11071 1a9c 8807     		lsls	r0, r1, #30
 11072              	.LVL771:
 116:../USER/main_03.c **** 	if(kinbwp>=256) kinbwp = 0;
 11073              		.loc 1 116 4 view .LVU3777
 11074 1a9e 09D5     		bpl	.L538
 117:../USER/main_03.c **** 	//
 11075              		.loc 1 117 25 view .LVU3778
 11076 1aa0 B2F5807F 		cmp	r2, #256
 11077 1aa4 14BF     		ite	ne
 11078 1aa6 1146     		movne	r1, r2
 11079 1aa8 3946     		moveq	r1, r7
 116:../USER/main_03.c **** 	if(kinbwp>=256) kinbwp = 0;
 11080              		.loc 1 116 63 view .LVU3779
 11081 1aaa 2068     		ldr	r0, [r4]
 117:../USER/main_03.c **** 	//
 11082              		.loc 1 117 25 view .LVU3780
 11083 1aac C8F80010 		str	r1, [r8]
 116:../USER/main_03.c **** 	if(kinbwp>=256) kinbwp = 0;
 11084              		.loc 1 116 56 view .LVU3781
 11085 1ab0 09F80300 		strb	r0, [r9, r3]
 117:../USER/main_03.c **** 	//
 11086              		.loc 1 117 2 is_stmt 1 view .LVU3782
 11087              	.L538:
 117:../USER/main_03.c **** 	//
 11088              		.loc 1 117 2 is_stmt 0 view .LVU3783
 11089              	.LBE1020:
 11090              	.LBE1019:
 140:../USER/main_03.c **** }
 11091              		.loc 1 140 27 is_stmt 1 view .LVU3784
 140:../USER/main_03.c **** }
 11092              		.loc 1 140 32 is_stmt 0 view .LVU3785
 11093 1ab4 2020     		movs	r0, #32
 11094 1ab6 FFF7FEFF 		bl	disp_vram
 11095              	.LVL772:
 140:../USER/main_03.c **** }
 11096              		.loc 1 140 2 view .LVU3786
 11097 1aba 0028     		cmp	r0, #0
 11098 1abc 3EF4C1AC 		beq	.L1212
 11099              	.LVL773:
 11100              	.L539:
 140:../USER/main_03.c **** }
 11101              		.loc 1 140 2 is_stmt 1 view .LVU3787
 140:../USER/main_03.c **** }
 11102              		.loc 1 140 10 view .LVU3788
 140:../USER/main_03.c **** }
 11103              		.loc 1 140 14 view .LVU3789
 11104              	.LBB1022:
 11105              	.LBI1019:
 109:../USER/main_03.c **** 	char ch;
 11106              		.loc 1 109 6 view .LVU3790
 11107              	.LBB1021:
 110:../USER/main_03.c **** 	//
 11108              		.loc 1 110 2 view .LVU3791
 112:../USER/main_03.c **** 	if(ch!=0) kinbuf[kinbwp++] = ch;
 11109              		.loc 1 112 2 view .LVU3792
 112:../USER/main_03.c **** 	if(ch!=0) kinbuf[kinbwp++] = ch;
 11110              		.loc 1 112 7 is_stmt 0 view .LVU3793
 11111 1ac0 FFF7FEFF 		bl	SPI_ReadData
 11112              	.LVL774:
 113:../USER/main_03.c **** 	if(kinbwp>=256) kinbwp = 0;
 11113              		.loc 1 113 12 is_stmt 1 view .LVU3794
 112:../USER/main_03.c **** 	if(ch!=0) kinbuf[kinbwp++] = ch;
 11114              		.loc 1 112 5 is_stmt 0 view .LVU3795
 11115 1ac4 40B2     		sxtb	r0, r0
 11116              	.LVL775:
 113:../USER/main_03.c **** 	if(kinbwp>=256) kinbwp = 0;
 11117              		.loc 1 113 2 is_stmt 1 view .LVU3796
 113:../USER/main_03.c **** 	if(kinbwp>=256) kinbwp = 0;
 11118              		.loc 1 113 4 is_stmt 0 view .LVU3797
 11119 1ac6 0028     		cmp	r0, #0
 11120 1ac8 DFD0     		beq	.L1213
 113:../USER/main_03.c **** 	if(kinbwp>=256) kinbwp = 0;
 11121              		.loc 1 113 25 view .LVU3798
 11122 1aca D8F80020 		ldr	r2, [r8]
 11123 1ace 531C     		adds	r3, r2, #1
 113:../USER/main_03.c **** 	if(kinbwp>=256) kinbwp = 0;
 11124              		.loc 1 113 29 view .LVU3799
 11125 1ad0 09F80200 		strb	r0, [r9, r2]
 113:../USER/main_03.c **** 	if(kinbwp>=256) kinbwp = 0;
 11126              		.loc 1 113 25 view .LVU3800
 11127 1ad4 C8F80030 		str	r3, [r8]
 11128 1ad8 D9E7     		b	.L535
 11129              	.LVL776:
 11130              	.L1129:
 113:../USER/main_03.c **** 	if(kinbwp>=256) kinbwp = 0;
 11131              		.loc 1 113 25 view .LVU3801
 11132 1ada 0D9A     		ldr	r2, [sp, #52]
 11133 1adc 92F90030 		ldrsb	r3, [r2]
 11134              	.LBE1021:
 11135              	.LBE1022:
 11136              	.LBE1023:
 11137              	.LBE1592:
 243:../USER/main_03.c **** 	    		cbp++;
 11138              		.loc 1 243 7 is_stmt 1 view .LVU3802
 243:../USER/main_03.c **** 	    		cbp++;
 11139              		.loc 1 243 9 is_stmt 0 view .LVU3803
 11140 1ae0 442B     		cmp	r3, #68
 11141 1ae2 7EF481AC 		bne	.L541
 11142              	.LVL777:
 11143              	.L1128:
 244:../USER/main_03.c **** 	    		get_vram((int)getsh(cbpp), (int)getsh(cbpp));
 11144              		.loc 1 244 8 is_stmt 1 view .LVU3804
 244:../USER/main_03.c **** 	    		get_vram((int)getsh(cbpp), (int)getsh(cbpp));
 11145              		.loc 1 244 11 is_stmt 0 view .LVU3805
 11146 1ae6 531C     		adds	r3, r2, #1
 11147 1ae8 0D93     		str	r3, [sp, #52]
 245:../USER/main_03.c **** 	    		for(j=0; j<32; j++) { putch(' '); puth2(wddt[j+4]); }
 11148              		.loc 1 245 8 is_stmt 1 view .LVU3806
 11149              	.LVL778:
 11150              	.LBB1593:
 11151              	.LBI1593:
 171:../USER/main_03.c ****   long num = 0; int hd;
 11152              		.loc 1 171 6 view .LVU3807
 11153              	.LBB1594:
 172:../USER/main_03.c ****   if(**buf==0x0d) return -1;
 11154              		.loc 1 172 3 view .LVU3808
 172:../USER/main_03.c ****   if(**buf==0x0d) return -1;
 11155              		.loc 1 172 17 view .LVU3809
 173:../USER/main_03.c ****   while(**buf==' ') (*buf)++; /* spip sp*/
 11156              		.loc 1 173 3 view .LVU3810
 173:../USER/main_03.c ****   while(**buf==' ') (*buf)++; /* spip sp*/
 11157              		.loc 1 173 5 is_stmt 0 view .LVU3811
 11158 1aea 92F90130 		ldrsb	r3, [r2, #1]
 11159 1aee 0D2B     		cmp	r3, #13
 11160 1af0 00F09782 		beq	.L962
 11161 1af4 0DA8     		add	r0, sp, #52
 11162              	.LVL779:
 173:../USER/main_03.c ****   while(**buf==' ') (*buf)++; /* spip sp*/
 11163              		.loc 1 173 5 view .LVU3812
 11164 1af6 FFF7FEFF 		bl	getsh.part.0
 11165              	.LVL780:
 173:../USER/main_03.c ****   while(**buf==' ') (*buf)++; /* spip sp*/
 11166              		.loc 1 173 5 view .LVU3813
 11167              	.LBE1594:
 11168              	.LBE1593:
 11169              	.LBB1597:
 11170              	.LBB1598:
 11171 1afa 0D9B     		ldr	r3, [sp, #52]
 11172              	.LBE1598:
 11173              	.LBE1597:
 11174              	.LBB1602:
 11175              	.LBB1595:
 11176 1afc 0446     		mov	r4, r0
 11177              	.LVL781:
 173:../USER/main_03.c ****   while(**buf==' ') (*buf)++; /* spip sp*/
 11178              		.loc 1 173 5 view .LVU3814
 11179              	.LBE1595:
 11180              	.LBE1602:
 11181              	.LBB1603:
 11182              	.LBI1597:
 171:../USER/main_03.c ****   long num = 0; int hd;
 11183              		.loc 1 171 6 is_stmt 1 view .LVU3815
 11184              	.LBB1599:
 172:../USER/main_03.c ****   if(**buf==0x0d) return -1;
 11185              		.loc 1 172 3 view .LVU3816
 172:../USER/main_03.c ****   if(**buf==0x0d) return -1;
 11186              		.loc 1 172 17 view .LVU3817
 173:../USER/main_03.c ****   while(**buf==' ') (*buf)++; /* spip sp*/
 11187              		.loc 1 173 3 view .LVU3818
 173:../USER/main_03.c ****   while(**buf==' ') (*buf)++; /* spip sp*/
 11188              		.loc 1 173 5 is_stmt 0 view .LVU3819
 11189 1afe 93F90030 		ldrsb	r3, [r3]
 11190 1b02 0D2B     		cmp	r3, #13
 11191 1b04 00F0C082 		beq	.L963
 11192 1b08 0DA8     		add	r0, sp, #52
 11193              	.LVL782:
 173:../USER/main_03.c ****   while(**buf==' ') (*buf)++; /* spip sp*/
 11194              		.loc 1 173 5 view .LVU3820
 11195 1b0a FFF7FEFF 		bl	getsh.part.0
 11196              	.LVL783:
 173:../USER/main_03.c ****   while(**buf==' ') (*buf)++; /* spip sp*/
 11197              		.loc 1 173 5 view .LVU3821
 11198 1b0e 0146     		mov	r1, r0
 11199              	.LVL784:
 11200              	.L542:
 173:../USER/main_03.c ****   while(**buf==' ') (*buf)++; /* spip sp*/
 11201              		.loc 1 173 5 view .LVU3822
 11202              	.LBE1599:
 11203              	.LBE1603:
 245:../USER/main_03.c **** 	    		for(j=0; j<32; j++) { putch(' '); puth2(wddt[j+4]); }
 11204              		.loc 1 245 8 view .LVU3823
 11205 1b10 2046     		mov	r0, r4
 11206 1b12 FFF7FEFF 		bl	get_vram
 11207              	.LVL785:
 246:../USER/main_03.c **** 	    	}
 11208              		.loc 1 246 8 is_stmt 1 view .LVU3824
 246:../USER/main_03.c **** 	    	}
 11209              		.loc 1 246 8 is_stmt 0 view .LVU3825
 11210 1b16 B34C     		ldr	r4, .L1233
 11211              	.LVL786:
 11212              	.L562:
 246:../USER/main_03.c **** 	    	}
 11213              		.loc 1 246 30 is_stmt 1 view .LVU3826
 11214              	.LBB1604:
 11215              	.LBI1604:
 127:../USER/main_03.c **** 	volatile uint32_t gpiord;
 11216              		.loc 1 127 6 view .LVU3827
 11217              	.LBB1605:
 128:../USER/main_03.c **** 	if((mdgpio & 0x2000)==0)
 11218              		.loc 1 128 2 view .LVU3828
 129:../USER/main_03.c **** 		UART_SendChar(UART0,ch);
 11219              		.loc 1 129 2 view .LVU3829
 129:../USER/main_03.c **** 		UART_SendChar(UART0,ch);
 11220              		.loc 1 129 13 is_stmt 0 view .LVU3830
 11221 1b18 DAF80030 		ldr	r3, [r10]
 129:../USER/main_03.c **** 		UART_SendChar(UART0,ch);
 11222              		.loc 1 129 4 view .LVU3831
 11223 1b1c 9A04     		lsls	r2, r3, #18
 11224 1b1e 40F13582 		bpl	.L1214
 132:../USER/main_03.c **** 		while((gpiord & 0x4000)!=0) {
 11225              		.loc 1 132 3 is_stmt 1 view .LVU3832
 132:../USER/main_03.c **** 		while((gpiord & 0x4000)!=0) {
 11226              		.loc 1 132 10 is_stmt 0 view .LVU3833
 11227 1b22 4FF48043 		mov	r3, #16384
 11228 1b26 1993     		str	r3, [sp, #100]
 133:../USER/main_03.c **** 			key_check();
 11229              		.loc 1 133 3 is_stmt 1 view .LVU3834
 133:../USER/main_03.c **** 			key_check();
 11230              		.loc 1 133 17 is_stmt 0 view .LVU3835
 11231 1b28 199B     		ldr	r3, [sp, #100]
 133:../USER/main_03.c **** 			key_check();
 11232              		.loc 1 133 8 view .LVU3836
 11233 1b2a 5B04     		lsls	r3, r3, #17
 11234 1b2c 40F1E781 		bpl	.L551
 135:../USER/main_03.c **** 		}
 11235              		.loc 1 135 13 view .LVU3837
 11236 1b30 AD4D     		ldr	r5, .L1233+4
 11237 1b32 1EE0     		b	.L545
 11238              	.LVL787:
 11239              	.L1215:
 135:../USER/main_03.c **** 		}
 11240              		.loc 1 135 13 view .LVU3838
 11241 1b34 D8F80030 		ldr	r3, [r8]
 11242              	.L547:
 11243              	.LBB1606:
 11244              	.LBB1607:
 114:../USER/main_03.c **** 	//
 11245              		.loc 1 114 2 is_stmt 1 view .LVU3839
 114:../USER/main_03.c **** 	//
 11246              		.loc 1 114 18 view .LVU3840
 114:../USER/main_03.c **** 	//
 11247              		.loc 1 114 4 is_stmt 0 view .LVU3841
 11248 1b38 FF2B     		cmp	r3, #255
 11249 1b3a 02DD     		ble	.L548
 114:../USER/main_03.c **** 	//
 11250              		.loc 1 114 25 view .LVU3842
 11251 1b3c 0023     		movs	r3, #0
 11252 1b3e C8F80070 		str	r7, [r8]
 11253              	.L548:
 116:../USER/main_03.c **** 	if(kinbwp>=256) kinbwp = 0;
 11254              		.loc 1 116 39 is_stmt 1 view .LVU3843
 116:../USER/main_03.c **** 	if(kinbwp>=256) kinbwp = 0;
 11255              		.loc 1 116 2 view .LVU3844
 116:../USER/main_03.c **** 	if(kinbwp>=256) kinbwp = 0;
 11256              		.loc 1 116 11 is_stmt 0 view .LVU3845
 11257 1b42 4FF04021 		mov	r1, #1073758208
 11258 1b46 4868     		ldr	r0, [r1, #4]
 11259              	.LVL788:
 116:../USER/main_03.c **** 	if(kinbwp>=256) kinbwp = 0;
 11260              		.loc 1 116 52 view .LVU3846
 11261 1b48 5A1C     		adds	r2, r3, #1
 116:../USER/main_03.c **** 	if(kinbwp>=256) kinbwp = 0;
 11262              		.loc 1 116 4 view .LVU3847
 11263 1b4a 8607     		lsls	r6, r0, #30
 11264 1b4c 09D5     		bpl	.L550
 117:../USER/main_03.c **** 	//
 11265              		.loc 1 117 25 view .LVU3848
 11266 1b4e B2F5807F 		cmp	r2, #256
 116:../USER/main_03.c **** 	if(kinbwp>=256) kinbwp = 0;
 11267              		.loc 1 116 63 view .LVU3849
 11268 1b52 0868     		ldr	r0, [r1]
 117:../USER/main_03.c **** 	//
 11269              		.loc 1 117 25 view .LVU3850
 11270 1b54 14BF     		ite	ne
 11271 1b56 1146     		movne	r1, r2
 11272 1b58 3946     		moveq	r1, r7
 116:../USER/main_03.c **** 	if(kinbwp>=256) kinbwp = 0;
 11273              		.loc 1 116 56 view .LVU3851
 11274 1b5a 09F80300 		strb	r0, [r9, r3]
 117:../USER/main_03.c **** 	//
 11275              		.loc 1 117 2 is_stmt 1 view .LVU3852
 117:../USER/main_03.c **** 	//
 11276              		.loc 1 117 25 is_stmt 0 view .LVU3853
 11277 1b5e C8F80010 		str	r1, [r8]
 11278              	.L550:
 117:../USER/main_03.c **** 	//
 11279              		.loc 1 117 25 view .LVU3854
 11280              	.LBE1607:
 11281              	.LBE1606:
 135:../USER/main_03.c **** 		}
 11282              		.loc 1 135 4 is_stmt 1 view .LVU3855
 135:../USER/main_03.c **** 		}
 11283              		.loc 1 135 13 is_stmt 0 view .LVU3856
 11284 1b62 2846     		mov	r0, r5
 11285 1b64 FFF7FEFF 		bl	GPIO_ReadBits
 11286              	.LVL789:
 135:../USER/main_03.c **** 		}
 11287              		.loc 1 135 11 view .LVU3857
 11288 1b68 1990     		str	r0, [sp, #100]
 133:../USER/main_03.c **** 			key_check();
 11289              		.loc 1 133 17 view .LVU3858
 11290 1b6a 199B     		ldr	r3, [sp, #100]
 133:../USER/main_03.c **** 			key_check();
 11291              		.loc 1 133 8 view .LVU3859
 11292 1b6c 5E04     		lsls	r6, r3, #17
 11293 1b6e 40F1C681 		bpl	.L551
 11294              	.L545:
 134:../USER/main_03.c **** 			gpiord = GPIO_ReadBits(GPIO0);
 11295              		.loc 1 134 4 is_stmt 1 view .LVU3860
 11296              	.LBB1609:
 11297              	.LBI1606:
 109:../USER/main_03.c **** 	char ch;
 11298              		.loc 1 109 6 view .LVU3861
 11299              	.LBB1608:
 110:../USER/main_03.c **** 	//
 11300              		.loc 1 110 2 view .LVU3862
 112:../USER/main_03.c **** 	if(ch!=0) kinbuf[kinbwp++] = ch;
 11301              		.loc 1 112 2 view .LVU3863
 112:../USER/main_03.c **** 	if(ch!=0) kinbuf[kinbwp++] = ch;
 11302              		.loc 1 112 7 is_stmt 0 view .LVU3864
 11303 1b72 FFF7FEFF 		bl	SPI_ReadData
 11304              	.LVL790:
 113:../USER/main_03.c **** 	if(kinbwp>=256) kinbwp = 0;
 11305              		.loc 1 113 12 is_stmt 1 view .LVU3865
 112:../USER/main_03.c **** 	if(ch!=0) kinbuf[kinbwp++] = ch;
 11306              		.loc 1 112 5 is_stmt 0 view .LVU3866
 11307 1b76 40B2     		sxtb	r0, r0
 11308              	.LVL791:
 113:../USER/main_03.c **** 	if(kinbwp>=256) kinbwp = 0;
 11309              		.loc 1 113 2 is_stmt 1 view .LVU3867
 113:../USER/main_03.c **** 	if(kinbwp>=256) kinbwp = 0;
 11310              		.loc 1 113 4 is_stmt 0 view .LVU3868
 11311 1b78 0028     		cmp	r0, #0
 11312 1b7a DBD0     		beq	.L1215
 113:../USER/main_03.c **** 	if(kinbwp>=256) kinbwp = 0;
 11313              		.loc 1 113 25 view .LVU3869
 11314 1b7c D8F80020 		ldr	r2, [r8]
 11315 1b80 531C     		adds	r3, r2, #1
 113:../USER/main_03.c **** 	if(kinbwp>=256) kinbwp = 0;
 11316              		.loc 1 113 29 view .LVU3870
 11317 1b82 09F80200 		strb	r0, [r9, r2]
 113:../USER/main_03.c **** 	if(kinbwp>=256) kinbwp = 0;
 11318              		.loc 1 113 25 view .LVU3871
 11319 1b86 C8F80030 		str	r3, [r8]
 11320 1b8a D5E7     		b	.L547
 11321              	.LVL792:
 11322              	.L1207:
 113:../USER/main_03.c **** 	if(kinbwp>=256) kinbwp = 0;
 11323              		.loc 1 113 25 view .LVU3872
 11324              	.LBE1608:
 11325              	.LBE1609:
 11326              	.LBE1605:
 11327              	.LBE1604:
 262:../USER/main_03.c **** 	                mbase[adr] = dt; dtr = mbase[adr];
 11328              		.loc 1 262 16 is_stmt 1 view .LVU3873
 263:../USER/main_03.c **** 	                if(dt!=dtr) adr--;
 11329              		.loc 1 263 18 view .LVU3874
 264:../USER/main_03.c **** 	              }
 11330              		.loc 1 264 20 is_stmt 0 view .LVU3875
 11331 1b8c 30F0FF03 		bics	r3, r0, #255
 263:../USER/main_03.c **** 	                if(dt!=dtr) adr--;
 11332              		.loc 1 263 29 view .LVU3876
 11333 1b90 8BF80000 		strb	r0, [fp]
 11334              	.LVL793:
 263:../USER/main_03.c **** 	                if(dt!=dtr) adr--;
 11335              		.loc 1 263 35 is_stmt 1 view .LVU3877
 264:../USER/main_03.c **** 	              }
 11336              		.loc 1 264 18 view .LVU3878
 264:../USER/main_03.c **** 	              }
 11337              		.loc 1 264 20 is_stmt 0 view .LVU3879
 11338 1b94 7EF4C5AC 		bne	.L572
 11339              	.LVL794:
 11340              		.loc 1 276 25 is_stmt 1 view .LVU3880
 11341              		.loc 1 276 29 is_stmt 0 view .LVU3881
 11342 1b98 0BF1010B 		add	fp, fp, #1
 11343              	.LVL795:
 11344              		.loc 1 276 29 view .LVU3882
 11345 1b9c FEF7AFBC 		b	.L1106
 11346              	.LVL796:
 11347              	.L1130:
 11348              	.LBB1616:
 11349              	.LBB1024:
 130:../USER/main_03.c **** 	else {
 11350              		.loc 1 130 3 is_stmt 1 view .LVU3883
 11351 1ba0 2021     		movs	r1, #32
 11352 1ba2 4FF04020 		mov	r0, #1073758208
 11353 1ba6 FFF7FEFF 		bl	UART_SendChar
 11354              	.LVL797:
 11355 1baa 6BE7     		b	.L526
 11356              	.LVL798:
 11357              	.L1132:
 130:../USER/main_03.c **** 	else {
 11358              		.loc 1 130 3 is_stmt 0 view .LVU3884
 11359              	.LBE1024:
 11360              	.LBE1616:
 252:../USER/main_03.c **** 	        adr = getsh(cbpp);
 11361              		.loc 1 252 25 is_stmt 1 discriminator 1 view .LVU3885
 252:../USER/main_03.c **** 	        adr = getsh(cbpp);
 11362              		.loc 1 252 34 discriminator 1 view .LVU3886
 252:../USER/main_03.c **** 	        adr = getsh(cbpp);
 11363              		.loc 1 252 29 is_stmt 0 discriminator 1 view .LVU3887
 11364 1bac 0222     		movs	r2, #2
 252:../USER/main_03.c **** 	        adr = getsh(cbpp);
 11365              		.loc 1 252 37 discriminator 1 view .LVU3888
 11366 1bae 0DF1A203 		add	r3, sp, #162
 11367 1bb2 0D93     		str	r3, [sp, #52]
 11368 1bb4 9DF9A230 		ldrsb	r3, [sp, #162]
 252:../USER/main_03.c **** 	        adr = getsh(cbpp);
 11369              		.loc 1 252 29 discriminator 1 view .LVU3889
 11370 1bb8 0492     		str	r2, [sp, #16]
 11371              	.LVL799:
 253:../USER/main_03.c **** 	        while(cmd!='.'){
 11372              		.loc 1 253 10 is_stmt 1 discriminator 1 view .LVU3890
 11373              	.LBB1617:
 171:../USER/main_03.c ****   long num = 0; int hd;
 11374              		.loc 1 171 6 discriminator 1 view .LVU3891
 11375              	.LBB1028:
 172:../USER/main_03.c ****   if(**buf==0x0d) return -1;
 11376              		.loc 1 172 3 discriminator 1 view .LVU3892
 172:../USER/main_03.c ****   if(**buf==0x0d) return -1;
 11377              		.loc 1 172 17 discriminator 1 view .LVU3893
 173:../USER/main_03.c ****   while(**buf==' ') (*buf)++; /* spip sp*/
 11378              		.loc 1 173 3 discriminator 1 view .LVU3894
 173:../USER/main_03.c ****   while(**buf==' ') (*buf)++; /* spip sp*/
 11379              		.loc 1 173 5 is_stmt 0 discriminator 1 view .LVU3895
 11380 1bba 0D2B     		cmp	r3, #13
 11381 1bbc 7EF49BAC 		bne	.L1216
 11382              	.L965:
 173:../USER/main_03.c ****   while(**buf==' ') (*buf)++; /* spip sp*/
 11383              		.loc 1 173 26 view .LVU3896
 11384 1bc0 4FF0FF3B 		mov	fp, #-1
 11385 1bc4 FEF79BBC 		b	.L1106
 11386              	.LVL800:
 11387              	.L1127:
 173:../USER/main_03.c ****   while(**buf==' ') (*buf)++; /* spip sp*/
 11388              		.loc 1 173 26 view .LVU3897
 11389              	.LBE1028:
 11390              	.LBE1617:
 232:../USER/main_03.c **** 			if(*cbp=='G'){
 11391              		.loc 1 232 5 is_stmt 1 view .LVU3898
 232:../USER/main_03.c **** 			if(*cbp=='G'){
 11392              		.loc 1 232 8 is_stmt 0 view .LVU3899
 11393 1bc8 531C     		adds	r3, r2, #1
 11394 1bca 0D93     		str	r3, [sp, #52]
 232:../USER/main_03.c **** 			if(*cbp=='G'){
 11395              		.loc 1 232 12 is_stmt 1 view .LVU3900
 11396              	.LVL801:
 11397              	.LBB1618:
 11398              	.LBI1618:
 171:../USER/main_03.c ****   long num = 0; int hd;
 11399              		.loc 1 171 6 view .LVU3901
 11400              	.LBB1619:
 172:../USER/main_03.c ****   if(**buf==0x0d) return -1;
 11401              		.loc 1 172 3 view .LVU3902
 172:../USER/main_03.c ****   if(**buf==0x0d) return -1;
 11402              		.loc 1 172 17 view .LVU3903
 173:../USER/main_03.c ****   while(**buf==' ') (*buf)++; /* spip sp*/
 11403              		.loc 1 173 3 view .LVU3904
 173:../USER/main_03.c ****   while(**buf==' ') (*buf)++; /* spip sp*/
 11404              		.loc 1 173 5 is_stmt 0 view .LVU3905
 11405 1bcc 92F90130 		ldrsb	r3, [r2, #1]
 11406 1bd0 0D2B     		cmp	r3, #13
 11407 1bd2 00F01D82 		beq	.L958
 11408 1bd6 0DA8     		add	r0, sp, #52
 11409              	.LVL802:
 173:../USER/main_03.c ****   while(**buf==' ') (*buf)++; /* spip sp*/
 11410              		.loc 1 173 5 view .LVU3906
 11411 1bd8 FFF7FEFF 		bl	getsh.part.0
 11412              	.LVL803:
 173:../USER/main_03.c ****   while(**buf==' ') (*buf)++; /* spip sp*/
 11413              		.loc 1 173 5 view .LVU3907
 11414              	.LBE1619:
 11415              	.LBE1618:
 11416              	.LBB1622:
 11417              	.LBB1623:
 11418 1bdc 0D9B     		ldr	r3, [sp, #52]
 11419              	.LBE1623:
 11420              	.LBE1622:
 11421              	.LBB1627:
 11422              	.LBB1620:
 11423 1bde 0446     		mov	r4, r0
 11424              	.LVL804:
 173:../USER/main_03.c ****   while(**buf==' ') (*buf)++; /* spip sp*/
 11425              		.loc 1 173 5 view .LVU3908
 11426              	.LBE1620:
 11427              	.LBE1627:
 11428              	.LBB1628:
 11429              	.LBI1622:
 171:../USER/main_03.c ****   long num = 0; int hd;
 11430              		.loc 1 171 6 is_stmt 1 view .LVU3909
 11431              	.LBB1624:
 172:../USER/main_03.c ****   if(**buf==0x0d) return -1;
 11432              		.loc 1 172 3 view .LVU3910
 172:../USER/main_03.c ****   if(**buf==0x0d) return -1;
 11433              		.loc 1 172 17 view .LVU3911
 173:../USER/main_03.c ****   while(**buf==' ') (*buf)++; /* spip sp*/
 11434              		.loc 1 173 3 view .LVU3912
 173:../USER/main_03.c ****   while(**buf==' ') (*buf)++; /* spip sp*/
 11435              		.loc 1 173 5 is_stmt 0 view .LVU3913
 11436 1be0 93F90030 		ldrsb	r3, [r3]
 11437 1be4 0D2B     		cmp	r3, #13
 11438 1be6 00F07382 		beq	.L959
 11439 1bea 0DA8     		add	r0, sp, #52
 11440              	.LVL805:
 173:../USER/main_03.c ****   while(**buf==' ') (*buf)++; /* spip sp*/
 11441              		.loc 1 173 5 view .LVU3914
 11442 1bec FFF7FEFF 		bl	getsh.part.0
 11443              	.LVL806:
 173:../USER/main_03.c ****   while(**buf==' ') (*buf)++; /* spip sp*/
 11444              		.loc 1 173 5 view .LVU3915
 11445 1bf0 0146     		mov	r1, r0
 11446              	.LVL807:
 11447              	.L518:
 173:../USER/main_03.c ****   while(**buf==' ') (*buf)++; /* spip sp*/
 11448              		.loc 1 173 5 view .LVU3916
 11449              	.LBE1624:
 11450              	.LBE1628:
 232:../USER/main_03.c **** 			if(*cbp=='G'){
 11451              		.loc 1 232 12 view .LVU3917
 11452 1bf2 2046     		mov	r0, r4
 11453 1bf4 FFF7FEFF 		bl	dispscroll
 11454              	.LVL808:
 11455 1bf8 0D9A     		ldr	r2, [sp, #52]
 11456 1bfa 92F90030 		ldrsb	r3, [r2]
 11457 1bfe FEF7D8BB 		b	.L517
 11458              	.LVL809:
 11459              	.L1126:
 230:../USER/main_03.c **** 			if(*cbp=='U'){
 11460              		.loc 1 230 5 is_stmt 1 view .LVU3918
 230:../USER/main_03.c **** 			if(*cbp=='U'){
 11461              		.loc 1 230 8 is_stmt 0 view .LVU3919
 11462 1c02 531C     		adds	r3, r2, #1
 11463 1c04 0D93     		str	r3, [sp, #52]
 230:../USER/main_03.c **** 			if(*cbp=='U'){
 11464              		.loc 1 230 12 is_stmt 1 view .LVU3920
 11465              	.LVL810:
 11466              	.LBB1629:
 11467              	.LBI1629:
 171:../USER/main_03.c ****   long num = 0; int hd;
 11468              		.loc 1 171 6 view .LVU3921
 11469              	.LBB1630:
 172:../USER/main_03.c ****   if(**buf==0x0d) return -1;
 11470              		.loc 1 172 3 view .LVU3922
 172:../USER/main_03.c ****   if(**buf==0x0d) return -1;
 11471              		.loc 1 172 17 view .LVU3923
 173:../USER/main_03.c ****   while(**buf==' ') (*buf)++; /* spip sp*/
 11472              		.loc 1 173 3 view .LVU3924
 173:../USER/main_03.c ****   while(**buf==' ') (*buf)++; /* spip sp*/
 11473              		.loc 1 173 5 is_stmt 0 view .LVU3925
 11474 1c06 92F90130 		ldrsb	r3, [r2, #1]
 11475 1c0a 0D2B     		cmp	r3, #13
 11476 1c0c 00F01382 		beq	.L955
 11477 1c10 0DA8     		add	r0, sp, #52
 11478              	.LVL811:
 173:../USER/main_03.c ****   while(**buf==' ') (*buf)++; /* spip sp*/
 11479              		.loc 1 173 5 view .LVU3926
 11480 1c12 FFF7FEFF 		bl	getsh.part.0
 11481              	.LVL812:
 173:../USER/main_03.c ****   while(**buf==' ') (*buf)++; /* spip sp*/
 11482              		.loc 1 173 5 view .LVU3927
 11483              	.LBE1630:
 11484              	.LBE1629:
 11485              	.LBB1632:
 11486              	.LBB1633:
 11487 1c16 0D9B     		ldr	r3, [sp, #52]
 11488 1c18 85B2     		uxth	r5, r0
 11489              	.LVL813:
 173:../USER/main_03.c ****   while(**buf==' ') (*buf)++; /* spip sp*/
 11490              		.loc 1 173 5 view .LVU3928
 11491              	.LBE1633:
 11492              	.LBI1632:
 171:../USER/main_03.c ****   long num = 0; int hd;
 11493              		.loc 1 171 6 is_stmt 1 view .LVU3929
 11494              	.LBB1634:
 172:../USER/main_03.c ****   if(**buf==0x0d) return -1;
 11495              		.loc 1 172 3 view .LVU3930
 172:../USER/main_03.c ****   if(**buf==0x0d) return -1;
 11496              		.loc 1 172 17 view .LVU3931
 173:../USER/main_03.c ****   while(**buf==' ') (*buf)++; /* spip sp*/
 11497              		.loc 1 173 3 view .LVU3932
 173:../USER/main_03.c ****   while(**buf==' ') (*buf)++; /* spip sp*/
 11498              		.loc 1 173 5 is_stmt 0 view .LVU3933
 11499 1c1a 93F90030 		ldrsb	r3, [r3]
 11500 1c1e 0D2B     		cmp	r3, #13
 11501 1c20 00F00382 		beq	.L956
 11502 1c24 0DA8     		add	r0, sp, #52
 11503              	.LVL814:
 173:../USER/main_03.c ****   while(**buf==' ') (*buf)++; /* spip sp*/
 11504              		.loc 1 173 5 view .LVU3934
 11505 1c26 FFF7FEFF 		bl	getsh.part.0
 11506              	.LVL815:
 173:../USER/main_03.c ****   while(**buf==' ') (*buf)++; /* spip sp*/
 11507              		.loc 1 173 5 view .LVU3935
 11508              	.LBE1634:
 11509              	.LBE1632:
 11510              	.LBB1635:
 11511              	.LBB1636:
 173:../USER/main_03.c ****   while(**buf==' ') (*buf)++; /* spip sp*/
 11512              		.loc 1 173 6 view .LVU3936
 11513 1c2a 0D9B     		ldr	r3, [sp, #52]
 11514              	.LBE1636:
 11515              	.LBE1635:
 230:../USER/main_03.c **** 			if(*cbp=='U'){
 11516              		.loc 1 230 12 view .LVU3937
 11517 1c2c 84B2     		uxth	r4, r0
 11518              	.LVL816:
 11519              	.LBB1638:
 11520              	.LBI1635:
 171:../USER/main_03.c ****   long num = 0; int hd;
 11521              		.loc 1 171 6 is_stmt 1 view .LVU3938
 11522              	.LBB1637:
 172:../USER/main_03.c ****   if(**buf==0x0d) return -1;
 11523              		.loc 1 172 3 view .LVU3939
 172:../USER/main_03.c ****   if(**buf==0x0d) return -1;
 11524              		.loc 1 172 17 view .LVU3940
 173:../USER/main_03.c ****   while(**buf==' ') (*buf)++; /* spip sp*/
 11525              		.loc 1 173 3 view .LVU3941
 173:../USER/main_03.c ****   while(**buf==' ') (*buf)++; /* spip sp*/
 11526              		.loc 1 173 5 is_stmt 0 view .LVU3942
 11527 1c2e 93F90030 		ldrsb	r3, [r3]
 11528 1c32 0D2B     		cmp	r3, #13
 11529 1c34 00F0FB81 		beq	.L515
 11530 1c38 0DA8     		add	r0, sp, #52
 11531              	.LVL817:
 173:../USER/main_03.c ****   while(**buf==' ') (*buf)++; /* spip sp*/
 11532              		.loc 1 173 5 view .LVU3943
 11533 1c3a FFF7FEFF 		bl	getsh.part.0
 11534              	.LVL818:
 173:../USER/main_03.c ****   while(**buf==' ') (*buf)++; /* spip sp*/
 11535              		.loc 1 173 5 view .LVU3944
 11536              	.LBE1637:
 11537              	.LBE1638:
 11538              	.LBB1639:
 11539              	.LBB1640:
 173:../USER/main_03.c ****   while(**buf==' ') (*buf)++; /* spip sp*/
 11540              		.loc 1 173 6 view .LVU3945
 11541 1c3e 0D9B     		ldr	r3, [sp, #52]
 11542              	.LBE1640:
 11543              	.LBE1639:
 230:../USER/main_03.c **** 			if(*cbp=='U'){
 11544              		.loc 1 230 12 view .LVU3946
 11545 1c40 86B2     		uxth	r6, r0
 11546              	.LVL819:
 11547              	.LBB1645:
 11548              	.LBI1639:
 171:../USER/main_03.c ****   long num = 0; int hd;
 11549              		.loc 1 171 6 is_stmt 1 view .LVU3947
 11550              	.LBB1641:
 172:../USER/main_03.c ****   if(**buf==0x0d) return -1;
 11551              		.loc 1 172 3 view .LVU3948
 172:../USER/main_03.c ****   if(**buf==0x0d) return -1;
 11552              		.loc 1 172 17 view .LVU3949
 173:../USER/main_03.c ****   while(**buf==' ') (*buf)++; /* spip sp*/
 11553              		.loc 1 173 3 view .LVU3950
 173:../USER/main_03.c ****   while(**buf==' ') (*buf)++; /* spip sp*/
 11554              		.loc 1 173 5 is_stmt 0 view .LVU3951
 11555 1c42 93F90030 		ldrsb	r3, [r3]
 11556 1c46 0D2B     		cmp	r3, #13
 11557 1c48 00F03F82 		beq	.L957
 11558 1c4c 0DA8     		add	r0, sp, #52
 11559              	.LVL820:
 173:../USER/main_03.c ****   while(**buf==' ') (*buf)++; /* spip sp*/
 11560              		.loc 1 173 5 view .LVU3952
 11561 1c4e FFF7FEFF 		bl	getsh.part.0
 11562              	.LVL821:
 173:../USER/main_03.c ****   while(**buf==' ') (*buf)++; /* spip sp*/
 11563              		.loc 1 173 5 view .LVU3953
 11564 1c52 83B2     		uxth	r3, r0
 11565              	.LVL822:
 11566              	.L516:
 173:../USER/main_03.c ****   while(**buf==' ') (*buf)++; /* spip sp*/
 11567              		.loc 1 173 5 view .LVU3954
 11568              	.LBE1641:
 11569              	.LBE1645:
 230:../USER/main_03.c **** 			if(*cbp=='U'){
 11570              		.loc 1 230 12 view .LVU3955
 11571 1c54 3246     		mov	r2, r6
 11572 1c56 2146     		mov	r1, r4
 11573 1c58 2846     		mov	r0, r5
 11574 1c5a FFF7FEFF 		bl	DCircle
 11575              	.LVL823:
 11576 1c5e 0D9A     		ldr	r2, [sp, #52]
 11577 1c60 92F90030 		ldrsb	r3, [r2]
 11578 1c64 FEF7A2BB 		b	.L514
 11579              	.LVL824:
 11580              	.L1122:
 222:../USER/main_03.c **** 			if(*cbp=='L'){
 11581              		.loc 1 222 5 is_stmt 1 view .LVU3956
 222:../USER/main_03.c **** 			if(*cbp=='L'){
 11582              		.loc 1 222 8 is_stmt 0 view .LVU3957
 11583 1c68 531C     		adds	r3, r2, #1
 11584 1c6a 0D93     		str	r3, [sp, #52]
 222:../USER/main_03.c **** 			if(*cbp=='L'){
 11585              		.loc 1 222 12 is_stmt 1 view .LVU3958
 11586              	.LVL825:
 11587              	.LBB1646:
 11588              	.LBI1646:
 171:../USER/main_03.c ****   long num = 0; int hd;
 11589              		.loc 1 171 6 view .LVU3959
 11590              	.LBB1647:
 172:../USER/main_03.c ****   if(**buf==0x0d) return -1;
 11591              		.loc 1 172 3 view .LVU3960
 172:../USER/main_03.c ****   if(**buf==0x0d) return -1;
 11592              		.loc 1 172 17 view .LVU3961
 173:../USER/main_03.c ****   while(**buf==' ') (*buf)++; /* spip sp*/
 11593              		.loc 1 173 3 view .LVU3962
 173:../USER/main_03.c ****   while(**buf==' ') (*buf)++; /* spip sp*/
 11594              		.loc 1 173 5 is_stmt 0 view .LVU3963
 11595 1c6c 92F90130 		ldrsb	r3, [r2, #1]
 11596 1c70 0D2B     		cmp	r3, #13
 11597 1c72 00F0C881 		beq	.L943
 11598 1c76 0DA8     		add	r0, sp, #52
 11599              	.LVL826:
 173:../USER/main_03.c ****   while(**buf==' ') (*buf)++; /* spip sp*/
 11600              		.loc 1 173 5 view .LVU3964
 11601 1c78 FFF7FEFF 		bl	getsh.part.0
 11602              	.LVL827:
 173:../USER/main_03.c ****   while(**buf==' ') (*buf)++; /* spip sp*/
 11603              		.loc 1 173 5 view .LVU3965
 11604              	.LBE1647:
 11605              	.LBE1646:
 11606              	.LBB1650:
 11607              	.LBB1651:
 11608 1c7c 0D9B     		ldr	r3, [sp, #52]
 11609              	.LBE1651:
 11610              	.LBE1650:
 11611              	.LBB1656:
 11612              	.LBB1648:
 11613 1c7e 0446     		mov	r4, r0
 11614              	.LVL828:
 173:../USER/main_03.c ****   while(**buf==' ') (*buf)++; /* spip sp*/
 11615              		.loc 1 173 5 view .LVU3966
 11616              	.LBE1648:
 11617              	.LBE1656:
 11618              	.LBB1657:
 11619              	.LBI1650:
 171:../USER/main_03.c ****   long num = 0; int hd;
 11620              		.loc 1 171 6 is_stmt 1 view .LVU3967
 11621              	.LBB1652:
 172:../USER/main_03.c ****   if(**buf==0x0d) return -1;
 11622              		.loc 1 172 3 view .LVU3968
 172:../USER/main_03.c ****   if(**buf==0x0d) return -1;
 11623              		.loc 1 172 17 view .LVU3969
 173:../USER/main_03.c ****   while(**buf==' ') (*buf)++; /* spip sp*/
 11624              		.loc 1 173 3 view .LVU3970
 173:../USER/main_03.c ****   while(**buf==' ') (*buf)++; /* spip sp*/
 11625              		.loc 1 173 5 is_stmt 0 view .LVU3971
 11626 1c80 93F90030 		ldrsb	r3, [r3]
 11627 1c84 0D2B     		cmp	r3, #13
 11628 1c86 00F01C82 		beq	.L944
 11629 1c8a 0DA8     		add	r0, sp, #52
 11630              	.LVL829:
 173:../USER/main_03.c ****   while(**buf==' ') (*buf)++; /* spip sp*/
 11631              		.loc 1 173 5 view .LVU3972
 11632 1c8c FFF7FEFF 		bl	getsh.part.0
 11633              	.LVL830:
 173:../USER/main_03.c ****   while(**buf==' ') (*buf)++; /* spip sp*/
 11634              		.loc 1 173 5 view .LVU3973
 11635              	.LBE1652:
 11636              	.LBE1657:
 11637              	.LBB1658:
 11638              	.LBB1659:
 173:../USER/main_03.c ****   while(**buf==' ') (*buf)++; /* spip sp*/
 11639              		.loc 1 173 6 view .LVU3974
 11640 1c90 0D9B     		ldr	r3, [sp, #52]
 11641              	.LBE1659:
 11642              	.LBE1658:
 11643              	.LBB1664:
 11644              	.LBB1653:
 11645 1c92 0546     		mov	r5, r0
 11646              	.LVL831:
 173:../USER/main_03.c ****   while(**buf==' ') (*buf)++; /* spip sp*/
 11647              		.loc 1 173 6 view .LVU3975
 11648              	.LBE1653:
 11649              	.LBE1664:
 11650              	.LBB1665:
 11651              	.LBI1658:
 171:../USER/main_03.c ****   long num = 0; int hd;
 11652              		.loc 1 171 6 is_stmt 1 view .LVU3976
 11653              	.LBB1660:
 172:../USER/main_03.c ****   if(**buf==0x0d) return -1;
 11654              		.loc 1 172 3 view .LVU3977
 172:../USER/main_03.c ****   if(**buf==0x0d) return -1;
 11655              		.loc 1 172 17 view .LVU3978
 173:../USER/main_03.c ****   while(**buf==' ') (*buf)++; /* spip sp*/
 11656              		.loc 1 173 3 view .LVU3979
 173:../USER/main_03.c ****   while(**buf==' ') (*buf)++; /* spip sp*/
 11657              		.loc 1 173 5 is_stmt 0 view .LVU3980
 11658 1c94 93F90030 		ldrsb	r3, [r3]
 11659 1c98 0D2B     		cmp	r3, #13
 11660 1c9a 00F00F82 		beq	.L945
 11661 1c9e 0DA8     		add	r0, sp, #52
 11662              	.LVL832:
 173:../USER/main_03.c ****   while(**buf==' ') (*buf)++; /* spip sp*/
 11663              		.loc 1 173 5 view .LVU3981
 11664 1ca0 FFF7FEFF 		bl	getsh.part.0
 11665              	.LVL833:
 173:../USER/main_03.c ****   while(**buf==' ') (*buf)++; /* spip sp*/
 11666              		.loc 1 173 5 view .LVU3982
 11667 1ca4 0246     		mov	r2, r0
 11668              	.LVL834:
 11669              	.L504:
 173:../USER/main_03.c ****   while(**buf==' ') (*buf)++; /* spip sp*/
 11670              		.loc 1 173 5 view .LVU3983
 11671              	.LBE1660:
 11672              	.LBE1665:
 222:../USER/main_03.c **** 			if(*cbp=='L'){
 11673              		.loc 1 222 12 view .LVU3984
 11674 1ca6 0A23     		movs	r3, #10
 11675 1ca8 2946     		mov	r1, r5
 11676 1caa 2046     		mov	r0, r4
 11677 1cac FFF7FEFF 		bl	move_vram
 11678              	.LVL835:
 11679 1cb0 0D9A     		ldr	r2, [sp, #52]
 11680 1cb2 92F90030 		ldrsb	r3, [r2]
 223:../USER/main_03.c **** 				cbp++; DLine((int)getsh(cbpp),(int)getsh(cbpp),(int)getsh(cbpp),(int)getsh(cbpp),(int)getsh(cbp
 11681              		.loc 1 223 4 is_stmt 1 view .LVU3985
 223:../USER/main_03.c **** 				cbp++; DLine((int)getsh(cbpp),(int)getsh(cbpp),(int)getsh(cbpp),(int)getsh(cbpp),(int)getsh(cbp
 11682              		.loc 1 223 6 is_stmt 0 view .LVU3986
 11683 1cb6 4C2B     		cmp	r3, #76
 11684 1cb8 7EF46FAB 		bne	.L506
 11685              	.LVL836:
 11686              	.L1123:
 224:../USER/main_03.c **** 			if(*cbp=='M'){
 11687              		.loc 1 224 5 is_stmt 1 view .LVU3987
 224:../USER/main_03.c **** 			if(*cbp=='M'){
 11688              		.loc 1 224 8 is_stmt 0 view .LVU3988
 11689 1cbc 531C     		adds	r3, r2, #1
 11690 1cbe 0D93     		str	r3, [sp, #52]
 224:../USER/main_03.c **** 			if(*cbp=='M'){
 11691              		.loc 1 224 12 is_stmt 1 view .LVU3989
 11692              	.LVL837:
 11693              	.LBB1666:
 11694              	.LBI1666:
 171:../USER/main_03.c ****   long num = 0; int hd;
 11695              		.loc 1 171 6 view .LVU3990
 11696              	.LBB1667:
 172:../USER/main_03.c ****   if(**buf==0x0d) return -1;
 11697              		.loc 1 172 3 view .LVU3991
 172:../USER/main_03.c ****   if(**buf==0x0d) return -1;
 11698              		.loc 1 172 17 view .LVU3992
 173:../USER/main_03.c ****   while(**buf==' ') (*buf)++; /* spip sp*/
 11699              		.loc 1 173 3 view .LVU3993
 173:../USER/main_03.c ****   while(**buf==' ') (*buf)++; /* spip sp*/
 11700              		.loc 1 173 5 is_stmt 0 view .LVU3994
 11701 1cc0 92F90130 		ldrsb	r3, [r2, #1]
 11702 1cc4 0D2B     		cmp	r3, #13
 11703 1cc6 00F0C981 		beq	.L946
 11704 1cca 0DA8     		add	r0, sp, #52
 11705              	.LVL838:
 173:../USER/main_03.c ****   while(**buf==' ') (*buf)++; /* spip sp*/
 11706              		.loc 1 173 5 view .LVU3995
 11707 1ccc FFF7FEFF 		bl	getsh.part.0
 11708              	.LVL839:
 173:../USER/main_03.c ****   while(**buf==' ') (*buf)++; /* spip sp*/
 11709              		.loc 1 173 5 view .LVU3996
 11710              	.LBE1667:
 11711              	.LBE1666:
 11712              	.LBB1669:
 11713              	.LBB1670:
 11714 1cd0 0D9B     		ldr	r3, [sp, #52]
 11715 1cd2 85B2     		uxth	r5, r0
 11716              	.LVL840:
 173:../USER/main_03.c ****   while(**buf==' ') (*buf)++; /* spip sp*/
 11717              		.loc 1 173 5 view .LVU3997
 11718              	.LBE1670:
 11719              	.LBI1669:
 171:../USER/main_03.c ****   long num = 0; int hd;
 11720              		.loc 1 171 6 is_stmt 1 view .LVU3998
 11721              	.LBB1671:
 172:../USER/main_03.c ****   if(**buf==0x0d) return -1;
 11722              		.loc 1 172 3 view .LVU3999
 172:../USER/main_03.c ****   if(**buf==0x0d) return -1;
 11723              		.loc 1 172 17 view .LVU4000
 173:../USER/main_03.c ****   while(**buf==' ') (*buf)++; /* spip sp*/
 11724              		.loc 1 173 3 view .LVU4001
 173:../USER/main_03.c ****   while(**buf==' ') (*buf)++; /* spip sp*/
 11725              		.loc 1 173 5 is_stmt 0 view .LVU4002
 11726 1cd4 93F90030 		ldrsb	r3, [r3]
 11727 1cd8 0D2B     		cmp	r3, #13
 11728 1cda 00F0B781 		beq	.L947
 11729 1cde 0DA8     		add	r0, sp, #52
 11730              	.LVL841:
 173:../USER/main_03.c ****   while(**buf==' ') (*buf)++; /* spip sp*/
 11731              		.loc 1 173 5 view .LVU4003
 11732 1ce0 FFF7FEFF 		bl	getsh.part.0
 11733              	.LVL842:
 173:../USER/main_03.c ****   while(**buf==' ') (*buf)++; /* spip sp*/
 11734              		.loc 1 173 5 view .LVU4004
 11735              	.LBE1671:
 11736              	.LBE1669:
 11737              	.LBB1672:
 11738              	.LBB1673:
 173:../USER/main_03.c ****   while(**buf==' ') (*buf)++; /* spip sp*/
 11739              		.loc 1 173 6 view .LVU4005
 11740 1ce4 0D9B     		ldr	r3, [sp, #52]
 11741              	.LBE1673:
 11742              	.LBE1672:
 224:../USER/main_03.c **** 			if(*cbp=='M'){
 11743              		.loc 1 224 12 view .LVU4006
 11744 1ce6 84B2     		uxth	r4, r0
 11745              	.LVL843:
 11746              	.LBB1675:
 11747              	.LBI1672:
 171:../USER/main_03.c ****   long num = 0; int hd;
 11748              		.loc 1 171 6 is_stmt 1 view .LVU4007
 11749              	.LBB1674:
 172:../USER/main_03.c ****   if(**buf==0x0d) return -1;
 11750              		.loc 1 172 3 view .LVU4008
 172:../USER/main_03.c ****   if(**buf==0x0d) return -1;
 11751              		.loc 1 172 17 view .LVU4009
 173:../USER/main_03.c ****   while(**buf==' ') (*buf)++; /* spip sp*/
 11752              		.loc 1 173 3 view .LVU4010
 173:../USER/main_03.c ****   while(**buf==' ') (*buf)++; /* spip sp*/
 11753              		.loc 1 173 5 is_stmt 0 view .LVU4011
 11754 1ce8 93F90030 		ldrsb	r3, [r3]
 11755 1cec 0D2B     		cmp	r3, #13
 11756 1cee 00F0AF81 		beq	.L507
 11757 1cf2 0DA8     		add	r0, sp, #52
 11758              	.LVL844:
 173:../USER/main_03.c ****   while(**buf==' ') (*buf)++; /* spip sp*/
 11759              		.loc 1 173 5 view .LVU4012
 11760 1cf4 FFF7FEFF 		bl	getsh.part.0
 11761              	.LVL845:
 173:../USER/main_03.c ****   while(**buf==' ') (*buf)++; /* spip sp*/
 11762              		.loc 1 173 5 view .LVU4013
 11763              	.LBE1674:
 11764              	.LBE1675:
 11765              	.LBB1676:
 11766              	.LBB1677:
 173:../USER/main_03.c ****   while(**buf==' ') (*buf)++; /* spip sp*/
 11767              		.loc 1 173 6 view .LVU4014
 11768 1cf8 0D9B     		ldr	r3, [sp, #52]
 11769              	.LBE1677:
 11770              	.LBE1676:
 224:../USER/main_03.c **** 			if(*cbp=='M'){
 11771              		.loc 1 224 12 view .LVU4015
 11772 1cfa 86B2     		uxth	r6, r0
 11773              	.LVL846:
 11774              	.LBB1681:
 11775              	.LBI1676:
 171:../USER/main_03.c ****   long num = 0; int hd;
 11776              		.loc 1 171 6 is_stmt 1 view .LVU4016
 11777              	.LBB1678:
 172:../USER/main_03.c ****   if(**buf==0x0d) return -1;
 11778              		.loc 1 172 3 view .LVU4017
 172:../USER/main_03.c ****   if(**buf==0x0d) return -1;
 11779              		.loc 1 172 17 view .LVU4018
 173:../USER/main_03.c ****   while(**buf==' ') (*buf)++; /* spip sp*/
 11780              		.loc 1 173 3 view .LVU4019
 173:../USER/main_03.c ****   while(**buf==' ') (*buf)++; /* spip sp*/
 11781              		.loc 1 173 5 is_stmt 0 view .LVU4020
 11782 1cfc 93F90030 		ldrsb	r3, [r3]
 11783 1d00 0D2B     		cmp	r3, #13
 11784 1d02 00F0A781 		beq	.L508
 11785 1d06 0DA8     		add	r0, sp, #52
 11786              	.LVL847:
 173:../USER/main_03.c ****   while(**buf==' ') (*buf)++; /* spip sp*/
 11787              		.loc 1 173 5 view .LVU4021
 11788 1d08 FFF7FEFF 		bl	getsh.part.0
 11789              	.LVL848:
 173:../USER/main_03.c ****   while(**buf==' ') (*buf)++; /* spip sp*/
 11790              		.loc 1 173 5 view .LVU4022
 11791              	.LBE1678:
 11792              	.LBE1681:
 11793              	.LBB1682:
 11794              	.LBB1683:
 173:../USER/main_03.c ****   while(**buf==' ') (*buf)++; /* spip sp*/
 11795              		.loc 1 173 6 view .LVU4023
 11796 1d0c 0D9B     		ldr	r3, [sp, #52]
 11797              	.LBE1683:
 11798              	.LBE1682:
 224:../USER/main_03.c **** 			if(*cbp=='M'){
 11799              		.loc 1 224 12 view .LVU4024
 11800 1d0e 1FFA80FB 		uxth	fp, r0
 11801              	.LVL849:
 11802              	.LBB1687:
 11803              	.LBI1682:
 171:../USER/main_03.c ****   long num = 0; int hd;
 11804              		.loc 1 171 6 is_stmt 1 view .LVU4025
 11805              	.LBB1684:
 172:../USER/main_03.c ****   if(**buf==0x0d) return -1;
 11806              		.loc 1 172 3 view .LVU4026
 172:../USER/main_03.c ****   if(**buf==0x0d) return -1;
 11807              		.loc 1 172 17 view .LVU4027
 173:../USER/main_03.c ****   while(**buf==' ') (*buf)++; /* spip sp*/
 11808              		.loc 1 173 3 view .LVU4028
 173:../USER/main_03.c ****   while(**buf==' ') (*buf)++; /* spip sp*/
 11809              		.loc 1 173 5 is_stmt 0 view .LVU4029
 11810 1d12 93F90030 		ldrsb	r3, [r3]
 11811 1d16 0D2B     		cmp	r3, #13
 11812 1d18 00F0B981 		beq	.L948
 11813 1d1c 0DA8     		add	r0, sp, #52
 11814              	.LVL850:
 173:../USER/main_03.c ****   while(**buf==' ') (*buf)++; /* spip sp*/
 11815              		.loc 1 173 5 view .LVU4030
 11816 1d1e FFF7FEFF 		bl	getsh.part.0
 11817              	.LVL851:
 173:../USER/main_03.c ****   while(**buf==' ') (*buf)++; /* spip sp*/
 11818              		.loc 1 173 5 view .LVU4031
 11819 1d22 80B2     		uxth	r0, r0
 11820              	.LVL852:
 11821              	.L509:
 173:../USER/main_03.c ****   while(**buf==' ') (*buf)++; /* spip sp*/
 11822              		.loc 1 173 5 view .LVU4032
 11823              	.LBE1684:
 11824              	.LBE1687:
 224:../USER/main_03.c **** 			if(*cbp=='M'){
 11825              		.loc 1 224 12 view .LVU4033
 11826 1d24 0090     		str	r0, [sp]
 11827 1d26 5B46     		mov	r3, fp
 11828 1d28 3246     		mov	r2, r6
 11829 1d2a 2146     		mov	r1, r4
 11830 1d2c 2846     		mov	r0, r5
 11831 1d2e FFF7FEFF 		bl	DLine
 11832              	.LVL853:
 11833 1d32 0D9A     		ldr	r2, [sp, #52]
 11834 1d34 92F90030 		ldrsb	r3, [r2]
 225:../USER/main_03.c **** 				cbp++; move_vram((int)getsh(cbpp),(int)getsh(cbpp),(int)getsh(cbpp), 12); }
 11835              		.loc 1 225 4 is_stmt 1 view .LVU4034
 225:../USER/main_03.c **** 				cbp++; move_vram((int)getsh(cbpp),(int)getsh(cbpp),(int)getsh(cbpp), 12); }
 11836              		.loc 1 225 6 is_stmt 0 view .LVU4035
 11837 1d38 4D2B     		cmp	r3, #77
 11838 1d3a 7EF431AB 		bne	.L510
 11839              	.LVL854:
 11840              	.L1124:
 226:../USER/main_03.c **** 			if(*cbp=='P'){
 11841              		.loc 1 226 5 is_stmt 1 view .LVU4036
 226:../USER/main_03.c **** 			if(*cbp=='P'){
 11842              		.loc 1 226 8 is_stmt 0 view .LVU4037
 11843 1d3e 531C     		adds	r3, r2, #1
 11844 1d40 0D93     		str	r3, [sp, #52]
 226:../USER/main_03.c **** 			if(*cbp=='P'){
 11845              		.loc 1 226 12 is_stmt 1 view .LVU4038
 11846              	.LVL855:
 11847              	.LBB1688:
 11848              	.LBI1688:
 171:../USER/main_03.c ****   long num = 0; int hd;
 11849              		.loc 1 171 6 view .LVU4039
 11850              	.LBB1689:
 172:../USER/main_03.c ****   if(**buf==0x0d) return -1;
 11851              		.loc 1 172 3 view .LVU4040
 172:../USER/main_03.c ****   if(**buf==0x0d) return -1;
 11852              		.loc 1 172 17 view .LVU4041
 173:../USER/main_03.c ****   while(**buf==' ') (*buf)++; /* spip sp*/
 11853              		.loc 1 173 3 view .LVU4042
 173:../USER/main_03.c ****   while(**buf==' ') (*buf)++; /* spip sp*/
 11854              		.loc 1 173 5 is_stmt 0 view .LVU4043
 11855 1d42 92F90130 		ldrsb	r3, [r2, #1]
 11856 1d46 0D2B     		cmp	r3, #13
 11857 1d48 00F06681 		beq	.L949
 11858 1d4c 0DA8     		add	r0, sp, #52
 11859              	.LVL856:
 173:../USER/main_03.c ****   while(**buf==' ') (*buf)++; /* spip sp*/
 11860              		.loc 1 173 5 view .LVU4044
 11861 1d4e FFF7FEFF 		bl	getsh.part.0
 11862              	.LVL857:
 173:../USER/main_03.c ****   while(**buf==' ') (*buf)++; /* spip sp*/
 11863              		.loc 1 173 5 view .LVU4045
 11864              	.LBE1689:
 11865              	.LBE1688:
 11866              	.LBB1692:
 11867              	.LBB1693:
 11868 1d52 0D9B     		ldr	r3, [sp, #52]
 11869              	.LBE1693:
 11870              	.LBE1692:
 11871              	.LBB1698:
 11872              	.LBB1690:
 11873 1d54 0446     		mov	r4, r0
 11874              	.LVL858:
 173:../USER/main_03.c ****   while(**buf==' ') (*buf)++; /* spip sp*/
 11875              		.loc 1 173 5 view .LVU4046
 11876              	.LBE1690:
 11877              	.LBE1698:
 11878              	.LBB1699:
 11879              	.LBI1692:
 171:../USER/main_03.c ****   long num = 0; int hd;
 11880              		.loc 1 171 6 is_stmt 1 view .LVU4047
 11881              	.LBB1694:
 172:../USER/main_03.c ****   if(**buf==0x0d) return -1;
 11882              		.loc 1 172 3 view .LVU4048
 172:../USER/main_03.c ****   if(**buf==0x0d) return -1;
 11883              		.loc 1 172 17 view .LVU4049
 173:../USER/main_03.c ****   while(**buf==' ') (*buf)++; /* spip sp*/
 11884              		.loc 1 173 3 view .LVU4050
 173:../USER/main_03.c ****   while(**buf==' ') (*buf)++; /* spip sp*/
 11885              		.loc 1 173 5 is_stmt 0 view .LVU4051
 11886 1d56 93F90030 		ldrsb	r3, [r3]
 11887 1d5a 0D2B     		cmp	r3, #13
 11888 1d5c 00F0A781 		beq	.L950
 11889 1d60 0DA8     		add	r0, sp, #52
 11890              	.LVL859:
 173:../USER/main_03.c ****   while(**buf==' ') (*buf)++; /* spip sp*/
 11891              		.loc 1 173 5 view .LVU4052
 11892 1d62 FFF7FEFF 		bl	getsh.part.0
 11893              	.LVL860:
 173:../USER/main_03.c ****   while(**buf==' ') (*buf)++; /* spip sp*/
 11894              		.loc 1 173 5 view .LVU4053
 11895              	.LBE1694:
 11896              	.LBE1699:
 11897              	.LBB1700:
 11898              	.LBB1701:
 173:../USER/main_03.c ****   while(**buf==' ') (*buf)++; /* spip sp*/
 11899              		.loc 1 173 6 view .LVU4054
 11900 1d66 0D9B     		ldr	r3, [sp, #52]
 11901              	.LBE1701:
 11902              	.LBE1700:
 11903              	.LBB1706:
 11904              	.LBB1695:
 11905 1d68 0546     		mov	r5, r0
 11906              	.LVL861:
 173:../USER/main_03.c ****   while(**buf==' ') (*buf)++; /* spip sp*/
 11907              		.loc 1 173 6 view .LVU4055
 11908              	.LBE1695:
 11909              	.LBE1706:
 11910              	.LBB1707:
 11911              	.LBI1700:
 171:../USER/main_03.c ****   long num = 0; int hd;
 11912              		.loc 1 171 6 is_stmt 1 view .LVU4056
 11913              	.LBB1702:
 172:../USER/main_03.c ****   if(**buf==0x0d) return -1;
 11914              		.loc 1 172 3 view .LVU4057
 172:../USER/main_03.c ****   if(**buf==0x0d) return -1;
 11915              		.loc 1 172 17 view .LVU4058
 173:../USER/main_03.c ****   while(**buf==' ') (*buf)++; /* spip sp*/
 11916              		.loc 1 173 3 view .LVU4059
 173:../USER/main_03.c ****   while(**buf==' ') (*buf)++; /* spip sp*/
 11917              		.loc 1 173 5 is_stmt 0 view .LVU4060
 11918 1d6a 93F90030 		ldrsb	r3, [r3]
 11919 1d6e 0D2B     		cmp	r3, #13
 11920 1d70 00F09A81 		beq	.L951
 11921 1d74 0DA8     		add	r0, sp, #52
 11922              	.LVL862:
 173:../USER/main_03.c ****   while(**buf==' ') (*buf)++; /* spip sp*/
 11923              		.loc 1 173 5 view .LVU4061
 11924 1d76 FFF7FEFF 		bl	getsh.part.0
 11925              	.LVL863:
 173:../USER/main_03.c ****   while(**buf==' ') (*buf)++; /* spip sp*/
 11926              		.loc 1 173 5 view .LVU4062
 11927 1d7a 0246     		mov	r2, r0
 11928              	.LVL864:
 11929              	.L511:
 173:../USER/main_03.c ****   while(**buf==' ') (*buf)++; /* spip sp*/
 11930              		.loc 1 173 5 view .LVU4063
 11931              	.LBE1702:
 11932              	.LBE1707:
 226:../USER/main_03.c **** 			if(*cbp=='P'){
 11933              		.loc 1 226 12 view .LVU4064
 11934 1d7c 0C23     		movs	r3, #12
 11935 1d7e 2946     		mov	r1, r5
 11936 1d80 2046     		mov	r0, r4
 11937 1d82 FFF7FEFF 		bl	move_vram
 11938              	.LVL865:
 11939 1d86 0D9A     		ldr	r2, [sp, #52]
 11940 1d88 92F90030 		ldrsb	r3, [r2]
 227:../USER/main_03.c **** 				cbp++; pset((int)getsh(cbpp),(int)getsh(cbpp),(int)getsh(cbpp)); }
 11941              		.loc 1 227 4 is_stmt 1 view .LVU4065
 227:../USER/main_03.c **** 				cbp++; pset((int)getsh(cbpp),(int)getsh(cbpp),(int)getsh(cbpp)); }
 11942              		.loc 1 227 6 is_stmt 0 view .LVU4066
 11943 1d8c 502B     		cmp	r3, #80
 11944 1d8e 7EF40AAB 		bne	.L512
 11945              	.LVL866:
 11946              	.L1125:
 228:../USER/main_03.c **** 			if(*cbp=='R'){
 11947              		.loc 1 228 5 is_stmt 1 view .LVU4067
 228:../USER/main_03.c **** 			if(*cbp=='R'){
 11948              		.loc 1 228 8 is_stmt 0 view .LVU4068
 11949 1d92 531C     		adds	r3, r2, #1
 11950 1d94 0D93     		str	r3, [sp, #52]
 228:../USER/main_03.c **** 			if(*cbp=='R'){
 11951              		.loc 1 228 12 is_stmt 1 view .LVU4069
 11952              	.LVL867:
 11953              	.LBB1708:
 11954              	.LBI1708:
 171:../USER/main_03.c ****   long num = 0; int hd;
 11955              		.loc 1 171 6 view .LVU4070
 11956              	.LBB1709:
 172:../USER/main_03.c ****   if(**buf==0x0d) return -1;
 11957              		.loc 1 172 3 view .LVU4071
 172:../USER/main_03.c ****   if(**buf==0x0d) return -1;
 11958              		.loc 1 172 17 view .LVU4072
 173:../USER/main_03.c ****   while(**buf==' ') (*buf)++; /* spip sp*/
 11959              		.loc 1 173 3 view .LVU4073
 173:../USER/main_03.c ****   while(**buf==' ') (*buf)++; /* spip sp*/
 11960              		.loc 1 173 5 is_stmt 0 view .LVU4074
 11961 1d96 92F90130 		ldrsb	r3, [r2, #1]
 11962 1d9a 0D2B     		cmp	r3, #13
 11963 1d9c 00F02E81 		beq	.L952
 11964 1da0 0DA8     		add	r0, sp, #52
 11965              	.LVL868:
 173:../USER/main_03.c ****   while(**buf==' ') (*buf)++; /* spip sp*/
 11966              		.loc 1 173 5 view .LVU4075
 11967 1da2 FFF7FEFF 		bl	getsh.part.0
 11968              	.LVL869:
 173:../USER/main_03.c ****   while(**buf==' ') (*buf)++; /* spip sp*/
 11969              		.loc 1 173 5 view .LVU4076
 11970              	.LBE1709:
 11971              	.LBE1708:
 11972              	.LBB1712:
 11973              	.LBB1713:
 11974 1da6 0D9B     		ldr	r3, [sp, #52]
 11975              	.LBE1713:
 11976              	.LBE1712:
 11977              	.LBB1718:
 11978              	.LBB1710:
 11979 1da8 0446     		mov	r4, r0
 11980              	.LVL870:
 173:../USER/main_03.c ****   while(**buf==' ') (*buf)++; /* spip sp*/
 11981              		.loc 1 173 5 view .LVU4077
 11982              	.LBE1710:
 11983              	.LBE1718:
 11984              	.LBB1719:
 11985              	.LBI1712:
 171:../USER/main_03.c ****   long num = 0; int hd;
 11986              		.loc 1 171 6 is_stmt 1 view .LVU4078
 11987              	.LBB1714:
 172:../USER/main_03.c ****   if(**buf==0x0d) return -1;
 11988              		.loc 1 172 3 view .LVU4079
 172:../USER/main_03.c ****   if(**buf==0x0d) return -1;
 11989              		.loc 1 172 17 view .LVU4080
 173:../USER/main_03.c ****   while(**buf==' ') (*buf)++; /* spip sp*/
 11990              		.loc 1 173 3 view .LVU4081
 173:../USER/main_03.c ****   while(**buf==' ') (*buf)++; /* spip sp*/
 11991              		.loc 1 173 5 is_stmt 0 view .LVU4082
 11992 1daa 93F90030 		ldrsb	r3, [r3]
 11993 1dae 0D2B     		cmp	r3, #13
 11994 1db0 00F07681 		beq	.L953
 11995 1db4 0DA8     		add	r0, sp, #52
 11996              	.LVL871:
 173:../USER/main_03.c ****   while(**buf==' ') (*buf)++; /* spip sp*/
 11997              		.loc 1 173 5 view .LVU4083
 11998 1db6 FFF7FEFF 		bl	getsh.part.0
 11999              	.LVL872:
 173:../USER/main_03.c ****   while(**buf==' ') (*buf)++; /* spip sp*/
 12000              		.loc 1 173 5 view .LVU4084
 12001              	.LBE1714:
 12002              	.LBE1719:
 12003              	.LBB1720:
 12004              	.LBB1721:
 173:../USER/main_03.c ****   while(**buf==' ') (*buf)++; /* spip sp*/
 12005              		.loc 1 173 6 view .LVU4085
 12006 1dba 0D9B     		ldr	r3, [sp, #52]
 12007              	.LBE1721:
 12008              	.LBE1720:
 12009              	.LBB1728:
 12010              	.LBB1715:
 12011 1dbc 0546     		mov	r5, r0
 12012              	.LVL873:
 173:../USER/main_03.c ****   while(**buf==' ') (*buf)++; /* spip sp*/
 12013              		.loc 1 173 6 view .LVU4086
 12014              	.LBE1715:
 12015              	.LBE1728:
 12016              	.LBB1729:
 12017              	.LBI1720:
 171:../USER/main_03.c ****   long num = 0; int hd;
 12018              		.loc 1 171 6 is_stmt 1 view .LVU4087
 12019              	.LBB1722:
 172:../USER/main_03.c ****   if(**buf==0x0d) return -1;
 12020              		.loc 1 172 3 view .LVU4088
 172:../USER/main_03.c ****   if(**buf==0x0d) return -1;
 12021              		.loc 1 172 17 view .LVU4089
 173:../USER/main_03.c ****   while(**buf==' ') (*buf)++; /* spip sp*/
 12022              		.loc 1 173 3 view .LVU4090
 173:../USER/main_03.c ****   while(**buf==' ') (*buf)++; /* spip sp*/
 12023              		.loc 1 173 5 is_stmt 0 view .LVU4091
 12024 1dbe 93F90030 		ldrsb	r3, [r3]
 12025 1dc2 0D2B     		cmp	r3, #13
 12026 1dc4 00F06981 		beq	.L954
 12027 1dc8 0DA8     		add	r0, sp, #52
 12028              	.LVL874:
 173:../USER/main_03.c ****   while(**buf==' ') (*buf)++; /* spip sp*/
 12029              		.loc 1 173 5 view .LVU4092
 12030 1dca FFF7FEFF 		bl	getsh.part.0
 12031              	.LVL875:
 173:../USER/main_03.c ****   while(**buf==' ') (*buf)++; /* spip sp*/
 12032              		.loc 1 173 5 view .LVU4093
 12033 1dce 0246     		mov	r2, r0
 12034              	.LVL876:
 12035              	.L513:
 173:../USER/main_03.c ****   while(**buf==' ') (*buf)++; /* spip sp*/
 12036              		.loc 1 173 5 view .LVU4094
 12037              	.LBE1722:
 12038              	.LBE1729:
 228:../USER/main_03.c **** 			if(*cbp=='R'){
 12039              		.loc 1 228 12 view .LVU4095
 12040 1dd0 2946     		mov	r1, r5
 12041 1dd2 2046     		mov	r0, r4
 12042 1dd4 FFF7FEFF 		bl	pset
 12043              	.LVL877:
 12044 1dd8 0D9A     		ldr	r2, [sp, #52]
 12045 1dda 92F90030 		ldrsb	r3, [r2]
 12046 1dde FEF7E2BA 		b	.L512
 12047              	.L1234:
 12048 1de2 00BF     		.align	2
 12049              	.L1233:
 12050 1de4 03000000 		.word	wddt+3
 12051 1de8 00000140 		.word	1073807360
 12052              	.LVL878:
 12053              	.L1121:
 220:../USER/main_03.c **** 			if(*cbp=='F') {
 12054              		.loc 1 220 5 is_stmt 1 view .LVU4096
 220:../USER/main_03.c **** 			if(*cbp=='F') {
 12055              		.loc 1 220 8 is_stmt 0 view .LVU4097
 12056 1dec 531C     		adds	r3, r2, #1
 12057 1dee 0D93     		str	r3, [sp, #52]
 220:../USER/main_03.c **** 			if(*cbp=='F') {
 12058              		.loc 1 220 12 is_stmt 1 view .LVU4098
 12059              	.LVL879:
 12060              	.LBB1730:
 12061              	.LBI1730:
 171:../USER/main_03.c ****   long num = 0; int hd;
 12062              		.loc 1 171 6 view .LVU4099
 12063              	.LBB1731:
 172:../USER/main_03.c ****   if(**buf==0x0d) return -1;
 12064              		.loc 1 172 3 view .LVU4100
 172:../USER/main_03.c ****   if(**buf==0x0d) return -1;
 12065              		.loc 1 172 17 view .LVU4101
 173:../USER/main_03.c ****   while(**buf==' ') (*buf)++; /* spip sp*/
 12066              		.loc 1 173 3 view .LVU4102
 173:../USER/main_03.c ****   while(**buf==' ') (*buf)++; /* spip sp*/
 12067              		.loc 1 173 5 is_stmt 0 view .LVU4103
 12068 1df0 92F90130 		ldrsb	r3, [r2, #1]
 12069 1df4 0D2B     		cmp	r3, #13
 12070 1df6 00F0FA80 		beq	.L940
 12071 1dfa 0DA8     		add	r0, sp, #52
 12072              	.LVL880:
 173:../USER/main_03.c ****   while(**buf==' ') (*buf)++; /* spip sp*/
 12073              		.loc 1 173 5 view .LVU4104
 12074 1dfc FFF7FEFF 		bl	getsh.part.0
 12075              	.LVL881:
 173:../USER/main_03.c ****   while(**buf==' ') (*buf)++; /* spip sp*/
 12076              		.loc 1 173 5 view .LVU4105
 12077              	.LBE1731:
 12078              	.LBE1730:
 12079              	.LBB1734:
 12080              	.LBB1735:
 12081 1e00 0D9B     		ldr	r3, [sp, #52]
 12082              	.LBE1735:
 12083              	.LBE1734:
 12084              	.LBB1743:
 12085              	.LBB1732:
 12086 1e02 0546     		mov	r5, r0
 12087              	.LVL882:
 173:../USER/main_03.c ****   while(**buf==' ') (*buf)++; /* spip sp*/
 12088              		.loc 1 173 5 view .LVU4106
 12089              	.LBE1732:
 12090              	.LBE1743:
 12091              	.LBB1744:
 12092              	.LBI1734:
 171:../USER/main_03.c ****   long num = 0; int hd;
 12093              		.loc 1 171 6 is_stmt 1 view .LVU4107
 12094              	.LBB1736:
 172:../USER/main_03.c ****   if(**buf==0x0d) return -1;
 12095              		.loc 1 172 3 view .LVU4108
 172:../USER/main_03.c ****   if(**buf==0x0d) return -1;
 12096              		.loc 1 172 17 view .LVU4109
 173:../USER/main_03.c ****   while(**buf==' ') (*buf)++; /* spip sp*/
 12097              		.loc 1 173 3 view .LVU4110
 173:../USER/main_03.c ****   while(**buf==' ') (*buf)++; /* spip sp*/
 12098              		.loc 1 173 5 is_stmt 0 view .LVU4111
 12099 1e04 93F90030 		ldrsb	r3, [r3]
 12100 1e08 0D2B     		cmp	r3, #13
 12101 1e0a 00F0E880 		beq	.L941
 12102 1e0e 0DA8     		add	r0, sp, #52
 12103              	.LVL883:
 173:../USER/main_03.c ****   while(**buf==' ') (*buf)++; /* spip sp*/
 12104              		.loc 1 173 5 view .LVU4112
 12105 1e10 FFF7FEFF 		bl	getsh.part.0
 12106              	.LVL884:
 173:../USER/main_03.c ****   while(**buf==' ') (*buf)++; /* spip sp*/
 12107              		.loc 1 173 5 view .LVU4113
 12108              	.LBE1736:
 12109              	.LBE1744:
 12110              	.LBB1745:
 12111              	.LBB1746:
 173:../USER/main_03.c ****   while(**buf==' ') (*buf)++; /* spip sp*/
 12112              		.loc 1 173 6 view .LVU4114
 12113 1e14 0D9B     		ldr	r3, [sp, #52]
 12114              	.LBE1746:
 12115              	.LBE1745:
 12116              	.LBB1749:
 12117              	.LBB1737:
 12118 1e16 0446     		mov	r4, r0
 12119              	.LVL885:
 173:../USER/main_03.c ****   while(**buf==' ') (*buf)++; /* spip sp*/
 12120              		.loc 1 173 6 view .LVU4115
 12121              	.LBE1737:
 12122              	.LBE1749:
 12123              	.LBB1750:
 12124              	.LBI1745:
 171:../USER/main_03.c ****   long num = 0; int hd;
 12125              		.loc 1 171 6 is_stmt 1 view .LVU4116
 12126              	.LBB1747:
 172:../USER/main_03.c ****   if(**buf==0x0d) return -1;
 12127              		.loc 1 172 3 view .LVU4117
 172:../USER/main_03.c ****   if(**buf==0x0d) return -1;
 12128              		.loc 1 172 17 view .LVU4118
 173:../USER/main_03.c ****   while(**buf==' ') (*buf)++; /* spip sp*/
 12129              		.loc 1 173 3 view .LVU4119
 173:../USER/main_03.c ****   while(**buf==' ') (*buf)++; /* spip sp*/
 12130              		.loc 1 173 5 is_stmt 0 view .LVU4120
 12131 1e18 93F90030 		ldrsb	r3, [r3]
 12132 1e1c 0D2B     		cmp	r3, #13
 12133 1e1e 00F0E080 		beq	.L499
 12134 1e22 0DA8     		add	r0, sp, #52
 12135              	.LVL886:
 173:../USER/main_03.c ****   while(**buf==' ') (*buf)++; /* spip sp*/
 12136              		.loc 1 173 5 view .LVU4121
 12137 1e24 FFF7FEFF 		bl	getsh.part.0
 12138              	.LVL887:
 173:../USER/main_03.c ****   while(**buf==' ') (*buf)++; /* spip sp*/
 12139              		.loc 1 173 5 view .LVU4122
 12140              	.LBE1747:
 12141              	.LBE1750:
 12142              	.LBB1751:
 12143              	.LBB1752:
 173:../USER/main_03.c ****   while(**buf==' ') (*buf)++; /* spip sp*/
 12144              		.loc 1 173 6 view .LVU4123
 12145 1e28 0D9B     		ldr	r3, [sp, #52]
 12146              	.LBE1752:
 12147              	.LBE1751:
 12148              	.LBB1756:
 12149              	.LBB1748:
 12150 1e2a 0646     		mov	r6, r0
 12151              	.LVL888:
 173:../USER/main_03.c ****   while(**buf==' ') (*buf)++; /* spip sp*/
 12152              		.loc 1 173 6 view .LVU4124
 12153              	.LBE1748:
 12154              	.LBE1756:
 12155              	.LBB1757:
 12156              	.LBI1751:
 171:../USER/main_03.c ****   long num = 0; int hd;
 12157              		.loc 1 171 6 is_stmt 1 view .LVU4125
 12158              	.LBB1753:
 172:../USER/main_03.c ****   if(**buf==0x0d) return -1;
 12159              		.loc 1 172 3 view .LVU4126
 172:../USER/main_03.c ****   if(**buf==0x0d) return -1;
 12160              		.loc 1 172 17 view .LVU4127
 173:../USER/main_03.c ****   while(**buf==' ') (*buf)++; /* spip sp*/
 12161              		.loc 1 173 3 view .LVU4128
 173:../USER/main_03.c ****   while(**buf==' ') (*buf)++; /* spip sp*/
 12162              		.loc 1 173 5 is_stmt 0 view .LVU4129
 12163 1e2c 93F90030 		ldrsb	r3, [r3]
 12164 1e30 0D2B     		cmp	r3, #13
 12165 1e32 00F0D880 		beq	.L500
 12166 1e36 0DA8     		add	r0, sp, #52
 12167              	.LVL889:
 173:../USER/main_03.c ****   while(**buf==' ') (*buf)++; /* spip sp*/
 12168              		.loc 1 173 5 view .LVU4130
 12169 1e38 FFF7FEFF 		bl	getsh.part.0
 12170              	.LVL890:
 173:../USER/main_03.c ****   while(**buf==' ') (*buf)++; /* spip sp*/
 12171              		.loc 1 173 5 view .LVU4131
 12172              	.LBE1753:
 12173              	.LBE1757:
 12174              	.LBB1758:
 12175              	.LBB1759:
 173:../USER/main_03.c ****   while(**buf==' ') (*buf)++; /* spip sp*/
 12176              		.loc 1 173 6 view .LVU4132
 12177 1e3c 0D9B     		ldr	r3, [sp, #52]
 12178              	.LBE1759:
 12179              	.LBE1758:
 12180              	.LBB1764:
 12181              	.LBB1754:
 12182 1e3e 8346     		mov	fp, r0
 12183              	.LVL891:
 173:../USER/main_03.c ****   while(**buf==' ') (*buf)++; /* spip sp*/
 12184              		.loc 1 173 6 view .LVU4133
 12185              	.LBE1754:
 12186              	.LBE1764:
 12187              	.LBB1765:
 12188              	.LBI1758:
 171:../USER/main_03.c ****   long num = 0; int hd;
 12189              		.loc 1 171 6 is_stmt 1 view .LVU4134
 12190              	.LBB1760:
 172:../USER/main_03.c ****   if(**buf==0x0d) return -1;
 12191              		.loc 1 172 3 view .LVU4135
 172:../USER/main_03.c ****   if(**buf==0x0d) return -1;
 12192              		.loc 1 172 17 view .LVU4136
 173:../USER/main_03.c ****   while(**buf==' ') (*buf)++; /* spip sp*/
 12193              		.loc 1 173 3 view .LVU4137
 173:../USER/main_03.c ****   while(**buf==' ') (*buf)++; /* spip sp*/
 12194              		.loc 1 173 5 is_stmt 0 view .LVU4138
 12195 1e40 93F90030 		ldrsb	r3, [r3]
 12196 1e44 0D2B     		cmp	r3, #13
 12197 1e46 00F03681 		beq	.L942
 12198 1e4a 0DA8     		add	r0, sp, #52
 12199              	.LVL892:
 173:../USER/main_03.c ****   while(**buf==' ') (*buf)++; /* spip sp*/
 12200              		.loc 1 173 5 view .LVU4139
 12201 1e4c FFF7FEFF 		bl	getsh.part.0
 12202              	.LVL893:
 12203              	.L501:
 173:../USER/main_03.c ****   while(**buf==' ') (*buf)++; /* spip sp*/
 12204              		.loc 1 173 5 view .LVU4140
 12205              	.LBE1760:
 12206              	.LBE1765:
 220:../USER/main_03.c **** 			if(*cbp=='F') {
 12207              		.loc 1 220 12 view .LVU4141
 12208 1e50 0090     		str	r0, [sp]
 12209 1e52 5B46     		mov	r3, fp
 12210 1e54 3246     		mov	r2, r6
 12211 1e56 2146     		mov	r1, r4
 12212 1e58 2846     		mov	r0, r5
 12213 1e5a FFF7FEFF 		bl	dispfull
 12214              	.LVL894:
 12215 1e5e 0D9A     		ldr	r2, [sp, #52]
 12216 1e60 92F90030 		ldrsb	r3, [r2]
 12217 1e64 FEF793BA 		b	.L498
 12218              	.LVL895:
 12219              	.L1120:
 217:../USER/main_03.c **** 	    	}
 12220              		.loc 1 217 8 is_stmt 1 view .LVU4142
 217:../USER/main_03.c **** 	    	}
 12221              		.loc 1 217 11 is_stmt 0 view .LVU4143
 12222 1e68 531C     		adds	r3, r2, #1
 12223 1e6a 0D93     		str	r3, [sp, #52]
 217:../USER/main_03.c **** 	    	}
 12224              		.loc 1 217 15 is_stmt 1 view .LVU4144
 12225              	.LVL896:
 12226              	.LBB1766:
 12227              	.LBI1766:
 171:../USER/main_03.c ****   long num = 0; int hd;
 12228              		.loc 1 171 6 view .LVU4145
 12229              	.LBB1767:
 172:../USER/main_03.c ****   if(**buf==0x0d) return -1;
 12230              		.loc 1 172 3 view .LVU4146
 172:../USER/main_03.c ****   if(**buf==0x0d) return -1;
 12231              		.loc 1 172 17 view .LVU4147
 173:../USER/main_03.c ****   while(**buf==' ') (*buf)++; /* spip sp*/
 12232              		.loc 1 173 3 view .LVU4148
 173:../USER/main_03.c ****   while(**buf==' ') (*buf)++; /* spip sp*/
 12233              		.loc 1 173 5 is_stmt 0 view .LVU4149
 12234 1e6c 92F90130 		ldrsb	r3, [r2, #1]
 12235 1e70 0D2B     		cmp	r3, #13
 12236 1e72 00F00381 		beq	.L937
 12237 1e76 0DA8     		add	r0, sp, #52
 12238              	.LVL897:
 173:../USER/main_03.c ****   while(**buf==' ') (*buf)++; /* spip sp*/
 12239              		.loc 1 173 5 view .LVU4150
 12240 1e78 FFF7FEFF 		bl	getsh.part.0
 12241              	.LVL898:
 173:../USER/main_03.c ****   while(**buf==' ') (*buf)++; /* spip sp*/
 12242              		.loc 1 173 5 view .LVU4151
 12243              	.LBE1767:
 12244              	.LBE1766:
 12245              	.LBB1770:
 12246              	.LBB1771:
 12247 1e7c 0D9B     		ldr	r3, [sp, #52]
 12248              	.LBE1771:
 12249              	.LBE1770:
 12250              	.LBB1776:
 12251              	.LBB1768:
 12252 1e7e 0546     		mov	r5, r0
 12253              	.LVL899:
 173:../USER/main_03.c ****   while(**buf==' ') (*buf)++; /* spip sp*/
 12254              		.loc 1 173 5 view .LVU4152
 12255              	.LBE1768:
 12256              	.LBE1776:
 12257              	.LBB1777:
 12258              	.LBI1770:
 171:../USER/main_03.c ****   long num = 0; int hd;
 12259              		.loc 1 171 6 is_stmt 1 view .LVU4153
 12260              	.LBB1772:
 172:../USER/main_03.c ****   if(**buf==0x0d) return -1;
 12261              		.loc 1 172 3 view .LVU4154
 172:../USER/main_03.c ****   if(**buf==0x0d) return -1;
 12262              		.loc 1 172 17 view .LVU4155
 173:../USER/main_03.c ****   while(**buf==' ') (*buf)++; /* spip sp*/
 12263              		.loc 1 173 3 view .LVU4156
 173:../USER/main_03.c ****   while(**buf==' ') (*buf)++; /* spip sp*/
 12264              		.loc 1 173 5 is_stmt 0 view .LVU4157
 12265 1e80 93F90030 		ldrsb	r3, [r3]
 12266 1e84 0D2B     		cmp	r3, #13
 12267 1e86 00F0EF80 		beq	.L938
 12268 1e8a 0DA8     		add	r0, sp, #52
 12269              	.LVL900:
 173:../USER/main_03.c ****   while(**buf==' ') (*buf)++; /* spip sp*/
 12270              		.loc 1 173 5 view .LVU4158
 12271 1e8c FFF7FEFF 		bl	getsh.part.0
 12272              	.LVL901:
 173:../USER/main_03.c ****   while(**buf==' ') (*buf)++; /* spip sp*/
 12273              		.loc 1 173 5 view .LVU4159
 12274              	.LBE1772:
 12275              	.LBE1777:
 12276              	.LBB1778:
 12277              	.LBB1779:
 173:../USER/main_03.c ****   while(**buf==' ') (*buf)++; /* spip sp*/
 12278              		.loc 1 173 6 view .LVU4160
 12279 1e90 0D9B     		ldr	r3, [sp, #52]
 12280              	.LBE1779:
 12281              	.LBE1778:
 12282              	.LBB1782:
 12283              	.LBB1773:
 12284 1e92 0446     		mov	r4, r0
 12285              	.LVL902:
 173:../USER/main_03.c ****   while(**buf==' ') (*buf)++; /* spip sp*/
 12286              		.loc 1 173 6 view .LVU4161
 12287              	.LBE1773:
 12288              	.LBE1782:
 12289              	.LBB1783:
 12290              	.LBI1778:
 171:../USER/main_03.c ****   long num = 0; int hd;
 12291              		.loc 1 171 6 is_stmt 1 view .LVU4162
 12292              	.LBB1780:
 172:../USER/main_03.c ****   if(**buf==0x0d) return -1;
 12293              		.loc 1 172 3 view .LVU4163
 172:../USER/main_03.c ****   if(**buf==0x0d) return -1;
 12294              		.loc 1 172 17 view .LVU4164
 173:../USER/main_03.c ****   while(**buf==' ') (*buf)++; /* spip sp*/
 12295              		.loc 1 173 3 view .LVU4165
 173:../USER/main_03.c ****   while(**buf==' ') (*buf)++; /* spip sp*/
 12296              		.loc 1 173 5 is_stmt 0 view .LVU4166
 12297 1e94 93F90030 		ldrsb	r3, [r3]
 12298 1e98 0D2B     		cmp	r3, #13
 12299 1e9a 00F0E780 		beq	.L494
 12300 1e9e 0DA8     		add	r0, sp, #52
 12301              	.LVL903:
 173:../USER/main_03.c ****   while(**buf==' ') (*buf)++; /* spip sp*/
 12302              		.loc 1 173 5 view .LVU4167
 12303 1ea0 FFF7FEFF 		bl	getsh.part.0
 12304              	.LVL904:
 173:../USER/main_03.c ****   while(**buf==' ') (*buf)++; /* spip sp*/
 12305              		.loc 1 173 5 view .LVU4168
 12306              	.LBE1780:
 12307              	.LBE1783:
 12308              	.LBB1784:
 12309              	.LBB1785:
 173:../USER/main_03.c ****   while(**buf==' ') (*buf)++; /* spip sp*/
 12310              		.loc 1 173 6 view .LVU4169
 12311 1ea4 0D9B     		ldr	r3, [sp, #52]
 12312              	.LBE1785:
 12313              	.LBE1784:
 12314              	.LBB1790:
 12315              	.LBB1781:
 12316 1ea6 0646     		mov	r6, r0
 12317              	.LVL905:
 173:../USER/main_03.c ****   while(**buf==' ') (*buf)++; /* spip sp*/
 12318              		.loc 1 173 6 view .LVU4170
 12319              	.LBE1781:
 12320              	.LBE1790:
 12321              	.LBB1791:
 12322              	.LBI1784:
 171:../USER/main_03.c ****   long num = 0; int hd;
 12323              		.loc 1 171 6 is_stmt 1 view .LVU4171
 12324              	.LBB1786:
 172:../USER/main_03.c ****   if(**buf==0x0d) return -1;
 12325              		.loc 1 172 3 view .LVU4172
 172:../USER/main_03.c ****   if(**buf==0x0d) return -1;
 12326              		.loc 1 172 17 view .LVU4173
 173:../USER/main_03.c ****   while(**buf==' ') (*buf)++; /* spip sp*/
 12327              		.loc 1 173 3 view .LVU4174
 173:../USER/main_03.c ****   while(**buf==' ') (*buf)++; /* spip sp*/
 12328              		.loc 1 173 5 is_stmt 0 view .LVU4175
 12329 1ea8 93F90030 		ldrsb	r3, [r3]
 12330 1eac 0D2B     		cmp	r3, #13
 12331 1eae 00F0DF80 		beq	.L495
 12332 1eb2 0DA8     		add	r0, sp, #52
 12333              	.LVL906:
 173:../USER/main_03.c ****   while(**buf==' ') (*buf)++; /* spip sp*/
 12334              		.loc 1 173 5 view .LVU4176
 12335 1eb4 FFF7FEFF 		bl	getsh.part.0
 12336              	.LVL907:
 173:../USER/main_03.c ****   while(**buf==' ') (*buf)++; /* spip sp*/
 12337              		.loc 1 173 5 view .LVU4177
 12338              	.LBE1786:
 12339              	.LBE1791:
 12340              	.LBB1792:
 12341              	.LBB1793:
 173:../USER/main_03.c ****   while(**buf==' ') (*buf)++; /* spip sp*/
 12342              		.loc 1 173 6 view .LVU4178
 12343 1eb8 0D9B     		ldr	r3, [sp, #52]
 12344              	.LBE1793:
 12345              	.LBE1792:
 12346              	.LBB1797:
 12347              	.LBB1787:
 12348 1eba 8346     		mov	fp, r0
 12349              	.LVL908:
 173:../USER/main_03.c ****   while(**buf==' ') (*buf)++; /* spip sp*/
 12350              		.loc 1 173 6 view .LVU4179
 12351              	.LBE1787:
 12352              	.LBE1797:
 12353              	.LBB1798:
 12354              	.LBI1792:
 171:../USER/main_03.c ****   long num = 0; int hd;
 12355              		.loc 1 171 6 is_stmt 1 view .LVU4180
 12356              	.LBB1794:
 172:../USER/main_03.c ****   if(**buf==0x0d) return -1;
 12357              		.loc 1 172 3 view .LVU4181
 172:../USER/main_03.c ****   if(**buf==0x0d) return -1;
 12358              		.loc 1 172 17 view .LVU4182
 173:../USER/main_03.c ****   while(**buf==' ') (*buf)++; /* spip sp*/
 12359              		.loc 1 173 3 view .LVU4183
 173:../USER/main_03.c ****   while(**buf==' ') (*buf)++; /* spip sp*/
 12360              		.loc 1 173 5 is_stmt 0 view .LVU4184
 12361 1ebc 93F90030 		ldrsb	r3, [r3]
 12362 1ec0 0D2B     		cmp	r3, #13
 12363 1ec2 00F0D780 		beq	.L496
 12364 1ec6 0DA8     		add	r0, sp, #52
 12365              	.LVL909:
 173:../USER/main_03.c ****   while(**buf==' ') (*buf)++; /* spip sp*/
 12366              		.loc 1 173 5 view .LVU4185
 12367 1ec8 FFF7FEFF 		bl	getsh.part.0
 12368              	.LVL910:
 173:../USER/main_03.c ****   while(**buf==' ') (*buf)++; /* spip sp*/
 12369              		.loc 1 173 5 view .LVU4186
 12370              	.LBE1794:
 12371              	.LBE1798:
 12372              	.LBB1799:
 12373              	.LBB1800:
 173:../USER/main_03.c ****   while(**buf==' ') (*buf)++; /* spip sp*/
 12374              		.loc 1 173 6 view .LVU4187
 12375 1ecc 0D9A     		ldr	r2, [sp, #52]
 12376              	.LBE1800:
 12377              	.LBE1799:
 12378              	.LBB1806:
 12379              	.LBB1795:
 12380 1ece 0346     		mov	r3, r0
 12381              	.LVL911:
 173:../USER/main_03.c ****   while(**buf==' ') (*buf)++; /* spip sp*/
 12382              		.loc 1 173 6 view .LVU4188
 12383              	.LBE1795:
 12384              	.LBE1806:
 12385              	.LBB1807:
 12386              	.LBI1799:
 171:../USER/main_03.c ****   long num = 0; int hd;
 12387              		.loc 1 171 6 is_stmt 1 view .LVU4189
 12388              	.LBB1801:
 172:../USER/main_03.c ****   if(**buf==0x0d) return -1;
 12389              		.loc 1 172 3 view .LVU4190
 172:../USER/main_03.c ****   if(**buf==0x0d) return -1;
 12390              		.loc 1 172 17 view .LVU4191
 173:../USER/main_03.c ****   while(**buf==' ') (*buf)++; /* spip sp*/
 12391              		.loc 1 173 3 view .LVU4192
 173:../USER/main_03.c ****   while(**buf==' ') (*buf)++; /* spip sp*/
 12392              		.loc 1 173 5 is_stmt 0 view .LVU4193
 12393 1ed0 92F90020 		ldrsb	r2, [r2]
 12394 1ed4 0D2A     		cmp	r2, #13
 12395 1ed6 00F0DD80 		beq	.L939
 12396 1eda 0390     		str	r0, [sp, #12]
 12397 1edc 0DA8     		add	r0, sp, #52
 12398              	.LVL912:
 173:../USER/main_03.c ****   while(**buf==' ') (*buf)++; /* spip sp*/
 12399              		.loc 1 173 5 view .LVU4194
 12400 1ede FFF7FEFF 		bl	getsh.part.0
 12401              	.LVL913:
 173:../USER/main_03.c ****   while(**buf==' ') (*buf)++; /* spip sp*/
 12402              		.loc 1 173 5 view .LVU4195
 12403 1ee2 039B     		ldr	r3, [sp, #12]
 12404              	.LVL914:
 12405              	.L497:
 173:../USER/main_03.c ****   while(**buf==' ') (*buf)++; /* spip sp*/
 12406              		.loc 1 173 5 view .LVU4196
 12407              	.LBE1801:
 12408              	.LBE1807:
 217:../USER/main_03.c **** 	    	}
 12409              		.loc 1 217 15 view .LVU4197
 12410 1ee4 CDE90030 		strd	r3, r0, [sp]
 12411 1ee8 3246     		mov	r2, r6
 12412 1eea 5B46     		mov	r3, fp
 12413 1eec 2146     		mov	r1, r4
 12414 1eee 2846     		mov	r0, r5
 12415 1ef0 FFF7FEFF 		bl	set_vramm
 12416              	.LVL915:
 12417 1ef4 0D9A     		ldr	r2, [sp, #52]
 12418 1ef6 92F90030 		ldrsb	r3, [r2]
 12419 1efa FEF745BA 		b	.L493
 12420              	.LVL916:
 12421              	.L551:
 12422              	.LBB1808:
 12423              	.LBB1614:
 137:../USER/main_03.c **** 	}
 12424              		.loc 1 137 3 is_stmt 1 view .LVU4198
 12425 1efe 2020     		movs	r0, #32
 12426 1f00 FFF7FEFF 		bl	SPI_WriteData
 12427              	.LVL917:
 12428              	.L544:
 12429              	.LBB1610:
 12430              	.LBB1611:
 116:../USER/main_03.c **** 	if(kinbwp>=256) kinbwp = 0;
 12431              		.loc 1 116 11 is_stmt 0 view .LVU4199
 12432 1f04 4FF04025 		mov	r5, #1073758208
 12433 1f08 18E0     		b	.L557
 12434              	.LVL918:
 12435              	.L1218:
 116:../USER/main_03.c **** 	if(kinbwp>=256) kinbwp = 0;
 12436              		.loc 1 116 11 view .LVU4200
 12437 1f0a D8F80030 		ldr	r3, [r8]
 12438              	.L553:
 114:../USER/main_03.c **** 	//
 12439              		.loc 1 114 2 is_stmt 1 view .LVU4201
 114:../USER/main_03.c **** 	//
 12440              		.loc 1 114 18 view .LVU4202
 114:../USER/main_03.c **** 	//
 12441              		.loc 1 114 4 is_stmt 0 view .LVU4203
 12442 1f0e FF2B     		cmp	r3, #255
 12443 1f10 02DD     		ble	.L554
 114:../USER/main_03.c **** 	//
 12444              		.loc 1 114 25 view .LVU4204
 12445 1f12 0023     		movs	r3, #0
 12446 1f14 C8F80070 		str	r7, [r8]
 12447              	.L554:
 116:../USER/main_03.c **** 	if(kinbwp>=256) kinbwp = 0;
 12448              		.loc 1 116 39 is_stmt 1 view .LVU4205
 116:../USER/main_03.c **** 	if(kinbwp>=256) kinbwp = 0;
 12449              		.loc 1 116 2 view .LVU4206
 116:../USER/main_03.c **** 	if(kinbwp>=256) kinbwp = 0;
 12450              		.loc 1 116 11 is_stmt 0 view .LVU4207
 12451 1f18 6968     		ldr	r1, [r5, #4]
 116:../USER/main_03.c **** 	if(kinbwp>=256) kinbwp = 0;
 12452              		.loc 1 116 52 view .LVU4208
 12453 1f1a 5A1C     		adds	r2, r3, #1
 116:../USER/main_03.c **** 	if(kinbwp>=256) kinbwp = 0;
 12454              		.loc 1 116 4 view .LVU4209
 12455 1f1c 8807     		lsls	r0, r1, #30
 12456              	.LVL919:
 116:../USER/main_03.c **** 	if(kinbwp>=256) kinbwp = 0;
 12457              		.loc 1 116 4 view .LVU4210
 12458 1f1e 09D5     		bpl	.L556
 117:../USER/main_03.c **** 	//
 12459              		.loc 1 117 25 view .LVU4211
 12460 1f20 B2F5807F 		cmp	r2, #256
 12461 1f24 14BF     		ite	ne
 12462 1f26 1146     		movne	r1, r2
 12463 1f28 3946     		moveq	r1, r7
 116:../USER/main_03.c **** 	if(kinbwp>=256) kinbwp = 0;
 12464              		.loc 1 116 63 view .LVU4212
 12465 1f2a 2868     		ldr	r0, [r5]
 117:../USER/main_03.c **** 	//
 12466              		.loc 1 117 25 view .LVU4213
 12467 1f2c C8F80010 		str	r1, [r8]
 116:../USER/main_03.c **** 	if(kinbwp>=256) kinbwp = 0;
 12468              		.loc 1 116 56 view .LVU4214
 12469 1f30 09F80300 		strb	r0, [r9, r3]
 117:../USER/main_03.c **** 	//
 12470              		.loc 1 117 2 is_stmt 1 view .LVU4215
 12471              	.L556:
 117:../USER/main_03.c **** 	//
 12472              		.loc 1 117 2 is_stmt 0 view .LVU4216
 12473              	.LBE1611:
 12474              	.LBE1610:
 140:../USER/main_03.c **** }
 12475              		.loc 1 140 27 is_stmt 1 view .LVU4217
 140:../USER/main_03.c **** }
 12476              		.loc 1 140 32 is_stmt 0 view .LVU4218
 12477 1f34 2020     		movs	r0, #32
 12478 1f36 FFF7FEFF 		bl	disp_vram
 12479              	.LVL920:
 140:../USER/main_03.c **** }
 12480              		.loc 1 140 2 view .LVU4219
 12481 1f3a 60B1     		cbz	r0, .L1217
 12482              	.LVL921:
 12483              	.L557:
 140:../USER/main_03.c **** }
 12484              		.loc 1 140 2 is_stmt 1 view .LVU4220
 140:../USER/main_03.c **** }
 12485              		.loc 1 140 10 view .LVU4221
 140:../USER/main_03.c **** }
 12486              		.loc 1 140 14 view .LVU4222
 12487              	.LBB1613:
 12488              	.LBI1610:
 109:../USER/main_03.c **** 	char ch;
 12489              		.loc 1 109 6 view .LVU4223
 12490              	.LBB1612:
 110:../USER/main_03.c **** 	//
 12491              		.loc 1 110 2 view .LVU4224
 112:../USER/main_03.c **** 	if(ch!=0) kinbuf[kinbwp++] = ch;
 12492              		.loc 1 112 2 view .LVU4225
 112:../USER/main_03.c **** 	if(ch!=0) kinbuf[kinbwp++] = ch;
 12493              		.loc 1 112 7 is_stmt 0 view .LVU4226
 12494 1f3c FFF7FEFF 		bl	SPI_ReadData
 12495              	.LVL922:
 113:../USER/main_03.c **** 	if(kinbwp>=256) kinbwp = 0;
 12496              		.loc 1 113 12 is_stmt 1 view .LVU4227
 112:../USER/main_03.c **** 	if(ch!=0) kinbuf[kinbwp++] = ch;
 12497              		.loc 1 112 5 is_stmt 0 view .LVU4228
 12498 1f40 40B2     		sxtb	r0, r0
 12499              	.LVL923:
 113:../USER/main_03.c **** 	if(kinbwp>=256) kinbwp = 0;
 12500              		.loc 1 113 2 is_stmt 1 view .LVU4229
 113:../USER/main_03.c **** 	if(kinbwp>=256) kinbwp = 0;
 12501              		.loc 1 113 4 is_stmt 0 view .LVU4230
 12502 1f42 0028     		cmp	r0, #0
 12503 1f44 E1D0     		beq	.L1218
 113:../USER/main_03.c **** 	if(kinbwp>=256) kinbwp = 0;
 12504              		.loc 1 113 25 view .LVU4231
 12505 1f46 D8F80020 		ldr	r2, [r8]
 12506 1f4a 531C     		adds	r3, r2, #1
 113:../USER/main_03.c **** 	if(kinbwp>=256) kinbwp = 0;
 12507              		.loc 1 113 29 view .LVU4232
 12508 1f4c 09F80200 		strb	r0, [r9, r2]
 113:../USER/main_03.c **** 	if(kinbwp>=256) kinbwp = 0;
 12509              		.loc 1 113 25 view .LVU4233
 12510 1f50 C8F80030 		str	r3, [r8]
 12511 1f54 DBE7     		b	.L553
 12512              	.LVL924:
 12513              	.L1217:
 113:../USER/main_03.c **** 	if(kinbwp>=256) kinbwp = 0;
 12514              		.loc 1 113 25 view .LVU4234
 12515              	.LBE1612:
 12516              	.LBE1613:
 12517              	.LBE1614:
 12518              	.LBE1808:
 246:../USER/main_03.c **** 	    	}
 12519              		.loc 1 246 42 is_stmt 1 discriminator 3 view .LVU4235
 246:../USER/main_03.c **** 	    	}
 12520              		.loc 1 246 52 is_stmt 0 discriminator 3 view .LVU4236
 12521 1f56 14F8015F 		ldrb	r5, [r4, #1]!	@ zero_extendqisi2
 12522              	.LVL925:
 12523              	.LBB1809:
 12524              	.LBI1809:
 144:../USER/main_03.c **** void puth4(dt) int dt;{ puth2((dt >> 8) & 0xff); puth2(dt & 0xff); }
 12525              		.loc 1 144 6 is_stmt 1 discriminator 3 view .LVU4237
 12526              	.LBB1810:
 144:../USER/main_03.c **** void puth4(dt) int dt;{ puth2((dt >> 8) & 0xff); puth2(dt & 0xff); }
 12527              		.loc 1 144 25 discriminator 3 view .LVU4238
 144:../USER/main_03.c **** void puth4(dt) int dt;{ puth2((dt >> 8) & 0xff); puth2(dt & 0xff); }
 12528              		.loc 1 144 34 is_stmt 0 discriminator 3 view .LVU4239
 12529 1f5a 2B11     		asrs	r3, r5, #4
 12530              	.LVL926:
 12531              	.LBB1811:
 12532              	.LBI1811:
 143:../USER/main_03.c **** void puth2(dt) int dt;{ puth((dt >> 4) & 0xf); puth(dt & 0xf); }
 12533              		.loc 1 143 6 is_stmt 1 discriminator 3 view .LVU4240
 12534              	.LBB1812:
 143:../USER/main_03.c **** void puth2(dt) int dt;{ puth((dt >> 4) & 0xf); puth(dt & 0xf); }
 12535              		.loc 1 143 24 discriminator 3 view .LVU4241
 143:../USER/main_03.c **** void puth2(dt) int dt;{ puth((dt >> 4) & 0xf); puth(dt & 0xf); }
 12536              		.loc 1 143 34 discriminator 3 view .LVU4242
 143:../USER/main_03.c **** void puth2(dt) int dt;{ puth((dt >> 4) & 0xf); puth(dt & 0xf); }
 12537              		.loc 1 143 55 discriminator 3 view .LVU4243
 12538 1f5c D8B2     		uxtb	r0, r3
 143:../USER/main_03.c **** void puth2(dt) int dt;{ puth((dt >> 4) & 0xf); puth(dt & 0xf); }
 12539              		.loc 1 143 26 is_stmt 0 discriminator 3 view .LVU4244
 12540 1f5e 092B     		cmp	r3, #9
 143:../USER/main_03.c **** void puth2(dt) int dt;{ puth((dt >> 4) & 0xf); puth(dt & 0xf); }
 12541              		.loc 1 143 34 discriminator 3 view .LVU4245
 12542 1f60 D4BF     		ite	le
 12543 1f62 3030     		addle	r0, r0, #48
 143:../USER/main_03.c **** void puth2(dt) int dt;{ puth((dt >> 4) & 0xf); puth(dt & 0xf); }
 12544              		.loc 1 143 55 discriminator 3 view .LVU4246
 12545 1f64 3730     		addgt	r0, r0, #55
 12546 1f66 FFF7FEFF 		bl	putch_uart
 12547              	.LVL927:
 143:../USER/main_03.c **** void puth2(dt) int dt;{ puth((dt >> 4) & 0xf); puth(dt & 0xf); }
 12548              		.loc 1 143 55 discriminator 3 view .LVU4247
 12549              	.LBE1812:
 12550              	.LBE1811:
 144:../USER/main_03.c **** void puth4(dt) int dt;{ puth2((dt >> 8) & 0xff); puth2(dt & 0xff); }
 12551              		.loc 1 144 48 is_stmt 1 discriminator 3 view .LVU4248
 12552 1f6a 05F00F00 		and	r0, r5, #15
 12553              	.LVL928:
 12554              	.LBB1813:
 12555              	.LBI1813:
 143:../USER/main_03.c **** void puth2(dt) int dt;{ puth((dt >> 4) & 0xf); puth(dt & 0xf); }
 12556              		.loc 1 143 6 discriminator 3 view .LVU4249
 12557              	.LBB1814:
 143:../USER/main_03.c **** void puth2(dt) int dt;{ puth((dt >> 4) & 0xf); puth(dt & 0xf); }
 12558              		.loc 1 143 24 discriminator 3 view .LVU4250
 143:../USER/main_03.c **** void puth2(dt) int dt;{ puth((dt >> 4) & 0xf); puth(dt & 0xf); }
 12559              		.loc 1 143 34 discriminator 3 view .LVU4251
 143:../USER/main_03.c **** void puth2(dt) int dt;{ puth((dt >> 4) & 0xf); puth(dt & 0xf); }
 12560              		.loc 1 143 55 discriminator 3 view .LVU4252
 143:../USER/main_03.c **** void puth2(dt) int dt;{ puth((dt >> 4) & 0xf); puth(dt & 0xf); }
 12561              		.loc 1 143 26 is_stmt 0 discriminator 3 view .LVU4253
 12562 1f6e 0928     		cmp	r0, #9
 143:../USER/main_03.c **** void puth2(dt) int dt;{ puth((dt >> 4) & 0xf); puth(dt & 0xf); }
 12563              		.loc 1 143 34 discriminator 3 view .LVU4254
 12564 1f70 94BF     		ite	ls
 12565 1f72 3030     		addls	r0, r0, #48
 12566              	.LVL929:
 143:../USER/main_03.c **** void puth2(dt) int dt;{ puth((dt >> 4) & 0xf); puth(dt & 0xf); }
 12567              		.loc 1 143 55 discriminator 3 view .LVU4255
 12568 1f74 3730     		addhi	r0, r0, #55
 12569 1f76 FFF7FEFF 		bl	putch_uart
 12570              	.LVL930:
 143:../USER/main_03.c **** void puth2(dt) int dt;{ puth((dt >> 4) & 0xf); puth(dt & 0xf); }
 12571              		.loc 1 143 55 discriminator 3 view .LVU4256
 12572              	.LBE1814:
 12573              	.LBE1813:
 12574              	.LBE1810:
 12575              	.LBE1809:
 246:../USER/main_03.c **** 	    	}
 12576              		.loc 1 246 8 discriminator 3 view .LVU4257
 12577 1f7a 574B     		ldr	r3, .L1235
 12578 1f7c 9C42     		cmp	r4, r3
 12579 1f7e 7FF4CBAD 		bne	.L562
 12580 1f82 0D9B     		ldr	r3, [sp, #52]
 12581 1f84 93F90030 		ldrsb	r3, [r3]
 12582 1f88 FEF72EBA 		b	.L541
 12583              	.LVL931:
 12584              	.L1214:
 12585              	.LBB1815:
 12586              	.LBB1615:
 130:../USER/main_03.c **** 	else {
 12587              		.loc 1 130 3 is_stmt 1 view .LVU4258
 12588 1f8c 2021     		movs	r1, #32
 12589 1f8e 4FF04020 		mov	r0, #1073758208
 12590 1f92 FFF7FEFF 		bl	UART_SendChar
 12591              	.LVL932:
 12592 1f96 B5E7     		b	.L544
 12593              	.LVL933:
 12594              	.L1119:
 130:../USER/main_03.c **** 	else {
 12595              		.loc 1 130 3 is_stmt 0 view .LVU4259
 12596              	.LBE1615:
 12597              	.LBE1815:
 211:../USER/main_03.c **** 	    		while(dt!=-1){
 12598              		.loc 1 211 8 is_stmt 1 view .LVU4260
 12599              	.LBB1816:
 12600              	.LBB1817:
 173:../USER/main_03.c ****   while(**buf==' ') (*buf)++; /* spip sp*/
 12601              		.loc 1 173 6 is_stmt 0 view .LVU4261
 12602 1f98 9DF9A230 		ldrsb	r3, [sp, #162]
 12603              	.LBE1817:
 12604              	.LBE1816:
 211:../USER/main_03.c **** 	    		while(dt!=-1){
 12605              		.loc 1 211 11 view .LVU4262
 12606 1f9c 0DF1A202 		add	r2, sp, #162
 12607              	.LBB1823:
 12608              	.LBB1818:
 173:../USER/main_03.c ****   while(**buf==' ') (*buf)++; /* spip sp*/
 12609              		.loc 1 173 5 view .LVU4263
 12610 1fa0 0D2B     		cmp	r3, #13
 12611              	.LBE1818:
 12612              	.LBE1823:
 211:../USER/main_03.c **** 	    		while(dt!=-1){
 12613              		.loc 1 211 11 view .LVU4264
 12614 1fa2 0D92     		str	r2, [sp, #52]
 211:../USER/main_03.c **** 	    		while(dt!=-1){
 12615              		.loc 1 211 15 is_stmt 1 view .LVU4265
 12616              	.LVL934:
 212:../USER/main_03.c **** 	    			dt = getsh(cbpp); if(dt!=-1) SPI_WriteData(dt);
 12617              		.loc 1 212 8 view .LVU4266
 213:../USER/main_03.c **** 	    		}
 12618              		.loc 1 213 9 view .LVU4267
 12619              	.LBB1824:
 12620              	.LBI1816:
 171:../USER/main_03.c ****   long num = 0; int hd;
 12621              		.loc 1 171 6 view .LVU4268
 12622              	.LBB1819:
 172:../USER/main_03.c ****   if(**buf==0x0d) return -1;
 12623              		.loc 1 172 3 view .LVU4269
 172:../USER/main_03.c ****   if(**buf==0x0d) return -1;
 12624              		.loc 1 172 17 view .LVU4270
 173:../USER/main_03.c ****   while(**buf==' ') (*buf)++; /* spip sp*/
 12625              		.loc 1 173 3 view .LVU4271
 173:../USER/main_03.c ****   while(**buf==' ') (*buf)++; /* spip sp*/
 12626              		.loc 1 173 5 is_stmt 0 view .LVU4272
 12627 1fa4 3EF44BA8 		beq	.L279
 12628              	.LVL935:
 12629              	.L492:
 173:../USER/main_03.c ****   while(**buf==' ') (*buf)++; /* spip sp*/
 12630              		.loc 1 173 5 view .LVU4273
 12631 1fa8 0DA8     		add	r0, sp, #52
 12632              	.LVL936:
 173:../USER/main_03.c ****   while(**buf==' ') (*buf)++; /* spip sp*/
 12633              		.loc 1 173 5 view .LVU4274
 12634 1faa FFF7FEFF 		bl	getsh.part.0
 12635              	.LVL937:
 173:../USER/main_03.c ****   while(**buf==' ') (*buf)++; /* spip sp*/
 12636              		.loc 1 173 5 view .LVU4275
 12637              	.LBE1819:
 12638              	.LBE1824:
 213:../USER/main_03.c **** 	    		}
 12639              		.loc 1 213 38 is_stmt 1 view .LVU4276
 12640              	.LBB1825:
 12641              	.LBB1820:
 12642 1fae 0346     		mov	r3, r0
 12643              	.LVL938:
 213:../USER/main_03.c **** 	    		}
 12644              		.loc 1 213 38 is_stmt 0 view .LVU4277
 12645              	.LBE1820:
 12646              	.LBE1825:
 213:../USER/main_03.c **** 	    		}
 12647              		.loc 1 213 27 is_stmt 1 view .LVU4278
 213:../USER/main_03.c **** 	    		}
 12648              		.loc 1 213 29 is_stmt 0 view .LVU4279
 12649 1fb0 0133     		adds	r3, r3, #1
 213:../USER/main_03.c **** 	    		}
 12650              		.loc 1 213 38 view .LVU4280
 12651 1fb2 C0B2     		uxtb	r0, r0
 12652              	.LVL939:
 213:../USER/main_03.c **** 	    		}
 12653              		.loc 1 213 29 view .LVU4281
 12654 1fb4 04D1     		bne	.L490
 12655 1fb6 0D9A     		ldr	r2, [sp, #52]
 12656 1fb8 92F90030 		ldrsb	r3, [r2]
 12657              	.LVL940:
 213:../USER/main_03.c **** 	    		}
 12658              		.loc 1 213 29 view .LVU4282
 12659 1fbc FEF7E1B9 		b	.L488
 12660              	.LVL941:
 12661              	.L490:
 213:../USER/main_03.c **** 	    		}
 12662              		.loc 1 213 38 discriminator 1 view .LVU4283
 12663 1fc0 FFF7FEFF 		bl	SPI_WriteData
 12664              	.LVL942:
 213:../USER/main_03.c **** 	    		}
 12665              		.loc 1 213 38 discriminator 1 view .LVU4284
 12666 1fc4 0D9B     		ldr	r3, [sp, #52]
 12667              	.LVL943:
 213:../USER/main_03.c **** 	    		}
 12668              		.loc 1 213 9 is_stmt 1 discriminator 1 view .LVU4285
 12669              	.LBB1826:
 171:../USER/main_03.c ****   long num = 0; int hd;
 12670              		.loc 1 171 6 discriminator 1 view .LVU4286
 12671              	.LBB1821:
 172:../USER/main_03.c ****   if(**buf==0x0d) return -1;
 12672              		.loc 1 172 3 discriminator 1 view .LVU4287
 172:../USER/main_03.c ****   if(**buf==0x0d) return -1;
 12673              		.loc 1 172 17 discriminator 1 view .LVU4288
 173:../USER/main_03.c ****   while(**buf==' ') (*buf)++; /* spip sp*/
 12674              		.loc 1 173 3 discriminator 1 view .LVU4289
 173:../USER/main_03.c ****   while(**buf==' ') (*buf)++; /* spip sp*/
 12675              		.loc 1 173 6 is_stmt 0 discriminator 1 view .LVU4290
 12676 1fc6 93F90030 		ldrsb	r3, [r3]
 173:../USER/main_03.c ****   while(**buf==' ') (*buf)++; /* spip sp*/
 12677              		.loc 1 173 5 discriminator 1 view .LVU4291
 12678 1fca 0D2B     		cmp	r3, #13
 12679 1fcc ECD1     		bne	.L492
 12680 1fce FEF736B8 		b	.L279
 12681              	.LVL944:
 12682              	.L793:
 173:../USER/main_03.c ****   while(**buf==' ') (*buf)++; /* spip sp*/
 12683              		.loc 1 173 5 discriminator 1 view .LVU4292
 12684              	.LBE1821:
 12685              	.LBE1826:
 258:../USER/main_03.c **** 	          dt = getsh(cbpp); cmd = *cbp;
 12686              		.loc 1 258 26 is_stmt 1 view .LVU4293
 258:../USER/main_03.c **** 	          dt = getsh(cbpp); cmd = *cbp;
 12687              		.loc 1 258 30 is_stmt 0 view .LVU4294
 12688 1fd2 28AB     		add	r3, sp, #160
 12689 1fd4 0D93     		str	r3, [sp, #52]
 259:../USER/main_03.c **** 	          if(cmd==0x0d && dt>=0){
 12690              		.loc 1 259 12 is_stmt 1 view .LVU4295
 12691              	.LVL945:
 12692              	.LBB1827:
 171:../USER/main_03.c ****   long num = 0; int hd;
 12693              		.loc 1 171 6 view .LVU4296
 12694              	.LBB1575:
 172:../USER/main_03.c ****   if(**buf==0x0d) return -1;
 12695              		.loc 1 172 3 view .LVU4297
 172:../USER/main_03.c ****   if(**buf==0x0d) return -1;
 12696              		.loc 1 172 17 view .LVU4298
 173:../USER/main_03.c ****   while(**buf==' ') (*buf)++; /* spip sp*/
 12697              		.loc 1 173 3 view .LVU4299
 12698              	.LBE1575:
 12699              	.LBE1827:
 12700              		.loc 1 276 29 is_stmt 0 view .LVU4300
 12701 1fd6 049B     		ldr	r3, [sp, #16]
 12702 1fd8 9B44     		add	fp, fp, r3
 12703 1fda FEF790BA 		b	.L1106
 12704              	.LVL946:
 12705              	.L941:
 12706              	.LBB1828:
 12707              	.LBB1738:
 173:../USER/main_03.c ****   while(**buf==' ') (*buf)++; /* spip sp*/
 12708              		.loc 1 173 26 view .LVU4301
 12709 1fde 4FF0FF34 		mov	r4, #-1
 12710              	.LVL947:
 12711              	.L499:
 173:../USER/main_03.c ****   while(**buf==' ') (*buf)++; /* spip sp*/
 12712              		.loc 1 173 26 view .LVU4302
 12713              	.LBE1738:
 12714              	.LBE1828:
 12715              	.LBB1829:
 171:../USER/main_03.c ****   long num = 0; int hd;
 12716              		.loc 1 171 6 is_stmt 1 view .LVU4303
 12717              	.LBB1755:
 172:../USER/main_03.c ****   if(**buf==0x0d) return -1;
 12718              		.loc 1 172 3 view .LVU4304
 172:../USER/main_03.c ****   if(**buf==0x0d) return -1;
 12719              		.loc 1 172 17 view .LVU4305
 173:../USER/main_03.c ****   while(**buf==' ') (*buf)++; /* spip sp*/
 12720              		.loc 1 173 3 view .LVU4306
 12721              	.LBE1755:
 12722              	.LBE1829:
 224:../USER/main_03.c **** 			if(*cbp=='M'){
 12723              		.loc 1 224 12 is_stmt 0 view .LVU4307
 12724 1fe2 4FF0FF36 		mov	r6, #-1
 12725              	.L500:
 12726              	.LVL948:
 12727              	.LBB1830:
 171:../USER/main_03.c ****   long num = 0; int hd;
 12728              		.loc 1 171 6 is_stmt 1 view .LVU4308
 12729              	.LBB1761:
 172:../USER/main_03.c ****   if(**buf==0x0d) return -1;
 12730              		.loc 1 172 3 view .LVU4309
 172:../USER/main_03.c ****   if(**buf==0x0d) return -1;
 12731              		.loc 1 172 17 view .LVU4310
 173:../USER/main_03.c ****   while(**buf==' ') (*buf)++; /* spip sp*/
 12732              		.loc 1 173 3 view .LVU4311
 12733              	.LBE1761:
 12734              	.LBE1830:
 12735              	.LBB1831:
 12736              	.LBB1802:
 173:../USER/main_03.c ****   while(**buf==' ') (*buf)++; /* spip sp*/
 12737              		.loc 1 173 26 is_stmt 0 view .LVU4312
 12738 1fe6 4FF0FF3B 		mov	fp, #-1
 12739              	.LBE1802:
 12740              	.LBE1831:
 12741              	.LBB1832:
 12742              	.LBB1762:
 12743 1fea 5846     		mov	r0, fp
 12744 1fec 30E7     		b	.L501
 12745              	.LVL949:
 12746              	.L940:
 173:../USER/main_03.c ****   while(**buf==' ') (*buf)++; /* spip sp*/
 12747              		.loc 1 173 26 view .LVU4313
 12748              	.LBE1762:
 12749              	.LBE1832:
 12750              	.LBB1833:
 12751              	.LBB1733:
 12752 1fee 4FF0FF35 		mov	r5, #-1
 12753              	.LBE1733:
 12754              	.LBE1833:
 12755              	.LBB1834:
 12756              	.LBB1739:
 12757 1ff2 2C46     		mov	r4, r5
 12758 1ff4 F5E7     		b	.L499
 12759              	.LVL950:
 12760              	.L934:
 173:../USER/main_03.c ****   while(**buf==' ') (*buf)++; /* spip sp*/
 12761              		.loc 1 173 26 view .LVU4314
 12762              	.LBE1739:
 12763              	.LBE1834:
 202:../USER/main_03.c **** 	        for(i=0; i<8; i++){
 12764              		.loc 1 202 26 view .LVU4315
 12765 1ff6 0B98     		ldr	r0, [sp, #44]
 12766 1ff8 FEF7DCBA 		b	.L354
 12767              	.LVL951:
 12768              	.L952:
 12769              	.LBB1835:
 12770              	.LBB1711:
 173:../USER/main_03.c ****   while(**buf==' ') (*buf)++; /* spip sp*/
 12771              		.loc 1 173 26 view .LVU4316
 12772 1ffc 4FF0FF34 		mov	r4, #-1
 12773              	.LBE1711:
 12774              	.LBE1835:
 12775              	.LBB1836:
 12776              	.LBB1716:
 12777 2000 2546     		mov	r5, r4
 12778              	.LBE1716:
 12779              	.LBE1836:
 12780              	.LBB1837:
 12781              	.LBB1723:
 12782 2002 2246     		mov	r2, r4
 12783 2004 E4E6     		b	.L513
 12784              	.LVL952:
 12785              	.L943:
 173:../USER/main_03.c ****   while(**buf==' ') (*buf)++; /* spip sp*/
 12786              		.loc 1 173 26 view .LVU4317
 12787              	.LBE1723:
 12788              	.LBE1837:
 12789              	.LBB1838:
 12790              	.LBB1649:
 12791 2006 4FF0FF34 		mov	r4, #-1
 12792              	.LBE1649:
 12793              	.LBE1838:
 12794              	.LBB1839:
 12795              	.LBB1654:
 12796 200a 2546     		mov	r5, r4
 12797              	.LBE1654:
 12798              	.LBE1839:
 12799              	.LBB1840:
 12800              	.LBB1661:
 12801 200c 2246     		mov	r2, r4
 12802 200e 4AE6     		b	.L504
 12803              	.LVL953:
 12804              	.L958:
 173:../USER/main_03.c ****   while(**buf==' ') (*buf)++; /* spip sp*/
 12805              		.loc 1 173 26 view .LVU4318
 12806              	.LBE1661:
 12807              	.LBE1840:
 12808              	.LBB1841:
 12809              	.LBB1621:
 12810 2010 4FF0FF34 		mov	r4, #-1
 12811              	.LBE1621:
 12812              	.LBE1841:
 12813              	.LBB1842:
 12814              	.LBB1625:
 12815 2014 2146     		mov	r1, r4
 12816 2016 ECE5     		b	.L518
 12817              	.LVL954:
 12818              	.L949:
 173:../USER/main_03.c ****   while(**buf==' ') (*buf)++; /* spip sp*/
 12819              		.loc 1 173 26 view .LVU4319
 12820              	.LBE1625:
 12821              	.LBE1842:
 12822              	.LBB1843:
 12823              	.LBB1691:
 12824 2018 4FF0FF34 		mov	r4, #-1
 12825              	.LBE1691:
 12826              	.LBE1843:
 12827              	.LBB1844:
 12828              	.LBB1696:
 12829 201c 2546     		mov	r5, r4
 12830              	.LBE1696:
 12831              	.LBE1844:
 12832              	.LBB1845:
 12833              	.LBB1703:
 12834 201e 2246     		mov	r2, r4
 12835 2020 ACE6     		b	.L511
 12836              	.LVL955:
 12837              	.L962:
 173:../USER/main_03.c ****   while(**buf==' ') (*buf)++; /* spip sp*/
 12838              		.loc 1 173 26 view .LVU4320
 12839              	.LBE1703:
 12840              	.LBE1845:
 12841              	.LBB1846:
 12842              	.LBB1596:
 12843 2022 4FF0FF34 		mov	r4, #-1
 12844              	.LBE1596:
 12845              	.LBE1846:
 12846              	.LBB1847:
 12847              	.LBB1600:
 12848 2026 2146     		mov	r1, r4
 12849 2028 72E5     		b	.L542
 12850              	.LVL956:
 12851              	.L956:
 173:../USER/main_03.c ****   while(**buf==' ') (*buf)++; /* spip sp*/
 12852              		.loc 1 173 26 view .LVU4321
 12853              	.LBE1600:
 12854              	.LBE1847:
 230:../USER/main_03.c **** 			if(*cbp=='U'){
 12855              		.loc 1 230 12 view .LVU4322
 12856 202a 4FF6FF74 		movw	r4, #65535
 12857              	.LVL957:
 12858              	.L515:
 12859              	.LBB1848:
 171:../USER/main_03.c ****   long num = 0; int hd;
 12860              		.loc 1 171 6 is_stmt 1 view .LVU4323
 12861              	.LBB1642:
 172:../USER/main_03.c ****   if(**buf==0x0d) return -1;
 12862              		.loc 1 172 3 view .LVU4324
 172:../USER/main_03.c ****   if(**buf==0x0d) return -1;
 12863              		.loc 1 172 17 view .LVU4325
 173:../USER/main_03.c ****   while(**buf==' ') (*buf)++; /* spip sp*/
 12864              		.loc 1 173 3 view .LVU4326
 12865              	.LBE1642:
 12866              	.LBE1848:
 12867              	.LBB1849:
 12868              	.LBB1724:
 173:../USER/main_03.c ****   while(**buf==' ') (*buf)++; /* spip sp*/
 12869              		.loc 1 173 26 is_stmt 0 view .LVU4327
 12870 202e 4FF6FF73 		movw	r3, #65535
 12871              	.LBE1724:
 12872              	.LBE1849:
 230:../USER/main_03.c **** 			if(*cbp=='U'){
 12873              		.loc 1 230 12 view .LVU4328
 12874 2032 1E46     		mov	r6, r3
 12875 2034 0EE6     		b	.L516
 12876              	.LVL958:
 12877              	.L955:
 12878              	.LBB1850:
 12879              	.LBB1631:
 173:../USER/main_03.c ****   while(**buf==' ') (*buf)++; /* spip sp*/
 12880              		.loc 1 173 5 view .LVU4329
 12881 2036 4FF6FF75 		movw	r5, #65535
 12882              	.LBE1631:
 12883              	.LBE1850:
 12884              	.LBB1851:
 12885              	.LBB1725:
 173:../USER/main_03.c ****   while(**buf==' ') (*buf)++; /* spip sp*/
 12886              		.loc 1 173 26 view .LVU4330
 12887 203a 4FF6FF73 		movw	r3, #65535
 12888              	.LBE1725:
 12889              	.LBE1851:
 230:../USER/main_03.c **** 			if(*cbp=='U'){
 12890              		.loc 1 230 12 view .LVU4331
 12891 203e 2C46     		mov	r4, r5
 12892              	.LVL959:
 12893              	.LBB1852:
 171:../USER/main_03.c ****   long num = 0; int hd;
 12894              		.loc 1 171 6 is_stmt 1 view .LVU4332
 12895              	.LBB1643:
 172:../USER/main_03.c ****   if(**buf==0x0d) return -1;
 12896              		.loc 1 172 3 view .LVU4333
 172:../USER/main_03.c ****   if(**buf==0x0d) return -1;
 12897              		.loc 1 172 17 view .LVU4334
 173:../USER/main_03.c ****   while(**buf==' ') (*buf)++; /* spip sp*/
 12898              		.loc 1 173 3 view .LVU4335
 12899              	.LBE1643:
 12900              	.LBE1852:
 230:../USER/main_03.c **** 			if(*cbp=='U'){
 12901              		.loc 1 230 12 is_stmt 0 view .LVU4336
 12902 2040 1E46     		mov	r6, r3
 12903 2042 07E6     		b	.L516
 12904              	.LVL960:
 12905              	.L960:
 12906              	.LBB1853:
 12907              	.LBB986:
 173:../USER/main_03.c ****   while(**buf==' ') (*buf)++; /* spip sp*/
 12908              		.loc 1 173 5 view .LVU4337
 12909 2044 4FF0FF31 		mov	r1, #-1
 12910 2048 FEF7C1B9 		b	.L519
 12911              	.LVL961:
 12912              	.L947:
 173:../USER/main_03.c ****   while(**buf==' ') (*buf)++; /* spip sp*/
 12913              		.loc 1 173 5 view .LVU4338
 12914              	.LBE986:
 12915              	.LBE1853:
 224:../USER/main_03.c **** 			if(*cbp=='M'){
 12916              		.loc 1 224 12 view .LVU4339
 12917 204c 4FF6FF74 		movw	r4, #65535
 12918              	.LVL962:
 12919              	.L507:
 12920              	.LBB1854:
 171:../USER/main_03.c ****   long num = 0; int hd;
 12921              		.loc 1 171 6 is_stmt 1 view .LVU4340
 12922              	.LBB1679:
 172:../USER/main_03.c ****   if(**buf==0x0d) return -1;
 12923              		.loc 1 172 3 view .LVU4341
 172:../USER/main_03.c ****   if(**buf==0x0d) return -1;
 12924              		.loc 1 172 17 view .LVU4342
 173:../USER/main_03.c ****   while(**buf==' ') (*buf)++; /* spip sp*/
 12925              		.loc 1 173 3 view .LVU4343
 12926              	.LBE1679:
 12927              	.LBE1854:
 224:../USER/main_03.c **** 			if(*cbp=='M'){
 12928              		.loc 1 224 12 is_stmt 0 view .LVU4344
 12929 2050 4FF6FF76 		movw	r6, #65535
 12930              	.LVL963:
 12931              	.L508:
 12932              	.LBB1855:
 171:../USER/main_03.c ****   long num = 0; int hd;
 12933              		.loc 1 171 6 is_stmt 1 view .LVU4345
 12934              	.LBB1685:
 172:../USER/main_03.c ****   if(**buf==0x0d) return -1;
 12935              		.loc 1 172 3 view .LVU4346
 172:../USER/main_03.c ****   if(**buf==0x0d) return -1;
 12936              		.loc 1 172 17 view .LVU4347
 173:../USER/main_03.c ****   while(**buf==' ') (*buf)++; /* spip sp*/
 12937              		.loc 1 173 3 view .LVU4348
 12938              	.LBE1685:
 12939              	.LBE1855:
 12940              	.LBB1856:
 12941              	.LBB1822:
 173:../USER/main_03.c ****   while(**buf==' ') (*buf)++; /* spip sp*/
 12942              		.loc 1 173 5 is_stmt 0 view .LVU4349
 12943 2054 4FF6FF70 		movw	r0, #65535
 12944              	.LBE1822:
 12945              	.LBE1856:
 224:../USER/main_03.c **** 			if(*cbp=='M'){
 12946              		.loc 1 224 12 view .LVU4350
 12947 2058 8346     		mov	fp, r0
 12948 205a 63E6     		b	.L509
 12949              	.LVL964:
 12950              	.L946:
 12951              	.LBB1857:
 12952              	.LBB1668:
 173:../USER/main_03.c ****   while(**buf==' ') (*buf)++; /* spip sp*/
 12953              		.loc 1 173 5 view .LVU4351
 12954 205c 4FF6FF75 		movw	r5, #65535
 12955              	.LBE1668:
 12956              	.LBE1857:
 224:../USER/main_03.c **** 			if(*cbp=='M'){
 12957              		.loc 1 224 12 view .LVU4352
 12958 2060 4FF6FF76 		movw	r6, #65535
 12959 2064 2C46     		mov	r4, r5
 12960              	.LVL965:
 12961              	.LBB1858:
 171:../USER/main_03.c ****   long num = 0; int hd;
 12962              		.loc 1 171 6 is_stmt 1 view .LVU4353
 12963              	.LBB1680:
 172:../USER/main_03.c ****   if(**buf==0x0d) return -1;
 12964              		.loc 1 172 3 view .LVU4354
 172:../USER/main_03.c ****   if(**buf==0x0d) return -1;
 12965              		.loc 1 172 17 view .LVU4355
 173:../USER/main_03.c ****   while(**buf==' ') (*buf)++; /* spip sp*/
 12966              		.loc 1 173 3 view .LVU4356
 12967 2066 F5E7     		b	.L508
 12968              	.LVL966:
 12969              	.L938:
 173:../USER/main_03.c ****   while(**buf==' ') (*buf)++; /* spip sp*/
 12970              		.loc 1 173 3 is_stmt 0 view .LVU4357
 12971              	.LBE1680:
 12972              	.LBE1858:
 12973              	.LBB1859:
 12974              	.LBB1774:
 173:../USER/main_03.c ****   while(**buf==' ') (*buf)++; /* spip sp*/
 12975              		.loc 1 173 26 view .LVU4358
 12976 2068 4FF0FF34 		mov	r4, #-1
 12977              	.LVL967:
 12978              	.L494:
 173:../USER/main_03.c ****   while(**buf==' ') (*buf)++; /* spip sp*/
 12979              		.loc 1 173 26 view .LVU4359
 12980              	.LBE1774:
 12981              	.LBE1859:
 12982              	.LBB1860:
 171:../USER/main_03.c ****   long num = 0; int hd;
 12983              		.loc 1 171 6 is_stmt 1 view .LVU4360
 12984              	.LBB1788:
 172:../USER/main_03.c ****   if(**buf==0x0d) return -1;
 12985              		.loc 1 172 3 view .LVU4361
 172:../USER/main_03.c ****   if(**buf==0x0d) return -1;
 12986              		.loc 1 172 17 view .LVU4362
 173:../USER/main_03.c ****   while(**buf==' ') (*buf)++; /* spip sp*/
 12987              		.loc 1 173 3 view .LVU4363
 12988              	.LBE1788:
 12989              	.LBE1860:
 12990              	.LBB1861:
 12991              	.LBB1740:
 173:../USER/main_03.c ****   while(**buf==' ') (*buf)++; /* spip sp*/
 12992              		.loc 1 173 26 is_stmt 0 view .LVU4364
 12993 206c 4FF0FF36 		mov	r6, #-1
 12994              	.LVL968:
 12995              	.L495:
 173:../USER/main_03.c ****   while(**buf==' ') (*buf)++; /* spip sp*/
 12996              		.loc 1 173 26 view .LVU4365
 12997              	.LBE1740:
 12998              	.LBE1861:
 12999              	.LBB1862:
 171:../USER/main_03.c ****   long num = 0; int hd;
 13000              		.loc 1 171 6 is_stmt 1 view .LVU4366
 13001              	.LBB1796:
 172:../USER/main_03.c ****   if(**buf==0x0d) return -1;
 13002              		.loc 1 172 3 view .LVU4367
 172:../USER/main_03.c ****   if(**buf==0x0d) return -1;
 13003              		.loc 1 172 17 view .LVU4368
 173:../USER/main_03.c ****   while(**buf==' ') (*buf)++; /* spip sp*/
 13004              		.loc 1 173 3 view .LVU4369
 13005              	.LBE1796:
 13006              	.LBE1862:
 13007              	.LBB1863:
 13008              	.LBB1741:
 173:../USER/main_03.c ****   while(**buf==' ') (*buf)++; /* spip sp*/
 13009              		.loc 1 173 26 is_stmt 0 view .LVU4370
 13010 2070 4FF0FF3B 		mov	fp, #-1
 13011              	.L496:
 13012              	.LVL969:
 173:../USER/main_03.c ****   while(**buf==' ') (*buf)++; /* spip sp*/
 13013              		.loc 1 173 26 view .LVU4371
 13014              	.LBE1741:
 13015              	.LBE1863:
 13016              	.LBB1864:
 171:../USER/main_03.c ****   long num = 0; int hd;
 13017              		.loc 1 171 6 is_stmt 1 view .LVU4372
 13018              	.LBB1803:
 172:../USER/main_03.c ****   if(**buf==0x0d) return -1;
 13019              		.loc 1 172 3 view .LVU4373
 172:../USER/main_03.c ****   if(**buf==0x0d) return -1;
 13020              		.loc 1 172 17 view .LVU4374
 173:../USER/main_03.c ****   while(**buf==' ') (*buf)++; /* spip sp*/
 13021              		.loc 1 173 3 view .LVU4375
 13022              	.LBE1803:
 13023              	.LBE1864:
 13024 2074 4FF0FF33 		mov	r3, #-1
 13025              	.LBB1865:
 13026              	.LBB1804:
 173:../USER/main_03.c ****   while(**buf==' ') (*buf)++; /* spip sp*/
 13027              		.loc 1 173 26 is_stmt 0 view .LVU4376
 13028 2078 1846     		mov	r0, r3
 13029 207a 33E7     		b	.L497
 13030              	.LVL970:
 13031              	.L937:
 173:../USER/main_03.c ****   while(**buf==' ') (*buf)++; /* spip sp*/
 13032              		.loc 1 173 26 view .LVU4377
 13033              	.LBE1804:
 13034              	.LBE1865:
 13035              	.LBB1866:
 13036              	.LBB1769:
 13037 207c 4FF0FF35 		mov	r5, #-1
 13038              	.LBE1769:
 13039              	.LBE1866:
 13040              	.LBB1867:
 13041              	.LBB1742:
 13042 2080 4FF0FF36 		mov	r6, #-1
 13043              	.LVL971:
 173:../USER/main_03.c ****   while(**buf==' ') (*buf)++; /* spip sp*/
 13044              		.loc 1 173 26 view .LVU4378
 13045              	.LBE1742:
 13046              	.LBE1867:
 13047              	.LBB1868:
 13048              	.LBB1775:
 13049 2084 2C46     		mov	r4, r5
 13050              	.LVL972:
 173:../USER/main_03.c ****   while(**buf==' ') (*buf)++; /* spip sp*/
 13051              		.loc 1 173 26 view .LVU4379
 13052              	.LBE1775:
 13053              	.LBE1868:
 13054              	.LBB1869:
 171:../USER/main_03.c ****   long num = 0; int hd;
 13055              		.loc 1 171 6 is_stmt 1 view .LVU4380
 13056              	.LBB1789:
 172:../USER/main_03.c ****   if(**buf==0x0d) return -1;
 13057              		.loc 1 172 3 view .LVU4381
 172:../USER/main_03.c ****   if(**buf==0x0d) return -1;
 13058              		.loc 1 172 17 view .LVU4382
 173:../USER/main_03.c ****   while(**buf==' ') (*buf)++; /* spip sp*/
 13059              		.loc 1 173 3 view .LVU4383
 13060 2086 F3E7     		b	.L495
 13061              	.LVL973:
 13062              	.L963:
 173:../USER/main_03.c ****   while(**buf==' ') (*buf)++; /* spip sp*/
 13063              		.loc 1 173 3 is_stmt 0 view .LVU4384
 13064              	.LBE1789:
 13065              	.LBE1869:
 13066              	.LBB1870:
 13067              	.LBB1601:
 173:../USER/main_03.c ****   while(**buf==' ') (*buf)++; /* spip sp*/
 13068              		.loc 1 173 26 view .LVU4385
 13069 2088 4FF0FF31 		mov	r1, #-1
 13070 208c 40E5     		b	.L542
 13071              	.LVL974:
 13072              	.L948:
 173:../USER/main_03.c ****   while(**buf==' ') (*buf)++; /* spip sp*/
 13073              		.loc 1 173 26 view .LVU4386
 13074              	.LBE1601:
 13075              	.LBE1870:
 13076              	.LBB1871:
 13077              	.LBB1686:
 173:../USER/main_03.c ****   while(**buf==' ') (*buf)++; /* spip sp*/
 13078              		.loc 1 173 5 view .LVU4387
 13079 208e 4FF6FF70 		movw	r0, #65535
 13080 2092 47E6     		b	.L509
 13081              	.LVL975:
 13082              	.L939:
 173:../USER/main_03.c ****   while(**buf==' ') (*buf)++; /* spip sp*/
 13083              		.loc 1 173 5 view .LVU4388
 13084              	.LBE1686:
 13085              	.LBE1871:
 13086              	.LBB1872:
 13087              	.LBB1805:
 173:../USER/main_03.c ****   while(**buf==' ') (*buf)++; /* spip sp*/
 13088              		.loc 1 173 26 view .LVU4389
 13089 2094 4FF0FF30 		mov	r0, #-1
 13090 2098 24E7     		b	.L497
 13091              	.LVL976:
 13092              	.L954:
 173:../USER/main_03.c ****   while(**buf==' ') (*buf)++; /* spip sp*/
 13093              		.loc 1 173 26 view .LVU4390
 13094              	.LBE1805:
 13095              	.LBE1872:
 13096              	.LBB1873:
 13097              	.LBB1726:
 13098 209a 4FF0FF32 		mov	r2, #-1
 13099 209e 97E6     		b	.L513
 13100              	.LVL977:
 13101              	.L953:
 173:../USER/main_03.c ****   while(**buf==' ') (*buf)++; /* spip sp*/
 13102              		.loc 1 173 26 view .LVU4391
 13103              	.LBE1726:
 13104              	.LBE1873:
 13105              	.LBB1874:
 13106              	.LBB1717:
 13107 20a0 4FF0FF35 		mov	r5, #-1
 13108              	.LBE1717:
 13109              	.LBE1874:
 13110              	.LBB1875:
 13111              	.LBB1727:
 13112 20a4 2A46     		mov	r2, r5
 13113 20a6 93E6     		b	.L513
 13114              	.LVL978:
 13115              	.L951:
 173:../USER/main_03.c ****   while(**buf==' ') (*buf)++; /* spip sp*/
 13116              		.loc 1 173 26 view .LVU4392
 13117              	.LBE1727:
 13118              	.LBE1875:
 13119              	.LBB1876:
 13120              	.LBB1704:
 13121 20a8 4FF0FF32 		mov	r2, #-1
 13122 20ac 66E6     		b	.L511
 13123              	.LVL979:
 13124              	.L950:
 173:../USER/main_03.c ****   while(**buf==' ') (*buf)++; /* spip sp*/
 13125              		.loc 1 173 26 view .LVU4393
 13126              	.LBE1704:
 13127              	.LBE1876:
 13128              	.LBB1877:
 13129              	.LBB1697:
 13130 20ae 4FF0FF35 		mov	r5, #-1
 13131              	.LBE1697:
 13132              	.LBE1877:
 13133              	.LBB1878:
 13134              	.LBB1705:
 13135 20b2 2A46     		mov	r2, r5
 13136 20b4 62E6     		b	.L511
 13137              	.LVL980:
 13138              	.L942:
 173:../USER/main_03.c ****   while(**buf==' ') (*buf)++; /* spip sp*/
 13139              		.loc 1 173 26 view .LVU4394
 13140              	.LBE1705:
 13141              	.LBE1878:
 13142              	.LBB1879:
 13143              	.LBB1763:
 13144 20b6 4FF0FF30 		mov	r0, #-1
 13145 20ba C9E6     		b	.L501
 13146              	.LVL981:
 13147              	.L945:
 173:../USER/main_03.c ****   while(**buf==' ') (*buf)++; /* spip sp*/
 13148              		.loc 1 173 26 view .LVU4395
 13149              	.LBE1763:
 13150              	.LBE1879:
 13151              	.LBB1880:
 13152              	.LBB1662:
 13153 20bc 4FF0FF32 		mov	r2, #-1
 13154 20c0 F1E5     		b	.L504
 13155              	.LVL982:
 13156              	.L944:
 173:../USER/main_03.c ****   while(**buf==' ') (*buf)++; /* spip sp*/
 13157              		.loc 1 173 26 view .LVU4396
 13158              	.LBE1662:
 13159              	.LBE1880:
 13160              	.LBB1881:
 13161              	.LBB1655:
 13162 20c2 4FF0FF35 		mov	r5, #-1
 13163              	.LBE1655:
 13164              	.LBE1881:
 13165              	.LBB1882:
 13166              	.LBB1663:
 13167 20c6 2A46     		mov	r2, r5
 13168 20c8 EDE5     		b	.L504
 13169              	.LVL983:
 13170              	.L957:
 173:../USER/main_03.c ****   while(**buf==' ') (*buf)++; /* spip sp*/
 13171              		.loc 1 173 26 view .LVU4397
 13172              	.LBE1663:
 13173              	.LBE1882:
 13174              	.LBB1883:
 13175              	.LBB1644:
 173:../USER/main_03.c ****   while(**buf==' ') (*buf)++; /* spip sp*/
 13176              		.loc 1 173 5 view .LVU4398
 13177 20ca 4FF6FF73 		movw	r3, #65535
 13178 20ce C1E5     		b	.L516
 13179              	.LVL984:
 13180              	.L959:
 173:../USER/main_03.c ****   while(**buf==' ') (*buf)++; /* spip sp*/
 13181              		.loc 1 173 5 view .LVU4399
 13182              	.LBE1644:
 13183              	.LBE1883:
 13184              	.LBB1884:
 13185              	.LBB1626:
 173:../USER/main_03.c ****   while(**buf==' ') (*buf)++; /* spip sp*/
 13186              		.loc 1 173 26 view .LVU4400
 13187 20d0 4FF0FF31 		mov	r1, #-1
 13188 20d4 8DE5     		b	.L518
 13189              	.L1236:
 13190 20d6 00BF     		.align	2
 13191              	.L1235:
 13192 20d8 23000000 		.word	wddt+35
 13193              	.LBE1626:
 13194              	.LBE1884:
 13195              		.cfi_endproc
 13196              	.LFE52:
 13198              		.global	kinbrp
 13199              		.global	kinbwp
 13200              		.comm	kinbuf,256,4
 13201              		.comm	mdgpio,4,4
 13202              		.section	.bss.kinbrp,"aw",%nobits
 13203              		.align	2
 13204              		.set	.LANCHOR1,. + 0
 13207              	kinbrp:
 13208 0000 00000000 		.space	4
 13209              		.section	.bss.kinbwp,"aw",%nobits
 13210              		.align	2
 13211              		.set	.LANCHOR0,. + 0
 13214              	kinbwp:
 13215 0000 00000000 		.space	4
 13216              		.section	.rodata.main.str1.4,"aMS",%progbits,1
 13217              		.align	2
 13218              	.LC1:
 13219 0000 0D0A4D6F 		.ascii	"\015\012Mon_TN4K\000"
 13219      6E5F544E 
 13219      344B00
 13220 000b 00       		.space	1
 13221              	.LC2:
 13222 000c 0D0A3E00 		.ascii	"\015\012>\000"
 13223              	.LC3:
 13224 0010 3F3F00   		.ascii	"??\000"
 13225              		.section	.rodata.putadrhd.str1.4,"aMS",%progbits,1
 13226              		.align	2
 13227              	.LC0:
 13228 0000 0D0A00   		.ascii	"\015\012\000"
 13229              		.text
 13230              	.Letext0:
 13231              		.file 2 "c:\\app\\gowin\\gmd\\toolchain\\arm_toolchain\\arm-none-eabi\\include\\machine\\_default_
 13232              		.file 3 "c:\\app\\gowin\\gmd\\toolchain\\arm_toolchain\\arm-none-eabi\\include\\sys\\_stdint.h"
 13233              		.file 4 "C:\\kitaprg\\GMD_RefDesign\\cm3_mon\\CORE/core_cm3.h"
 13234              		.file 5 "C:\\kitaprg\\GMD_RefDesign\\cm3_mon\\SYSTEM/system_gw1ns4c.h"
 13235              		.file 6 "C:\\kitaprg\\GMD_RefDesign\\cm3_mon\\SYSTEM/gw1ns4c.h"
 13236              		.file 7 "C:\\kitaprg\\GMD_RefDesign\\cm3_mon\\PERIPHERAL\\Includes/gw1ns4c_gpio.h"
 13237              		.file 8 "C:\\kitaprg\\GMD_RefDesign\\cm3_mon\\PERIPHERAL\\Includes/gw1ns4c_uart.h"
 13238              		.file 9 "C:\\kitaprg\\GMD_RefDesign\\cm3_mon\\PERIPHERAL\\Includes/gw1ns4c_spi.h"
 13239              		.file 10 "c:\\app\\gowin\\gmd\\toolchain\\arm_toolchain\\lib\\gcc\\arm-none-eabi\\8.3.1\\include\\
 13240              		.file 11 "c:\\app\\gowin\\gmd\\toolchain\\arm_toolchain\\arm-none-eabi\\include\\sys\\_types.h"
 13241              		.file 12 "c:\\app\\gowin\\gmd\\toolchain\\arm_toolchain\\arm-none-eabi\\include\\sys\\reent.h"
 13242              		.file 13 "c:\\app\\gowin\\gmd\\toolchain\\arm_toolchain\\arm-none-eabi\\include\\sys\\lock.h"
 13243              		.file 14 "c:\\app\\gowin\\gmd\\toolchain\\arm_toolchain\\arm-none-eabi\\include\\stdlib.h"
DEFINED SYMBOLS
                            *ABS*:00000000 main_03.c
d:\wintmp\cc2lCtUP.s:16     .text.getsh.part.0:00000000 $t
d:\wintmp\cc2lCtUP.s:24     .text.getsh.part.0:00000000 getsh.part.0
d:\wintmp\cc2lCtUP.s:145    .text.GPIOInit:00000000 $t
d:\wintmp\cc2lCtUP.s:153    .text.GPIOInit:00000000 GPIOInit
d:\wintmp\cc2lCtUP.s:205    .text.GPIOInit:00000024 $d
d:\wintmp\cc2lCtUP.s:210    .text.UartInit:00000000 $t
d:\wintmp\cc2lCtUP.s:218    .text.UartInit:00000000 UartInit
d:\wintmp\cc2lCtUP.s:268    .text.SPIInit:00000000 $t
d:\wintmp\cc2lCtUP.s:276    .text.SPIInit:00000000 SPIInit
d:\wintmp\cc2lCtUP.s:311    .text.delay_ms:00000000 $t
d:\wintmp\cc2lCtUP.s:319    .text.delay_ms:00000000 delay_ms
d:\wintmp\cc2lCtUP.s:369    .text.delay_ms:00000028 $d
d:\wintmp\cc2lCtUP.s:374    .text.check_gpio:00000000 $t
d:\wintmp\cc2lCtUP.s:382    .text.check_gpio:00000000 check_gpio
d:\wintmp\cc2lCtUP.s:488    .text.check_gpio:00000054 $d
                            *COM*:00000004 mdgpio
d:\wintmp\cc2lCtUP.s:495    .text.setsup:00000000 $t
d:\wintmp\cc2lCtUP.s:503    .text.setsup:00000000 setsup
d:\wintmp\cc2lCtUP.s:556    .text.key_check:00000000 $t
d:\wintmp\cc2lCtUP.s:564    .text.key_check:00000000 key_check
d:\wintmp\cc2lCtUP.s:647    .text.key_check:00000044 $d
                            *COM*:00000100 kinbuf
d:\wintmp\cc2lCtUP.s:653    .text.getch_uart:00000000 $t
d:\wintmp\cc2lCtUP.s:661    .text.getch_uart:00000000 getch_uart
d:\wintmp\cc2lCtUP.s:816    .text.getch_uart:00000080 $d
d:\wintmp\cc2lCtUP.s:823    .text.putch_uart:00000000 $t
d:\wintmp\cc2lCtUP.s:831    .text.putch_uart:00000000 putch_uart
d:\wintmp\cc2lCtUP.s:1081   .text.putch_uart:000000cc $d
d:\wintmp\cc2lCtUP.s:1089   .text.puth:00000000 $t
d:\wintmp\cc2lCtUP.s:1097   .text.puth:00000000 puth
d:\wintmp\cc2lCtUP.s:1131   .text.puth2:00000000 $t
d:\wintmp\cc2lCtUP.s:1139   .text.puth2:00000000 puth2
d:\wintmp\cc2lCtUP.s:1235   .text.puth4:00000000 $t
d:\wintmp\cc2lCtUP.s:1243   .text.puth4:00000000 puth4
d:\wintmp\cc2lCtUP.s:1424   .text.puth6:00000000 $t
d:\wintmp\cc2lCtUP.s:1432   .text.puth6:00000000 puth6
d:\wintmp\cc2lCtUP.s:1716   .text.puth8:00000000 $t
d:\wintmp\cc2lCtUP.s:1724   .text.puth8:00000000 puth8
d:\wintmp\cc2lCtUP.s:2097   .text.putsuart:00000000 $t
d:\wintmp\cc2lCtUP.s:2105   .text.putsuart:00000000 putsuart
d:\wintmp\cc2lCtUP.s:2148   .text.getsuart:00000000 $t
d:\wintmp\cc2lCtUP.s:2156   .text.getsuart:00000000 getsuart
d:\wintmp\cc2lCtUP.s:2377   .text.getsuart:000000ac $d
d:\wintmp\cc2lCtUP.s:2384   .text.ishex:00000000 $t
d:\wintmp\cc2lCtUP.s:2392   .text.ishex:00000000 ishex
d:\wintmp\cc2lCtUP.s:2437   .text.getssu:00000000 $t
d:\wintmp\cc2lCtUP.s:2445   .text.getssu:00000000 getssu
d:\wintmp\cc2lCtUP.s:2736   .text.getssu:000000e8 $d
d:\wintmp\cc2lCtUP.s:2743   .text.putadrhd:00000000 $t
d:\wintmp\cc2lCtUP.s:2751   .text.putadrhd:00000000 putadrhd
d:\wintmp\cc2lCtUP.s:3136   .text.putadrhd:000000b8 $d
d:\wintmp\cc2lCtUP.s:3141   .text.getsh:00000000 $t
d:\wintmp\cc2lCtUP.s:3149   .text.getsh:00000000 getsh
d:\wintmp\cc2lCtUP.s:3291   .text.startup.main:00000000 $t
d:\wintmp\cc2lCtUP.s:3299   .text.startup.main:00000000 main
d:\wintmp\cc2lCtUP.s:4087   .text.startup.main:000002ac $d
d:\wintmp\cc2lCtUP.s:4110   .text.startup.main:000002d8 $t
d:\wintmp\cc2lCtUP.s:4152   .text.startup.main:00000300 $d
d:\wintmp\cc2lCtUP.s:4162   .text.startup.main:0000031c $t
d:\wintmp\cc2lCtUP.s:5202   .text.startup.main:000006c8 $d
d:\wintmp\cc2lCtUP.s:5208   .text.startup.main:000006d4 $t
d:\wintmp\cc2lCtUP.s:6407   .text.startup.main:00000a54 $d
d:\wintmp\cc2lCtUP.s:6411   .text.startup.main:00000a58 $t
d:\wintmp\cc2lCtUP.s:7474   .text.startup.main:00000e4c $d
d:\wintmp\cc2lCtUP.s:7478   .text.startup.main:00000e50 $t
d:\wintmp\cc2lCtUP.s:8759   .text.startup.main:000012d8 $d
d:\wintmp\cc2lCtUP.s:8763   .text.startup.main:000012dc $t
d:\wintmp\cc2lCtUP.s:9717   .text.startup.main:00001650 $d
d:\wintmp\cc2lCtUP.s:9722   .text.startup.main:00001658 $t
d:\wintmp\cc2lCtUP.s:10673  .text.startup.main:00001998 $d
d:\wintmp\cc2lCtUP.s:10694  .text.startup.main:000019a0 $t
d:\wintmp\cc2lCtUP.s:12050  .text.startup.main:00001de4 $d
d:\wintmp\cc2lCtUP.s:12056  .text.startup.main:00001dec $t
d:\wintmp\cc2lCtUP.s:13192  .text.startup.main:000020d8 $d
d:\wintmp\cc2lCtUP.s:13207  .bss.kinbrp:00000000 kinbrp
d:\wintmp\cc2lCtUP.s:13214  .bss.kinbwp:00000000 kinbwp
d:\wintmp\cc2lCtUP.s:13203  .bss.kinbrp:00000000 $d
d:\wintmp\cc2lCtUP.s:13210  .bss.kinbwp:00000000 $d
d:\wintmp\cc2lCtUP.s:13217  .rodata.main.str1.4:00000000 $d
d:\wintmp\cc2lCtUP.s:13226  .rodata.putadrhd.str1.4:00000000 $d
                           .group:00000000 wm4.0.881e6aea30f26d002fa34da4862e4bcf
                           .group:00000000 wm4.gw1ns4c.h.42.b574272a1988cda7506b1103a6ee000e
                           .group:00000000 wm4.core_cm3.h.25.d35e9a9b04ec4aaebae9bf79fff061f9
                           .group:00000000 wm4._newlib_version.h.4.9ba035841e762c3308916a0ce96032e7
                           .group:00000000 wm4.features.h.33.318b64d71e0957639cfb30f1db1f7ec8
                           .group:00000000 wm4._default_types.h.15.247e5cd201eca3442cbf5404108c4935
                           .group:00000000 wm4._intsup.h.10.48bafbb683905c4daa4565a85aeeb264
                           .group:00000000 wm4._stdint.h.10.c24fa3af3bc1706662bb5593a907e841
                           .group:00000000 wm4.stdint.h.23.d53047a68f4a85177f80b422d52785ed
                           .group:00000000 wm4.core_cm3.h.113.418486a6827cd861c086288012ae5e2b
                           .group:00000000 wm4.gw1ns4c.h.318.1c2396dae4397f7395410f9554aa71af
                           .group:00000000 wm4.gw1ns4c_gpio.h.80.0c581660eee051be7914b6ea1f39cc1a
                           .group:00000000 wm4.gw1ns4c_wdog.h.16.8a3a0f1d8c60adc0580b7852c78f55c8
                           .group:00000000 wm4.gw1ns4c_uart.h.16.3be05e6b03c62d460c8c05b141d1c023
                           .group:00000000 wm4.gw1ns4c_timer.h.16.f5209a1e64a528f95e8d85c71081528f
                           .group:00000000 wm4.gw1ns4c_spi.h.16.810014cb7f012daf88d29d7d2b7aba9e
                           .group:00000000 wm4.gw1ns4c_i2c.h.16.05421c18011a5a09c18d5f4cc6da69a8
                           .group:00000000 wm4.gw1ns4c_misc.h.16.65dc2339a60ecdd9b90897e72d3b061a
                           .group:00000000 wm4.gw1ns4c_syscon.h.16.40f8fc44d5bd6529877ce8d20de4e3a1
                           .group:00000000 wm4.newlib.h.8.f6e543eac3f2f65163ba2ffe3b04987b
                           .group:00000000 wm4.ieeefp.h.77.5499ed899a78229fbaf6d102924f4714
                           .group:00000000 wm4.config.h.224.c701144a7b0518c6ee9b9b5465b79f81
                           .group:00000000 wm4._ansi.h.31.de524f58584151836e90d8620a16f8e8
                           .group:00000000 wm4.stdio.h.31.7c0e28c411445f3f9c5b11accf882760
                           .group:00000000 wm4.stddef.h.187.2ff233552538c6ff9b8575ca8ea52cb3
                           .group:00000000 wm4.cdefs.h.49.6260d97adb8d27534cbdc0f868b8ea87
                           .group:00000000 wm4.stddef.h.39.ec95e8feac892e292b69dc7ae75b0d64
                           .group:00000000 wm4.stdarg.h.34.3a23a216c0c293b3d2ea2e89281481e6
                           .group:00000000 wm4._types.h.20.dd0d04dca3800a0d2a6129b87f3adbb2
                           .group:00000000 wm4.stddef.h.161.5349cb105733e8777bfb0cf53c4e3f34
                           .group:00000000 wm4._types.h.127.34941de1b2539d59d5cac00e0dd27a45
                           .group:00000000 wm4.reent.h.17.e292bf8b0bec6c96e131a54347145a30
                           .group:00000000 wm4.lock.h.2.1461d1fff82dffe8bfddc23307f6484f
                           .group:00000000 wm4.reent.h.77.dcd6129ff07fe81bd5636db29abe53b2
                           .group:00000000 wm4.types.h.40.8b6acba56cefbb11746718204edc8f5e
                           .group:00000000 wm4._endian.h.31.65a10590763c3dde1ac4a7f66d7d4891
                           .group:00000000 wm4.endian.h.9.49f3a4695c1b61e8a0808de3c4a106cb
                           .group:00000000 wm4._timeval.h.30.0e8bfd94e85db17dda3286ee81496fe6
                           .group:00000000 wm4.timespec.h.41.d855182eb0e690443ab8651bcedca6e1
                           .group:00000000 wm4.select.h.19.97ca6fd0c752a0f3b6719fd314d361e6
                           .group:00000000 wm4.types.h.51.5571ec98f267d17d3c670b7a3ba33afa
                           .group:00000000 wm4.sched.h.22.c60982713a5c428609783c78f9c78d95
                           .group:00000000 wm4._pthreadtypes.h.36.fcee9961c35163dde6267ef772ad1972
                           .group:00000000 wm4.stdio.h.2.4aa87247282eca6c8f36f9de33d8df1a
                           .group:00000000 wm4.stdio.h.81.932d0c162786b883f622b8d05c120c78
                           .group:00000000 wm4.stdlib.h.13.4ed386f5c1a80d71e72172885d946ef2
                           .group:00000000 wm4.stddef.h.161.19e15733342b50ead2919490b095303e
                           .group:00000000 wm4.alloca.h.8.dfc0c703c47ec3e69746825b17d9e66d
                           .group:00000000 wm4.stdlib.h.56.f4862cfbf4363a1db01842d5bdf72c18
                           .group:00000000 wm4.string.h.8.c4b8571ce60dff2817f43fec8b86aecd

UNDEFINED SYMBOLS
GPIO_Init
GPIO_SetBit
UART_Init
SPI_Init
SystemCoreClock
GPIO_ReadBits
GPIO_WriteBits
SPI_ReadData
SPI_WriteData
disp_vram
UART_SendChar
SystemInit
basic
get_vram
dispscroll
DCircle
move_vram
DLine
pset
wddt
dispfull
set_vramm
