   1              		.cpu cortex-m3
   2              		.eabi_attribute 20, 1
   3              		.eabi_attribute 21, 1
   4              		.eabi_attribute 23, 3
   5              		.eabi_attribute 24, 1
   6              		.eabi_attribute 25, 1
   7              		.eabi_attribute 26, 1
   8              		.eabi_attribute 30, 2
   9              		.eabi_attribute 34, 1
  10              		.eabi_attribute 18, 4
  11              		.file	"main_03.c"
  12              		.text
  13              	.Ltext0:
  14              		.cfi_sections	.debug_frame
  15              		.section	.text.getsh.part.0,"ax",%progbits
  16              		.align	1
  17              		.p2align 2,,3
  18              		.arch armv7-m
  19              		.syntax unified
  20              		.thumb
  21              		.thumb_func
  22              		.fpu softvfp
  24              	getsh.part.0:
  25              	.LVL0:
  26              	.LFB53:
  27              		.file 1 "../USER/main_03.c"
   1:../USER/main_03.c **** 
   2:../USER/main_03.c **** /*
   3:../USER/main_03.c ****  * *****************************************************************************************
   4:../USER/main_03.c ****  *
   5:../USER/main_03.c ****  * 		Copyright (C) 2014-2021 Gowin Semiconductor Technology Co.,Ltd.
   6:../USER/main_03.c ****  * 		
   7:../USER/main_03.c ****  * @file			main.c
   8:../USER/main_03.c ****  * @author		Embedded Development Team
   9:../USER/main_03.c ****  * @version		V1.x.x
  10:../USER/main_03.c ****  * @date			2021-01-01 09:00:00
  11:../USER/main_03.c ****  * @brief			Main program body.
  12:../USER/main_03.c ****  ******************************************************************************************
  13:../USER/main_03.c ****  */
  14:../USER/main_03.c **** 
  15:../USER/main_03.c **** /* Includes ------------------------------------------------------------------*/
  16:../USER/main_03.c **** #include "gw1ns4c.h"
  17:../USER/main_03.c **** //#include "GOWIN_M3.h"
  18:../USER/main_03.c **** #include "gw1ns4c_uart.h"
  19:../USER/main_03.c **** 
  20:../USER/main_03.c **** #include <stdio.h>
  21:../USER/main_03.c **** #include <stdlib.h>
  22:../USER/main_03.c **** #include <string.h>
  23:../USER/main_03.c **** /* Declarations ------------------------------------------------------------------*/
  24:../USER/main_03.c **** void delay_ms(__IO uint32_t delay_ms);
  25:../USER/main_03.c **** void GPIOInit(uint32_t pin);
  26:../USER/main_03.c **** void UartInit(void);
  27:../USER/main_03.c **** //
  28:../USER/main_03.c **** void get_vram(int adry, int adrx);
  29:../USER/main_03.c **** void set_vram(int adry, int adrx);
  30:../USER/main_03.c **** void set_char(int adry, int adrx, int ptn, int ccd);
  31:../USER/main_03.c **** void set_vramm(int adry, int adrx, int ptn, int mask, int loopy, int loopx);
  32:../USER/main_03.c **** void dispfull(int adry, int adrx, int ptn, int ccd, int len);
  33:../USER/main_03.c **** void move_vram(int sadr, int dadr, int dlen, int mode);
  34:../USER/main_03.c **** void dispscroll(int adry, int adrx);
  35:../USER/main_03.c **** int  disp_vram(char chd);
  36:../USER/main_03.c **** void pset(int xp, int yp, int ptn);
  37:../USER/main_03.c **** void basic();
  38:../USER/main_03.c **** 
  39:../USER/main_03.c **** #define u16 unsigned short
  40:../USER/main_03.c **** void DLine(u16 x1, u16 y1, u16 x2, u16 y2, u16 ptn);
  41:../USER/main_03.c **** void DCircle(u16 x0,u16 y0,u16 r,u16 ptn);
  42:../USER/main_03.c **** 
  43:../USER/main_03.c **** extern unsigned char wddt[];
  44:../USER/main_03.c **** /* Functions ------------------------------------------------------------------*/
  45:../USER/main_03.c **** //Initializes GPIO
  46:../USER/main_03.c **** void GPIOInit(uint32_t pin)
  47:../USER/main_03.c **** {
  48:../USER/main_03.c **** 	GPIO_InitTypeDef GPIO_InitType;
  49:../USER/main_03.c **** 	GPIO_InitType.GPIO_Pin = pin;
  50:../USER/main_03.c **** 	GPIO_InitType.GPIO_Mode = GPIO_Mode_OUT;
  51:../USER/main_03.c **** 	GPIO_InitType.GPIO_Int = GPIO_Int_Disable;
  52:../USER/main_03.c **** 	GPIO_Init(GPIO0,&GPIO_InitType);
  53:../USER/main_03.c ****   GPIO_SetBit(GPIO0,pin);
  54:../USER/main_03.c **** }
  55:../USER/main_03.c **** 
  56:../USER/main_03.c **** void UartInit(void)
  57:../USER/main_03.c **** {
  58:../USER/main_03.c ****   UART_InitTypeDef UART_InitStruct;
  59:../USER/main_03.c **** 
  60:../USER/main_03.c ****   UART_InitStruct.UART_Mode.UARTMode_Tx = ENABLE;
  61:../USER/main_03.c ****   UART_InitStruct.UART_Mode.UARTMode_Rx = ENABLE;
  62:../USER/main_03.c ****   UART_InitStruct.UART_Int.UARTInt_Tx = DISABLE;
  63:../USER/main_03.c ****   UART_InitStruct.UART_Int.UARTInt_Rx = DISABLE;
  64:../USER/main_03.c ****   UART_InitStruct.UART_Ovr.UARTOvr_Tx = DISABLE;
  65:../USER/main_03.c ****   UART_InitStruct.UART_Ovr.UARTOvr_Rx = DISABLE;
  66:../USER/main_03.c ****   UART_InitStruct.UART_Hstm = DISABLE;
  67:../USER/main_03.c ****   UART_InitStruct.UART_BaudRate = 115200*80/72;//Baud Rate
  68:../USER/main_03.c ****   UART_Init(UART0,&UART_InitStruct);
  69:../USER/main_03.c **** }
  70:../USER/main_03.c **** 
  71:../USER/main_03.c **** //Initializes SPI
  72:../USER/main_03.c **** void SPIInit(void)
  73:../USER/main_03.c **** {
  74:../USER/main_03.c **** 	SPI_InitTypeDef init_spi;
  75:../USER/main_03.c ****   init_spi.CLKSEL= CLKSEL_CLK_DIV_4;		//80MHZ / 8
  76:../USER/main_03.c ****   init_spi.DIRECTION = DISABLE;					//MSB First
  77:../USER/main_03.c ****   init_spi.PHASE =DISABLE;							//ENABLE;//posedge
  78:../USER/main_03.c ****   init_spi.POLARITY =DISABLE;						//polarity 0
  79:../USER/main_03.c ****   SPI_Init(&init_spi);
  80:../USER/main_03.c **** }
  81:../USER/main_03.c **** //delay ms
  82:../USER/main_03.c **** void delay_ms(__IO uint32_t delay_ms) {
  83:../USER/main_03.c **** 	for(delay_ms=(SystemCoreClock>>13)*delay_ms; delay_ms != 0; delay_ms--);
  84:../USER/main_03.c **** }
  85:../USER/main_03.c **** 
  86:../USER/main_03.c **** int mdgpio;
  87:../USER/main_03.c **** void check_gpio(){
  88:../USER/main_03.c **** 	int i;
  89:../USER/main_03.c **** 	mdgpio = GPIO_ReadBits(GPIO0);	// ukey2 = bit13
  90:../USER/main_03.c **** 	mdgpio = mdgpio & 0xdfff;		// bit13.clear
  91:../USER/main_03.c **** 	for(i=0;i<2;i++){
  92:../USER/main_03.c **** 		GPIO_WriteBits(GPIO0,0x03); delay_ms(50);
  93:../USER/main_03.c **** 		GPIO_WriteBits(GPIO0,0x00); delay_ms(50);
  94:../USER/main_03.c **** 	}
  95:../USER/main_03.c **** }
  96:../USER/main_03.c **** 
  97:../USER/main_03.c **** #define getch getch_uart
  98:../USER/main_03.c **** #define putch putch_uart
  99:../USER/main_03.c **** #define gets  getsuart
 100:../USER/main_03.c **** #define puts  putsuart
 101:../USER/main_03.c **** void setsup(buf) char *buf;{
 102:../USER/main_03.c ****   while(*buf!=0x0d){
 103:../USER/main_03.c ****    if( *buf>='a' && *buf<='z') *buf = *buf - 0x20;
 104:../USER/main_03.c ****    buf++;
 105:../USER/main_03.c ****   }
 106:../USER/main_03.c **** }
 107:../USER/main_03.c **** char kinbuf[256];
 108:../USER/main_03.c **** int kinbwp =0, kinbrp = 0;
 109:../USER/main_03.c **** void key_check() {
 110:../USER/main_03.c **** 	char ch;
 111:../USER/main_03.c **** 	//
 112:../USER/main_03.c **** 	ch = SPI_ReadData();
 113:../USER/main_03.c **** 	if(ch!=0) kinbuf[kinbwp++] = ch;
 114:../USER/main_03.c **** 	if(kinbwp>=256) kinbwp = 0;
 115:../USER/main_03.c **** 	//
 116:../USER/main_03.c **** 	if((UART0->STATE & UART_STATE_RXBF)) kinbuf[kinbwp++] = UART0->DATA;
 117:../USER/main_03.c **** 	if(kinbwp>=256) kinbwp = 0;
 118:../USER/main_03.c **** 	//
 119:../USER/main_03.c **** }
 120:../USER/main_03.c **** char getch_uart(void){
 121:../USER/main_03.c **** 	char dt;
 122:../USER/main_03.c **** 	while(kinbrp==kinbwp) key_check();
 123:../USER/main_03.c **** 	dt = kinbuf[kinbrp++];
 124:../USER/main_03.c **** 	if(kinbrp>=256) kinbrp = 0;
 125:../USER/main_03.c **** 	return dt;
 126:../USER/main_03.c **** }
 127:../USER/main_03.c **** void putch_uart(char ch){
 128:../USER/main_03.c **** 	volatile uint32_t gpiord;
 129:../USER/main_03.c **** 	if((mdgpio & 0x2000)==0)
 130:../USER/main_03.c **** 		UART_SendChar(UART0,ch);
 131:../USER/main_03.c **** 	else {
 132:../USER/main_03.c **** 		gpiord = 0x4000;
 133:../USER/main_03.c **** 		while((gpiord & 0x4000)!=0) {
 134:../USER/main_03.c **** 			key_check();
 135:../USER/main_03.c **** 			gpiord = GPIO_ReadBits(GPIO0);
 136:../USER/main_03.c **** 		}
 137:../USER/main_03.c **** 		SPI_WriteData(ch);
 138:../USER/main_03.c **** 	}
 139:../USER/main_03.c **** 	//
 140:../USER/main_03.c **** 	int rc;	do{ key_check(); rc = disp_vram(ch); } while(rc!=0);
 141:../USER/main_03.c **** }
 142:../USER/main_03.c **** 
 143:../USER/main_03.c **** void puth(dt) int dt;{ if(dt<10) putch(0x30+dt); else putch(0x37+dt); }
 144:../USER/main_03.c **** void puth2(dt) int dt;{ puth((dt >> 4) & 0xf); puth(dt & 0xf); }
 145:../USER/main_03.c **** void puth4(dt) int dt;{ puth2((dt >> 8) & 0xff); puth2(dt & 0xff); }
 146:../USER/main_03.c **** void puth6(dt) long dt;{ int dh,dl; dh = dt >> 16; dl = dt & 0xffff; puth2(dh); puth4(dl); }
 147:../USER/main_03.c **** void puth8(dt) long dt;{ int dh,dl; dh = dt >> 16; dl = dt & 0xffff; puth4(dh); puth4(dl); }
 148:../USER/main_03.c **** void putsuart(char *buf){
 149:../USER/main_03.c **** 	while(1){
 150:../USER/main_03.c **** 		if(*buf==0) break;
 151:../USER/main_03.c **** 		else        putch(*buf++);
 152:../USER/main_03.c **** 	}
 153:../USER/main_03.c **** }
 154:../USER/main_03.c **** void getsuart(char *buf){
 155:../USER/main_03.c **** 	char ch;
 156:../USER/main_03.c **** 	while(1){
 157:../USER/main_03.c **** 		ch = getch(); putch(ch); *buf++ = ch;
 158:../USER/main_03.c **** 		if(ch==0x0d) break;
 159:../USER/main_03.c **** 	}
 160:../USER/main_03.c **** }
 161:../USER/main_03.c **** int ishex(ch) char ch;{
 162:../USER/main_03.c ****   int hd;
 163:../USER/main_03.c ****   if(ch>='0' && ch<='9') hd = ch - 0x30;
 164:../USER/main_03.c ****   else if(ch>='A' && ch<='F') hd = ch - 0x37;
 165:../USER/main_03.c ****   else hd = -1;
 166:../USER/main_03.c ****   return hd;
 167:../USER/main_03.c **** }
 168:../USER/main_03.c **** void getssu(cbuf) char *cbuf;{ gets(cbuf); setsup(cbuf);}
 169:../USER/main_03.c **** void putadrhd(adr) long adr;{puts("\r\n"); puth8(adr); putch(':');}
 170:../USER/main_03.c **** 
 171:../USER/main_03.c **** long getsh(buf) char **buf;{
  28              		.loc 1 171 6 view -0
  29              		.cfi_startproc
  30              		@ args = 0, pretend = 0, frame = 0
  31              		@ frame_needed = 0, uses_anonymous_args = 0
  32              		@ link register save eliminated.
  33              		.loc 1 171 6 is_stmt 0 view .LVU1
  34 0000 30B4     		push	{r4, r5}
  35              		.cfi_def_cfa_offset 8
  36              		.cfi_offset 4, -8
  37              		.cfi_offset 5, -4
 172:../USER/main_03.c ****   long num = 0; int hd;
 173:../USER/main_03.c ****   if(**buf==0x0d) return -1;
 174:../USER/main_03.c ****   while(**buf==' ') (*buf)++; /* spip sp*/
  38              		.loc 1 174 10 view .LVU2
  39 0002 0268     		ldr	r2, [r0]
 171:../USER/main_03.c ****   long num = 0; int hd;
  40              		.loc 1 171 6 view .LVU3
  41 0004 0546     		mov	r5, r0
  42              		.loc 1 174 9 view .LVU4
  43 0006 92F90030 		ldrsb	r3, [r2]
  44              		.loc 1 174 8 view .LVU5
  45 000a 202B     		cmp	r3, #32
  46 000c 05D1     		bne	.L2
  47              	.L3:
  48              		.loc 1 174 21 is_stmt 1 view .LVU6
  49              		.loc 1 174 27 is_stmt 0 view .LVU7
  50 000e 0132     		adds	r2, r2, #1
  51 0010 2A60     		str	r2, [r5]
  52              		.loc 1 174 9 view .LVU8
  53 0012 92F90030 		ldrsb	r3, [r2]
  54              		.loc 1 174 8 view .LVU9
  55 0016 202B     		cmp	r3, #32
  56 0018 F9D0     		beq	.L3
  57              	.L2:
 172:../USER/main_03.c ****   long num = 0; int hd;
  58              		.loc 1 172 8 view .LVU10
  59 001a 0020     		movs	r0, #0
  60              	.LVL1:
 172:../USER/main_03.c ****   long num = 0; int hd;
  61              		.loc 1 172 8 view .LVU11
  62 001c 08E0     		b	.L4
  63              	.LVL2:
  64              	.L13:
  65              	.LBB104:
  66              	.LBB105:
 163:../USER/main_03.c ****   else if(ch>='A' && ch<='F') hd = ch - 0x37;
  67              		.loc 1 163 29 view .LVU12
  68 001e 303B     		subs	r3, r3, #48
  69              	.LVL3:
 163:../USER/main_03.c ****   else if(ch>='A' && ch<='F') hd = ch - 0x37;
  70              		.loc 1 163 29 view .LVU13
  71              	.LBE105:
  72              	.LBE104:
 175:../USER/main_03.c ****   while( (hd=ishex(**buf)) != -1){ num = num * 16 + hd; (*buf)++; }
  73              		.loc 1 175 36 is_stmt 1 view .LVU14
  74              	.LBB109:
  75              	.LBB106:
 166:../USER/main_03.c **** }
  76              		.loc 1 166 3 view .LVU15
 166:../USER/main_03.c **** }
  77              		.loc 1 166 3 is_stmt 0 view .LVU16
  78              	.LBE106:
  79              	.LBE109:
  80              		.loc 1 175 8 view .LVU17
  81 0020 591C     		adds	r1, r3, #1
  82 0022 11D0     		beq	.L1
  83              	.L8:
  84              		.loc 1 175 63 view .LVU18
  85 0024 0132     		adds	r2, r2, #1
  86 0026 2A60     		str	r2, [r5]
  87              		.loc 1 175 40 view .LVU19
  88 0028 03EB0010 		add	r0, r3, r0, lsl #4
  89              	.LVL4:
  90              		.loc 1 175 57 is_stmt 1 view .LVU20
  91 002c 92F90030 		ldrsb	r3, [r2]
  92              	.LVL5:
  93              	.L4:
  94              	.LBB110:
  95              	.LBI104:
 161:../USER/main_03.c ****   int hd;
  96              		.loc 1 161 5 view .LVU21
  97              	.LBB107:
 162:../USER/main_03.c ****   if(ch>='0' && ch<='9') hd = ch - 0x30;
  98              		.loc 1 162 3 view .LVU22
 163:../USER/main_03.c ****   else if(ch>='A' && ch<='F') hd = ch - 0x37;
  99              		.loc 1 163 3 view .LVU23
 163:../USER/main_03.c ****   else if(ch>='A' && ch<='F') hd = ch - 0x37;
 100              		.loc 1 163 26 view .LVU24
 164:../USER/main_03.c ****   else hd = -1;
 101              		.loc 1 164 8 view .LVU25
 164:../USER/main_03.c ****   else hd = -1;
 102              		.loc 1 164 31 view .LVU26
 163:../USER/main_03.c ****   else if(ch>='A' && ch<='F') hd = ch - 0x37;
 103              		.loc 1 163 14 is_stmt 0 view .LVU27
 104 0030 D9B2     		uxtb	r1, r3
 163:../USER/main_03.c ****   else if(ch>='A' && ch<='F') hd = ch - 0x37;
 105              		.loc 1 163 5 view .LVU28
 106 0032 A1F13004 		sub	r4, r1, #48
 107 0036 092C     		cmp	r4, #9
 164:../USER/main_03.c ****   else hd = -1;
 108              		.loc 1 164 10 view .LVU29
 109 0038 A1F14101 		sub	r1, r1, #65
 163:../USER/main_03.c ****   else if(ch>='A' && ch<='F') hd = ch - 0x37;
 110              		.loc 1 163 5 view .LVU30
 111 003c EFD9     		bls	.L13
 164:../USER/main_03.c ****   else hd = -1;
 112              		.loc 1 164 10 view .LVU31
 113 003e 0529     		cmp	r1, #5
 114 0040 02D8     		bhi	.L1
 164:../USER/main_03.c ****   else hd = -1;
 115              		.loc 1 164 34 view .LVU32
 116 0042 373B     		subs	r3, r3, #55
 117              	.LVL6:
 164:../USER/main_03.c ****   else hd = -1;
 118              		.loc 1 164 34 view .LVU33
 119              	.LBE107:
 120              	.LBE110:
 121              		.loc 1 175 36 is_stmt 1 view .LVU34
 122              	.LBB111:
 123              	.LBB108:
 166:../USER/main_03.c **** }
 124              		.loc 1 166 3 view .LVU35
 166:../USER/main_03.c **** }
 125              		.loc 1 166 3 is_stmt 0 view .LVU36
 126              	.LBE108:
 127              	.LBE111:
 128              		.loc 1 175 8 view .LVU37
 129 0044 591C     		adds	r1, r3, #1
 130 0046 EDD1     		bne	.L8
 131              	.LVL7:
 132              	.L1:
 176:../USER/main_03.c ****   return num;
 177:../USER/main_03.c **** }
 133              		.loc 1 177 1 view .LVU38
 134 0048 30BC     		pop	{r4, r5}
 135              		.cfi_restore 5
 136              		.cfi_restore 4
 137              		.cfi_def_cfa_offset 0
 138              	.LVL8:
 139              		.loc 1 177 1 view .LVU39
 140 004a 7047     		bx	lr
 141              		.cfi_endproc
 142              	.LFE53:
 144              		.section	.text.GPIOInit,"ax",%progbits
 145              		.align	1
 146              		.p2align 2,,3
 147              		.global	GPIOInit
 148              		.syntax unified
 149              		.thumb
 150              		.thumb_func
 151              		.fpu softvfp
 153              	GPIOInit:
 154              	.LVL9:
 155              	.LFB32:
  47:../USER/main_03.c **** 	GPIO_InitTypeDef GPIO_InitType;
 156              		.loc 1 47 1 is_stmt 1 view -0
 157              		.cfi_startproc
 158              		@ args = 0, pretend = 0, frame = 8
 159              		@ frame_needed = 0, uses_anonymous_args = 0
  48:../USER/main_03.c **** 	GPIO_InitType.GPIO_Pin = pin;
 160              		.loc 1 48 2 view .LVU41
  49:../USER/main_03.c **** 	GPIO_InitType.GPIO_Mode = GPIO_Mode_OUT;
 161              		.loc 1 49 2 view .LVU42
  47:../USER/main_03.c **** 	GPIO_InitTypeDef GPIO_InitType;
 162              		.loc 1 47 1 is_stmt 0 view .LVU43
 163 0000 30B5     		push	{r4, r5, lr}
 164              		.cfi_def_cfa_offset 12
 165              		.cfi_offset 4, -12
 166              		.cfi_offset 5, -8
 167              		.cfi_offset 14, -4
  50:../USER/main_03.c **** 	GPIO_InitType.GPIO_Int = GPIO_Int_Disable;
 168              		.loc 1 50 26 view .LVU44
 169 0002 0123     		movs	r3, #1
  47:../USER/main_03.c **** 	GPIO_InitTypeDef GPIO_InitType;
 170              		.loc 1 47 1 view .LVU45
 171 0004 0546     		mov	r5, r0
  52:../USER/main_03.c ****   GPIO_SetBit(GPIO0,pin);
 172              		.loc 1 52 2 view .LVU46
 173 0006 074C     		ldr	r4, .L16
  47:../USER/main_03.c **** 	GPIO_InitTypeDef GPIO_InitType;
 174              		.loc 1 47 1 view .LVU47
 175 0008 83B0     		sub	sp, sp, #12
 176              		.cfi_def_cfa_offset 24
  52:../USER/main_03.c ****   GPIO_SetBit(GPIO0,pin);
 177              		.loc 1 52 2 view .LVU48
 178 000a 6946     		mov	r1, sp
 179 000c 2046     		mov	r0, r4
 180              	.LVL10:
  50:../USER/main_03.c **** 	GPIO_InitType.GPIO_Int = GPIO_Int_Disable;
 181              		.loc 1 50 26 view .LVU49
 182 000e ADF80430 		strh	r3, [sp, #4]	@ movhi
  49:../USER/main_03.c **** 	GPIO_InitType.GPIO_Mode = GPIO_Mode_OUT;
 183              		.loc 1 49 25 view .LVU50
 184 0012 0095     		str	r5, [sp]
  50:../USER/main_03.c **** 	GPIO_InitType.GPIO_Int = GPIO_Int_Disable;
 185              		.loc 1 50 2 is_stmt 1 view .LVU51
  51:../USER/main_03.c **** 	GPIO_Init(GPIO0,&GPIO_InitType);
 186              		.loc 1 51 2 view .LVU52
  52:../USER/main_03.c ****   GPIO_SetBit(GPIO0,pin);
 187              		.loc 1 52 2 view .LVU53
 188 0014 FFF7FEFF 		bl	GPIO_Init
 189              	.LVL11:
  53:../USER/main_03.c **** }
 190              		.loc 1 53 3 view .LVU54
 191 0018 2946     		mov	r1, r5
 192 001a 2046     		mov	r0, r4
 193 001c FFF7FEFF 		bl	GPIO_SetBit
 194              	.LVL12:
  54:../USER/main_03.c **** 
 195              		.loc 1 54 1 is_stmt 0 view .LVU55
 196 0020 03B0     		add	sp, sp, #12
 197              		.cfi_def_cfa_offset 12
 198              		@ sp needed
 199 0022 30BD     		pop	{r4, r5, pc}
 200              	.LVL13:
 201              	.L17:
  54:../USER/main_03.c **** 
 202              		.loc 1 54 1 view .LVU56
 203              		.align	2
 204              	.L16:
 205 0024 00000140 		.word	1073807360
 206              		.cfi_endproc
 207              	.LFE32:
 209              		.section	.text.UartInit,"ax",%progbits
 210              		.align	1
 211              		.p2align 2,,3
 212              		.global	UartInit
 213              		.syntax unified
 214              		.thumb
 215              		.thumb_func
 216              		.fpu softvfp
 218              	UartInit:
 219              	.LFB33:
  57:../USER/main_03.c ****   UART_InitTypeDef UART_InitStruct;
 220              		.loc 1 57 1 is_stmt 1 view -0
 221              		.cfi_startproc
 222              		@ args = 0, pretend = 0, frame = 16
 223              		@ frame_needed = 0, uses_anonymous_args = 0
  58:../USER/main_03.c **** 
 224              		.loc 1 58 3 view .LVU58
  60:../USER/main_03.c ****   UART_InitStruct.UART_Mode.UARTMode_Rx = ENABLE;
 225              		.loc 1 60 3 view .LVU59
  61:../USER/main_03.c ****   UART_InitStruct.UART_Int.UARTInt_Tx = DISABLE;
 226              		.loc 1 61 3 view .LVU60
  62:../USER/main_03.c ****   UART_InitStruct.UART_Int.UARTInt_Rx = DISABLE;
 227              		.loc 1 62 3 view .LVU61
  63:../USER/main_03.c ****   UART_InitStruct.UART_Ovr.UARTOvr_Tx = DISABLE;
 228              		.loc 1 63 3 view .LVU62
  64:../USER/main_03.c ****   UART_InitStruct.UART_Ovr.UARTOvr_Rx = DISABLE;
 229              		.loc 1 64 3 view .LVU63
  65:../USER/main_03.c ****   UART_InitStruct.UART_Hstm = DISABLE;
 230              		.loc 1 65 3 view .LVU64
  66:../USER/main_03.c ****   UART_InitStruct.UART_BaudRate = 115200*80/72;//Baud Rate
 231              		.loc 1 66 3 view .LVU65
  67:../USER/main_03.c ****   UART_Init(UART0,&UART_InitStruct);
 232              		.loc 1 67 3 view .LVU66
  57:../USER/main_03.c ****   UART_InitTypeDef UART_InitStruct;
 233              		.loc 1 57 1 is_stmt 0 view .LVU67
 234 0000 10B5     		push	{r4, lr}
 235              		.cfi_def_cfa_offset 8
 236              		.cfi_offset 4, -8
 237              		.cfi_offset 14, -4
  64:../USER/main_03.c ****   UART_InitStruct.UART_Ovr.UARTOvr_Rx = DISABLE;
 238              		.loc 1 64 39 view .LVU68
 239 0002 0023     		movs	r3, #0
  60:../USER/main_03.c ****   UART_InitStruct.UART_Mode.UARTMode_Rx = ENABLE;
 240              		.loc 1 60 41 view .LVU69
 241 0004 40F20112 		movw	r2, #257
  67:../USER/main_03.c ****   UART_Init(UART0,&UART_InitStruct);
 242              		.loc 1 67 33 view .LVU70
 243 0008 4FF4FA34 		mov	r4, #128000
  57:../USER/main_03.c ****   UART_InitTypeDef UART_InitStruct;
 244              		.loc 1 57 1 view .LVU71
 245 000c 84B0     		sub	sp, sp, #16
 246              		.cfi_def_cfa_offset 24
  68:../USER/main_03.c **** }
 247              		.loc 1 68 3 view .LVU72
 248 000e 01A9     		add	r1, sp, #4
 249 0010 4FF04020 		mov	r0, #1073758208
  60:../USER/main_03.c ****   UART_InitStruct.UART_Mode.UARTMode_Rx = ENABLE;
 250              		.loc 1 60 41 view .LVU73
 251 0014 CDE90142 		strd	r4, r2, [sp, #4]
  64:../USER/main_03.c ****   UART_InitStruct.UART_Ovr.UARTOvr_Rx = DISABLE;
 252              		.loc 1 64 39 view .LVU74
 253 0018 ADF80C30 		strh	r3, [sp, #12]	@ movhi
  66:../USER/main_03.c ****   UART_InitStruct.UART_BaudRate = 115200*80/72;//Baud Rate
 254              		.loc 1 66 29 view .LVU75
 255 001c 8DF80E30 		strb	r3, [sp, #14]
  68:../USER/main_03.c **** }
 256              		.loc 1 68 3 is_stmt 1 view .LVU76
 257 0020 FFF7FEFF 		bl	UART_Init
 258              	.LVL14:
  69:../USER/main_03.c **** 
 259              		.loc 1 69 1 is_stmt 0 view .LVU77
 260 0024 04B0     		add	sp, sp, #16
 261              		.cfi_def_cfa_offset 8
 262              		@ sp needed
 263 0026 10BD     		pop	{r4, pc}
 264              		.cfi_endproc
 265              	.LFE33:
 267              		.section	.text.SPIInit,"ax",%progbits
 268              		.align	1
 269              		.p2align 2,,3
 270              		.global	SPIInit
 271              		.syntax unified
 272              		.thumb
 273              		.thumb_func
 274              		.fpu softvfp
 276              	SPIInit:
 277              	.LFB34:
  73:../USER/main_03.c **** 	SPI_InitTypeDef init_spi;
 278              		.loc 1 73 1 is_stmt 1 view -0
 279              		.cfi_startproc
 280              		@ args = 0, pretend = 0, frame = 8
 281              		@ frame_needed = 0, uses_anonymous_args = 0
  74:../USER/main_03.c ****   init_spi.CLKSEL= CLKSEL_CLK_DIV_4;		//80MHZ / 8
 282              		.loc 1 74 2 view .LVU79
  75:../USER/main_03.c ****   init_spi.DIRECTION = DISABLE;					//MSB First
 283              		.loc 1 75 3 view .LVU80
  76:../USER/main_03.c ****   init_spi.PHASE =DISABLE;							//ENABLE;//posedge
 284              		.loc 1 76 3 view .LVU81
  77:../USER/main_03.c ****   init_spi.POLARITY =DISABLE;						//polarity 0
 285              		.loc 1 77 3 view .LVU82
  78:../USER/main_03.c ****   SPI_Init(&init_spi);
 286              		.loc 1 78 3 view .LVU83
  76:../USER/main_03.c ****   init_spi.PHASE =DISABLE;							//ENABLE;//posedge
 287              		.loc 1 76 22 is_stmt 0 view .LVU84
 288 0000 4FF08073 		mov	r3, #16777216
  73:../USER/main_03.c **** 	SPI_InitTypeDef init_spi;
 289              		.loc 1 73 1 view .LVU85
 290 0004 00B5     		push	{lr}
 291              		.cfi_def_cfa_offset 4
 292              		.cfi_offset 14, -4
 293 0006 83B0     		sub	sp, sp, #12
 294              		.cfi_def_cfa_offset 16
  79:../USER/main_03.c **** }
 295              		.loc 1 79 3 view .LVU86
 296 0008 01A8     		add	r0, sp, #4
  76:../USER/main_03.c ****   init_spi.PHASE =DISABLE;							//ENABLE;//posedge
 297              		.loc 1 76 22 view .LVU87
 298 000a 0193     		str	r3, [sp, #4]
  79:../USER/main_03.c **** }
 299              		.loc 1 79 3 is_stmt 1 view .LVU88
 300 000c FFF7FEFF 		bl	SPI_Init
 301              	.LVL15:
  80:../USER/main_03.c **** //delay ms
 302              		.loc 1 80 1 is_stmt 0 view .LVU89
 303 0010 03B0     		add	sp, sp, #12
 304              		.cfi_def_cfa_offset 4
 305              		@ sp needed
 306 0012 5DF804FB 		ldr	pc, [sp], #4
 307              		.cfi_endproc
 308              	.LFE34:
 310 0016 00BF     		.section	.text.delay_ms,"ax",%progbits
 311              		.align	1
 312              		.p2align 2,,3
 313              		.global	delay_ms
 314              		.syntax unified
 315              		.thumb
 316              		.thumb_func
 317              		.fpu softvfp
 319              	delay_ms:
 320              	.LVL16:
 321              	.LFB35:
  82:../USER/main_03.c **** 	for(delay_ms=(SystemCoreClock>>13)*delay_ms; delay_ms != 0; delay_ms--);
 322              		.loc 1 82 39 is_stmt 1 view -0
 323              		.cfi_startproc
 324              		@ args = 0, pretend = 0, frame = 8
 325              		@ frame_needed = 0, uses_anonymous_args = 0
 326              		@ link register save eliminated.
  83:../USER/main_03.c **** }
 327              		.loc 1 83 2 view .LVU91
  83:../USER/main_03.c **** }
 328              		.loc 1 83 31 is_stmt 0 view .LVU92
 329 0000 094B     		ldr	r3, .L30
  82:../USER/main_03.c **** 	for(delay_ms=(SystemCoreClock>>13)*delay_ms; delay_ms != 0; delay_ms--);
 330              		.loc 1 82 39 view .LVU93
 331 0002 82B0     		sub	sp, sp, #8
 332              		.cfi_def_cfa_offset 8
  82:../USER/main_03.c **** 	for(delay_ms=(SystemCoreClock>>13)*delay_ms; delay_ms != 0; delay_ms--);
 333              		.loc 1 82 39 view .LVU94
 334 0004 0190     		str	r0, [sp, #4]
  83:../USER/main_03.c **** }
 335              		.loc 1 83 31 view .LVU95
 336 0006 1A68     		ldr	r2, [r3]
  83:../USER/main_03.c **** }
 337              		.loc 1 83 36 view .LVU96
 338 0008 019B     		ldr	r3, [sp, #4]
  83:../USER/main_03.c **** }
 339              		.loc 1 83 31 view .LVU97
 340 000a 520B     		lsrs	r2, r2, #13
  83:../USER/main_03.c **** }
 341              		.loc 1 83 36 view .LVU98
 342 000c 03FB02F3 		mul	r3, r3, r2
  83:../USER/main_03.c **** }
 343              		.loc 1 83 14 view .LVU99
 344 0010 0193     		str	r3, [sp, #4]
  83:../USER/main_03.c **** }
 345              		.loc 1 83 56 view .LVU100
 346 0012 019B     		ldr	r3, [sp, #4]
  83:../USER/main_03.c **** }
 347              		.loc 1 83 2 view .LVU101
 348 0014 2BB1     		cbz	r3, .L22
 349              	.L24:
  83:../USER/main_03.c **** }
 350              		.loc 1 83 73 is_stmt 1 discriminator 3 view .LVU102
  83:../USER/main_03.c **** }
 351              		.loc 1 83 70 is_stmt 0 discriminator 3 view .LVU103
 352 0016 019B     		ldr	r3, [sp, #4]
 353 0018 013B     		subs	r3, r3, #1
 354 001a 0193     		str	r3, [sp, #4]
  83:../USER/main_03.c **** }
 355              		.loc 1 83 56 discriminator 3 view .LVU104
 356 001c 019B     		ldr	r3, [sp, #4]
  83:../USER/main_03.c **** }
 357              		.loc 1 83 2 discriminator 3 view .LVU105
 358 001e 002B     		cmp	r3, #0
 359 0020 F9D1     		bne	.L24
 360              	.L22:
  84:../USER/main_03.c **** 
 361              		.loc 1 84 1 view .LVU106
 362 0022 02B0     		add	sp, sp, #8
 363              		.cfi_def_cfa_offset 0
 364              		@ sp needed
 365 0024 7047     		bx	lr
 366              	.L31:
 367 0026 00BF     		.align	2
 368              	.L30:
 369 0028 00000000 		.word	SystemCoreClock
 370              		.cfi_endproc
 371              	.LFE35:
 373              		.section	.text.check_gpio,"ax",%progbits
 374              		.align	1
 375              		.p2align 2,,3
 376              		.global	check_gpio
 377              		.syntax unified
 378              		.thumb
 379              		.thumb_func
 380              		.fpu softvfp
 382              	check_gpio:
 383              	.LFB36:
  87:../USER/main_03.c **** 	int i;
 384              		.loc 1 87 18 is_stmt 1 view -0
 385              		.cfi_startproc
 386              		@ args = 0, pretend = 0, frame = 0
 387              		@ frame_needed = 0, uses_anonymous_args = 0
  88:../USER/main_03.c **** 	mdgpio = GPIO_ReadBits(GPIO0);	// ukey2 = bit13
 388              		.loc 1 88 2 view .LVU108
  89:../USER/main_03.c **** 	mdgpio = mdgpio & 0xdfff;		// bit13.clear
 389              		.loc 1 89 2 view .LVU109
  87:../USER/main_03.c **** 	int i;
 390              		.loc 1 87 18 is_stmt 0 view .LVU110
 391 0000 70B5     		push	{r4, r5, r6, lr}
 392              		.cfi_def_cfa_offset 16
 393              		.cfi_offset 4, -16
 394              		.cfi_offset 5, -12
 395              		.cfi_offset 6, -8
 396              		.cfi_offset 14, -4
  89:../USER/main_03.c **** 	mdgpio = mdgpio & 0xdfff;		// bit13.clear
 397              		.loc 1 89 11 view .LVU111
 398 0002 1448     		ldr	r0, .L48
 399 0004 FFF7FEFF 		bl	GPIO_ReadBits
 400              	.LVL17:
  90:../USER/main_03.c **** 	for(i=0;i<2;i++){
 401              		.loc 1 90 2 is_stmt 1 view .LVU112
  90:../USER/main_03.c **** 	for(i=0;i<2;i++){
 402              		.loc 1 90 18 is_stmt 0 view .LVU113
 403 0008 4DF6FF73 		movw	r3, #57343
  90:../USER/main_03.c **** 	for(i=0;i<2;i++){
 404              		.loc 1 90 9 view .LVU114
 405 000c 0225     		movs	r5, #2
 406 000e 124A     		ldr	r2, .L48+4
  90:../USER/main_03.c **** 	for(i=0;i<2;i++){
 407              		.loc 1 90 18 view .LVU115
 408 0010 1840     		ands	r0, r0, r3
 409 0012 124E     		ldr	r6, .L48+8
  92:../USER/main_03.c **** 		GPIO_WriteBits(GPIO0,0x00); delay_ms(50);
 410              		.loc 1 92 3 view .LVU116
 411 0014 0F4C     		ldr	r4, .L48
  90:../USER/main_03.c **** 	for(i=0;i<2;i++){
 412              		.loc 1 90 9 view .LVU117
 413 0016 1060     		str	r0, [r2]
  91:../USER/main_03.c **** 		GPIO_WriteBits(GPIO0,0x03); delay_ms(50);
 414              		.loc 1 91 2 is_stmt 1 view .LVU118
 415              	.LVL18:
 416              	.L37:
  92:../USER/main_03.c **** 		GPIO_WriteBits(GPIO0,0x00); delay_ms(50);
 417              		.loc 1 92 3 discriminator 3 view .LVU119
 418 0018 0321     		movs	r1, #3
 419 001a 2046     		mov	r0, r4
 420 001c FFF7FEFF 		bl	GPIO_WriteBits
 421              	.LVL19:
  92:../USER/main_03.c **** 		GPIO_WriteBits(GPIO0,0x00); delay_ms(50);
 422              		.loc 1 92 31 discriminator 3 view .LVU120
 423 0020 3223     		movs	r3, #50
 424              	.LVL20:
 425              	.LBB112:
 426              	.LBI112:
  82:../USER/main_03.c **** 	for(delay_ms=(SystemCoreClock>>13)*delay_ms; delay_ms != 0; delay_ms--);
 427              		.loc 1 82 6 discriminator 3 view .LVU121
 428              	.LBB113:
  83:../USER/main_03.c **** }
 429              		.loc 1 83 2 discriminator 3 view .LVU122
  83:../USER/main_03.c **** }
 430              		.loc 1 83 31 is_stmt 0 discriminator 3 view .LVU123
 431 0022 3268     		ldr	r2, [r6]
 432 0024 520B     		lsrs	r2, r2, #13
  83:../USER/main_03.c **** }
 433              		.loc 1 83 36 discriminator 3 view .LVU124
 434 0026 03FB02F3 		mul	r3, r3, r2
  83:../USER/main_03.c **** }
 435              		.loc 1 83 2 discriminator 3 view .LVU125
 436 002a 0BB1     		cbz	r3, .L33
 437              	.L34:
  83:../USER/main_03.c **** }
 438              		.loc 1 83 73 is_stmt 1 view .LVU126
  83:../USER/main_03.c **** }
 439              		.loc 1 83 2 is_stmt 0 view .LVU127
 440 002c 013B     		subs	r3, r3, #1
 441 002e FDD1     		bne	.L34
 442              	.L33:
 443              	.LVL21:
  83:../USER/main_03.c **** }
 444              		.loc 1 83 2 view .LVU128
 445              	.LBE113:
 446              	.LBE112:
  93:../USER/main_03.c **** 	}
 447              		.loc 1 93 3 is_stmt 1 view .LVU129
 448 0030 0021     		movs	r1, #0
 449 0032 2046     		mov	r0, r4
 450 0034 FFF7FEFF 		bl	GPIO_WriteBits
 451              	.LVL22:
  93:../USER/main_03.c **** 	}
 452              		.loc 1 93 31 view .LVU130
 453 0038 3223     		movs	r3, #50
 454              	.LVL23:
 455              	.LBB114:
 456              	.LBI114:
  82:../USER/main_03.c **** 	for(delay_ms=(SystemCoreClock>>13)*delay_ms; delay_ms != 0; delay_ms--);
 457              		.loc 1 82 6 view .LVU131
 458              	.LBB115:
  83:../USER/main_03.c **** }
 459              		.loc 1 83 2 view .LVU132
  83:../USER/main_03.c **** }
 460              		.loc 1 83 31 is_stmt 0 view .LVU133
 461 003a 3268     		ldr	r2, [r6]
 462 003c 520B     		lsrs	r2, r2, #13
  83:../USER/main_03.c **** }
 463              		.loc 1 83 36 view .LVU134
 464 003e 03FB02F3 		mul	r3, r3, r2
  83:../USER/main_03.c **** }
 465              		.loc 1 83 2 view .LVU135
 466 0042 0BB1     		cbz	r3, .L35
 467              	.L36:
  83:../USER/main_03.c **** }
 468              		.loc 1 83 73 is_stmt 1 view .LVU136
  83:../USER/main_03.c **** }
 469              		.loc 1 83 2 is_stmt 0 view .LVU137
 470 0044 013B     		subs	r3, r3, #1
 471 0046 FDD1     		bne	.L36
 472              	.L35:
 473              	.LVL24:
  83:../USER/main_03.c **** }
 474              		.loc 1 83 2 view .LVU138
 475              	.LBE115:
 476              	.LBE114:
  91:../USER/main_03.c **** 		GPIO_WriteBits(GPIO0,0x03); delay_ms(50);
 477              		.loc 1 91 2 view .LVU139
 478 0048 012D     		cmp	r5, #1
 479 004a 00D1     		bne	.L38
  95:../USER/main_03.c **** 
 480              		.loc 1 95 1 view .LVU140
 481 004c 70BD     		pop	{r4, r5, r6, pc}
 482              	.L38:
 483 004e 0125     		movs	r5, #1
 484 0050 E2E7     		b	.L37
 485              	.L49:
 486 0052 00BF     		.align	2
 487              	.L48:
 488 0054 00000140 		.word	1073807360
 489 0058 00000000 		.word	mdgpio
 490 005c 00000000 		.word	SystemCoreClock
 491              		.cfi_endproc
 492              	.LFE36:
 494              		.section	.text.setsup,"ax",%progbits
 495              		.align	1
 496              		.p2align 2,,3
 497              		.global	setsup
 498              		.syntax unified
 499              		.thumb
 500              		.thumb_func
 501              		.fpu softvfp
 503              	setsup:
 504              	.LVL25:
 505              	.LFB37:
 101:../USER/main_03.c ****   while(*buf!=0x0d){
 506              		.loc 1 101 28 is_stmt 1 view -0
 507              		.cfi_startproc
 508              		@ args = 0, pretend = 0, frame = 0
 509              		@ frame_needed = 0, uses_anonymous_args = 0
 510              		@ link register save eliminated.
 102:../USER/main_03.c ****    if( *buf>='a' && *buf<='z') *buf = *buf - 0x20;
 511              		.loc 1 102 3 view .LVU142
 102:../USER/main_03.c ****    if( *buf>='a' && *buf<='z') *buf = *buf - 0x20;
 512              		.loc 1 102 9 is_stmt 0 view .LVU143
 513 0000 90F90030 		ldrsb	r3, [r0]
 102:../USER/main_03.c ****    if( *buf>='a' && *buf<='z') *buf = *buf - 0x20;
 514              		.loc 1 102 8 view .LVU144
 515 0004 0D2B     		cmp	r3, #13
 516 0006 0FD0     		beq	.L50
 517              	.LVL26:
 518              	.L54:
 103:../USER/main_03.c ****    buf++;
 519              		.loc 1 103 4 is_stmt 1 view .LVU145
 103:../USER/main_03.c ****    buf++;
 520              		.loc 1 103 32 view .LVU146
 104:../USER/main_03.c ****   }
 521              		.loc 1 104 4 view .LVU147
 103:../USER/main_03.c ****    buf++;
 522              		.loc 1 103 18 is_stmt 0 view .LVU148
 523 0008 DBB2     		uxtb	r3, r3
 103:../USER/main_03.c ****    buf++;
 524              		.loc 1 103 44 view .LVU149
 525 000a A3F12002 		sub	r2, r3, #32
 103:../USER/main_03.c ****    buf++;
 526              		.loc 1 103 6 view .LVU150
 527 000e 613B     		subs	r3, r3, #97
 528 0010 192B     		cmp	r3, #25
 529 0012 05D8     		bhi	.L52
 103:../USER/main_03.c ****    buf++;
 530              		.loc 1 103 37 discriminator 1 view .LVU151
 531 0014 0270     		strb	r2, [r0]
 104:../USER/main_03.c ****   }
 532              		.loc 1 104 4 is_stmt 1 discriminator 1 view .LVU152
 102:../USER/main_03.c ****    if( *buf>='a' && *buf<='z') *buf = *buf - 0x20;
 533              		.loc 1 102 9 is_stmt 0 discriminator 1 view .LVU153
 534 0016 10F9013F 		ldrsb	r3, [r0, #1]!
 535              	.LVL27:
 102:../USER/main_03.c ****    if( *buf>='a' && *buf<='z') *buf = *buf - 0x20;
 536              		.loc 1 102 8 discriminator 1 view .LVU154
 537 001a 0D2B     		cmp	r3, #13
 538 001c F4D1     		bne	.L54
 539 001e 7047     		bx	lr
 540              	.LVL28:
 541              	.L52:
 102:../USER/main_03.c ****    if( *buf>='a' && *buf<='z') *buf = *buf - 0x20;
 542              		.loc 1 102 9 view .LVU155
 543 0020 10F9013F 		ldrsb	r3, [r0, #1]!
 544              	.LVL29:
 102:../USER/main_03.c ****    if( *buf>='a' && *buf<='z') *buf = *buf - 0x20;
 545              		.loc 1 102 8 view .LVU156
 546 0024 0D2B     		cmp	r3, #13
 547 0026 EFD1     		bne	.L54
 548              	.LVL30:
 549              	.L50:
 106:../USER/main_03.c **** char kinbuf[256];
 550              		.loc 1 106 1 view .LVU157
 551 0028 7047     		bx	lr
 552              		.cfi_endproc
 553              	.LFE37:
 555 002a 00BF     		.section	.text.key_check,"ax",%progbits
 556              		.align	1
 557              		.p2align 2,,3
 558              		.global	key_check
 559              		.syntax unified
 560              		.thumb
 561              		.thumb_func
 562              		.fpu softvfp
 564              	key_check:
 565              	.LFB38:
 109:../USER/main_03.c **** 	char ch;
 566              		.loc 1 109 18 is_stmt 1 view -0
 567              		.cfi_startproc
 568              		@ args = 0, pretend = 0, frame = 0
 569              		@ frame_needed = 0, uses_anonymous_args = 0
 110:../USER/main_03.c **** 	//
 570              		.loc 1 110 2 view .LVU159
 112:../USER/main_03.c **** 	if(ch!=0) kinbuf[kinbwp++] = ch;
 571              		.loc 1 112 2 view .LVU160
 109:../USER/main_03.c **** 	char ch;
 572              		.loc 1 109 18 is_stmt 0 view .LVU161
 573 0000 10B5     		push	{r4, lr}
 574              		.cfi_def_cfa_offset 8
 575              		.cfi_offset 4, -8
 576              		.cfi_offset 14, -4
 112:../USER/main_03.c **** 	if(ch!=0) kinbuf[kinbwp++] = ch;
 577              		.loc 1 112 7 view .LVU162
 578 0002 FFF7FEFF 		bl	SPI_ReadData
 579              	.LVL31:
 112:../USER/main_03.c **** 	if(ch!=0) kinbuf[kinbwp++] = ch;
 580              		.loc 1 112 5 view .LVU163
 581 0006 40B2     		sxtb	r0, r0
 582              	.LVL32:
 113:../USER/main_03.c **** 	if(kinbwp>=256) kinbwp = 0;
 583              		.loc 1 113 2 is_stmt 1 view .LVU164
 113:../USER/main_03.c **** 	if(kinbwp>=256) kinbwp = 0;
 584              		.loc 1 113 25 is_stmt 0 view .LVU165
 585 0008 0E4A     		ldr	r2, .L70
 113:../USER/main_03.c **** 	if(kinbwp>=256) kinbwp = 0;
 586              		.loc 1 113 4 view .LVU166
 587 000a A0B9     		cbnz	r0, .L62
 588 000c 1368     		ldr	r3, [r2]
 589              	.L63:
 114:../USER/main_03.c **** 	//
 590              		.loc 1 114 2 is_stmt 1 view .LVU167
 114:../USER/main_03.c **** 	//
 591              		.loc 1 114 4 is_stmt 0 view .LVU168
 592 000e FF2B     		cmp	r3, #255
 593 0010 01DD     		ble	.L64
 114:../USER/main_03.c **** 	//
 594              		.loc 1 114 18 is_stmt 1 discriminator 1 view .LVU169
 114:../USER/main_03.c **** 	//
 595              		.loc 1 114 25 is_stmt 0 discriminator 1 view .LVU170
 596 0012 0023     		movs	r3, #0
 597 0014 1360     		str	r3, [r2]
 598              	.L64:
 116:../USER/main_03.c **** 	if(kinbwp>=256) kinbwp = 0;
 599              		.loc 1 116 2 is_stmt 1 view .LVU171
 116:../USER/main_03.c **** 	if(kinbwp>=256) kinbwp = 0;
 600              		.loc 1 116 11 is_stmt 0 view .LVU172
 601 0016 4FF04021 		mov	r1, #1073758208
 602 001a 4868     		ldr	r0, [r1, #4]
 603              	.LVL33:
 116:../USER/main_03.c **** 	if(kinbwp>=256) kinbwp = 0;
 604              		.loc 1 116 4 view .LVU173
 605 001c 8007     		lsls	r0, r0, #30
 606 001e 09D5     		bpl	.L61
 116:../USER/main_03.c **** 	if(kinbwp>=256) kinbwp = 0;
 607              		.loc 1 116 39 is_stmt 1 discriminator 1 view .LVU174
 116:../USER/main_03.c **** 	if(kinbwp>=256) kinbwp = 0;
 608              		.loc 1 116 63 is_stmt 0 discriminator 1 view .LVU175
 609 0020 0C68     		ldr	r4, [r1]
 116:../USER/main_03.c **** 	if(kinbwp>=256) kinbwp = 0;
 610              		.loc 1 116 56 discriminator 1 view .LVU176
 611 0022 0948     		ldr	r0, .L70+4
 116:../USER/main_03.c **** 	if(kinbwp>=256) kinbwp = 0;
 612              		.loc 1 116 52 discriminator 1 view .LVU177
 613 0024 591C     		adds	r1, r3, #1
 117:../USER/main_03.c **** 	//
 614              		.loc 1 117 4 discriminator 1 view .LVU178
 615 0026 B1F5807F 		cmp	r1, #256
 116:../USER/main_03.c **** 	if(kinbwp>=256) kinbwp = 0;
 616              		.loc 1 116 56 discriminator 1 view .LVU179
 617 002a C454     		strb	r4, [r0, r3]
 117:../USER/main_03.c **** 	//
 618              		.loc 1 117 2 is_stmt 1 discriminator 1 view .LVU180
 116:../USER/main_03.c **** 	if(kinbwp>=256) kinbwp = 0;
 619              		.loc 1 116 52 is_stmt 0 discriminator 1 view .LVU181
 620 002c 1160     		str	r1, [r2]
 117:../USER/main_03.c **** 	//
 621              		.loc 1 117 4 discriminator 1 view .LVU182
 622 002e 01D1     		bne	.L61
 117:../USER/main_03.c **** 	//
 623              		.loc 1 117 18 is_stmt 1 discriminator 1 view .LVU183
 117:../USER/main_03.c **** 	//
 624              		.loc 1 117 25 is_stmt 0 discriminator 1 view .LVU184
 625 0030 0023     		movs	r3, #0
 626 0032 1360     		str	r3, [r2]
 627              	.L61:
 119:../USER/main_03.c **** char getch_uart(void){
 628              		.loc 1 119 1 view .LVU185
 629 0034 10BD     		pop	{r4, pc}
 630              	.LVL34:
 631              	.L62:
 113:../USER/main_03.c **** 	if(kinbwp>=256) kinbwp = 0;
 632              		.loc 1 113 12 is_stmt 1 discriminator 1 view .LVU186
 113:../USER/main_03.c **** 	if(kinbwp>=256) kinbwp = 0;
 633              		.loc 1 113 25 is_stmt 0 discriminator 1 view .LVU187
 634 0036 1168     		ldr	r1, [r2]
 113:../USER/main_03.c **** 	if(kinbwp>=256) kinbwp = 0;
 635              		.loc 1 113 29 discriminator 1 view .LVU188
 636 0038 034C     		ldr	r4, .L70+4
 113:../USER/main_03.c **** 	if(kinbwp>=256) kinbwp = 0;
 637              		.loc 1 113 25 discriminator 1 view .LVU189
 638 003a 4B1C     		adds	r3, r1, #1
 113:../USER/main_03.c **** 	if(kinbwp>=256) kinbwp = 0;
 639              		.loc 1 113 29 discriminator 1 view .LVU190
 640 003c 6054     		strb	r0, [r4, r1]
 113:../USER/main_03.c **** 	if(kinbwp>=256) kinbwp = 0;
 641              		.loc 1 113 25 discriminator 1 view .LVU191
 642 003e 1360     		str	r3, [r2]
 643 0040 E5E7     		b	.L63
 644              	.L71:
 645 0042 00BF     		.align	2
 646              	.L70:
 647 0044 00000000 		.word	.LANCHOR0
 648 0048 00000000 		.word	kinbuf
 649              		.cfi_endproc
 650              	.LFE38:
 652              		.section	.text.getch_uart,"ax",%progbits
 653              		.align	1
 654              		.p2align 2,,3
 655              		.global	getch_uart
 656              		.syntax unified
 657              		.thumb
 658              		.thumb_func
 659              		.fpu softvfp
 661              	getch_uart:
 662              	.LFB39:
 120:../USER/main_03.c **** 	char dt;
 663              		.loc 1 120 22 is_stmt 1 view -0
 664              		.cfi_startproc
 665              		@ args = 0, pretend = 0, frame = 0
 666              		@ frame_needed = 0, uses_anonymous_args = 0
 121:../USER/main_03.c **** 	while(kinbrp==kinbwp) key_check();
 667              		.loc 1 121 2 view .LVU193
 122:../USER/main_03.c **** 	dt = kinbuf[kinbrp++];
 668              		.loc 1 122 2 view .LVU194
 120:../USER/main_03.c **** 	char dt;
 669              		.loc 1 120 22 is_stmt 0 view .LVU195
 670 0000 2DE9F041 		push	{r4, r5, r6, r7, r8, lr}
 671              		.cfi_def_cfa_offset 24
 672              		.cfi_offset 4, -24
 673              		.cfi_offset 5, -20
 674              		.cfi_offset 6, -16
 675              		.cfi_offset 7, -12
 676              		.cfi_offset 8, -8
 677              		.cfi_offset 14, -4
 678              	.LBB118:
 679              	.LBB119:
 116:../USER/main_03.c **** 	if(kinbwp>=256) kinbwp = 0;
 680              		.loc 1 116 11 view .LVU196
 681 0004 4FF04025 		mov	r5, #1073758208
 116:../USER/main_03.c **** 	if(kinbwp>=256) kinbwp = 0;
 682              		.loc 1 116 52 view .LVU197
 683 0008 4FF00108 		mov	r8, #1
 684 000c 1C4C     		ldr	r4, .L89
 685 000e 1D4F     		ldr	r7, .L89+4
 686 0010 2368     		ldr	r3, [r4]
 687 0012 1D4E     		ldr	r6, .L89+8
 688              	.L80:
 689              	.LBE119:
 690              	.LBE118:
 122:../USER/main_03.c **** 	dt = kinbuf[kinbrp++];
 691              		.loc 1 122 14 discriminator 1 view .LVU198
 692 0014 3268     		ldr	r2, [r6]
 122:../USER/main_03.c **** 	dt = kinbuf[kinbrp++];
 693              		.loc 1 122 7 discriminator 1 view .LVU199
 694 0016 9A42     		cmp	r2, r3
 695 0018 29D1     		bne	.L87
 696              	.L81:
 122:../USER/main_03.c **** 	dt = kinbuf[kinbrp++];
 697              		.loc 1 122 24 is_stmt 1 view .LVU200
 698              	.LBB121:
 699              	.LBI118:
 109:../USER/main_03.c **** 	char ch;
 700              		.loc 1 109 6 view .LVU201
 701              	.LBB120:
 110:../USER/main_03.c **** 	//
 702              		.loc 1 110 2 view .LVU202
 112:../USER/main_03.c **** 	if(ch!=0) kinbuf[kinbwp++] = ch;
 703              		.loc 1 112 2 view .LVU203
 112:../USER/main_03.c **** 	if(ch!=0) kinbuf[kinbwp++] = ch;
 704              		.loc 1 112 7 is_stmt 0 view .LVU204
 705 001a FFF7FEFF 		bl	SPI_ReadData
 706              	.LVL35:
 112:../USER/main_03.c **** 	if(ch!=0) kinbuf[kinbwp++] = ch;
 707              		.loc 1 112 5 view .LVU205
 708 001e 40B2     		sxtb	r0, r0
 709              	.LVL36:
 113:../USER/main_03.c **** 	if(kinbwp>=256) kinbwp = 0;
 710              		.loc 1 113 2 is_stmt 1 view .LVU206
 113:../USER/main_03.c **** 	if(kinbwp>=256) kinbwp = 0;
 711              		.loc 1 113 4 is_stmt 0 view .LVU207
 712 0020 78B9     		cbnz	r0, .L74
 713 0022 2368     		ldr	r3, [r4]
 114:../USER/main_03.c **** 	//
 714              		.loc 1 114 2 is_stmt 1 view .LVU208
 114:../USER/main_03.c **** 	//
 715              		.loc 1 114 4 is_stmt 0 view .LVU209
 716 0024 FF2B     		cmp	r3, #255
 717 0026 12DD     		ble	.L76
 718              	.L88:
 114:../USER/main_03.c **** 	//
 719              		.loc 1 114 18 is_stmt 1 view .LVU210
 114:../USER/main_03.c **** 	//
 720              		.loc 1 114 25 is_stmt 0 view .LVU211
 721 0028 0023     		movs	r3, #0
 722 002a 2360     		str	r3, [r4]
 116:../USER/main_03.c **** 	if(kinbwp>=256) kinbwp = 0;
 723              		.loc 1 116 2 is_stmt 1 view .LVU212
 116:../USER/main_03.c **** 	if(kinbwp>=256) kinbwp = 0;
 724              		.loc 1 116 11 is_stmt 0 view .LVU213
 725 002c 6B68     		ldr	r3, [r5, #4]
 116:../USER/main_03.c **** 	if(kinbwp>=256) kinbwp = 0;
 726              		.loc 1 116 4 view .LVU214
 727 002e 13F00203 		ands	r3, r3, #2
 728 0032 EFD0     		beq	.L80
 116:../USER/main_03.c **** 	if(kinbwp>=256) kinbwp = 0;
 729              		.loc 1 116 39 is_stmt 1 view .LVU215
 116:../USER/main_03.c **** 	if(kinbwp>=256) kinbwp = 0;
 730              		.loc 1 116 52 is_stmt 0 view .LVU216
 731 0034 0122     		movs	r2, #1
 116:../USER/main_03.c **** 	if(kinbwp>=256) kinbwp = 0;
 732              		.loc 1 116 63 view .LVU217
 733 0036 2B68     		ldr	r3, [r5]
 116:../USER/main_03.c **** 	if(kinbwp>=256) kinbwp = 0;
 734              		.loc 1 116 52 view .LVU218
 735 0038 C4F80080 		str	r8, [r4]
 116:../USER/main_03.c **** 	if(kinbwp>=256) kinbwp = 0;
 736              		.loc 1 116 56 view .LVU219
 737 003c 3B70     		strb	r3, [r7]
 117:../USER/main_03.c **** 	//
 738              		.loc 1 117 2 is_stmt 1 view .LVU220
 739              	.L84:
 116:../USER/main_03.c **** 	if(kinbwp>=256) kinbwp = 0;
 740              		.loc 1 116 4 is_stmt 0 view .LVU221
 741 003e 1346     		mov	r3, r2
 742 0040 E8E7     		b	.L80
 743              	.L74:
 113:../USER/main_03.c **** 	if(kinbwp>=256) kinbwp = 0;
 744              		.loc 1 113 12 is_stmt 1 view .LVU222
 113:../USER/main_03.c **** 	if(kinbwp>=256) kinbwp = 0;
 745              		.loc 1 113 25 is_stmt 0 view .LVU223
 746 0042 2268     		ldr	r2, [r4]
 747 0044 531C     		adds	r3, r2, #1
 114:../USER/main_03.c **** 	//
 748              		.loc 1 114 4 view .LVU224
 749 0046 FF2B     		cmp	r3, #255
 113:../USER/main_03.c **** 	if(kinbwp>=256) kinbwp = 0;
 750              		.loc 1 113 29 view .LVU225
 751 0048 B854     		strb	r0, [r7, r2]
 113:../USER/main_03.c **** 	if(kinbwp>=256) kinbwp = 0;
 752              		.loc 1 113 25 view .LVU226
 753 004a 2360     		str	r3, [r4]
 114:../USER/main_03.c **** 	//
 754              		.loc 1 114 2 is_stmt 1 view .LVU227
 114:../USER/main_03.c **** 	//
 755              		.loc 1 114 4 is_stmt 0 view .LVU228
 756 004c ECDC     		bgt	.L88
 757              	.L76:
 116:../USER/main_03.c **** 	if(kinbwp>=256) kinbwp = 0;
 758              		.loc 1 116 2 is_stmt 1 view .LVU229
 116:../USER/main_03.c **** 	if(kinbwp>=256) kinbwp = 0;
 759              		.loc 1 116 11 is_stmt 0 view .LVU230
 760 004e 6A68     		ldr	r2, [r5, #4]
 116:../USER/main_03.c **** 	if(kinbwp>=256) kinbwp = 0;
 761              		.loc 1 116 4 view .LVU231
 762 0050 9207     		lsls	r2, r2, #30
 763 0052 DFD5     		bpl	.L80
 116:../USER/main_03.c **** 	if(kinbwp>=256) kinbwp = 0;
 764              		.loc 1 116 39 is_stmt 1 view .LVU232
 116:../USER/main_03.c **** 	if(kinbwp>=256) kinbwp = 0;
 765              		.loc 1 116 63 is_stmt 0 view .LVU233
 766 0054 2968     		ldr	r1, [r5]
 116:../USER/main_03.c **** 	if(kinbwp>=256) kinbwp = 0;
 767              		.loc 1 116 52 view .LVU234
 768 0056 5A1C     		adds	r2, r3, #1
 117:../USER/main_03.c **** 	//
 769              		.loc 1 117 4 view .LVU235
 770 0058 B2F5807F 		cmp	r2, #256
 116:../USER/main_03.c **** 	if(kinbwp>=256) kinbwp = 0;
 771              		.loc 1 116 56 view .LVU236
 772 005c F954     		strb	r1, [r7, r3]
 117:../USER/main_03.c **** 	//
 773              		.loc 1 117 2 is_stmt 1 view .LVU237
 116:../USER/main_03.c **** 	if(kinbwp>=256) kinbwp = 0;
 774              		.loc 1 116 52 is_stmt 0 view .LVU238
 775 005e 2260     		str	r2, [r4]
 117:../USER/main_03.c **** 	//
 776              		.loc 1 117 4 view .LVU239
 777 0060 EDD1     		bne	.L84
 117:../USER/main_03.c **** 	//
 778              		.loc 1 117 18 is_stmt 1 view .LVU240
 117:../USER/main_03.c **** 	//
 779              		.loc 1 117 25 is_stmt 0 view .LVU241
 780 0062 0022     		movs	r2, #0
 781 0064 1346     		mov	r3, r2
 782 0066 2260     		str	r2, [r4]
 783              	.LBE120:
 784              	.LBE121:
 122:../USER/main_03.c **** 	dt = kinbuf[kinbrp++];
 785              		.loc 1 122 14 view .LVU242
 786 0068 3268     		ldr	r2, [r6]
 122:../USER/main_03.c **** 	dt = kinbuf[kinbrp++];
 787              		.loc 1 122 7 view .LVU243
 788 006a 9A42     		cmp	r2, r3
 789 006c D5D0     		beq	.L81
 790              	.LVL37:
 791              	.L87:
 123:../USER/main_03.c **** 	if(kinbrp>=256) kinbrp = 0;
 792              		.loc 1 123 2 is_stmt 1 view .LVU244
 123:../USER/main_03.c **** 	if(kinbrp>=256) kinbrp = 0;
 793              		.loc 1 123 20 is_stmt 0 view .LVU245
 794 006e 531C     		adds	r3, r2, #1
 124:../USER/main_03.c **** 	return dt;
 795              		.loc 1 124 4 view .LVU246
 796 0070 FF2B     		cmp	r3, #255
 123:../USER/main_03.c **** 	if(kinbrp>=256) kinbrp = 0;
 797              		.loc 1 123 5 view .LVU247
 798 0072 B856     		ldrsb	r0, [r7, r2]
 799              	.LVL38:
 124:../USER/main_03.c **** 	return dt;
 800              		.loc 1 124 2 is_stmt 1 view .LVU248
 123:../USER/main_03.c **** 	if(kinbrp>=256) kinbrp = 0;
 801              		.loc 1 123 20 is_stmt 0 view .LVU249
 802 0074 3360     		str	r3, [r6]
 124:../USER/main_03.c **** 	return dt;
 803              		.loc 1 124 4 view .LVU250
 804 0076 01DD     		ble	.L85
 124:../USER/main_03.c **** 	return dt;
 805              		.loc 1 124 18 is_stmt 1 discriminator 1 view .LVU251
 124:../USER/main_03.c **** 	return dt;
 806              		.loc 1 124 25 is_stmt 0 discriminator 1 view .LVU252
 807 0078 0023     		movs	r3, #0
 808 007a 3360     		str	r3, [r6]
 125:../USER/main_03.c **** }
 809              		.loc 1 125 2 is_stmt 1 discriminator 1 view .LVU253
 810              	.L85:
 126:../USER/main_03.c **** void putch_uart(char ch){
 811              		.loc 1 126 1 is_stmt 0 view .LVU254
 812 007c BDE8F081 		pop	{r4, r5, r6, r7, r8, pc}
 813              	.L90:
 814              		.align	2
 815              	.L89:
 816 0080 00000000 		.word	.LANCHOR0
 817 0084 00000000 		.word	kinbuf
 818 0088 00000000 		.word	.LANCHOR1
 819              		.cfi_endproc
 820              	.LFE39:
 822              		.section	.text.putch_uart,"ax",%progbits
 823              		.align	1
 824              		.p2align 2,,3
 825              		.global	putch_uart
 826              		.syntax unified
 827              		.thumb
 828              		.thumb_func
 829              		.fpu softvfp
 831              	putch_uart:
 832              	.LVL39:
 833              	.LFB40:
 127:../USER/main_03.c **** 	volatile uint32_t gpiord;
 834              		.loc 1 127 25 is_stmt 1 view -0
 835              		.cfi_startproc
 836              		@ args = 0, pretend = 0, frame = 8
 837              		@ frame_needed = 0, uses_anonymous_args = 0
 128:../USER/main_03.c **** 	if((mdgpio & 0x2000)==0)
 838              		.loc 1 128 2 view .LVU256
 129:../USER/main_03.c **** 		UART_SendChar(UART0,ch);
 839              		.loc 1 129 2 view .LVU257
 127:../USER/main_03.c **** 	volatile uint32_t gpiord;
 840              		.loc 1 127 25 is_stmt 0 view .LVU258
 841 0000 F0B5     		push	{r4, r5, r6, r7, lr}
 842              		.cfi_def_cfa_offset 20
 843              		.cfi_offset 4, -20
 844              		.cfi_offset 5, -16
 845              		.cfi_offset 6, -12
 846              		.cfi_offset 7, -8
 847              		.cfi_offset 14, -4
 129:../USER/main_03.c **** 		UART_SendChar(UART0,ch);
 848              		.loc 1 129 13 view .LVU259
 849 0002 324B     		ldr	r3, .L120
 127:../USER/main_03.c **** 	volatile uint32_t gpiord;
 850              		.loc 1 127 25 view .LVU260
 851 0004 83B0     		sub	sp, sp, #12
 852              		.cfi_def_cfa_offset 32
 129:../USER/main_03.c **** 		UART_SendChar(UART0,ch);
 853              		.loc 1 129 13 view .LVU261
 854 0006 1B68     		ldr	r3, [r3]
 127:../USER/main_03.c **** 	volatile uint32_t gpiord;
 855              		.loc 1 127 25 view .LVU262
 856 0008 0546     		mov	r5, r0
 129:../USER/main_03.c **** 		UART_SendChar(UART0,ch);
 857              		.loc 1 129 4 view .LVU263
 858 000a 9904     		lsls	r1, r3, #18
 859 000c 56D5     		bpl	.L116
 132:../USER/main_03.c **** 		while((gpiord & 0x4000)!=0) {
 860              		.loc 1 132 3 is_stmt 1 view .LVU264
 132:../USER/main_03.c **** 		while((gpiord & 0x4000)!=0) {
 861              		.loc 1 132 10 is_stmt 0 view .LVU265
 862 000e 4FF48043 		mov	r3, #16384
 863 0012 0193     		str	r3, [sp, #4]
 133:../USER/main_03.c **** 			key_check();
 864              		.loc 1 133 3 is_stmt 1 view .LVU266
 133:../USER/main_03.c **** 			key_check();
 865              		.loc 1 133 17 is_stmt 0 view .LVU267
 866 0014 019B     		ldr	r3, [sp, #4]
 867 0016 2E4C     		ldr	r4, .L120+4
 133:../USER/main_03.c **** 			key_check();
 868              		.loc 1 133 8 view .LVU268
 869 0018 5A04     		lsls	r2, r3, #17
 870 001a 26D5     		bpl	.L101
 871              	.LBB126:
 872              	.LBB127:
 113:../USER/main_03.c **** 	if(kinbwp>=256) kinbwp = 0;
 873              		.loc 1 113 29 view .LVU269
 874 001c 2D4F     		ldr	r7, .L120+8
 114:../USER/main_03.c **** 	//
 875              		.loc 1 114 25 view .LVU270
 876 001e 0026     		movs	r6, #0
 877 0020 19E0     		b	.L94
 878              	.LVL40:
 879              	.L117:
 114:../USER/main_03.c **** 	//
 880              		.loc 1 114 25 view .LVU271
 881 0022 2368     		ldr	r3, [r4]
 882              	.L97:
 114:../USER/main_03.c **** 	//
 883              		.loc 1 114 2 is_stmt 1 view .LVU272
 114:../USER/main_03.c **** 	//
 884              		.loc 1 114 18 view .LVU273
 114:../USER/main_03.c **** 	//
 885              		.loc 1 114 4 is_stmt 0 view .LVU274
 886 0024 FF2B     		cmp	r3, #255
 887 0026 01DD     		ble	.L98
 114:../USER/main_03.c **** 	//
 888              		.loc 1 114 25 view .LVU275
 889 0028 0023     		movs	r3, #0
 890 002a 2660     		str	r6, [r4]
 891              	.L98:
 116:../USER/main_03.c **** 	if(kinbwp>=256) kinbwp = 0;
 892              		.loc 1 116 39 is_stmt 1 view .LVU276
 116:../USER/main_03.c **** 	if(kinbwp>=256) kinbwp = 0;
 893              		.loc 1 116 2 view .LVU277
 116:../USER/main_03.c **** 	if(kinbwp>=256) kinbwp = 0;
 894              		.loc 1 116 11 is_stmt 0 view .LVU278
 895 002c 4FF04021 		mov	r1, #1073758208
 896 0030 4868     		ldr	r0, [r1, #4]
 897              	.LVL41:
 116:../USER/main_03.c **** 	if(kinbwp>=256) kinbwp = 0;
 898              		.loc 1 116 52 view .LVU279
 899 0032 5A1C     		adds	r2, r3, #1
 116:../USER/main_03.c **** 	if(kinbwp>=256) kinbwp = 0;
 900              		.loc 1 116 4 view .LVU280
 901 0034 8007     		lsls	r0, r0, #30
 902 0036 07D5     		bpl	.L100
 117:../USER/main_03.c **** 	//
 903              		.loc 1 117 25 view .LVU281
 904 0038 B2F5807F 		cmp	r2, #256
 116:../USER/main_03.c **** 	if(kinbwp>=256) kinbwp = 0;
 905              		.loc 1 116 63 view .LVU282
 906 003c 0868     		ldr	r0, [r1]
 117:../USER/main_03.c **** 	//
 907              		.loc 1 117 25 view .LVU283
 908 003e 14BF     		ite	ne
 909 0040 1146     		movne	r1, r2
 910 0042 3146     		moveq	r1, r6
 116:../USER/main_03.c **** 	if(kinbwp>=256) kinbwp = 0;
 911              		.loc 1 116 56 view .LVU284
 912 0044 F854     		strb	r0, [r7, r3]
 117:../USER/main_03.c **** 	//
 913              		.loc 1 117 2 is_stmt 1 view .LVU285
 117:../USER/main_03.c **** 	//
 914              		.loc 1 117 25 is_stmt 0 view .LVU286
 915 0046 2160     		str	r1, [r4]
 916              	.L100:
 117:../USER/main_03.c **** 	//
 917              		.loc 1 117 25 view .LVU287
 918              	.LBE127:
 919              	.LBE126:
 135:../USER/main_03.c **** 		}
 920              		.loc 1 135 4 is_stmt 1 view .LVU288
 135:../USER/main_03.c **** 		}
 921              		.loc 1 135 13 is_stmt 0 view .LVU289
 922 0048 2348     		ldr	r0, .L120+12
 923 004a FFF7FEFF 		bl	GPIO_ReadBits
 924              	.LVL42:
 135:../USER/main_03.c **** 		}
 925              		.loc 1 135 11 view .LVU290
 926 004e 0190     		str	r0, [sp, #4]
 133:../USER/main_03.c **** 			key_check();
 927              		.loc 1 133 17 view .LVU291
 928 0050 019B     		ldr	r3, [sp, #4]
 133:../USER/main_03.c **** 			key_check();
 929              		.loc 1 133 8 view .LVU292
 930 0052 5B04     		lsls	r3, r3, #17
 931 0054 09D5     		bpl	.L101
 932              	.L94:
 134:../USER/main_03.c **** 			gpiord = GPIO_ReadBits(GPIO0);
 933              		.loc 1 134 4 is_stmt 1 view .LVU293
 934              	.LBB129:
 935              	.LBI126:
 109:../USER/main_03.c **** 	char ch;
 936              		.loc 1 109 6 view .LVU294
 937              	.LBB128:
 110:../USER/main_03.c **** 	//
 938              		.loc 1 110 2 view .LVU295
 112:../USER/main_03.c **** 	if(ch!=0) kinbuf[kinbwp++] = ch;
 939              		.loc 1 112 2 view .LVU296
 112:../USER/main_03.c **** 	if(ch!=0) kinbuf[kinbwp++] = ch;
 940              		.loc 1 112 7 is_stmt 0 view .LVU297
 941 0056 FFF7FEFF 		bl	SPI_ReadData
 942              	.LVL43:
 113:../USER/main_03.c **** 	if(kinbwp>=256) kinbwp = 0;
 943              		.loc 1 113 12 is_stmt 1 view .LVU298
 112:../USER/main_03.c **** 	if(ch!=0) kinbuf[kinbwp++] = ch;
 944              		.loc 1 112 5 is_stmt 0 view .LVU299
 945 005a 40B2     		sxtb	r0, r0
 946              	.LVL44:
 113:../USER/main_03.c **** 	if(kinbwp>=256) kinbwp = 0;
 947              		.loc 1 113 2 is_stmt 1 view .LVU300
 113:../USER/main_03.c **** 	if(kinbwp>=256) kinbwp = 0;
 948              		.loc 1 113 4 is_stmt 0 view .LVU301
 949 005c 0028     		cmp	r0, #0
 950 005e E0D0     		beq	.L117
 113:../USER/main_03.c **** 	if(kinbwp>=256) kinbwp = 0;
 951              		.loc 1 113 25 view .LVU302
 952 0060 2268     		ldr	r2, [r4]
 953 0062 531C     		adds	r3, r2, #1
 113:../USER/main_03.c **** 	if(kinbwp>=256) kinbwp = 0;
 954              		.loc 1 113 29 view .LVU303
 955 0064 B854     		strb	r0, [r7, r2]
 113:../USER/main_03.c **** 	if(kinbwp>=256) kinbwp = 0;
 956              		.loc 1 113 25 view .LVU304
 957 0066 2360     		str	r3, [r4]
 958 0068 DCE7     		b	.L97
 959              	.LVL45:
 960              	.L101:
 113:../USER/main_03.c **** 	if(kinbwp>=256) kinbwp = 0;
 961              		.loc 1 113 25 view .LVU305
 962              	.LBE128:
 963              	.LBE129:
 137:../USER/main_03.c **** 	}
 964              		.loc 1 137 3 is_stmt 1 view .LVU306
 965 006a E8B2     		uxtb	r0, r5
 966 006c FFF7FEFF 		bl	SPI_WriteData
 967              	.LVL46:
 968              	.L95:
 969              	.LBB130:
 970              	.LBB131:
 113:../USER/main_03.c **** 	if(kinbwp>=256) kinbwp = 0;
 971              		.loc 1 113 29 is_stmt 0 discriminator 1 view .LVU307
 972 0070 184F     		ldr	r7, .L120+8
 114:../USER/main_03.c **** 	//
 973              		.loc 1 114 25 discriminator 1 view .LVU308
 974 0072 0026     		movs	r6, #0
 975 0074 16E0     		b	.L93
 976              	.LVL47:
 977              	.L119:
 114:../USER/main_03.c **** 	//
 978              		.loc 1 114 25 discriminator 1 view .LVU309
 979 0076 2368     		ldr	r3, [r4]
 980              	.L103:
 114:../USER/main_03.c **** 	//
 981              		.loc 1 114 2 is_stmt 1 view .LVU310
 114:../USER/main_03.c **** 	//
 982              		.loc 1 114 18 view .LVU311
 114:../USER/main_03.c **** 	//
 983              		.loc 1 114 4 is_stmt 0 view .LVU312
 984 0078 FF2B     		cmp	r3, #255
 985 007a 01DD     		ble	.L104
 114:../USER/main_03.c **** 	//
 986              		.loc 1 114 25 view .LVU313
 987 007c 0023     		movs	r3, #0
 988 007e 2660     		str	r6, [r4]
 989              	.L104:
 116:../USER/main_03.c **** 	if(kinbwp>=256) kinbwp = 0;
 990              		.loc 1 116 39 is_stmt 1 view .LVU314
 116:../USER/main_03.c **** 	if(kinbwp>=256) kinbwp = 0;
 991              		.loc 1 116 2 view .LVU315
 116:../USER/main_03.c **** 	if(kinbwp>=256) kinbwp = 0;
 992              		.loc 1 116 11 is_stmt 0 view .LVU316
 993 0080 4FF04021 		mov	r1, #1073758208
 994 0084 4868     		ldr	r0, [r1, #4]
 995              	.LVL48:
 116:../USER/main_03.c **** 	if(kinbwp>=256) kinbwp = 0;
 996              		.loc 1 116 52 view .LVU317
 997 0086 5A1C     		adds	r2, r3, #1
 116:../USER/main_03.c **** 	if(kinbwp>=256) kinbwp = 0;
 998              		.loc 1 116 4 view .LVU318
 999 0088 8007     		lsls	r0, r0, #30
 1000 008a 07D5     		bpl	.L106
 117:../USER/main_03.c **** 	//
 1001              		.loc 1 117 25 view .LVU319
 1002 008c B2F5807F 		cmp	r2, #256
 116:../USER/main_03.c **** 	if(kinbwp>=256) kinbwp = 0;
 1003              		.loc 1 116 63 view .LVU320
 1004 0090 0868     		ldr	r0, [r1]
 117:../USER/main_03.c **** 	//
 1005              		.loc 1 117 25 view .LVU321
 1006 0092 14BF     		ite	ne
 1007 0094 1146     		movne	r1, r2
 1008 0096 3146     		moveq	r1, r6
 116:../USER/main_03.c **** 	if(kinbwp>=256) kinbwp = 0;
 1009              		.loc 1 116 56 view .LVU322
 1010 0098 F854     		strb	r0, [r7, r3]
 117:../USER/main_03.c **** 	//
 1011              		.loc 1 117 2 is_stmt 1 view .LVU323
 117:../USER/main_03.c **** 	//
 1012              		.loc 1 117 25 is_stmt 0 view .LVU324
 1013 009a 2160     		str	r1, [r4]
 1014              	.L106:
 117:../USER/main_03.c **** 	//
 1015              		.loc 1 117 25 view .LVU325
 1016              	.LBE131:
 1017              	.LBE130:
 140:../USER/main_03.c **** }
 1018              		.loc 1 140 27 is_stmt 1 view .LVU326
 140:../USER/main_03.c **** }
 1019              		.loc 1 140 32 is_stmt 0 view .LVU327
 1020 009c 2846     		mov	r0, r5
 1021 009e FFF7FEFF 		bl	disp_vram
 1022              	.LVL49:
 140:../USER/main_03.c **** }
 1023              		.loc 1 140 2 view .LVU328
 1024 00a2 48B1     		cbz	r0, .L118
 1025              	.LVL50:
 1026              	.L93:
 140:../USER/main_03.c **** }
 1027              		.loc 1 140 2 is_stmt 1 discriminator 1 view .LVU329
 140:../USER/main_03.c **** }
 1028              		.loc 1 140 10 discriminator 1 view .LVU330
 140:../USER/main_03.c **** }
 1029              		.loc 1 140 14 discriminator 1 view .LVU331
 1030              	.LBB133:
 1031              	.LBI130:
 109:../USER/main_03.c **** 	char ch;
 1032              		.loc 1 109 6 discriminator 1 view .LVU332
 1033              	.LBB132:
 110:../USER/main_03.c **** 	//
 1034              		.loc 1 110 2 discriminator 1 view .LVU333
 112:../USER/main_03.c **** 	if(ch!=0) kinbuf[kinbwp++] = ch;
 1035              		.loc 1 112 2 discriminator 1 view .LVU334
 112:../USER/main_03.c **** 	if(ch!=0) kinbuf[kinbwp++] = ch;
 1036              		.loc 1 112 7 is_stmt 0 discriminator 1 view .LVU335
 1037 00a4 FFF7FEFF 		bl	SPI_ReadData
 1038              	.LVL51:
 113:../USER/main_03.c **** 	if(kinbwp>=256) kinbwp = 0;
 1039              		.loc 1 113 12 is_stmt 1 discriminator 1 view .LVU336
 112:../USER/main_03.c **** 	if(ch!=0) kinbuf[kinbwp++] = ch;
 1040              		.loc 1 112 5 is_stmt 0 discriminator 1 view .LVU337
 1041 00a8 40B2     		sxtb	r0, r0
 1042              	.LVL52:
 113:../USER/main_03.c **** 	if(kinbwp>=256) kinbwp = 0;
 1043              		.loc 1 113 2 is_stmt 1 discriminator 1 view .LVU338
 113:../USER/main_03.c **** 	if(kinbwp>=256) kinbwp = 0;
 1044              		.loc 1 113 4 is_stmt 0 discriminator 1 view .LVU339
 1045 00aa 0028     		cmp	r0, #0
 1046 00ac E3D0     		beq	.L119
 113:../USER/main_03.c **** 	if(kinbwp>=256) kinbwp = 0;
 1047              		.loc 1 113 25 view .LVU340
 1048 00ae 2268     		ldr	r2, [r4]
 1049 00b0 531C     		adds	r3, r2, #1
 113:../USER/main_03.c **** 	if(kinbwp>=256) kinbwp = 0;
 1050              		.loc 1 113 29 view .LVU341
 1051 00b2 B854     		strb	r0, [r7, r2]
 113:../USER/main_03.c **** 	if(kinbwp>=256) kinbwp = 0;
 1052              		.loc 1 113 25 view .LVU342
 1053 00b4 2360     		str	r3, [r4]
 1054 00b6 DFE7     		b	.L103
 1055              	.LVL53:
 1056              	.L118:
 113:../USER/main_03.c **** 	if(kinbwp>=256) kinbwp = 0;
 1057              		.loc 1 113 25 view .LVU343
 1058              	.LBE132:
 1059              	.LBE133:
 141:../USER/main_03.c **** 
 1060              		.loc 1 141 1 view .LVU344
 1061 00b8 03B0     		add	sp, sp, #12
 1062              		.cfi_remember_state
 1063              		.cfi_def_cfa_offset 20
 1064              		@ sp needed
 1065 00ba F0BD     		pop	{r4, r5, r6, r7, pc}
 1066              	.LVL54:
 1067              	.L116:
 1068              		.cfi_restore_state
 130:../USER/main_03.c **** 	else {
 1069              		.loc 1 130 3 is_stmt 1 view .LVU345
 1070 00bc 0146     		mov	r1, r0
 1071 00be 4FF04020 		mov	r0, #1073758208
 1072              	.LVL55:
 130:../USER/main_03.c **** 	else {
 1073              		.loc 1 130 3 is_stmt 0 view .LVU346
 1074 00c2 FFF7FEFF 		bl	UART_SendChar
 1075              	.LVL56:
 1076 00c6 024C     		ldr	r4, .L120+4
 1077 00c8 D2E7     		b	.L95
 1078              	.L121:
 1079 00ca 00BF     		.align	2
 1080              	.L120:
 1081 00cc 00000000 		.word	mdgpio
 1082 00d0 00000000 		.word	.LANCHOR0
 1083 00d4 00000000 		.word	kinbuf
 1084 00d8 00000140 		.word	1073807360
 1085              		.cfi_endproc
 1086              	.LFE40:
 1088              		.section	.text.puth,"ax",%progbits
 1089              		.align	1
 1090              		.p2align 2,,3
 1091              		.global	puth
 1092              		.syntax unified
 1093              		.thumb
 1094              		.thumb_func
 1095              		.fpu softvfp
 1097              	puth:
 1098              	.LVL57:
 1099              	.LFB41:
 143:../USER/main_03.c **** void puth2(dt) int dt;{ puth((dt >> 4) & 0xf); puth(dt & 0xf); }
 1100              		.loc 1 143 22 is_stmt 1 view -0
 1101              		.cfi_startproc
 1102              		@ args = 0, pretend = 0, frame = 0
 1103              		@ frame_needed = 0, uses_anonymous_args = 0
 1104              		@ link register save eliminated.
 143:../USER/main_03.c **** void puth2(dt) int dt;{ puth((dt >> 4) & 0xf); puth(dt & 0xf); }
 1105              		.loc 1 143 24 view .LVU348
 143:../USER/main_03.c **** void puth2(dt) int dt;{ puth((dt >> 4) & 0xf); puth(dt & 0xf); }
 1106              		.loc 1 143 26 is_stmt 0 view .LVU349
 1107 0000 0928     		cmp	r0, #9
 1108 0002 C3B2     		uxtb	r3, r0
 1109 0004 04DC     		bgt	.L123
 143:../USER/main_03.c **** void puth2(dt) int dt;{ puth((dt >> 4) & 0xf); puth(dt & 0xf); }
 1110              		.loc 1 143 34 is_stmt 1 discriminator 1 view .LVU350
 143:../USER/main_03.c **** void puth2(dt) int dt;{ puth((dt >> 4) & 0xf); puth(dt & 0xf); }
 1111              		.loc 1 143 44 is_stmt 0 discriminator 1 view .LVU351
 1112 0006 03F13000 		add	r0, r3, #48
 1113              	.LVL58:
 143:../USER/main_03.c **** void puth2(dt) int dt;{ puth((dt >> 4) & 0xf); puth(dt & 0xf); }
 1114              		.loc 1 143 34 discriminator 1 view .LVU352
 1115 000a 40B2     		sxtb	r0, r0
 1116 000c FFF7FEBF 		b	putch_uart
 1117              	.LVL59:
 1118              	.L123:
 143:../USER/main_03.c **** void puth2(dt) int dt;{ puth((dt >> 4) & 0xf); puth(dt & 0xf); }
 1119              		.loc 1 143 55 is_stmt 1 discriminator 2 view .LVU353
 143:../USER/main_03.c **** void puth2(dt) int dt;{ puth((dt >> 4) & 0xf); puth(dt & 0xf); }
 1120              		.loc 1 143 65 is_stmt 0 discriminator 2 view .LVU354
 1121 0010 03F13700 		add	r0, r3, #55
 1122              	.LVL60:
 143:../USER/main_03.c **** void puth2(dt) int dt;{ puth((dt >> 4) & 0xf); puth(dt & 0xf); }
 1123              		.loc 1 143 55 discriminator 2 view .LVU355
 1124 0014 40B2     		sxtb	r0, r0
 1125 0016 FFF7FEBF 		b	putch_uart
 1126              	.LVL61:
 1127              		.cfi_endproc
 1128              	.LFE41:
 1130 001a 00BF     		.section	.text.puth2,"ax",%progbits
 1131              		.align	1
 1132              		.p2align 2,,3
 1133              		.global	puth2
 1134              		.syntax unified
 1135              		.thumb
 1136              		.thumb_func
 1137              		.fpu softvfp
 1139              	puth2:
 1140              	.LVL62:
 1141              	.LFB42:
 144:../USER/main_03.c **** void puth4(dt) int dt;{ puth2((dt >> 8) & 0xff); puth2(dt & 0xff); }
 1142              		.loc 1 144 23 is_stmt 1 view -0
 1143              		.cfi_startproc
 1144              		@ args = 0, pretend = 0, frame = 0
 1145              		@ frame_needed = 0, uses_anonymous_args = 0
 144:../USER/main_03.c **** void puth4(dt) int dt;{ puth2((dt >> 8) & 0xff); puth2(dt & 0xff); }
 1146              		.loc 1 144 25 view .LVU357
 144:../USER/main_03.c **** void puth4(dt) int dt;{ puth2((dt >> 8) & 0xff); puth2(dt & 0xff); }
 1147              		.loc 1 144 23 is_stmt 0 view .LVU358
 1148 0000 10B5     		push	{r4, lr}
 1149              		.cfi_def_cfa_offset 8
 1150              		.cfi_offset 4, -8
 1151              		.cfi_offset 14, -4
 144:../USER/main_03.c **** void puth4(dt) int dt;{ puth2((dt >> 8) & 0xff); puth2(dt & 0xff); }
 1152              		.loc 1 144 23 view .LVU359
 1153 0002 0446     		mov	r4, r0
 144:../USER/main_03.c **** void puth4(dt) int dt;{ puth2((dt >> 8) & 0xff); puth2(dt & 0xff); }
 1154              		.loc 1 144 25 view .LVU360
 1155 0004 C0F30313 		ubfx	r3, r0, #4, #4
 1156              	.LVL63:
 1157              	.LBB138:
 1158              	.LBI138:
 143:../USER/main_03.c **** void puth2(dt) int dt;{ puth((dt >> 4) & 0xf); puth(dt & 0xf); }
 1159              		.loc 1 143 6 is_stmt 1 view .LVU361
 1160              	.LBB139:
 143:../USER/main_03.c **** void puth2(dt) int dt;{ puth((dt >> 4) & 0xf); puth(dt & 0xf); }
 1161              		.loc 1 143 24 view .LVU362
 143:../USER/main_03.c **** void puth2(dt) int dt;{ puth((dt >> 4) & 0xf); puth(dt & 0xf); }
 1162              		.loc 1 143 34 view .LVU363
 143:../USER/main_03.c **** void puth2(dt) int dt;{ puth((dt >> 4) & 0xf); puth(dt & 0xf); }
 1163              		.loc 1 143 55 view .LVU364
 1164 0008 D8B2     		uxtb	r0, r3
 1165              	.LVL64:
 143:../USER/main_03.c **** void puth2(dt) int dt;{ puth((dt >> 4) & 0xf); puth(dt & 0xf); }
 1166              		.loc 1 143 26 is_stmt 0 view .LVU365
 1167 000a 092B     		cmp	r3, #9
 143:../USER/main_03.c **** void puth2(dt) int dt;{ puth((dt >> 4) & 0xf); puth(dt & 0xf); }
 1168              		.loc 1 143 34 view .LVU366
 1169 000c D4BF     		ite	le
 1170 000e 3030     		addle	r0, r0, #48
 143:../USER/main_03.c **** void puth2(dt) int dt;{ puth((dt >> 4) & 0xf); puth(dt & 0xf); }
 1171              		.loc 1 143 55 view .LVU367
 1172 0010 3730     		addgt	r0, r0, #55
 1173              	.LBE139:
 1174              	.LBE138:
 144:../USER/main_03.c **** void puth4(dt) int dt;{ puth2((dt >> 8) & 0xff); puth2(dt & 0xff); }
 1175              		.loc 1 144 48 view .LVU368
 1176 0012 04F00F04 		and	r4, r4, #15
 1177              	.LVL65:
 1178              	.LBB141:
 1179              	.LBB140:
 143:../USER/main_03.c **** void puth2(dt) int dt;{ puth((dt >> 4) & 0xf); puth(dt & 0xf); }
 1180              		.loc 1 143 55 view .LVU369
 1181 0016 FFF7FEFF 		bl	putch_uart
 1182              	.LVL66:
 143:../USER/main_03.c **** void puth2(dt) int dt;{ puth((dt >> 4) & 0xf); puth(dt & 0xf); }
 1183              		.loc 1 143 55 view .LVU370
 1184              	.LBE140:
 1185              	.LBE141:
 144:../USER/main_03.c **** void puth4(dt) int dt;{ puth2((dt >> 8) & 0xff); puth2(dt & 0xff); }
 1186              		.loc 1 144 48 is_stmt 1 view .LVU371
 1187              	.LBB142:
 1188              	.LBI142:
 143:../USER/main_03.c **** void puth2(dt) int dt;{ puth((dt >> 4) & 0xf); puth(dt & 0xf); }
 1189              		.loc 1 143 6 view .LVU372
 1190              	.LBB143:
 143:../USER/main_03.c **** void puth2(dt) int dt;{ puth((dt >> 4) & 0xf); puth(dt & 0xf); }
 1191              		.loc 1 143 24 view .LVU373
 143:../USER/main_03.c **** void puth2(dt) int dt;{ puth((dt >> 4) & 0xf); puth(dt & 0xf); }
 1192              		.loc 1 143 26 is_stmt 0 view .LVU374
 1193 001a 092C     		cmp	r4, #9
 1194 001c E0B2     		uxtb	r0, r4
 1195 001e 04DC     		bgt	.L127
 143:../USER/main_03.c **** void puth2(dt) int dt;{ puth((dt >> 4) & 0xf); puth(dt & 0xf); }
 1196              		.loc 1 143 34 is_stmt 1 view .LVU375
 1197              	.LBE143:
 1198              	.LBE142:
 144:../USER/main_03.c **** void puth4(dt) int dt;{ puth2((dt >> 8) & 0xff); puth2(dt & 0xff); }
 1199              		.loc 1 144 1 is_stmt 0 view .LVU376
 1200 0020 BDE81040 		pop	{r4, lr}
 1201              		.cfi_remember_state
 1202              		.cfi_restore 14
 1203              		.cfi_restore 4
 1204              		.cfi_def_cfa_offset 0
 1205              	.LVL67:
 1206              	.LBB146:
 1207              	.LBB144:
 143:../USER/main_03.c **** void puth2(dt) int dt;{ puth((dt >> 4) & 0xf); puth(dt & 0xf); }
 1208              		.loc 1 143 34 view .LVU377
 1209 0024 3030     		adds	r0, r0, #48
 1210 0026 FFF7FEBF 		b	putch_uart
 1211              	.LVL68:
 1212              	.L127:
 1213              		.cfi_restore_state
 143:../USER/main_03.c **** void puth2(dt) int dt;{ puth((dt >> 4) & 0xf); puth(dt & 0xf); }
 1214              		.loc 1 143 55 is_stmt 1 view .LVU378
 1215 002a 3730     		adds	r0, r0, #55
 1216              	.LBE144:
 1217              	.LBE146:
 144:../USER/main_03.c **** void puth4(dt) int dt;{ puth2((dt >> 8) & 0xff); puth2(dt & 0xff); }
 1218              		.loc 1 144 1 is_stmt 0 view .LVU379
 1219 002c BDE81040 		pop	{r4, lr}
 1220              		.cfi_restore 14
 1221              		.cfi_restore 4
 1222              		.cfi_def_cfa_offset 0
 1223              	.LVL69:
 1224              	.LBB147:
 1225              	.LBB145:
 143:../USER/main_03.c **** void puth2(dt) int dt;{ puth((dt >> 4) & 0xf); puth(dt & 0xf); }
 1226              		.loc 1 143 55 view .LVU380
 1227 0030 FFF7FEBF 		b	putch_uart
 1228              	.LVL70:
 1229              	.LBE145:
 1230              	.LBE147:
 1231              		.cfi_endproc
 1232              	.LFE42:
 1234              		.section	.text.puth4,"ax",%progbits
 1235              		.align	1
 1236              		.p2align 2,,3
 1237              		.global	puth4
 1238              		.syntax unified
 1239              		.thumb
 1240              		.thumb_func
 1241              		.fpu softvfp
 1243              	puth4:
 1244              	.LVL71:
 1245              	.LFB43:
 145:../USER/main_03.c **** void puth6(dt) long dt;{ int dh,dl; dh = dt >> 16; dl = dt & 0xffff; puth2(dh); puth4(dl); }
 1246              		.loc 1 145 23 is_stmt 1 view -0
 1247              		.cfi_startproc
 1248              		@ args = 0, pretend = 0, frame = 0
 1249              		@ frame_needed = 0, uses_anonymous_args = 0
 145:../USER/main_03.c **** void puth6(dt) long dt;{ int dh,dl; dh = dt >> 16; dl = dt & 0xffff; puth2(dh); puth4(dl); }
 1250              		.loc 1 145 25 view .LVU382
 145:../USER/main_03.c **** void puth6(dt) long dt;{ int dh,dl; dh = dt >> 16; dl = dt & 0xffff; puth2(dh); puth4(dl); }
 1251              		.loc 1 145 23 is_stmt 0 view .LVU383
 1252 0000 38B5     		push	{r3, r4, r5, lr}
 1253              		.cfi_def_cfa_offset 16
 1254              		.cfi_offset 3, -16
 1255              		.cfi_offset 4, -12
 1256              		.cfi_offset 5, -8
 1257              		.cfi_offset 14, -4
 145:../USER/main_03.c **** void puth6(dt) long dt;{ int dh,dl; dh = dt >> 16; dl = dt & 0xffff; puth2(dh); puth4(dl); }
 1258              		.loc 1 145 23 view .LVU384
 1259 0002 0446     		mov	r4, r0
 1260              	.LBB160:
 1261              	.LBB161:
 144:../USER/main_03.c **** void puth4(dt) int dt;{ puth2((dt >> 8) & 0xff); puth2(dt & 0xff); }
 1262              		.loc 1 144 34 view .LVU385
 1263 0004 C0F30333 		ubfx	r3, r0, #12, #4
 1264 0008 D8B2     		uxtb	r0, r3
 1265              	.LVL72:
 1266              	.LBB162:
 1267              	.LBB163:
 143:../USER/main_03.c **** void puth2(dt) int dt;{ puth((dt >> 4) & 0xf); puth(dt & 0xf); }
 1268              		.loc 1 143 26 view .LVU386
 1269 000a 092B     		cmp	r3, #9
 143:../USER/main_03.c **** void puth2(dt) int dt;{ puth((dt >> 4) & 0xf); puth(dt & 0xf); }
 1270              		.loc 1 143 34 view .LVU387
 1271 000c D4BF     		ite	le
 1272 000e 3030     		addle	r0, r0, #48
 143:../USER/main_03.c **** void puth2(dt) int dt;{ puth((dt >> 4) & 0xf); puth(dt & 0xf); }
 1273              		.loc 1 143 55 view .LVU388
 1274 0010 3730     		addgt	r0, r0, #55
 1275              	.LBE163:
 1276              	.LBE162:
 1277              	.LBE161:
 1278              	.LBE160:
 145:../USER/main_03.c **** void puth6(dt) long dt;{ int dh,dl; dh = dt >> 16; dl = dt & 0xffff; puth2(dh); puth4(dl); }
 1279              		.loc 1 145 35 view .LVU389
 1280 0012 2512     		asrs	r5, r4, #8
 1281              	.LVL73:
 1282              	.LBB169:
 1283              	.LBI160:
 144:../USER/main_03.c **** void puth4(dt) int dt;{ puth2((dt >> 8) & 0xff); puth2(dt & 0xff); }
 1284              		.loc 1 144 6 is_stmt 1 view .LVU390
 1285              	.LBB168:
 144:../USER/main_03.c **** void puth4(dt) int dt;{ puth2((dt >> 8) & 0xff); puth2(dt & 0xff); }
 1286              		.loc 1 144 25 view .LVU391
 1287              	.LBB165:
 1288              	.LBI162:
 143:../USER/main_03.c **** void puth2(dt) int dt;{ puth((dt >> 4) & 0xf); puth(dt & 0xf); }
 1289              		.loc 1 143 6 view .LVU392
 1290              	.LBB164:
 143:../USER/main_03.c **** void puth2(dt) int dt;{ puth((dt >> 4) & 0xf); puth(dt & 0xf); }
 1291              		.loc 1 143 24 view .LVU393
 143:../USER/main_03.c **** void puth2(dt) int dt;{ puth((dt >> 4) & 0xf); puth(dt & 0xf); }
 1292              		.loc 1 143 34 view .LVU394
 143:../USER/main_03.c **** void puth2(dt) int dt;{ puth((dt >> 4) & 0xf); puth(dt & 0xf); }
 1293              		.loc 1 143 55 view .LVU395
 1294 0014 FFF7FEFF 		bl	putch_uart
 1295              	.LVL74:
 143:../USER/main_03.c **** void puth2(dt) int dt;{ puth((dt >> 4) & 0xf); puth(dt & 0xf); }
 1296              		.loc 1 143 55 is_stmt 0 view .LVU396
 1297              	.LBE164:
 1298              	.LBE165:
 144:../USER/main_03.c **** void puth4(dt) int dt;{ puth2((dt >> 8) & 0xff); puth2(dt & 0xff); }
 1299              		.loc 1 144 48 is_stmt 1 view .LVU397
 1300 0018 05F00F03 		and	r3, r5, #15
 1301              	.LVL75:
 1302              	.LBB166:
 1303              	.LBI166:
 143:../USER/main_03.c **** void puth2(dt) int dt;{ puth((dt >> 4) & 0xf); puth(dt & 0xf); }
 1304              		.loc 1 143 6 view .LVU398
 1305              	.LBB167:
 143:../USER/main_03.c **** void puth2(dt) int dt;{ puth((dt >> 4) & 0xf); puth(dt & 0xf); }
 1306              		.loc 1 143 24 view .LVU399
 143:../USER/main_03.c **** void puth2(dt) int dt;{ puth((dt >> 4) & 0xf); puth(dt & 0xf); }
 1307              		.loc 1 143 34 view .LVU400
 143:../USER/main_03.c **** void puth2(dt) int dt;{ puth((dt >> 4) & 0xf); puth(dt & 0xf); }
 1308              		.loc 1 143 55 view .LVU401
 1309 001c D8B2     		uxtb	r0, r3
 143:../USER/main_03.c **** void puth2(dt) int dt;{ puth((dt >> 4) & 0xf); puth(dt & 0xf); }
 1310              		.loc 1 143 26 is_stmt 0 view .LVU402
 1311 001e 092B     		cmp	r3, #9
 143:../USER/main_03.c **** void puth2(dt) int dt;{ puth((dt >> 4) & 0xf); puth(dt & 0xf); }
 1312              		.loc 1 143 34 view .LVU403
 1313 0020 D4BF     		ite	le
 1314 0022 3030     		addle	r0, r0, #48
 143:../USER/main_03.c **** void puth2(dt) int dt;{ puth((dt >> 4) & 0xf); puth(dt & 0xf); }
 1315              		.loc 1 143 55 view .LVU404
 1316 0024 3730     		addgt	r0, r0, #55
 1317 0026 FFF7FEFF 		bl	putch_uart
 1318              	.LVL76:
 143:../USER/main_03.c **** void puth2(dt) int dt;{ puth((dt >> 4) & 0xf); puth(dt & 0xf); }
 1319              		.loc 1 143 55 view .LVU405
 1320              	.LBE167:
 1321              	.LBE166:
 1322              	.LBE168:
 1323              	.LBE169:
 145:../USER/main_03.c **** void puth6(dt) long dt;{ int dh,dl; dh = dt >> 16; dl = dt & 0xffff; puth2(dh); puth4(dl); }
 1324              		.loc 1 145 50 is_stmt 1 view .LVU406
 1325              	.LBB170:
 1326              	.LBI170:
 144:../USER/main_03.c **** void puth4(dt) int dt;{ puth2((dt >> 8) & 0xff); puth2(dt & 0xff); }
 1327              		.loc 1 144 6 view .LVU407
 1328              	.LBB171:
 144:../USER/main_03.c **** void puth4(dt) int dt;{ puth2((dt >> 8) & 0xff); puth2(dt & 0xff); }
 1329              		.loc 1 144 25 view .LVU408
 144:../USER/main_03.c **** void puth4(dt) int dt;{ puth2((dt >> 8) & 0xff); puth2(dt & 0xff); }
 1330              		.loc 1 144 34 is_stmt 0 view .LVU409
 1331 002a C4F30313 		ubfx	r3, r4, #4, #4
 1332              	.LVL77:
 1333              	.LBB172:
 1334              	.LBI172:
 143:../USER/main_03.c **** void puth2(dt) int dt;{ puth((dt >> 4) & 0xf); puth(dt & 0xf); }
 1335              		.loc 1 143 6 is_stmt 1 view .LVU410
 1336              	.LBB173:
 143:../USER/main_03.c **** void puth2(dt) int dt;{ puth((dt >> 4) & 0xf); puth(dt & 0xf); }
 1337              		.loc 1 143 24 view .LVU411
 143:../USER/main_03.c **** void puth2(dt) int dt;{ puth((dt >> 4) & 0xf); puth(dt & 0xf); }
 1338              		.loc 1 143 34 view .LVU412
 143:../USER/main_03.c **** void puth2(dt) int dt;{ puth((dt >> 4) & 0xf); puth(dt & 0xf); }
 1339              		.loc 1 143 55 view .LVU413
 1340 002e D8B2     		uxtb	r0, r3
 143:../USER/main_03.c **** void puth2(dt) int dt;{ puth((dt >> 4) & 0xf); puth(dt & 0xf); }
 1341              		.loc 1 143 26 is_stmt 0 view .LVU414
 1342 0030 092B     		cmp	r3, #9
 143:../USER/main_03.c **** void puth2(dt) int dt;{ puth((dt >> 4) & 0xf); puth(dt & 0xf); }
 1343              		.loc 1 143 34 view .LVU415
 1344 0032 D4BF     		ite	le
 1345 0034 3030     		addle	r0, r0, #48
 143:../USER/main_03.c **** void puth2(dt) int dt;{ puth((dt >> 4) & 0xf); puth(dt & 0xf); }
 1346              		.loc 1 143 55 view .LVU416
 1347 0036 3730     		addgt	r0, r0, #55
 1348              	.LBE173:
 1349              	.LBE172:
 144:../USER/main_03.c **** void puth4(dt) int dt;{ puth2((dt >> 8) & 0xff); puth2(dt & 0xff); }
 1350              		.loc 1 144 48 view .LVU417
 1351 0038 04F00F04 		and	r4, r4, #15
 1352              	.LVL78:
 1353              	.LBB175:
 1354              	.LBB174:
 143:../USER/main_03.c **** void puth2(dt) int dt;{ puth((dt >> 4) & 0xf); puth(dt & 0xf); }
 1355              		.loc 1 143 55 view .LVU418
 1356 003c FFF7FEFF 		bl	putch_uart
 1357              	.LVL79:
 143:../USER/main_03.c **** void puth2(dt) int dt;{ puth((dt >> 4) & 0xf); puth(dt & 0xf); }
 1358              		.loc 1 143 55 view .LVU419
 1359              	.LBE174:
 1360              	.LBE175:
 144:../USER/main_03.c **** void puth4(dt) int dt;{ puth2((dt >> 8) & 0xff); puth2(dt & 0xff); }
 1361              		.loc 1 144 48 is_stmt 1 view .LVU420
 1362              	.LBB176:
 1363              	.LBI176:
 143:../USER/main_03.c **** void puth2(dt) int dt;{ puth((dt >> 4) & 0xf); puth(dt & 0xf); }
 1364              		.loc 1 143 6 view .LVU421
 1365              	.LBB177:
 143:../USER/main_03.c **** void puth2(dt) int dt;{ puth((dt >> 4) & 0xf); puth(dt & 0xf); }
 1366              		.loc 1 143 24 view .LVU422
 143:../USER/main_03.c **** void puth2(dt) int dt;{ puth((dt >> 4) & 0xf); puth(dt & 0xf); }
 1367              		.loc 1 143 26 is_stmt 0 view .LVU423
 1368 0040 092C     		cmp	r4, #9
 1369 0042 E0B2     		uxtb	r0, r4
 1370 0044 04DC     		bgt	.L136
 143:../USER/main_03.c **** void puth2(dt) int dt;{ puth((dt >> 4) & 0xf); puth(dt & 0xf); }
 1371              		.loc 1 143 34 is_stmt 1 view .LVU424
 1372              	.LBE177:
 1373              	.LBE176:
 1374              	.LBE171:
 1375              	.LBE170:
 145:../USER/main_03.c **** void puth6(dt) long dt;{ int dh,dl; dh = dt >> 16; dl = dt & 0xffff; puth2(dh); puth4(dl); }
 1376              		.loc 1 145 1 is_stmt 0 view .LVU425
 1377 0046 BDE83840 		pop	{r3, r4, r5, lr}
 1378              		.cfi_remember_state
 1379              		.cfi_restore 14
 1380              		.cfi_restore 5
 1381              		.cfi_restore 4
 1382              		.cfi_restore 3
 1383              		.cfi_def_cfa_offset 0
 1384              	.LVL80:
 1385              	.LBB184:
 1386              	.LBB182:
 1387              	.LBB180:
 1388              	.LBB178:
 143:../USER/main_03.c **** void puth2(dt) int dt;{ puth((dt >> 4) & 0xf); puth(dt & 0xf); }
 1389              		.loc 1 143 34 view .LVU426
 1390 004a 3030     		adds	r0, r0, #48
 1391 004c FFF7FEBF 		b	putch_uart
 1392              	.LVL81:
 1393              	.L136:
 1394              		.cfi_restore_state
 143:../USER/main_03.c **** void puth2(dt) int dt;{ puth((dt >> 4) & 0xf); puth(dt & 0xf); }
 1395              		.loc 1 143 55 is_stmt 1 view .LVU427
 1396 0050 3730     		adds	r0, r0, #55
 1397              	.LBE178:
 1398              	.LBE180:
 1399              	.LBE182:
 1400              	.LBE184:
 145:../USER/main_03.c **** void puth6(dt) long dt;{ int dh,dl; dh = dt >> 16; dl = dt & 0xffff; puth2(dh); puth4(dl); }
 1401              		.loc 1 145 1 is_stmt 0 view .LVU428
 1402 0052 BDE83840 		pop	{r3, r4, r5, lr}
 1403              		.cfi_restore 14
 1404              		.cfi_restore 5
 1405              		.cfi_restore 4
 1406              		.cfi_restore 3
 1407              		.cfi_def_cfa_offset 0
 1408              	.LVL82:
 1409              	.LBB185:
 1410              	.LBB183:
 1411              	.LBB181:
 1412              	.LBB179:
 143:../USER/main_03.c **** void puth2(dt) int dt;{ puth((dt >> 4) & 0xf); puth(dt & 0xf); }
 1413              		.loc 1 143 55 view .LVU429
 1414 0056 FFF7FEBF 		b	putch_uart
 1415              	.LVL83:
 1416              	.LBE179:
 1417              	.LBE181:
 1418              	.LBE183:
 1419              	.LBE185:
 1420              		.cfi_endproc
 1421              	.LFE43:
 1423 005a 00BF     		.section	.text.puth6,"ax",%progbits
 1424              		.align	1
 1425              		.p2align 2,,3
 1426              		.global	puth6
 1427              		.syntax unified
 1428              		.thumb
 1429              		.thumb_func
 1430              		.fpu softvfp
 1432              	puth6:
 1433              	.LVL84:
 1434              	.LFB44:
 146:../USER/main_03.c **** void puth8(dt) long dt;{ int dh,dl; dh = dt >> 16; dl = dt & 0xffff; puth4(dh); puth4(dl); }
 1435              		.loc 1 146 24 is_stmt 1 view -0
 1436              		.cfi_startproc
 1437              		@ args = 0, pretend = 0, frame = 0
 1438              		@ frame_needed = 0, uses_anonymous_args = 0
 146:../USER/main_03.c **** void puth8(dt) long dt;{ int dh,dl; dh = dt >> 16; dl = dt & 0xffff; puth4(dh); puth4(dl); }
 1439              		.loc 1 146 26 view .LVU431
 146:../USER/main_03.c **** void puth8(dt) long dt;{ int dh,dl; dh = dt >> 16; dl = dt & 0xffff; puth4(dh); puth4(dl); }
 1440              		.loc 1 146 37 view .LVU432
 146:../USER/main_03.c **** void puth8(dt) long dt;{ int dh,dl; dh = dt >> 16; dl = dt & 0xffff; puth4(dh); puth4(dl); }
 1441              		.loc 1 146 24 is_stmt 0 view .LVU433
 1442 0000 70B5     		push	{r4, r5, r6, lr}
 1443              		.cfi_def_cfa_offset 16
 1444              		.cfi_offset 4, -16
 1445              		.cfi_offset 5, -12
 1446              		.cfi_offset 6, -8
 1447              		.cfi_offset 14, -4
 146:../USER/main_03.c **** void puth8(dt) long dt;{ int dh,dl; dh = dt >> 16; dl = dt & 0xffff; puth4(dh); puth4(dl); }
 1448              		.loc 1 146 24 view .LVU434
 1449 0002 0446     		mov	r4, r0
 1450              	.LBB206:
 1451              	.LBB207:
 144:../USER/main_03.c **** void puth4(dt) int dt;{ puth2((dt >> 8) & 0xff); puth2(dt & 0xff); }
 1452              		.loc 1 144 25 view .LVU435
 1453 0004 C0F30353 		ubfx	r3, r0, #20, #4
 1454 0008 D8B2     		uxtb	r0, r3
 1455              	.LVL85:
 1456              	.LBB208:
 1457              	.LBB209:
 143:../USER/main_03.c **** void puth2(dt) int dt;{ puth((dt >> 4) & 0xf); puth(dt & 0xf); }
 1458              		.loc 1 143 26 view .LVU436
 1459 000a 092B     		cmp	r3, #9
 143:../USER/main_03.c **** void puth2(dt) int dt;{ puth((dt >> 4) & 0xf); puth(dt & 0xf); }
 1460              		.loc 1 143 34 view .LVU437
 1461 000c D4BF     		ite	le
 1462 000e 3030     		addle	r0, r0, #48
 143:../USER/main_03.c **** void puth2(dt) int dt;{ puth((dt >> 4) & 0xf); puth(dt & 0xf); }
 1463              		.loc 1 143 55 view .LVU438
 1464 0010 3730     		addgt	r0, r0, #55
 1465              	.LBE209:
 1466              	.LBE208:
 1467              	.LBE207:
 1468              	.LBE206:
 146:../USER/main_03.c **** void puth8(dt) long dt;{ int dh,dl; dh = dt >> 16; dl = dt & 0xffff; puth4(dh); puth4(dl); }
 1469              		.loc 1 146 40 view .LVU439
 1470 0012 2614     		asrs	r6, r4, #16
 1471              	.LVL86:
 146:../USER/main_03.c **** void puth8(dt) long dt;{ int dh,dl; dh = dt >> 16; dl = dt & 0xffff; puth4(dh); puth4(dl); }
 1472              		.loc 1 146 52 is_stmt 1 view .LVU440
 1473              	.LBB220:
 1474              	.LBB218:
 1475              	.LBB212:
 1476              	.LBB210:
 143:../USER/main_03.c **** void puth2(dt) int dt;{ puth((dt >> 4) & 0xf); puth(dt & 0xf); }
 1477              		.loc 1 143 55 is_stmt 0 view .LVU441
 1478 0014 FFF7FEFF 		bl	putch_uart
 1479              	.LVL87:
 1480              	.LBE210:
 1481              	.LBE212:
 144:../USER/main_03.c **** void puth4(dt) int dt;{ puth2((dt >> 8) & 0xff); puth2(dt & 0xff); }
 1482              		.loc 1 144 48 view .LVU442
 1483 0018 06F00F03 		and	r3, r6, #15
 1484 001c D8B2     		uxtb	r0, r3
 1485              	.LBB213:
 1486              	.LBB214:
 143:../USER/main_03.c **** void puth2(dt) int dt;{ puth((dt >> 4) & 0xf); puth(dt & 0xf); }
 1487              		.loc 1 143 26 view .LVU443
 1488 001e 092B     		cmp	r3, #9
 1489              	.LBE214:
 1490              	.LBE213:
 1491              	.LBE218:
 1492              	.LBE220:
 146:../USER/main_03.c **** void puth8(dt) long dt;{ int dh,dl; dh = dt >> 16; dl = dt & 0xffff; puth4(dh); puth4(dl); }
 1493              		.loc 1 146 55 view .LVU444
 1494 0020 A5B2     		uxth	r5, r4
 1495              	.LVL88:
 146:../USER/main_03.c **** void puth8(dt) long dt;{ int dh,dl; dh = dt >> 16; dl = dt & 0xffff; puth4(dh); puth4(dl); }
 1496              		.loc 1 146 70 is_stmt 1 view .LVU445
 1497              	.LBB221:
 1498              	.LBI206:
 144:../USER/main_03.c **** void puth4(dt) int dt;{ puth2((dt >> 8) & 0xff); puth2(dt & 0xff); }
 1499              		.loc 1 144 6 view .LVU446
 1500              	.LBB219:
 144:../USER/main_03.c **** void puth4(dt) int dt;{ puth2((dt >> 8) & 0xff); puth2(dt & 0xff); }
 1501              		.loc 1 144 25 view .LVU447
 1502              	.LBB216:
 1503              	.LBI208:
 143:../USER/main_03.c **** void puth2(dt) int dt;{ puth((dt >> 4) & 0xf); puth(dt & 0xf); }
 1504              		.loc 1 143 6 view .LVU448
 1505              	.LBB211:
 143:../USER/main_03.c **** void puth2(dt) int dt;{ puth((dt >> 4) & 0xf); puth(dt & 0xf); }
 1506              		.loc 1 143 24 view .LVU449
 143:../USER/main_03.c **** void puth2(dt) int dt;{ puth((dt >> 4) & 0xf); puth(dt & 0xf); }
 1507              		.loc 1 143 34 view .LVU450
 143:../USER/main_03.c **** void puth2(dt) int dt;{ puth((dt >> 4) & 0xf); puth(dt & 0xf); }
 1508              		.loc 1 143 55 view .LVU451
 1509              	.LBE211:
 1510              	.LBE216:
 144:../USER/main_03.c **** void puth4(dt) int dt;{ puth2((dt >> 8) & 0xff); puth2(dt & 0xff); }
 1511              		.loc 1 144 48 view .LVU452
 1512              	.LBB217:
 1513              	.LBI213:
 143:../USER/main_03.c **** void puth2(dt) int dt;{ puth((dt >> 4) & 0xf); puth(dt & 0xf); }
 1514              		.loc 1 143 6 view .LVU453
 1515              	.LBB215:
 143:../USER/main_03.c **** void puth2(dt) int dt;{ puth((dt >> 4) & 0xf); puth(dt & 0xf); }
 1516              		.loc 1 143 24 view .LVU454
 143:../USER/main_03.c **** void puth2(dt) int dt;{ puth((dt >> 4) & 0xf); puth(dt & 0xf); }
 1517              		.loc 1 143 34 view .LVU455
 143:../USER/main_03.c **** void puth2(dt) int dt;{ puth((dt >> 4) & 0xf); puth(dt & 0xf); }
 1518              		.loc 1 143 55 view .LVU456
 143:../USER/main_03.c **** void puth2(dt) int dt;{ puth((dt >> 4) & 0xf); puth(dt & 0xf); }
 1519              		.loc 1 143 34 is_stmt 0 view .LVU457
 1520 0022 D4BF     		ite	le
 1521 0024 3030     		addle	r0, r0, #48
 143:../USER/main_03.c **** void puth2(dt) int dt;{ puth((dt >> 4) & 0xf); puth(dt & 0xf); }
 1522              		.loc 1 143 55 view .LVU458
 1523 0026 3730     		addgt	r0, r0, #55
 1524 0028 FFF7FEFF 		bl	putch_uart
 1525              	.LVL89:
 143:../USER/main_03.c **** void puth2(dt) int dt;{ puth((dt >> 4) & 0xf); puth(dt & 0xf); }
 1526              		.loc 1 143 55 view .LVU459
 1527              	.LBE215:
 1528              	.LBE217:
 1529              	.LBE219:
 1530              	.LBE221:
 146:../USER/main_03.c **** void puth8(dt) long dt;{ int dh,dl; dh = dt >> 16; dl = dt & 0xffff; puth4(dh); puth4(dl); }
 1531              		.loc 1 146 81 is_stmt 1 view .LVU460
 1532              	.LBB222:
 1533              	.LBI222:
 145:../USER/main_03.c **** void puth6(dt) long dt;{ int dh,dl; dh = dt >> 16; dl = dt & 0xffff; puth2(dh); puth4(dl); }
 1534              		.loc 1 145 6 view .LVU461
 1535              	.LBB223:
 145:../USER/main_03.c **** void puth6(dt) long dt;{ int dh,dl; dh = dt >> 16; dl = dt & 0xffff; puth2(dh); puth4(dl); }
 1536              		.loc 1 145 25 view .LVU462
 1537              	.LBB224:
 1538              	.LBB225:
 144:../USER/main_03.c **** void puth4(dt) int dt;{ puth2((dt >> 8) & 0xff); puth2(dt & 0xff); }
 1539              		.loc 1 144 34 is_stmt 0 view .LVU463
 1540 002c 2B13     		asrs	r3, r5, #12
 1541 002e D8B2     		uxtb	r0, r3
 1542              	.LBB226:
 1543              	.LBB227:
 143:../USER/main_03.c **** void puth2(dt) int dt;{ puth((dt >> 4) & 0xf); puth(dt & 0xf); }
 1544              		.loc 1 143 26 view .LVU464
 1545 0030 092B     		cmp	r3, #9
 1546              	.LBE227:
 1547              	.LBE226:
 1548              	.LBE225:
 1549              	.LBE224:
 145:../USER/main_03.c **** void puth6(dt) long dt;{ int dh,dl; dh = dt >> 16; dl = dt & 0xffff; puth2(dh); puth4(dl); }
 1550              		.loc 1 145 35 view .LVU465
 1551 0032 4FEA2525 		asr	r5, r5, #8
 1552              	.LVL90:
 1553              	.LBB235:
 1554              	.LBI224:
 144:../USER/main_03.c **** void puth4(dt) int dt;{ puth2((dt >> 8) & 0xff); puth2(dt & 0xff); }
 1555              		.loc 1 144 6 is_stmt 1 view .LVU466
 1556              	.LBB234:
 144:../USER/main_03.c **** void puth4(dt) int dt;{ puth2((dt >> 8) & 0xff); puth2(dt & 0xff); }
 1557              		.loc 1 144 25 view .LVU467
 1558              	.LBB230:
 1559              	.LBI226:
 143:../USER/main_03.c **** void puth2(dt) int dt;{ puth((dt >> 4) & 0xf); puth(dt & 0xf); }
 1560              		.loc 1 143 6 view .LVU468
 1561              	.LBB228:
 143:../USER/main_03.c **** void puth2(dt) int dt;{ puth((dt >> 4) & 0xf); puth(dt & 0xf); }
 1562              		.loc 1 143 24 view .LVU469
 143:../USER/main_03.c **** void puth2(dt) int dt;{ puth((dt >> 4) & 0xf); puth(dt & 0xf); }
 1563              		.loc 1 143 34 view .LVU470
 143:../USER/main_03.c **** void puth2(dt) int dt;{ puth((dt >> 4) & 0xf); puth(dt & 0xf); }
 1564              		.loc 1 143 55 view .LVU471
 143:../USER/main_03.c **** void puth2(dt) int dt;{ puth((dt >> 4) & 0xf); puth(dt & 0xf); }
 1565              		.loc 1 143 34 is_stmt 0 view .LVU472
 1566 0036 D4BF     		ite	le
 1567 0038 3030     		addle	r0, r0, #48
 143:../USER/main_03.c **** void puth2(dt) int dt;{ puth((dt >> 4) & 0xf); puth(dt & 0xf); }
 1568              		.loc 1 143 55 view .LVU473
 1569 003a 3730     		addgt	r0, r0, #55
 1570              	.LBE228:
 1571              	.LBE230:
 144:../USER/main_03.c **** void puth4(dt) int dt;{ puth2((dt >> 8) & 0xff); puth2(dt & 0xff); }
 1572              		.loc 1 144 48 view .LVU474
 1573 003c 05F00F05 		and	r5, r5, #15
 1574              	.LVL91:
 1575              	.LBB231:
 1576              	.LBB229:
 143:../USER/main_03.c **** void puth2(dt) int dt;{ puth((dt >> 4) & 0xf); puth(dt & 0xf); }
 1577              		.loc 1 143 55 view .LVU475
 1578 0040 FFF7FEFF 		bl	putch_uart
 1579              	.LVL92:
 143:../USER/main_03.c **** void puth2(dt) int dt;{ puth((dt >> 4) & 0xf); puth(dt & 0xf); }
 1580              		.loc 1 143 55 view .LVU476
 1581              	.LBE229:
 1582              	.LBE231:
 144:../USER/main_03.c **** void puth4(dt) int dt;{ puth2((dt >> 8) & 0xff); puth2(dt & 0xff); }
 1583              		.loc 1 144 48 is_stmt 1 view .LVU477
 1584              	.LBB232:
 1585              	.LBI232:
 143:../USER/main_03.c **** void puth2(dt) int dt;{ puth((dt >> 4) & 0xf); puth(dt & 0xf); }
 1586              		.loc 1 143 6 view .LVU478
 1587              	.LBB233:
 143:../USER/main_03.c **** void puth2(dt) int dt;{ puth((dt >> 4) & 0xf); puth(dt & 0xf); }
 1588              		.loc 1 143 24 view .LVU479
 143:../USER/main_03.c **** void puth2(dt) int dt;{ puth((dt >> 4) & 0xf); puth(dt & 0xf); }
 1589              		.loc 1 143 34 view .LVU480
 143:../USER/main_03.c **** void puth2(dt) int dt;{ puth((dt >> 4) & 0xf); puth(dt & 0xf); }
 1590              		.loc 1 143 55 view .LVU481
 1591 0044 E8B2     		uxtb	r0, r5
 143:../USER/main_03.c **** void puth2(dt) int dt;{ puth((dt >> 4) & 0xf); puth(dt & 0xf); }
 1592              		.loc 1 143 26 is_stmt 0 view .LVU482
 1593 0046 092D     		cmp	r5, #9
 143:../USER/main_03.c **** void puth2(dt) int dt;{ puth((dt >> 4) & 0xf); puth(dt & 0xf); }
 1594              		.loc 1 143 34 view .LVU483
 1595 0048 D4BF     		ite	le
 1596 004a 3030     		addle	r0, r0, #48
 143:../USER/main_03.c **** void puth2(dt) int dt;{ puth((dt >> 4) & 0xf); puth(dt & 0xf); }
 1597              		.loc 1 143 55 view .LVU484
 1598 004c 3730     		addgt	r0, r0, #55
 1599 004e FFF7FEFF 		bl	putch_uart
 1600              	.LVL93:
 143:../USER/main_03.c **** void puth2(dt) int dt;{ puth((dt >> 4) & 0xf); puth(dt & 0xf); }
 1601              		.loc 1 143 55 view .LVU485
 1602              	.LBE233:
 1603              	.LBE232:
 1604              	.LBE234:
 1605              	.LBE235:
 145:../USER/main_03.c **** void puth6(dt) long dt;{ int dh,dl; dh = dt >> 16; dl = dt & 0xffff; puth2(dh); puth4(dl); }
 1606              		.loc 1 145 50 is_stmt 1 view .LVU486
 1607              	.LBB236:
 1608              	.LBI236:
 144:../USER/main_03.c **** void puth4(dt) int dt;{ puth2((dt >> 8) & 0xff); puth2(dt & 0xff); }
 1609              		.loc 1 144 6 view .LVU487
 1610              	.LBB237:
 144:../USER/main_03.c **** void puth4(dt) int dt;{ puth2((dt >> 8) & 0xff); puth2(dt & 0xff); }
 1611              		.loc 1 144 25 view .LVU488
 144:../USER/main_03.c **** void puth4(dt) int dt;{ puth2((dt >> 8) & 0xff); puth2(dt & 0xff); }
 1612              		.loc 1 144 34 is_stmt 0 view .LVU489
 1613 0052 C4F30313 		ubfx	r3, r4, #4, #4
 1614              	.LVL94:
 1615              	.LBB238:
 1616              	.LBI238:
 143:../USER/main_03.c **** void puth2(dt) int dt;{ puth((dt >> 4) & 0xf); puth(dt & 0xf); }
 1617              		.loc 1 143 6 is_stmt 1 view .LVU490
 1618              	.LBB239:
 143:../USER/main_03.c **** void puth2(dt) int dt;{ puth((dt >> 4) & 0xf); puth(dt & 0xf); }
 1619              		.loc 1 143 24 view .LVU491
 143:../USER/main_03.c **** void puth2(dt) int dt;{ puth((dt >> 4) & 0xf); puth(dt & 0xf); }
 1620              		.loc 1 143 34 view .LVU492
 143:../USER/main_03.c **** void puth2(dt) int dt;{ puth((dt >> 4) & 0xf); puth(dt & 0xf); }
 1621              		.loc 1 143 55 view .LVU493
 1622 0056 D8B2     		uxtb	r0, r3
 143:../USER/main_03.c **** void puth2(dt) int dt;{ puth((dt >> 4) & 0xf); puth(dt & 0xf); }
 1623              		.loc 1 143 26 is_stmt 0 view .LVU494
 1624 0058 092B     		cmp	r3, #9
 143:../USER/main_03.c **** void puth2(dt) int dt;{ puth((dt >> 4) & 0xf); puth(dt & 0xf); }
 1625              		.loc 1 143 34 view .LVU495
 1626 005a D4BF     		ite	le
 1627 005c 3030     		addle	r0, r0, #48
 143:../USER/main_03.c **** void puth2(dt) int dt;{ puth((dt >> 4) & 0xf); puth(dt & 0xf); }
 1628              		.loc 1 143 55 view .LVU496
 1629 005e 3730     		addgt	r0, r0, #55
 1630              	.LBE239:
 1631              	.LBE238:
 144:../USER/main_03.c **** void puth4(dt) int dt;{ puth2((dt >> 8) & 0xff); puth2(dt & 0xff); }
 1632              		.loc 1 144 48 view .LVU497
 1633 0060 04F00F04 		and	r4, r4, #15
 1634              	.LVL95:
 1635              	.LBB241:
 1636              	.LBB240:
 143:../USER/main_03.c **** void puth2(dt) int dt;{ puth((dt >> 4) & 0xf); puth(dt & 0xf); }
 1637              		.loc 1 143 55 view .LVU498
 1638 0064 FFF7FEFF 		bl	putch_uart
 1639              	.LVL96:
 143:../USER/main_03.c **** void puth2(dt) int dt;{ puth((dt >> 4) & 0xf); puth(dt & 0xf); }
 1640              		.loc 1 143 55 view .LVU499
 1641              	.LBE240:
 1642              	.LBE241:
 144:../USER/main_03.c **** void puth4(dt) int dt;{ puth2((dt >> 8) & 0xff); puth2(dt & 0xff); }
 1643              		.loc 1 144 48 is_stmt 1 view .LVU500
 1644              	.LBB242:
 1645              	.LBI242:
 143:../USER/main_03.c **** void puth2(dt) int dt;{ puth((dt >> 4) & 0xf); puth(dt & 0xf); }
 1646              		.loc 1 143 6 view .LVU501
 1647              	.LBB243:
 143:../USER/main_03.c **** void puth2(dt) int dt;{ puth((dt >> 4) & 0xf); puth(dt & 0xf); }
 1648              		.loc 1 143 24 view .LVU502
 143:../USER/main_03.c **** void puth2(dt) int dt;{ puth((dt >> 4) & 0xf); puth(dt & 0xf); }
 1649              		.loc 1 143 26 is_stmt 0 view .LVU503
 1650 0068 092C     		cmp	r4, #9
 1651 006a E0B2     		uxtb	r0, r4
 1652 006c 04DC     		bgt	.L149
 143:../USER/main_03.c **** void puth2(dt) int dt;{ puth((dt >> 4) & 0xf); puth(dt & 0xf); }
 1653              		.loc 1 143 34 is_stmt 1 view .LVU504
 1654              	.LBE243:
 1655              	.LBE242:
 1656              	.LBE237:
 1657              	.LBE236:
 1658              	.LBE223:
 1659              	.LBE222:
 146:../USER/main_03.c **** void puth8(dt) long dt;{ int dh,dl; dh = dt >> 16; dl = dt & 0xffff; puth4(dh); puth4(dl); }
 1660              		.loc 1 146 1 is_stmt 0 view .LVU505
 1661 006e BDE87040 		pop	{r4, r5, r6, lr}
 1662              		.cfi_remember_state
 1663              		.cfi_restore 14
 1664              		.cfi_restore 6
 1665              		.cfi_restore 5
 1666              		.cfi_restore 4
 1667              		.cfi_def_cfa_offset 0
 1668              	.LVL97:
 1669              	.LBB254:
 1670              	.LBB252:
 1671              	.LBB250:
 1672              	.LBB248:
 1673              	.LBB246:
 1674              	.LBB244:
 143:../USER/main_03.c **** void puth2(dt) int dt;{ puth((dt >> 4) & 0xf); puth(dt & 0xf); }
 1675              		.loc 1 143 34 view .LVU506
 1676 0072 3030     		adds	r0, r0, #48
 1677 0074 FFF7FEBF 		b	putch_uart
 1678              	.LVL98:
 1679              	.L149:
 1680              		.cfi_restore_state
 143:../USER/main_03.c **** void puth2(dt) int dt;{ puth((dt >> 4) & 0xf); puth(dt & 0xf); }
 1681              		.loc 1 143 55 is_stmt 1 view .LVU507
 1682 0078 3730     		adds	r0, r0, #55
 1683              	.LBE244:
 1684              	.LBE246:
 1685              	.LBE248:
 1686              	.LBE250:
 1687              	.LBE252:
 1688              	.LBE254:
 146:../USER/main_03.c **** void puth8(dt) long dt;{ int dh,dl; dh = dt >> 16; dl = dt & 0xffff; puth4(dh); puth4(dl); }
 1689              		.loc 1 146 1 is_stmt 0 view .LVU508
 1690 007a BDE87040 		pop	{r4, r5, r6, lr}
 1691              		.cfi_restore 14
 1692              		.cfi_restore 6
 1693              		.cfi_restore 5
 1694              		.cfi_restore 4
 1695              		.cfi_def_cfa_offset 0
 1696              	.LVL99:
 1697              	.LBB255:
 1698              	.LBB253:
 1699              	.LBB251:
 1700              	.LBB249:
 1701              	.LBB247:
 1702              	.LBB245:
 143:../USER/main_03.c **** void puth2(dt) int dt;{ puth((dt >> 4) & 0xf); puth(dt & 0xf); }
 1703              		.loc 1 143 55 view .LVU509
 1704 007e FFF7FEBF 		b	putch_uart
 1705              	.LVL100:
 1706              	.LBE245:
 1707              	.LBE247:
 1708              	.LBE249:
 1709              	.LBE251:
 1710              	.LBE253:
 1711              	.LBE255:
 1712              		.cfi_endproc
 1713              	.LFE44:
 1715 0082 00BF     		.section	.text.puth8,"ax",%progbits
 1716              		.align	1
 1717              		.p2align 2,,3
 1718              		.global	puth8
 1719              		.syntax unified
 1720              		.thumb
 1721              		.thumb_func
 1722              		.fpu softvfp
 1724              	puth8:
 1725              	.LVL101:
 1726              	.LFB45:
 147:../USER/main_03.c **** void putsuart(char *buf){
 1727              		.loc 1 147 24 is_stmt 1 view -0
 1728              		.cfi_startproc
 1729              		@ args = 0, pretend = 0, frame = 0
 1730              		@ frame_needed = 0, uses_anonymous_args = 0
 147:../USER/main_03.c **** void putsuart(char *buf){
 1731              		.loc 1 147 26 view .LVU511
 147:../USER/main_03.c **** void putsuart(char *buf){
 1732              		.loc 1 147 37 view .LVU512
 147:../USER/main_03.c **** void putsuart(char *buf){
 1733              		.loc 1 147 24 is_stmt 0 view .LVU513
 1734 0000 F8B5     		push	{r3, r4, r5, r6, r7, lr}
 1735              		.cfi_def_cfa_offset 24
 1736              		.cfi_offset 3, -24
 1737              		.cfi_offset 4, -20
 1738              		.cfi_offset 5, -16
 1739              		.cfi_offset 6, -12
 1740              		.cfi_offset 7, -8
 1741              		.cfi_offset 14, -4
 147:../USER/main_03.c **** void putsuart(char *buf){
 1742              		.loc 1 147 24 view .LVU514
 1743 0002 0446     		mov	r4, r0
 1744 0004 060E     		lsrs	r6, r0, #24
 1745              	.LBB284:
 1746              	.LBB285:
 1747              	.LBB286:
 144:../USER/main_03.c **** void puth4(dt) int dt;{ puth2((dt >> 8) & 0xff); puth2(dt & 0xff); }
 1748              		.loc 1 144 34 view .LVU515
 1749 0006 3311     		asrs	r3, r6, #4
 1750 0008 D8B2     		uxtb	r0, r3
 1751              	.LVL102:
 1752              	.LBB287:
 1753              	.LBB288:
 143:../USER/main_03.c **** void puth2(dt) int dt;{ puth((dt >> 4) & 0xf); puth(dt & 0xf); }
 1754              		.loc 1 143 26 view .LVU516
 1755 000a 092B     		cmp	r3, #9
 143:../USER/main_03.c **** void puth2(dt) int dt;{ puth((dt >> 4) & 0xf); puth(dt & 0xf); }
 1756              		.loc 1 143 34 view .LVU517
 1757 000c D4BF     		ite	le
 1758 000e 3030     		addle	r0, r0, #48
 143:../USER/main_03.c **** void puth2(dt) int dt;{ puth((dt >> 4) & 0xf); puth(dt & 0xf); }
 1759              		.loc 1 143 55 view .LVU518
 1760 0010 3730     		addgt	r0, r0, #55
 1761              	.LBE288:
 1762              	.LBE287:
 144:../USER/main_03.c **** void puth4(dt) int dt;{ puth2((dt >> 8) & 0xff); puth2(dt & 0xff); }
 1763              		.loc 1 144 48 view .LVU519
 1764 0012 06F00F06 		and	r6, r6, #15
 1765              	.LBB291:
 1766              	.LBB289:
 143:../USER/main_03.c **** void puth2(dt) int dt;{ puth((dt >> 4) & 0xf); puth(dt & 0xf); }
 1767              		.loc 1 143 55 view .LVU520
 1768 0016 FFF7FEFF 		bl	putch_uart
 1769              	.LVL103:
 1770 001a F0B2     		uxtb	r0, r6
 1771              	.LBE289:
 1772              	.LBE291:
 1773              	.LBB292:
 1774              	.LBB293:
 143:../USER/main_03.c **** void puth2(dt) int dt;{ puth((dt >> 4) & 0xf); puth(dt & 0xf); }
 1775              		.loc 1 143 26 view .LVU521
 1776 001c 092E     		cmp	r6, #9
 143:../USER/main_03.c **** void puth2(dt) int dt;{ puth((dt >> 4) & 0xf); puth(dt & 0xf); }
 1777              		.loc 1 143 34 view .LVU522
 1778 001e D4BF     		ite	le
 1779 0020 3030     		addle	r0, r0, #48
 143:../USER/main_03.c **** void puth2(dt) int dt;{ puth((dt >> 4) & 0xf); puth(dt & 0xf); }
 1780              		.loc 1 143 55 view .LVU523
 1781 0022 3730     		addgt	r0, r0, #55
 1782 0024 FFF7FEFF 		bl	putch_uart
 1783              	.LVL104:
 1784              	.LBE293:
 1785              	.LBE292:
 1786              	.LBE286:
 1787              	.LBE285:
 1788              	.LBB298:
 1789              	.LBB299:
 144:../USER/main_03.c **** void puth4(dt) int dt;{ puth2((dt >> 8) & 0xff); puth2(dt & 0xff); }
 1790              		.loc 1 144 34 view .LVU524
 1791 0028 C4F30353 		ubfx	r3, r4, #20, #4
 1792 002c D8B2     		uxtb	r0, r3
 1793              	.LBB300:
 1794              	.LBB301:
 143:../USER/main_03.c **** void puth2(dt) int dt;{ puth((dt >> 4) & 0xf); puth(dt & 0xf); }
 1795              		.loc 1 143 26 view .LVU525
 1796 002e 092B     		cmp	r3, #9
 143:../USER/main_03.c **** void puth2(dt) int dt;{ puth((dt >> 4) & 0xf); puth(dt & 0xf); }
 1797              		.loc 1 143 34 view .LVU526
 1798 0030 D4BF     		ite	le
 1799 0032 3030     		addle	r0, r0, #48
 143:../USER/main_03.c **** void puth2(dt) int dt;{ puth((dt >> 4) & 0xf); puth(dt & 0xf); }
 1800              		.loc 1 143 55 view .LVU527
 1801 0034 3730     		addgt	r0, r0, #55
 1802              	.LBE301:
 1803              	.LBE300:
 1804              	.LBE299:
 1805              	.LBE298:
 1806              	.LBE284:
 147:../USER/main_03.c **** void putsuart(char *buf){
 1807              		.loc 1 147 40 view .LVU528
 1808 0036 2714     		asrs	r7, r4, #16
 1809              	.LVL105:
 147:../USER/main_03.c **** void putsuart(char *buf){
 1810              		.loc 1 147 52 is_stmt 1 view .LVU529
 1811              	.LBB315:
 1812              	.LBB312:
 1813              	.LBB310:
 1814              	.LBB304:
 1815              	.LBB302:
 143:../USER/main_03.c **** void puth2(dt) int dt;{ puth((dt >> 4) & 0xf); puth(dt & 0xf); }
 1816              		.loc 1 143 55 is_stmt 0 view .LVU530
 1817 0038 FFF7FEFF 		bl	putch_uart
 1818              	.LVL106:
 1819              	.LBE302:
 1820              	.LBE304:
 144:../USER/main_03.c **** void puth4(dt) int dt;{ puth2((dt >> 8) & 0xff); puth2(dt & 0xff); }
 1821              		.loc 1 144 48 view .LVU531
 1822 003c 07F00F03 		and	r3, r7, #15
 1823 0040 D8B2     		uxtb	r0, r3
 1824              	.LBB305:
 1825              	.LBB306:
 143:../USER/main_03.c **** void puth2(dt) int dt;{ puth((dt >> 4) & 0xf); puth(dt & 0xf); }
 1826              		.loc 1 143 26 view .LVU532
 1827 0042 092B     		cmp	r3, #9
 1828              	.LBE306:
 1829              	.LBE305:
 1830              	.LBE310:
 1831              	.LBE312:
 1832              	.LBE315:
 147:../USER/main_03.c **** void putsuart(char *buf){
 1833              		.loc 1 147 55 view .LVU533
 1834 0044 A5B2     		uxth	r5, r4
 1835              	.LVL107:
 147:../USER/main_03.c **** void putsuart(char *buf){
 1836              		.loc 1 147 70 is_stmt 1 view .LVU534
 1837              	.LBB316:
 1838              	.LBI284:
 145:../USER/main_03.c **** void puth6(dt) long dt;{ int dh,dl; dh = dt >> 16; dl = dt & 0xffff; puth2(dh); puth4(dl); }
 1839              		.loc 1 145 6 view .LVU535
 1840              	.LBE316:
 145:../USER/main_03.c **** void puth6(dt) long dt;{ int dh,dl; dh = dt >> 16; dl = dt & 0xffff; puth2(dh); puth4(dl); }
 1841              		.loc 1 145 25 view .LVU536
 1842              	.LBB317:
 1843              	.LBB313:
 1844              	.LBI285:
 144:../USER/main_03.c **** void puth4(dt) int dt;{ puth2((dt >> 8) & 0xff); puth2(dt & 0xff); }
 1845              		.loc 1 144 6 view .LVU537
 1846              	.LBB297:
 144:../USER/main_03.c **** void puth4(dt) int dt;{ puth2((dt >> 8) & 0xff); puth2(dt & 0xff); }
 1847              		.loc 1 144 25 view .LVU538
 1848              	.LBB295:
 1849              	.LBI287:
 143:../USER/main_03.c **** void puth2(dt) int dt;{ puth((dt >> 4) & 0xf); puth(dt & 0xf); }
 1850              		.loc 1 143 6 view .LVU539
 1851              	.LBB290:
 143:../USER/main_03.c **** void puth2(dt) int dt;{ puth((dt >> 4) & 0xf); puth(dt & 0xf); }
 1852              		.loc 1 143 24 view .LVU540
 143:../USER/main_03.c **** void puth2(dt) int dt;{ puth((dt >> 4) & 0xf); puth(dt & 0xf); }
 1853              		.loc 1 143 34 view .LVU541
 143:../USER/main_03.c **** void puth2(dt) int dt;{ puth((dt >> 4) & 0xf); puth(dt & 0xf); }
 1854              		.loc 1 143 55 view .LVU542
 1855              	.LBE290:
 1856              	.LBE295:
 144:../USER/main_03.c **** void puth4(dt) int dt;{ puth2((dt >> 8) & 0xff); puth2(dt & 0xff); }
 1857              		.loc 1 144 48 view .LVU543
 1858              	.LBB296:
 1859              	.LBI292:
 143:../USER/main_03.c **** void puth2(dt) int dt;{ puth((dt >> 4) & 0xf); puth(dt & 0xf); }
 1860              		.loc 1 143 6 view .LVU544
 1861              	.LBB294:
 143:../USER/main_03.c **** void puth2(dt) int dt;{ puth((dt >> 4) & 0xf); puth(dt & 0xf); }
 1862              		.loc 1 143 24 view .LVU545
 143:../USER/main_03.c **** void puth2(dt) int dt;{ puth((dt >> 4) & 0xf); puth(dt & 0xf); }
 1863              		.loc 1 143 34 view .LVU546
 143:../USER/main_03.c **** void puth2(dt) int dt;{ puth((dt >> 4) & 0xf); puth(dt & 0xf); }
 1864              		.loc 1 143 55 view .LVU547
 143:../USER/main_03.c **** void puth2(dt) int dt;{ puth((dt >> 4) & 0xf); puth(dt & 0xf); }
 1865              		.loc 1 143 55 is_stmt 0 view .LVU548
 1866              	.LBE294:
 1867              	.LBE296:
 1868              	.LBE297:
 1869              	.LBE313:
 1870              	.LBE317:
 145:../USER/main_03.c **** void puth6(dt) long dt;{ int dh,dl; dh = dt >> 16; dl = dt & 0xffff; puth2(dh); puth4(dl); }
 1871              		.loc 1 145 50 is_stmt 1 view .LVU549
 1872              	.LBB318:
 1873              	.LBB314:
 1874              	.LBI298:
 144:../USER/main_03.c **** void puth4(dt) int dt;{ puth2((dt >> 8) & 0xff); puth2(dt & 0xff); }
 1875              		.loc 1 144 6 view .LVU550
 1876              	.LBB311:
 144:../USER/main_03.c **** void puth4(dt) int dt;{ puth2((dt >> 8) & 0xff); puth2(dt & 0xff); }
 1877              		.loc 1 144 25 view .LVU551
 1878              	.LBB308:
 1879              	.LBI300:
 143:../USER/main_03.c **** void puth2(dt) int dt;{ puth((dt >> 4) & 0xf); puth(dt & 0xf); }
 1880              		.loc 1 143 6 view .LVU552
 1881              	.LBB303:
 143:../USER/main_03.c **** void puth2(dt) int dt;{ puth((dt >> 4) & 0xf); puth(dt & 0xf); }
 1882              		.loc 1 143 24 view .LVU553
 143:../USER/main_03.c **** void puth2(dt) int dt;{ puth((dt >> 4) & 0xf); puth(dt & 0xf); }
 1883              		.loc 1 143 34 view .LVU554
 143:../USER/main_03.c **** void puth2(dt) int dt;{ puth((dt >> 4) & 0xf); puth(dt & 0xf); }
 1884              		.loc 1 143 55 view .LVU555
 1885              	.LBE303:
 1886              	.LBE308:
 144:../USER/main_03.c **** void puth4(dt) int dt;{ puth2((dt >> 8) & 0xff); puth2(dt & 0xff); }
 1887              		.loc 1 144 48 view .LVU556
 1888              	.LBB309:
 1889              	.LBI305:
 143:../USER/main_03.c **** void puth2(dt) int dt;{ puth((dt >> 4) & 0xf); puth(dt & 0xf); }
 1890              		.loc 1 143 6 view .LVU557
 1891              	.LBB307:
 143:../USER/main_03.c **** void puth2(dt) int dt;{ puth((dt >> 4) & 0xf); puth(dt & 0xf); }
 1892              		.loc 1 143 24 view .LVU558
 143:../USER/main_03.c **** void puth2(dt) int dt;{ puth((dt >> 4) & 0xf); puth(dt & 0xf); }
 1893              		.loc 1 143 34 view .LVU559
 143:../USER/main_03.c **** void puth2(dt) int dt;{ puth((dt >> 4) & 0xf); puth(dt & 0xf); }
 1894              		.loc 1 143 55 view .LVU560
 143:../USER/main_03.c **** void puth2(dt) int dt;{ puth((dt >> 4) & 0xf); puth(dt & 0xf); }
 1895              		.loc 1 143 34 is_stmt 0 view .LVU561
 1896 0046 D4BF     		ite	le
 1897 0048 3030     		addle	r0, r0, #48
 143:../USER/main_03.c **** void puth2(dt) int dt;{ puth((dt >> 4) & 0xf); puth(dt & 0xf); }
 1898              		.loc 1 143 55 view .LVU562
 1899 004a 3730     		addgt	r0, r0, #55
 1900 004c FFF7FEFF 		bl	putch_uart
 1901              	.LVL108:
 143:../USER/main_03.c **** void puth2(dt) int dt;{ puth((dt >> 4) & 0xf); puth(dt & 0xf); }
 1902              		.loc 1 143 55 view .LVU563
 1903              	.LBE307:
 1904              	.LBE309:
 1905              	.LBE311:
 1906              	.LBE314:
 1907              	.LBE318:
 147:../USER/main_03.c **** void putsuart(char *buf){
 1908              		.loc 1 147 81 is_stmt 1 view .LVU564
 1909              	.LBB319:
 1910              	.LBI319:
 145:../USER/main_03.c **** void puth6(dt) long dt;{ int dh,dl; dh = dt >> 16; dl = dt & 0xffff; puth2(dh); puth4(dl); }
 1911              		.loc 1 145 6 view .LVU565
 1912              	.LBB320:
 145:../USER/main_03.c **** void puth6(dt) long dt;{ int dh,dl; dh = dt >> 16; dl = dt & 0xffff; puth2(dh); puth4(dl); }
 1913              		.loc 1 145 25 view .LVU566
 1914              	.LBB321:
 1915              	.LBB322:
 144:../USER/main_03.c **** void puth4(dt) int dt;{ puth2((dt >> 8) & 0xff); puth2(dt & 0xff); }
 1916              		.loc 1 144 34 is_stmt 0 view .LVU567
 1917 0050 2B13     		asrs	r3, r5, #12
 1918 0052 D8B2     		uxtb	r0, r3
 1919              	.LBB323:
 1920              	.LBB324:
 143:../USER/main_03.c **** void puth2(dt) int dt;{ puth((dt >> 4) & 0xf); puth(dt & 0xf); }
 1921              		.loc 1 143 26 view .LVU568
 1922 0054 092B     		cmp	r3, #9
 1923              	.LBE324:
 1924              	.LBE323:
 1925              	.LBE322:
 1926              	.LBE321:
 145:../USER/main_03.c **** void puth6(dt) long dt;{ int dh,dl; dh = dt >> 16; dl = dt & 0xffff; puth2(dh); puth4(dl); }
 1927              		.loc 1 145 35 view .LVU569
 1928 0056 4FEA2525 		asr	r5, r5, #8
 1929              	.LVL109:
 1930              	.LBB332:
 1931              	.LBI321:
 144:../USER/main_03.c **** void puth4(dt) int dt;{ puth2((dt >> 8) & 0xff); puth2(dt & 0xff); }
 1932              		.loc 1 144 6 is_stmt 1 view .LVU570
 1933              	.LBB331:
 144:../USER/main_03.c **** void puth4(dt) int dt;{ puth2((dt >> 8) & 0xff); puth2(dt & 0xff); }
 1934              		.loc 1 144 25 view .LVU571
 1935              	.LBB327:
 1936              	.LBI323:
 143:../USER/main_03.c **** void puth2(dt) int dt;{ puth((dt >> 4) & 0xf); puth(dt & 0xf); }
 1937              		.loc 1 143 6 view .LVU572
 1938              	.LBB325:
 143:../USER/main_03.c **** void puth2(dt) int dt;{ puth((dt >> 4) & 0xf); puth(dt & 0xf); }
 1939              		.loc 1 143 24 view .LVU573
 143:../USER/main_03.c **** void puth2(dt) int dt;{ puth((dt >> 4) & 0xf); puth(dt & 0xf); }
 1940              		.loc 1 143 34 view .LVU574
 143:../USER/main_03.c **** void puth2(dt) int dt;{ puth((dt >> 4) & 0xf); puth(dt & 0xf); }
 1941              		.loc 1 143 55 view .LVU575
 143:../USER/main_03.c **** void puth2(dt) int dt;{ puth((dt >> 4) & 0xf); puth(dt & 0xf); }
 1942              		.loc 1 143 34 is_stmt 0 view .LVU576
 1943 005a D4BF     		ite	le
 1944 005c 3030     		addle	r0, r0, #48
 143:../USER/main_03.c **** void puth2(dt) int dt;{ puth((dt >> 4) & 0xf); puth(dt & 0xf); }
 1945              		.loc 1 143 55 view .LVU577
 1946 005e 3730     		addgt	r0, r0, #55
 1947              	.LBE325:
 1948              	.LBE327:
 144:../USER/main_03.c **** void puth4(dt) int dt;{ puth2((dt >> 8) & 0xff); puth2(dt & 0xff); }
 1949              		.loc 1 144 48 view .LVU578
 1950 0060 05F00F05 		and	r5, r5, #15
 1951              	.LVL110:
 1952              	.LBB328:
 1953              	.LBB326:
 143:../USER/main_03.c **** void puth2(dt) int dt;{ puth((dt >> 4) & 0xf); puth(dt & 0xf); }
 1954              		.loc 1 143 55 view .LVU579
 1955 0064 FFF7FEFF 		bl	putch_uart
 1956              	.LVL111:
 143:../USER/main_03.c **** void puth2(dt) int dt;{ puth((dt >> 4) & 0xf); puth(dt & 0xf); }
 1957              		.loc 1 143 55 view .LVU580
 1958              	.LBE326:
 1959              	.LBE328:
 144:../USER/main_03.c **** void puth4(dt) int dt;{ puth2((dt >> 8) & 0xff); puth2(dt & 0xff); }
 1960              		.loc 1 144 48 is_stmt 1 view .LVU581
 1961              	.LBB329:
 1962              	.LBI329:
 143:../USER/main_03.c **** void puth2(dt) int dt;{ puth((dt >> 4) & 0xf); puth(dt & 0xf); }
 1963              		.loc 1 143 6 view .LVU582
 1964              	.LBB330:
 143:../USER/main_03.c **** void puth2(dt) int dt;{ puth((dt >> 4) & 0xf); puth(dt & 0xf); }
 1965              		.loc 1 143 24 view .LVU583
 143:../USER/main_03.c **** void puth2(dt) int dt;{ puth((dt >> 4) & 0xf); puth(dt & 0xf); }
 1966              		.loc 1 143 34 view .LVU584
 143:../USER/main_03.c **** void puth2(dt) int dt;{ puth((dt >> 4) & 0xf); puth(dt & 0xf); }
 1967              		.loc 1 143 55 view .LVU585
 1968 0068 E8B2     		uxtb	r0, r5
 143:../USER/main_03.c **** void puth2(dt) int dt;{ puth((dt >> 4) & 0xf); puth(dt & 0xf); }
 1969              		.loc 1 143 26 is_stmt 0 view .LVU586
 1970 006a 092D     		cmp	r5, #9
 143:../USER/main_03.c **** void puth2(dt) int dt;{ puth((dt >> 4) & 0xf); puth(dt & 0xf); }
 1971              		.loc 1 143 34 view .LVU587
 1972 006c D4BF     		ite	le
 1973 006e 3030     		addle	r0, r0, #48
 143:../USER/main_03.c **** void puth2(dt) int dt;{ puth((dt >> 4) & 0xf); puth(dt & 0xf); }
 1974              		.loc 1 143 55 view .LVU588
 1975 0070 3730     		addgt	r0, r0, #55
 1976 0072 FFF7FEFF 		bl	putch_uart
 1977              	.LVL112:
 143:../USER/main_03.c **** void puth2(dt) int dt;{ puth((dt >> 4) & 0xf); puth(dt & 0xf); }
 1978              		.loc 1 143 55 view .LVU589
 1979              	.LBE330:
 1980              	.LBE329:
 1981              	.LBE331:
 1982              	.LBE332:
 145:../USER/main_03.c **** void puth6(dt) long dt;{ int dh,dl; dh = dt >> 16; dl = dt & 0xffff; puth2(dh); puth4(dl); }
 1983              		.loc 1 145 50 is_stmt 1 view .LVU590
 1984              	.LBB333:
 1985              	.LBI333:
 144:../USER/main_03.c **** void puth4(dt) int dt;{ puth2((dt >> 8) & 0xff); puth2(dt & 0xff); }
 1986              		.loc 1 144 6 view .LVU591
 1987              	.LBB334:
 144:../USER/main_03.c **** void puth4(dt) int dt;{ puth2((dt >> 8) & 0xff); puth2(dt & 0xff); }
 1988              		.loc 1 144 25 view .LVU592
 144:../USER/main_03.c **** void puth4(dt) int dt;{ puth2((dt >> 8) & 0xff); puth2(dt & 0xff); }
 1989              		.loc 1 144 34 is_stmt 0 view .LVU593
 1990 0076 C4F30313 		ubfx	r3, r4, #4, #4
 1991              	.LVL113:
 1992              	.LBB335:
 1993              	.LBI335:
 143:../USER/main_03.c **** void puth2(dt) int dt;{ puth((dt >> 4) & 0xf); puth(dt & 0xf); }
 1994              		.loc 1 143 6 is_stmt 1 view .LVU594
 1995              	.LBB336:
 143:../USER/main_03.c **** void puth2(dt) int dt;{ puth((dt >> 4) & 0xf); puth(dt & 0xf); }
 1996              		.loc 1 143 24 view .LVU595
 143:../USER/main_03.c **** void puth2(dt) int dt;{ puth((dt >> 4) & 0xf); puth(dt & 0xf); }
 1997              		.loc 1 143 34 view .LVU596
 143:../USER/main_03.c **** void puth2(dt) int dt;{ puth((dt >> 4) & 0xf); puth(dt & 0xf); }
 1998              		.loc 1 143 55 view .LVU597
 1999 007a D8B2     		uxtb	r0, r3
 143:../USER/main_03.c **** void puth2(dt) int dt;{ puth((dt >> 4) & 0xf); puth(dt & 0xf); }
 2000              		.loc 1 143 26 is_stmt 0 view .LVU598
 2001 007c 092B     		cmp	r3, #9
 143:../USER/main_03.c **** void puth2(dt) int dt;{ puth((dt >> 4) & 0xf); puth(dt & 0xf); }
 2002              		.loc 1 143 34 view .LVU599
 2003 007e D4BF     		ite	le
 2004 0080 3030     		addle	r0, r0, #48
 143:../USER/main_03.c **** void puth2(dt) int dt;{ puth((dt >> 4) & 0xf); puth(dt & 0xf); }
 2005              		.loc 1 143 55 view .LVU600
 2006 0082 3730     		addgt	r0, r0, #55
 2007              	.LBE336:
 2008              	.LBE335:
 144:../USER/main_03.c **** void puth4(dt) int dt;{ puth2((dt >> 8) & 0xff); puth2(dt & 0xff); }
 2009              		.loc 1 144 48 view .LVU601
 2010 0084 04F00F04 		and	r4, r4, #15
 2011              	.LVL114:
 2012              	.LBB338:
 2013              	.LBB337:
 143:../USER/main_03.c **** void puth2(dt) int dt;{ puth((dt >> 4) & 0xf); puth(dt & 0xf); }
 2014              		.loc 1 143 55 view .LVU602
 2015 0088 FFF7FEFF 		bl	putch_uart
 2016              	.LVL115:
 143:../USER/main_03.c **** void puth2(dt) int dt;{ puth((dt >> 4) & 0xf); puth(dt & 0xf); }
 2017              		.loc 1 143 55 view .LVU603
 2018              	.LBE337:
 2019              	.LBE338:
 144:../USER/main_03.c **** void puth4(dt) int dt;{ puth2((dt >> 8) & 0xff); puth2(dt & 0xff); }
 2020              		.loc 1 144 48 is_stmt 1 view .LVU604
 2021              	.LBB339:
 2022              	.LBI339:
 143:../USER/main_03.c **** void puth2(dt) int dt;{ puth((dt >> 4) & 0xf); puth(dt & 0xf); }
 2023              		.loc 1 143 6 view .LVU605
 2024              	.LBB340:
 143:../USER/main_03.c **** void puth2(dt) int dt;{ puth((dt >> 4) & 0xf); puth(dt & 0xf); }
 2025              		.loc 1 143 24 view .LVU606
 143:../USER/main_03.c **** void puth2(dt) int dt;{ puth((dt >> 4) & 0xf); puth(dt & 0xf); }
 2026              		.loc 1 143 26 is_stmt 0 view .LVU607
 2027 008c 092C     		cmp	r4, #9
 2028 008e E0B2     		uxtb	r0, r4
 2029 0090 04DC     		bgt	.L166
 143:../USER/main_03.c **** void puth2(dt) int dt;{ puth((dt >> 4) & 0xf); puth(dt & 0xf); }
 2030              		.loc 1 143 34 is_stmt 1 view .LVU608
 2031              	.LBE340:
 2032              	.LBE339:
 2033              	.LBE334:
 2034              	.LBE333:
 2035              	.LBE320:
 2036              	.LBE319:
 147:../USER/main_03.c **** void putsuart(char *buf){
 2037              		.loc 1 147 1 is_stmt 0 view .LVU609
 2038 0092 BDE8F840 		pop	{r3, r4, r5, r6, r7, lr}
 2039              		.cfi_remember_state
 2040              		.cfi_restore 14
 2041              		.cfi_restore 7
 2042              		.cfi_restore 6
 2043              		.cfi_restore 5
 2044              		.cfi_restore 4
 2045              		.cfi_restore 3
 2046              		.cfi_def_cfa_offset 0
 2047              	.LVL116:
 2048              	.LBB351:
 2049              	.LBB349:
 2050              	.LBB347:
 2051              	.LBB345:
 2052              	.LBB343:
 2053              	.LBB341:
 143:../USER/main_03.c **** void puth2(dt) int dt;{ puth((dt >> 4) & 0xf); puth(dt & 0xf); }
 2054              		.loc 1 143 34 view .LVU610
 2055 0096 3030     		adds	r0, r0, #48
 2056 0098 FFF7FEBF 		b	putch_uart
 2057              	.LVL117:
 2058              	.L166:
 2059              		.cfi_restore_state
 143:../USER/main_03.c **** void puth2(dt) int dt;{ puth((dt >> 4) & 0xf); puth(dt & 0xf); }
 2060              		.loc 1 143 55 is_stmt 1 view .LVU611
 2061 009c 3730     		adds	r0, r0, #55
 2062              	.LBE341:
 2063              	.LBE343:
 2064              	.LBE345:
 2065              	.LBE347:
 2066              	.LBE349:
 2067              	.LBE351:
 147:../USER/main_03.c **** void putsuart(char *buf){
 2068              		.loc 1 147 1 is_stmt 0 view .LVU612
 2069 009e BDE8F840 		pop	{r3, r4, r5, r6, r7, lr}
 2070              		.cfi_restore 14
 2071              		.cfi_restore 7
 2072              		.cfi_restore 6
 2073              		.cfi_restore 5
 2074              		.cfi_restore 4
 2075              		.cfi_restore 3
 2076              		.cfi_def_cfa_offset 0
 2077              	.LVL118:
 2078              	.LBB352:
 2079              	.LBB350:
 2080              	.LBB348:
 2081              	.LBB346:
 2082              	.LBB344:
 2083              	.LBB342:
 143:../USER/main_03.c **** void puth2(dt) int dt;{ puth((dt >> 4) & 0xf); puth(dt & 0xf); }
 2084              		.loc 1 143 55 view .LVU613
 2085 00a2 FFF7FEBF 		b	putch_uart
 2086              	.LVL119:
 2087              	.LBE342:
 2088              	.LBE344:
 2089              	.LBE346:
 2090              	.LBE348:
 2091              	.LBE350:
 2092              	.LBE352:
 2093              		.cfi_endproc
 2094              	.LFE45:
 2096 00a6 00BF     		.section	.text.putsuart,"ax",%progbits
 2097              		.align	1
 2098              		.p2align 2,,3
 2099              		.global	putsuart
 2100              		.syntax unified
 2101              		.thumb
 2102              		.thumb_func
 2103              		.fpu softvfp
 2105              	putsuart:
 2106              	.LVL120:
 2107              	.LFB46:
 148:../USER/main_03.c **** 	while(1){
 2108              		.loc 1 148 25 is_stmt 1 view -0
 2109              		.cfi_startproc
 2110              		@ args = 0, pretend = 0, frame = 0
 2111              		@ frame_needed = 0, uses_anonymous_args = 0
 148:../USER/main_03.c **** 	while(1){
 2112              		.loc 1 148 25 is_stmt 0 view .LVU615
 2113 0000 10B5     		push	{r4, lr}
 2114              		.cfi_def_cfa_offset 8
 2115              		.cfi_offset 4, -8
 2116              		.cfi_offset 14, -4
 148:../USER/main_03.c **** 	while(1){
 2117              		.loc 1 148 25 view .LVU616
 2118 0002 0446     		mov	r4, r0
 149:../USER/main_03.c **** 		if(*buf==0) break;
 2119              		.loc 1 149 2 is_stmt 1 view .LVU617
 150:../USER/main_03.c **** 		else        putch(*buf++);
 2120              		.loc 1 150 3 view .LVU618
 150:../USER/main_03.c **** 		else        putch(*buf++);
 2121              		.loc 1 150 6 is_stmt 0 view .LVU619
 2122 0004 90F90000 		ldrsb	r0, [r0]
 2123              	.LVL121:
 150:../USER/main_03.c **** 		else        putch(*buf++);
 2124              		.loc 1 150 5 view .LVU620
 2125 0008 28B1     		cbz	r0, .L168
 2126              	.LVL122:
 2127              	.L170:
 151:../USER/main_03.c **** 	}
 2128              		.loc 1 151 15 is_stmt 1 view .LVU621
 151:../USER/main_03.c **** 	}
 2129              		.loc 1 151 15 is_stmt 0 view .LVU622
 2130 000a FFF7FEFF 		bl	putch_uart
 2131              	.LVL123:
 149:../USER/main_03.c **** 		if(*buf==0) break;
 2132              		.loc 1 149 2 is_stmt 1 view .LVU623
 150:../USER/main_03.c **** 		else        putch(*buf++);
 2133              		.loc 1 150 3 view .LVU624
 150:../USER/main_03.c **** 		else        putch(*buf++);
 2134              		.loc 1 150 6 is_stmt 0 view .LVU625
 2135 000e 14F9010F 		ldrsb	r0, [r4, #1]!
 2136              	.LVL124:
 150:../USER/main_03.c **** 		else        putch(*buf++);
 2137              		.loc 1 150 5 view .LVU626
 2138 0012 0028     		cmp	r0, #0
 2139 0014 F9D1     		bne	.L170
 2140              	.LVL125:
 2141              	.L168:
 153:../USER/main_03.c **** void getsuart(char *buf){
 2142              		.loc 1 153 1 view .LVU627
 2143 0016 10BD     		pop	{r4, pc}
 2144              		.cfi_endproc
 2145              	.LFE46:
 2147              		.section	.text.getsuart,"ax",%progbits
 2148              		.align	1
 2149              		.p2align 2,,3
 2150              		.global	getsuart
 2151              		.syntax unified
 2152              		.thumb
 2153              		.thumb_func
 2154              		.fpu softvfp
 2156              	getsuart:
 2157              	.LVL126:
 2158              	.LFB47:
 154:../USER/main_03.c **** 	char ch;
 2159              		.loc 1 154 25 is_stmt 1 view -0
 2160              		.cfi_startproc
 2161              		@ args = 0, pretend = 0, frame = 0
 2162              		@ frame_needed = 0, uses_anonymous_args = 0
 154:../USER/main_03.c **** 	char ch;
 2163              		.loc 1 154 25 is_stmt 0 view .LVU629
 2164 0000 2DE9F843 		push	{r3, r4, r5, r6, r7, r8, r9, lr}
 2165              		.cfi_def_cfa_offset 32
 2166              		.cfi_offset 3, -32
 2167              		.cfi_offset 4, -28
 2168              		.cfi_offset 5, -24
 2169              		.cfi_offset 6, -20
 2170              		.cfi_offset 7, -16
 2171              		.cfi_offset 8, -12
 2172              		.cfi_offset 9, -8
 2173              		.cfi_offset 14, -4
 154:../USER/main_03.c **** 	char ch;
 2174              		.loc 1 154 25 view .LVU630
 2175 0004 0746     		mov	r7, r0
 2176              	.LBB357:
 2177              	.LBB358:
 2178              	.LBB359:
 2179              	.LBB360:
 116:../USER/main_03.c **** 	if(kinbwp>=256) kinbwp = 0;
 2180              		.loc 1 116 52 view .LVU631
 2181 0006 4FF00108 		mov	r8, #1
 2182 000a 284C     		ldr	r4, .L200
 2183 000c 284D     		ldr	r5, .L200+4
 2184 000e 294E     		ldr	r6, .L200+8
 2185              	.LVL127:
 2186              	.L189:
 116:../USER/main_03.c **** 	if(kinbwp>=256) kinbwp = 0;
 2187              		.loc 1 116 52 view .LVU632
 2188              	.LBE360:
 2189              	.LBE359:
 2190              	.LBE358:
 2191              	.LBE357:
 155:../USER/main_03.c **** 	while(1){
 2192              		.loc 1 155 2 is_stmt 1 view .LVU633
 156:../USER/main_03.c **** 		ch = getch(); putch(ch); *buf++ = ch;
 2193              		.loc 1 156 2 view .LVU634
 157:../USER/main_03.c **** 		if(ch==0x0d) break;
 2194              		.loc 1 157 3 view .LVU635
 2195              	.LBB370:
 2196              	.LBI357:
 120:../USER/main_03.c **** 	char dt;
 2197              		.loc 1 120 6 view .LVU636
 2198              	.LBB367:
 2199              	.LBB364:
 2200              	.LBB361:
 116:../USER/main_03.c **** 	if(kinbwp>=256) kinbwp = 0;
 2201              		.loc 1 116 11 is_stmt 0 view .LVU637
 2202 0010 4FF04029 		mov	r9, #1073758208
 2203 0014 2368     		ldr	r3, [r4]
 2204              	.L184:
 2205              	.LBE361:
 2206              	.LBE364:
 122:../USER/main_03.c **** 	dt = kinbuf[kinbrp++];
 2207              		.loc 1 122 14 view .LVU638
 2208 0016 3268     		ldr	r2, [r6]
 122:../USER/main_03.c **** 	dt = kinbuf[kinbrp++];
 2209              		.loc 1 122 7 view .LVU639
 2210 0018 9A42     		cmp	r2, r3
 2211 001a 15D1     		bne	.L199
 122:../USER/main_03.c **** 	dt = kinbuf[kinbrp++];
 2212              		.loc 1 122 24 is_stmt 1 view .LVU640
 2213              	.LBB365:
 2214              	.LBI359:
 109:../USER/main_03.c **** 	char ch;
 2215              		.loc 1 109 6 view .LVU641
 2216              	.LBB362:
 110:../USER/main_03.c **** 	//
 2217              		.loc 1 110 2 view .LVU642
 112:../USER/main_03.c **** 	if(ch!=0) kinbuf[kinbwp++] = ch;
 2218              		.loc 1 112 2 view .LVU643
 112:../USER/main_03.c **** 	if(ch!=0) kinbuf[kinbwp++] = ch;
 2219              		.loc 1 112 7 is_stmt 0 view .LVU644
 2220 001c FFF7FEFF 		bl	SPI_ReadData
 2221              	.LVL128:
 112:../USER/main_03.c **** 	if(ch!=0) kinbuf[kinbwp++] = ch;
 2222              		.loc 1 112 5 view .LVU645
 2223 0020 40B2     		sxtb	r0, r0
 2224              	.LVL129:
 113:../USER/main_03.c **** 	if(kinbwp>=256) kinbwp = 0;
 2225              		.loc 1 113 2 is_stmt 1 view .LVU646
 113:../USER/main_03.c **** 	if(kinbwp>=256) kinbwp = 0;
 2226              		.loc 1 113 4 is_stmt 0 view .LVU647
 2227 0022 98BB     		cbnz	r0, .L178
 2228 0024 2368     		ldr	r3, [r4]
 2229              	.L179:
 114:../USER/main_03.c **** 	//
 2230              		.loc 1 114 2 is_stmt 1 view .LVU648
 114:../USER/main_03.c **** 	//
 2231              		.loc 1 114 4 is_stmt 0 view .LVU649
 2232 0026 FF2B     		cmp	r3, #255
 2233 0028 20DD     		ble	.L180
 114:../USER/main_03.c **** 	//
 2234              		.loc 1 114 18 is_stmt 1 view .LVU650
 114:../USER/main_03.c **** 	//
 2235              		.loc 1 114 25 is_stmt 0 view .LVU651
 2236 002a 0023     		movs	r3, #0
 2237 002c 2360     		str	r3, [r4]
 116:../USER/main_03.c **** 	if(kinbwp>=256) kinbwp = 0;
 2238              		.loc 1 116 2 is_stmt 1 view .LVU652
 116:../USER/main_03.c **** 	if(kinbwp>=256) kinbwp = 0;
 2239              		.loc 1 116 11 is_stmt 0 view .LVU653
 2240 002e D9F80430 		ldr	r3, [r9, #4]
 116:../USER/main_03.c **** 	if(kinbwp>=256) kinbwp = 0;
 2241              		.loc 1 116 4 view .LVU654
 2242 0032 13F00203 		ands	r3, r3, #2
 2243 0036 EED0     		beq	.L184
 116:../USER/main_03.c **** 	if(kinbwp>=256) kinbwp = 0;
 2244              		.loc 1 116 39 is_stmt 1 view .LVU655
 116:../USER/main_03.c **** 	if(kinbwp>=256) kinbwp = 0;
 2245              		.loc 1 116 52 is_stmt 0 view .LVU656
 2246 0038 0122     		movs	r2, #1
 116:../USER/main_03.c **** 	if(kinbwp>=256) kinbwp = 0;
 2247              		.loc 1 116 63 view .LVU657
 2248 003a D9F80030 		ldr	r3, [r9]
 116:../USER/main_03.c **** 	if(kinbwp>=256) kinbwp = 0;
 2249              		.loc 1 116 52 view .LVU658
 2250 003e C4F80080 		str	r8, [r4]
 116:../USER/main_03.c **** 	if(kinbwp>=256) kinbwp = 0;
 2251              		.loc 1 116 56 view .LVU659
 2252 0042 2B70     		strb	r3, [r5]
 117:../USER/main_03.c **** 	//
 2253              		.loc 1 117 2 is_stmt 1 view .LVU660
 2254              	.L191:
 116:../USER/main_03.c **** 	if(kinbwp>=256) kinbwp = 0;
 2255              		.loc 1 116 4 is_stmt 0 view .LVU661
 2256 0044 1346     		mov	r3, r2
 2257 0046 E6E7     		b	.L184
 2258              	.LVL130:
 2259              	.L199:
 116:../USER/main_03.c **** 	if(kinbwp>=256) kinbwp = 0;
 2260              		.loc 1 116 4 view .LVU662
 2261              	.LBE362:
 2262              	.LBE365:
 123:../USER/main_03.c **** 	if(kinbrp>=256) kinbrp = 0;
 2263              		.loc 1 123 2 is_stmt 1 view .LVU663
 123:../USER/main_03.c **** 	if(kinbrp>=256) kinbrp = 0;
 2264              		.loc 1 123 20 is_stmt 0 view .LVU664
 2265 0048 531C     		adds	r3, r2, #1
 124:../USER/main_03.c **** 	return dt;
 2266              		.loc 1 124 4 view .LVU665
 2267 004a FF2B     		cmp	r3, #255
 123:../USER/main_03.c **** 	if(kinbrp>=256) kinbrp = 0;
 2268              		.loc 1 123 20 view .LVU666
 2269 004c 3360     		str	r3, [r6]
 123:../USER/main_03.c **** 	if(kinbrp>=256) kinbrp = 0;
 2270              		.loc 1 123 5 view .LVU667
 2271 004e 15F90290 		ldrsb	r9, [r5, r2]
 2272              	.LVL131:
 124:../USER/main_03.c **** 	return dt;
 2273              		.loc 1 124 2 is_stmt 1 view .LVU668
 124:../USER/main_03.c **** 	return dt;
 2274              		.loc 1 124 4 is_stmt 0 view .LVU669
 2275 0052 20DD     		ble	.L186
 124:../USER/main_03.c **** 	return dt;
 2276              		.loc 1 124 18 is_stmt 1 view .LVU670
 124:../USER/main_03.c **** 	return dt;
 2277              		.loc 1 124 25 is_stmt 0 view .LVU671
 2278 0054 0023     		movs	r3, #0
 2279              	.LBE367:
 2280              	.LBE370:
 157:../USER/main_03.c **** 		if(ch==0x0d) break;
 2281              		.loc 1 157 17 view .LVU672
 2282 0056 4846     		mov	r0, r9
 2283              	.LBB371:
 2284              	.LBB368:
 124:../USER/main_03.c **** 	return dt;
 2285              		.loc 1 124 25 view .LVU673
 2286 0058 3360     		str	r3, [r6]
 125:../USER/main_03.c **** }
 2287              		.loc 1 125 2 is_stmt 1 view .LVU674
 2288              	.LVL132:
 125:../USER/main_03.c **** }
 2289              		.loc 1 125 2 is_stmt 0 view .LVU675
 2290              	.LBE368:
 2291              	.LBE371:
 157:../USER/main_03.c **** 		if(ch==0x0d) break;
 2292              		.loc 1 157 17 is_stmt 1 view .LVU676
 2293 005a FFF7FEFF 		bl	putch_uart
 2294              	.LVL133:
 157:../USER/main_03.c **** 		if(ch==0x0d) break;
 2295              		.loc 1 157 28 view .LVU677
 158:../USER/main_03.c **** 	}
 2296              		.loc 1 158 5 is_stmt 0 view .LVU678
 2297 005e B9F10D0F 		cmp	r9, #13
 157:../USER/main_03.c **** 		if(ch==0x0d) break;
 2298              		.loc 1 157 35 view .LVU679
 2299 0062 07F8019B 		strb	r9, [r7], #1
 2300              	.LVL134:
 158:../USER/main_03.c **** 	}
 2301              		.loc 1 158 3 is_stmt 1 view .LVU680
 158:../USER/main_03.c **** 	}
 2302              		.loc 1 158 5 is_stmt 0 view .LVU681
 2303 0066 D3D1     		bne	.L189
 160:../USER/main_03.c **** int ishex(ch) char ch;{
 2304              		.loc 1 160 1 view .LVU682
 2305 0068 BDE8F883 		pop	{r3, r4, r5, r6, r7, r8, r9, pc}
 2306              	.LVL135:
 2307              	.L180:
 2308              	.LBB372:
 2309              	.LBB369:
 2310              	.LBB366:
 2311              	.LBB363:
 116:../USER/main_03.c **** 	if(kinbwp>=256) kinbwp = 0;
 2312              		.loc 1 116 2 is_stmt 1 view .LVU683
 116:../USER/main_03.c **** 	if(kinbwp>=256) kinbwp = 0;
 2313              		.loc 1 116 11 is_stmt 0 view .LVU684
 2314 006c D9F80420 		ldr	r2, [r9, #4]
 116:../USER/main_03.c **** 	if(kinbwp>=256) kinbwp = 0;
 2315              		.loc 1 116 4 view .LVU685
 2316 0070 9207     		lsls	r2, r2, #30
 2317 0072 D0D5     		bpl	.L184
 116:../USER/main_03.c **** 	if(kinbwp>=256) kinbwp = 0;
 2318              		.loc 1 116 39 is_stmt 1 view .LVU686
 116:../USER/main_03.c **** 	if(kinbwp>=256) kinbwp = 0;
 2319              		.loc 1 116 63 is_stmt 0 view .LVU687
 2320 0074 D9F80010 		ldr	r1, [r9]
 116:../USER/main_03.c **** 	if(kinbwp>=256) kinbwp = 0;
 2321              		.loc 1 116 52 view .LVU688
 2322 0078 5A1C     		adds	r2, r3, #1
 117:../USER/main_03.c **** 	//
 2323              		.loc 1 117 4 view .LVU689
 2324 007a B2F5807F 		cmp	r2, #256
 116:../USER/main_03.c **** 	if(kinbwp>=256) kinbwp = 0;
 2325              		.loc 1 116 56 view .LVU690
 2326 007e E954     		strb	r1, [r5, r3]
 117:../USER/main_03.c **** 	//
 2327              		.loc 1 117 2 is_stmt 1 view .LVU691
 116:../USER/main_03.c **** 	if(kinbwp>=256) kinbwp = 0;
 2328              		.loc 1 116 52 is_stmt 0 view .LVU692
 2329 0080 2260     		str	r2, [r4]
 117:../USER/main_03.c **** 	//
 2330              		.loc 1 117 4 view .LVU693
 2331 0082 DFD1     		bne	.L191
 117:../USER/main_03.c **** 	//
 2332              		.loc 1 117 18 is_stmt 1 view .LVU694
 117:../USER/main_03.c **** 	//
 2333              		.loc 1 117 25 is_stmt 0 view .LVU695
 2334 0084 0022     		movs	r2, #0
 2335 0086 1346     		mov	r3, r2
 2336 0088 2260     		str	r2, [r4]
 2337 008a C4E7     		b	.L184
 2338              	.L178:
 113:../USER/main_03.c **** 	if(kinbwp>=256) kinbwp = 0;
 2339              		.loc 1 113 12 is_stmt 1 view .LVU696
 113:../USER/main_03.c **** 	if(kinbwp>=256) kinbwp = 0;
 2340              		.loc 1 113 25 is_stmt 0 view .LVU697
 2341 008c 2268     		ldr	r2, [r4]
 2342 008e 531C     		adds	r3, r2, #1
 113:../USER/main_03.c **** 	if(kinbwp>=256) kinbwp = 0;
 2343              		.loc 1 113 29 view .LVU698
 2344 0090 A854     		strb	r0, [r5, r2]
 113:../USER/main_03.c **** 	if(kinbwp>=256) kinbwp = 0;
 2345              		.loc 1 113 25 view .LVU699
 2346 0092 2360     		str	r3, [r4]
 2347 0094 C7E7     		b	.L179
 2348              	.LVL136:
 2349              	.L186:
 113:../USER/main_03.c **** 	if(kinbwp>=256) kinbwp = 0;
 2350              		.loc 1 113 25 view .LVU700
 2351              	.LBE363:
 2352              	.LBE366:
 125:../USER/main_03.c **** }
 2353              		.loc 1 125 2 is_stmt 1 view .LVU701
 125:../USER/main_03.c **** }
 2354              		.loc 1 125 2 is_stmt 0 view .LVU702
 2355              	.LBE369:
 2356              	.LBE372:
 157:../USER/main_03.c **** 		if(ch==0x0d) break;
 2357              		.loc 1 157 17 is_stmt 1 view .LVU703
 2358 0096 4846     		mov	r0, r9
 2359 0098 FFF7FEFF 		bl	putch_uart
 2360              	.LVL137:
 157:../USER/main_03.c **** 		if(ch==0x0d) break;
 2361              		.loc 1 157 28 view .LVU704
 158:../USER/main_03.c **** 	}
 2362              		.loc 1 158 5 is_stmt 0 view .LVU705
 2363 009c B9F10D0F 		cmp	r9, #13
 157:../USER/main_03.c **** 		if(ch==0x0d) break;
 2364              		.loc 1 157 35 view .LVU706
 2365 00a0 07F8019B 		strb	r9, [r7], #1
 2366              	.LVL138:
 158:../USER/main_03.c **** 	}
 2367              		.loc 1 158 3 is_stmt 1 view .LVU707
 158:../USER/main_03.c **** 	}
 2368              		.loc 1 158 5 is_stmt 0 view .LVU708
 2369 00a4 B4D1     		bne	.L189
 160:../USER/main_03.c **** int ishex(ch) char ch;{
 2370              		.loc 1 160 1 view .LVU709
 2371 00a6 BDE8F883 		pop	{r3, r4, r5, r6, r7, r8, r9, pc}
 2372              	.LVL139:
 2373              	.L201:
 160:../USER/main_03.c **** int ishex(ch) char ch;{
 2374              		.loc 1 160 1 view .LVU710
 2375 00aa 00BF     		.align	2
 2376              	.L200:
 2377 00ac 00000000 		.word	.LANCHOR0
 2378 00b0 00000000 		.word	kinbuf
 2379 00b4 00000000 		.word	.LANCHOR1
 2380              		.cfi_endproc
 2381              	.LFE47:
 2383              		.section	.text.ishex,"ax",%progbits
 2384              		.align	1
 2385              		.p2align 2,,3
 2386              		.global	ishex
 2387              		.syntax unified
 2388              		.thumb
 2389              		.thumb_func
 2390              		.fpu softvfp
 2392              	ishex:
 2393              	.LVL140:
 2394              	.LFB48:
 161:../USER/main_03.c ****   int hd;
 2395              		.loc 1 161 23 is_stmt 1 view -0
 2396              		.cfi_startproc
 2397              		@ args = 0, pretend = 0, frame = 0
 2398              		@ frame_needed = 0, uses_anonymous_args = 0
 2399              		@ link register save eliminated.
 162:../USER/main_03.c ****   if(ch>='0' && ch<='9') hd = ch - 0x30;
 2400              		.loc 1 162 3 view .LVU712
 163:../USER/main_03.c ****   else if(ch>='A' && ch<='F') hd = ch - 0x37;
 2401              		.loc 1 163 3 view .LVU713
 161:../USER/main_03.c ****   int hd;
 2402              		.loc 1 161 23 is_stmt 0 view .LVU714
 2403 0000 40B2     		sxtb	r0, r0
 163:../USER/main_03.c ****   else if(ch>='A' && ch<='F') hd = ch - 0x37;
 2404              		.loc 1 163 14 view .LVU715
 2405 0002 C3B2     		uxtb	r3, r0
 163:../USER/main_03.c ****   else if(ch>='A' && ch<='F') hd = ch - 0x37;
 2406              		.loc 1 163 5 view .LVU716
 2407 0004 A3F13002 		sub	r2, r3, #48
 2408 0008 092A     		cmp	r2, #9
 2409 000a 01D8     		bhi	.L203
 163:../USER/main_03.c ****   else if(ch>='A' && ch<='F') hd = ch - 0x37;
 2410              		.loc 1 163 26 is_stmt 1 discriminator 1 view .LVU717
 163:../USER/main_03.c ****   else if(ch>='A' && ch<='F') hd = ch - 0x37;
 2411              		.loc 1 163 29 is_stmt 0 discriminator 1 view .LVU718
 2412 000c 3038     		subs	r0, r0, #48
 2413              	.LVL141:
 163:../USER/main_03.c ****   else if(ch>='A' && ch<='F') hd = ch - 0x37;
 2414              		.loc 1 163 29 discriminator 1 view .LVU719
 2415 000e 7047     		bx	lr
 2416              	.LVL142:
 2417              	.L203:
 164:../USER/main_03.c ****   else hd = -1;
 2418              		.loc 1 164 8 is_stmt 1 view .LVU720
 164:../USER/main_03.c ****   else hd = -1;
 2419              		.loc 1 164 10 is_stmt 0 view .LVU721
 2420 0010 413B     		subs	r3, r3, #65
 2421 0012 052B     		cmp	r3, #5
 164:../USER/main_03.c ****   else hd = -1;
 2422              		.loc 1 164 31 is_stmt 1 view .LVU722
 164:../USER/main_03.c ****   else hd = -1;
 2423              		.loc 1 164 34 is_stmt 0 view .LVU723
 2424 0014 94BF     		ite	ls
 2425 0016 3738     		subls	r0, r0, #55
 2426              	.LVL143:
 165:../USER/main_03.c ****   return hd;
 2427              		.loc 1 165 11 view .LVU724
 2428 0018 4FF0FF30 		movhi	r0, #-1
 2429              	.LVL144:
 166:../USER/main_03.c **** }
 2430              		.loc 1 166 3 is_stmt 1 view .LVU725
 167:../USER/main_03.c **** void getssu(cbuf) char *cbuf;{ gets(cbuf); setsup(cbuf);}
 2431              		.loc 1 167 1 is_stmt 0 view .LVU726
 2432 001c 7047     		bx	lr
 2433              		.cfi_endproc
 2434              	.LFE48:
 2436 001e 00BF     		.section	.text.getssu,"ax",%progbits
 2437              		.align	1
 2438              		.p2align 2,,3
 2439              		.global	getssu
 2440              		.syntax unified
 2441              		.thumb
 2442              		.thumb_func
 2443              		.fpu softvfp
 2445              	getssu:
 2446              	.LVL145:
 2447              	.LFB49:
 168:../USER/main_03.c **** void putadrhd(adr) long adr;{puts("\r\n"); puth8(adr); putch(':');}
 2448              		.loc 1 168 30 is_stmt 1 view -0
 2449              		.cfi_startproc
 2450              		@ args = 0, pretend = 0, frame = 0
 2451              		@ frame_needed = 0, uses_anonymous_args = 0
 168:../USER/main_03.c **** void putadrhd(adr) long adr;{puts("\r\n"); puth8(adr); putch(':');}
 2452              		.loc 1 168 32 view .LVU728
 168:../USER/main_03.c **** void putadrhd(adr) long adr;{puts("\r\n"); puth8(adr); putch(':');}
 2453              		.loc 1 168 30 is_stmt 0 view .LVU729
 2454 0000 2DE9F047 		push	{r4, r5, r6, r7, r8, r9, r10, lr}
 2455              		.cfi_def_cfa_offset 32
 2456              		.cfi_offset 4, -32
 2457              		.cfi_offset 5, -28
 2458              		.cfi_offset 6, -24
 2459              		.cfi_offset 7, -20
 2460              		.cfi_offset 8, -16
 2461              		.cfi_offset 9, -12
 2462              		.cfi_offset 10, -8
 2463              		.cfi_offset 14, -4
 168:../USER/main_03.c **** void putadrhd(adr) long adr;{puts("\r\n"); puth8(adr); putch(':');}
 2464              		.loc 1 168 30 view .LVU730
 2465 0004 0546     		mov	r5, r0
 2466              	.LVL146:
 2467              	.LBB383:
 2468              	.LBI383:
 154:../USER/main_03.c **** 	char ch;
 2469              		.loc 1 154 6 is_stmt 1 view .LVU731
 2470              	.LBB384:
 2471              	.LBB385:
 2472              	.LBB386:
 2473              	.LBB387:
 2474              	.LBB388:
 116:../USER/main_03.c **** 	if(kinbwp>=256) kinbwp = 0;
 2475              		.loc 1 116 52 is_stmt 0 view .LVU732
 2476 0006 4FF00108 		mov	r8, #1
 2477              	.LBE388:
 2478              	.LBE387:
 2479              	.LBE386:
 2480              	.LBE385:
 2481              	.LBE384:
 2482              	.LBE383:
 168:../USER/main_03.c **** void putadrhd(adr) long adr;{puts("\r\n"); puth8(adr); putch(':');}
 2483              		.loc 1 168 30 view .LVU733
 2484 000a 0746     		mov	r7, r0
 2485 000c DFF8E090 		ldr	r9, .L238+8
 2486 0010 354C     		ldr	r4, .L238
 2487 0012 364E     		ldr	r6, .L238+4
 2488              	.LVL147:
 2489              	.L219:
 2490              	.LBB403:
 2491              	.LBB401:
 155:../USER/main_03.c **** 	while(1){
 2492              		.loc 1 155 2 is_stmt 1 view .LVU734
 156:../USER/main_03.c **** 		ch = getch(); putch(ch); *buf++ = ch;
 2493              		.loc 1 156 2 view .LVU735
 157:../USER/main_03.c **** 		if(ch==0x0d) break;
 2494              		.loc 1 157 3 view .LVU736
 2495              	.LBB398:
 2496              	.LBI385:
 120:../USER/main_03.c **** 	char dt;
 2497              		.loc 1 120 6 view .LVU737
 2498              	.LBB395:
 2499              	.LBB392:
 2500              	.LBB389:
 116:../USER/main_03.c **** 	if(kinbwp>=256) kinbwp = 0;
 2501              		.loc 1 116 11 is_stmt 0 view .LVU738
 2502 0014 4FF0402A 		mov	r10, #1073758208
 2503 0018 D9F80030 		ldr	r3, [r9]
 2504              	.L214:
 2505              	.LBE389:
 2506              	.LBE392:
 122:../USER/main_03.c **** 	dt = kinbuf[kinbrp++];
 2507              		.loc 1 122 14 view .LVU739
 2508 001c 3268     		ldr	r2, [r6]
 122:../USER/main_03.c **** 	dt = kinbuf[kinbrp++];
 2509              		.loc 1 122 7 view .LVU740
 2510 001e 9A42     		cmp	r2, r3
 2511 0020 18D1     		bne	.L237
 122:../USER/main_03.c **** 	dt = kinbuf[kinbrp++];
 2512              		.loc 1 122 24 is_stmt 1 view .LVU741
 2513              	.LBB393:
 2514              	.LBI387:
 109:../USER/main_03.c **** 	char ch;
 2515              		.loc 1 109 6 view .LVU742
 2516              	.LBB390:
 110:../USER/main_03.c **** 	//
 2517              		.loc 1 110 2 view .LVU743
 112:../USER/main_03.c **** 	if(ch!=0) kinbuf[kinbwp++] = ch;
 2518              		.loc 1 112 2 view .LVU744
 112:../USER/main_03.c **** 	if(ch!=0) kinbuf[kinbwp++] = ch;
 2519              		.loc 1 112 7 is_stmt 0 view .LVU745
 2520 0022 FFF7FEFF 		bl	SPI_ReadData
 2521              	.LVL148:
 112:../USER/main_03.c **** 	if(ch!=0) kinbuf[kinbwp++] = ch;
 2522              		.loc 1 112 5 view .LVU746
 2523 0026 40B2     		sxtb	r0, r0
 2524              	.LVL149:
 113:../USER/main_03.c **** 	if(kinbwp>=256) kinbwp = 0;
 2525              		.loc 1 113 2 is_stmt 1 view .LVU747
 113:../USER/main_03.c **** 	if(kinbwp>=256) kinbwp = 0;
 2526              		.loc 1 113 4 is_stmt 0 view .LVU748
 2527 0028 0028     		cmp	r0, #0
 2528 002a 46D1     		bne	.L208
 2529 002c D9F80030 		ldr	r3, [r9]
 2530              	.L209:
 114:../USER/main_03.c **** 	//
 2531              		.loc 1 114 2 is_stmt 1 view .LVU749
 114:../USER/main_03.c **** 	//
 2532              		.loc 1 114 4 is_stmt 0 view .LVU750
 2533 0030 FF2B     		cmp	r3, #255
 2534 0032 30DD     		ble	.L210
 114:../USER/main_03.c **** 	//
 2535              		.loc 1 114 18 is_stmt 1 view .LVU751
 114:../USER/main_03.c **** 	//
 2536              		.loc 1 114 25 is_stmt 0 view .LVU752
 2537 0034 0023     		movs	r3, #0
 2538 0036 C9F80030 		str	r3, [r9]
 116:../USER/main_03.c **** 	if(kinbwp>=256) kinbwp = 0;
 2539              		.loc 1 116 2 is_stmt 1 view .LVU753
 116:../USER/main_03.c **** 	if(kinbwp>=256) kinbwp = 0;
 2540              		.loc 1 116 11 is_stmt 0 view .LVU754
 2541 003a DAF80430 		ldr	r3, [r10, #4]
 116:../USER/main_03.c **** 	if(kinbwp>=256) kinbwp = 0;
 2542              		.loc 1 116 4 view .LVU755
 2543 003e 13F00203 		ands	r3, r3, #2
 2544 0042 EBD0     		beq	.L214
 116:../USER/main_03.c **** 	if(kinbwp>=256) kinbwp = 0;
 2545              		.loc 1 116 39 is_stmt 1 view .LVU756
 116:../USER/main_03.c **** 	if(kinbwp>=256) kinbwp = 0;
 2546              		.loc 1 116 52 is_stmt 0 view .LVU757
 2547 0044 0122     		movs	r2, #1
 116:../USER/main_03.c **** 	if(kinbwp>=256) kinbwp = 0;
 2548              		.loc 1 116 63 view .LVU758
 2549 0046 DAF80030 		ldr	r3, [r10]
 116:../USER/main_03.c **** 	if(kinbwp>=256) kinbwp = 0;
 2550              		.loc 1 116 52 view .LVU759
 2551 004a C9F80080 		str	r8, [r9]
 116:../USER/main_03.c **** 	if(kinbwp>=256) kinbwp = 0;
 2552              		.loc 1 116 56 view .LVU760
 2553 004e 2370     		strb	r3, [r4]
 117:../USER/main_03.c **** 	//
 2554              		.loc 1 117 2 is_stmt 1 view .LVU761
 2555              	.L225:
 116:../USER/main_03.c **** 	if(kinbwp>=256) kinbwp = 0;
 2556              		.loc 1 116 4 is_stmt 0 view .LVU762
 2557 0050 1346     		mov	r3, r2
 2558 0052 E3E7     		b	.L214
 2559              	.LVL150:
 2560              	.L237:
 116:../USER/main_03.c **** 	if(kinbwp>=256) kinbwp = 0;
 2561              		.loc 1 116 4 view .LVU763
 2562              	.LBE390:
 2563              	.LBE393:
 123:../USER/main_03.c **** 	if(kinbrp>=256) kinbrp = 0;
 2564              		.loc 1 123 2 is_stmt 1 view .LVU764
 123:../USER/main_03.c **** 	if(kinbrp>=256) kinbrp = 0;
 2565              		.loc 1 123 20 is_stmt 0 view .LVU765
 2566 0054 531C     		adds	r3, r2, #1
 124:../USER/main_03.c **** 	return dt;
 2567              		.loc 1 124 4 view .LVU766
 2568 0056 FF2B     		cmp	r3, #255
 123:../USER/main_03.c **** 	if(kinbrp>=256) kinbrp = 0;
 2569              		.loc 1 123 20 view .LVU767
 2570 0058 3360     		str	r3, [r6]
 123:../USER/main_03.c **** 	if(kinbrp>=256) kinbrp = 0;
 2571              		.loc 1 123 5 view .LVU768
 2572 005a 14F902A0 		ldrsb	r10, [r4, r2]
 2573              	.LVL151:
 124:../USER/main_03.c **** 	return dt;
 2574              		.loc 1 124 2 is_stmt 1 view .LVU769
 124:../USER/main_03.c **** 	return dt;
 2575              		.loc 1 124 4 is_stmt 0 view .LVU770
 2576 005e 33DD     		ble	.L216
 124:../USER/main_03.c **** 	return dt;
 2577              		.loc 1 124 18 is_stmt 1 view .LVU771
 124:../USER/main_03.c **** 	return dt;
 2578              		.loc 1 124 25 is_stmt 0 view .LVU772
 2579 0060 0023     		movs	r3, #0
 2580              	.LBE395:
 2581              	.LBE398:
 157:../USER/main_03.c **** 		if(ch==0x0d) break;
 2582              		.loc 1 157 17 view .LVU773
 2583 0062 5046     		mov	r0, r10
 2584              	.LBB399:
 2585              	.LBB396:
 124:../USER/main_03.c **** 	return dt;
 2586              		.loc 1 124 25 view .LVU774
 2587 0064 3360     		str	r3, [r6]
 125:../USER/main_03.c **** }
 2588              		.loc 1 125 2 is_stmt 1 view .LVU775
 2589              	.LVL152:
 125:../USER/main_03.c **** }
 2590              		.loc 1 125 2 is_stmt 0 view .LVU776
 2591              	.LBE396:
 2592              	.LBE399:
 157:../USER/main_03.c **** 		if(ch==0x0d) break;
 2593              		.loc 1 157 17 is_stmt 1 view .LVU777
 2594 0066 FFF7FEFF 		bl	putch_uart
 2595              	.LVL153:
 157:../USER/main_03.c **** 		if(ch==0x0d) break;
 2596              		.loc 1 157 28 view .LVU778
 158:../USER/main_03.c **** 	}
 2597              		.loc 1 158 5 is_stmt 0 view .LVU779
 2598 006a BAF10D0F 		cmp	r10, #13
 157:../USER/main_03.c **** 		if(ch==0x0d) break;
 2599              		.loc 1 157 35 view .LVU780
 2600 006e 07F801AB 		strb	r10, [r7], #1
 2601              	.LVL154:
 158:../USER/main_03.c **** 	}
 2602              		.loc 1 158 3 is_stmt 1 view .LVU781
 158:../USER/main_03.c **** 	}
 2603              		.loc 1 158 5 is_stmt 0 view .LVU782
 2604 0072 CFD1     		bne	.L219
 2605              	.LVL155:
 2606              	.L217:
 158:../USER/main_03.c **** 	}
 2607              		.loc 1 158 5 view .LVU783
 2608              	.LBE401:
 2609              	.LBE403:
 2610              	.LBB404:
 2611              	.LBB405:
 102:../USER/main_03.c ****    if( *buf>='a' && *buf<='z') *buf = *buf - 0x20;
 2612              		.loc 1 102 9 view .LVU784
 2613 0074 95F90030 		ldrsb	r3, [r5]
 102:../USER/main_03.c ****    if( *buf>='a' && *buf<='z') *buf = *buf - 0x20;
 2614              		.loc 1 102 8 view .LVU785
 2615 0078 0D2B     		cmp	r3, #13
 2616 007a 0AD0     		beq	.L206
 2617              	.LVL156:
 2618              	.L220:
 103:../USER/main_03.c ****    buf++;
 2619              		.loc 1 103 4 is_stmt 1 view .LVU786
 103:../USER/main_03.c ****    buf++;
 2620              		.loc 1 103 32 view .LVU787
 104:../USER/main_03.c ****   }
 2621              		.loc 1 104 4 view .LVU788
 103:../USER/main_03.c ****    buf++;
 2622              		.loc 1 103 18 is_stmt 0 view .LVU789
 2623 007c DBB2     		uxtb	r3, r3
 103:../USER/main_03.c ****    buf++;
 2624              		.loc 1 103 44 view .LVU790
 2625 007e A3F12002 		sub	r2, r3, #32
 103:../USER/main_03.c ****    buf++;
 2626              		.loc 1 103 6 view .LVU791
 2627 0082 613B     		subs	r3, r3, #97
 2628 0084 192B     		cmp	r3, #25
 2629 0086 28D8     		bhi	.L221
 103:../USER/main_03.c ****    buf++;
 2630              		.loc 1 103 37 view .LVU792
 2631 0088 2A70     		strb	r2, [r5]
 104:../USER/main_03.c ****   }
 2632              		.loc 1 104 4 is_stmt 1 view .LVU793
 102:../USER/main_03.c ****    if( *buf>='a' && *buf<='z') *buf = *buf - 0x20;
 2633              		.loc 1 102 9 is_stmt 0 view .LVU794
 2634 008a 15F9013F 		ldrsb	r3, [r5, #1]!
 2635              	.LVL157:
 102:../USER/main_03.c ****    if( *buf>='a' && *buf<='z') *buf = *buf - 0x20;
 2636              		.loc 1 102 8 view .LVU795
 2637 008e 0D2B     		cmp	r3, #13
 2638 0090 F4D1     		bne	.L220
 2639              	.LVL158:
 2640              	.L206:
 102:../USER/main_03.c ****    if( *buf>='a' && *buf<='z') *buf = *buf - 0x20;
 2641              		.loc 1 102 8 view .LVU796
 2642              	.LBE405:
 2643              	.LBE404:
 168:../USER/main_03.c **** void putadrhd(adr) long adr;{puts("\r\n"); puth8(adr); putch(':');}
 2644              		.loc 1 168 1 view .LVU797
 2645 0092 BDE8F087 		pop	{r4, r5, r6, r7, r8, r9, r10, pc}
 2646              	.LVL159:
 2647              	.L210:
 2648              	.LBB407:
 2649              	.LBB402:
 2650              	.LBB400:
 2651              	.LBB397:
 2652              	.LBB394:
 2653              	.LBB391:
 116:../USER/main_03.c **** 	if(kinbwp>=256) kinbwp = 0;
 2654              		.loc 1 116 2 is_stmt 1 view .LVU798
 116:../USER/main_03.c **** 	if(kinbwp>=256) kinbwp = 0;
 2655              		.loc 1 116 11 is_stmt 0 view .LVU799
 2656 0096 DAF80420 		ldr	r2, [r10, #4]
 116:../USER/main_03.c **** 	if(kinbwp>=256) kinbwp = 0;
 2657              		.loc 1 116 4 view .LVU800
 2658 009a 9207     		lsls	r2, r2, #30
 2659 009c BED5     		bpl	.L214
 116:../USER/main_03.c **** 	if(kinbwp>=256) kinbwp = 0;
 2660              		.loc 1 116 39 is_stmt 1 view .LVU801
 116:../USER/main_03.c **** 	if(kinbwp>=256) kinbwp = 0;
 2661              		.loc 1 116 63 is_stmt 0 view .LVU802
 2662 009e DAF80010 		ldr	r1, [r10]
 116:../USER/main_03.c **** 	if(kinbwp>=256) kinbwp = 0;
 2663              		.loc 1 116 52 view .LVU803
 2664 00a2 5A1C     		adds	r2, r3, #1
 117:../USER/main_03.c **** 	//
 2665              		.loc 1 117 4 view .LVU804
 2666 00a4 B2F5807F 		cmp	r2, #256
 116:../USER/main_03.c **** 	if(kinbwp>=256) kinbwp = 0;
 2667              		.loc 1 116 56 view .LVU805
 2668 00a8 E154     		strb	r1, [r4, r3]
 117:../USER/main_03.c **** 	//
 2669              		.loc 1 117 2 is_stmt 1 view .LVU806
 116:../USER/main_03.c **** 	if(kinbwp>=256) kinbwp = 0;
 2670              		.loc 1 116 52 is_stmt 0 view .LVU807
 2671 00aa C9F80020 		str	r2, [r9]
 117:../USER/main_03.c **** 	//
 2672              		.loc 1 117 4 view .LVU808
 2673 00ae CFD1     		bne	.L225
 117:../USER/main_03.c **** 	//
 2674              		.loc 1 117 18 is_stmt 1 view .LVU809
 117:../USER/main_03.c **** 	//
 2675              		.loc 1 117 25 is_stmt 0 view .LVU810
 2676 00b0 0022     		movs	r2, #0
 2677 00b2 1346     		mov	r3, r2
 2678 00b4 C9F80020 		str	r2, [r9]
 2679 00b8 B0E7     		b	.L214
 2680              	.L208:
 113:../USER/main_03.c **** 	if(kinbwp>=256) kinbwp = 0;
 2681              		.loc 1 113 12 is_stmt 1 view .LVU811
 113:../USER/main_03.c **** 	if(kinbwp>=256) kinbwp = 0;
 2682              		.loc 1 113 25 is_stmt 0 view .LVU812
 2683 00ba D9F80020 		ldr	r2, [r9]
 2684 00be 531C     		adds	r3, r2, #1
 113:../USER/main_03.c **** 	if(kinbwp>=256) kinbwp = 0;
 2685              		.loc 1 113 29 view .LVU813
 2686 00c0 A054     		strb	r0, [r4, r2]
 113:../USER/main_03.c **** 	if(kinbwp>=256) kinbwp = 0;
 2687              		.loc 1 113 25 view .LVU814
 2688 00c2 C9F80030 		str	r3, [r9]
 2689 00c6 B3E7     		b	.L209
 2690              	.LVL160:
 2691              	.L216:
 113:../USER/main_03.c **** 	if(kinbwp>=256) kinbwp = 0;
 2692              		.loc 1 113 25 view .LVU815
 2693              	.LBE391:
 2694              	.LBE394:
 125:../USER/main_03.c **** }
 2695              		.loc 1 125 2 is_stmt 1 view .LVU816
 125:../USER/main_03.c **** }
 2696              		.loc 1 125 2 is_stmt 0 view .LVU817
 2697              	.LBE397:
 2698              	.LBE400:
 157:../USER/main_03.c **** 		if(ch==0x0d) break;
 2699              		.loc 1 157 17 is_stmt 1 view .LVU818
 2700 00c8 5046     		mov	r0, r10
 2701 00ca FFF7FEFF 		bl	putch_uart
 2702              	.LVL161:
 157:../USER/main_03.c **** 		if(ch==0x0d) break;
 2703              		.loc 1 157 28 view .LVU819
 158:../USER/main_03.c **** 	}
 2704              		.loc 1 158 5 is_stmt 0 view .LVU820
 2705 00ce BAF10D0F 		cmp	r10, #13
 157:../USER/main_03.c **** 		if(ch==0x0d) break;
 2706              		.loc 1 157 35 view .LVU821
 2707 00d2 07F801AB 		strb	r10, [r7], #1
 2708              	.LVL162:
 158:../USER/main_03.c **** 	}
 2709              		.loc 1 158 3 is_stmt 1 view .LVU822
 158:../USER/main_03.c **** 	}
 2710              		.loc 1 158 5 is_stmt 0 view .LVU823
 2711 00d6 9DD1     		bne	.L219
 158:../USER/main_03.c **** 	}
 2712              		.loc 1 158 5 view .LVU824
 2713 00d8 CCE7     		b	.L217
 2714              	.LVL163:
 2715              	.L221:
 158:../USER/main_03.c **** 	}
 2716              		.loc 1 158 5 view .LVU825
 2717              	.LBE402:
 2718              	.LBE407:
 2719              	.LBB408:
 2720              	.LBB406:
 102:../USER/main_03.c ****    if( *buf>='a' && *buf<='z') *buf = *buf - 0x20;
 2721              		.loc 1 102 9 view .LVU826
 2722 00da 15F9013F 		ldrsb	r3, [r5, #1]!
 2723              	.LVL164:
 102:../USER/main_03.c ****    if( *buf>='a' && *buf<='z') *buf = *buf - 0x20;
 2724              		.loc 1 102 8 view .LVU827
 2725 00de 0D2B     		cmp	r3, #13
 2726 00e0 CCD1     		bne	.L220
 2727              	.LBE406:
 2728              	.LBE408:
 168:../USER/main_03.c **** void putadrhd(adr) long adr;{puts("\r\n"); puth8(adr); putch(':');}
 2729              		.loc 1 168 1 view .LVU828
 2730 00e2 BDE8F087 		pop	{r4, r5, r6, r7, r8, r9, r10, pc}
 2731              	.LVL165:
 2732              	.L239:
 168:../USER/main_03.c **** void putadrhd(adr) long adr;{puts("\r\n"); puth8(adr); putch(':');}
 2733              		.loc 1 168 1 view .LVU829
 2734 00e6 00BF     		.align	2
 2735              	.L238:
 2736 00e8 00000000 		.word	kinbuf
 2737 00ec 00000000 		.word	.LANCHOR1
 2738 00f0 00000000 		.word	.LANCHOR0
 2739              		.cfi_endproc
 2740              	.LFE49:
 2742              		.section	.text.putadrhd,"ax",%progbits
 2743              		.align	1
 2744              		.p2align 2,,3
 2745              		.global	putadrhd
 2746              		.syntax unified
 2747              		.thumb
 2748              		.thumb_func
 2749              		.fpu softvfp
 2751              	putadrhd:
 2752              	.LVL166:
 2753              	.LFB50:
 169:../USER/main_03.c **** 
 2754              		.loc 1 169 29 is_stmt 1 view -0
 2755              		.cfi_startproc
 2756              		@ args = 0, pretend = 0, frame = 0
 2757              		@ frame_needed = 0, uses_anonymous_args = 0
 169:../USER/main_03.c **** 
 2758              		.loc 1 169 30 view .LVU831
 2759              	.LBB445:
 2760              	.LBI445:
 148:../USER/main_03.c **** 	while(1){
 2761              		.loc 1 148 6 view .LVU832
 2762              	.LBB446:
 149:../USER/main_03.c **** 		if(*buf==0) break;
 2763              		.loc 1 149 2 view .LVU833
 150:../USER/main_03.c **** 		else        putch(*buf++);
 2764              		.loc 1 150 3 view .LVU834
 2765              	.LBE446:
 2766              	.LBE445:
 169:../USER/main_03.c **** 
 2767              		.loc 1 169 29 is_stmt 0 view .LVU835
 2768 0000 F8B5     		push	{r3, r4, r5, r6, r7, lr}
 2769              		.cfi_def_cfa_offset 24
 2770              		.cfi_offset 3, -24
 2771              		.cfi_offset 4, -20
 2772              		.cfi_offset 5, -16
 2773              		.cfi_offset 6, -12
 2774              		.cfi_offset 7, -8
 2775              		.cfi_offset 14, -4
 169:../USER/main_03.c **** 
 2776              		.loc 1 169 29 view .LVU836
 2777 0002 0546     		mov	r5, r0
 2778              	.LBB448:
 2779              	.LBB447:
 150:../USER/main_03.c **** 		else        putch(*buf++);
 2780              		.loc 1 150 6 view .LVU837
 2781 0004 0D20     		movs	r0, #13
 2782              	.LVL167:
 150:../USER/main_03.c **** 		else        putch(*buf++);
 2783              		.loc 1 150 6 view .LVU838
 2784 0006 2C4C     		ldr	r4, .L260
 2785              	.LVL168:
 2786              	.L241:
 151:../USER/main_03.c **** 	}
 2787              		.loc 1 151 15 is_stmt 1 view .LVU839
 151:../USER/main_03.c **** 	}
 2788              		.loc 1 151 15 is_stmt 0 view .LVU840
 2789 0008 FFF7FEFF 		bl	putch_uart
 2790              	.LVL169:
 149:../USER/main_03.c **** 		if(*buf==0) break;
 2791              		.loc 1 149 2 is_stmt 1 view .LVU841
 150:../USER/main_03.c **** 		else        putch(*buf++);
 2792              		.loc 1 150 3 view .LVU842
 150:../USER/main_03.c **** 		else        putch(*buf++);
 2793              		.loc 1 150 6 is_stmt 0 view .LVU843
 2794 000c 14F9010F 		ldrsb	r0, [r4, #1]!
 2795              	.LVL170:
 150:../USER/main_03.c **** 		else        putch(*buf++);
 2796              		.loc 1 150 5 view .LVU844
 2797 0010 0028     		cmp	r0, #0
 2798 0012 F9D1     		bne	.L241
 2799              	.LVL171:
 150:../USER/main_03.c **** 		else        putch(*buf++);
 2800              		.loc 1 150 5 view .LVU845
 2801              	.LBE447:
 2802              	.LBE448:
 169:../USER/main_03.c **** 
 2803              		.loc 1 169 44 is_stmt 1 view .LVU846
 2804              	.LBB449:
 2805              	.LBI449:
 147:../USER/main_03.c **** void putsuart(char *buf){
 2806              		.loc 1 147 6 view .LVU847
 2807              	.LBB450:
 147:../USER/main_03.c **** void putsuart(char *buf){
 2808              		.loc 1 147 26 view .LVU848
 147:../USER/main_03.c **** void putsuart(char *buf){
 2809              		.loc 1 147 37 view .LVU849
 2810 0014 2E0E     		lsrs	r6, r5, #24
 2811              	.LBB451:
 2812              	.LBB452:
 2813              	.LBB453:
 144:../USER/main_03.c **** void puth4(dt) int dt;{ puth2((dt >> 8) & 0xff); puth2(dt & 0xff); }
 2814              		.loc 1 144 34 is_stmt 0 view .LVU850
 2815 0016 3311     		asrs	r3, r6, #4
 2816 0018 D8B2     		uxtb	r0, r3
 2817              	.LBB454:
 2818              	.LBB455:
 143:../USER/main_03.c **** void puth2(dt) int dt;{ puth((dt >> 4) & 0xf); puth(dt & 0xf); }
 2819              		.loc 1 143 26 view .LVU851
 2820 001a 092B     		cmp	r3, #9
 143:../USER/main_03.c **** void puth2(dt) int dt;{ puth((dt >> 4) & 0xf); puth(dt & 0xf); }
 2821              		.loc 1 143 34 view .LVU852
 2822 001c D4BF     		ite	le
 2823 001e 3030     		addle	r0, r0, #48
 143:../USER/main_03.c **** void puth2(dt) int dt;{ puth((dt >> 4) & 0xf); puth(dt & 0xf); }
 2824              		.loc 1 143 55 view .LVU853
 2825 0020 3730     		addgt	r0, r0, #55
 2826              	.LBE455:
 2827              	.LBE454:
 144:../USER/main_03.c **** void puth4(dt) int dt;{ puth2((dt >> 8) & 0xff); puth2(dt & 0xff); }
 2828              		.loc 1 144 48 view .LVU854
 2829 0022 06F00F06 		and	r6, r6, #15
 2830              	.LBB458:
 2831              	.LBB456:
 143:../USER/main_03.c **** void puth2(dt) int dt;{ puth((dt >> 4) & 0xf); puth(dt & 0xf); }
 2832              		.loc 1 143 55 view .LVU855
 2833 0026 FFF7FEFF 		bl	putch_uart
 2834              	.LVL172:
 2835 002a F0B2     		uxtb	r0, r6
 2836              	.LBE456:
 2837              	.LBE458:
 2838              	.LBB459:
 2839              	.LBB460:
 143:../USER/main_03.c **** void puth2(dt) int dt;{ puth((dt >> 4) & 0xf); puth(dt & 0xf); }
 2840              		.loc 1 143 26 view .LVU856
 2841 002c 092E     		cmp	r6, #9
 143:../USER/main_03.c **** void puth2(dt) int dt;{ puth((dt >> 4) & 0xf); puth(dt & 0xf); }
 2842              		.loc 1 143 34 view .LVU857
 2843 002e D4BF     		ite	le
 2844 0030 3030     		addle	r0, r0, #48
 143:../USER/main_03.c **** void puth2(dt) int dt;{ puth((dt >> 4) & 0xf); puth(dt & 0xf); }
 2845              		.loc 1 143 55 view .LVU858
 2846 0032 3730     		addgt	r0, r0, #55
 2847 0034 FFF7FEFF 		bl	putch_uart
 2848              	.LVL173:
 2849              	.LBE460:
 2850              	.LBE459:
 2851              	.LBE453:
 2852              	.LBE452:
 2853              	.LBB465:
 2854              	.LBB466:
 144:../USER/main_03.c **** void puth4(dt) int dt;{ puth2((dt >> 8) & 0xff); puth2(dt & 0xff); }
 2855              		.loc 1 144 34 view .LVU859
 2856 0038 C5F30353 		ubfx	r3, r5, #20, #4
 2857 003c D8B2     		uxtb	r0, r3
 2858              	.LBB467:
 2859              	.LBB468:
 143:../USER/main_03.c **** void puth2(dt) int dt;{ puth((dt >> 4) & 0xf); puth(dt & 0xf); }
 2860              		.loc 1 143 26 view .LVU860
 2861 003e 092B     		cmp	r3, #9
 2862              	.LBE468:
 2863              	.LBE467:
 2864              	.LBE466:
 2865              	.LBE465:
 2866              	.LBE451:
 147:../USER/main_03.c **** void putsuart(char *buf){
 2867              		.loc 1 147 40 view .LVU861
 2868 0040 4FEA2547 		asr	r7, r5, #16
 2869              	.LVL174:
 147:../USER/main_03.c **** void putsuart(char *buf){
 2870              		.loc 1 147 52 is_stmt 1 view .LVU862
 2871              	.LBB482:
 2872              	.LBB479:
 2873              	.LBB477:
 2874              	.LBB471:
 2875              	.LBB469:
 143:../USER/main_03.c **** void puth2(dt) int dt;{ puth((dt >> 4) & 0xf); puth(dt & 0xf); }
 2876              		.loc 1 143 34 is_stmt 0 view .LVU863
 2877 0044 D4BF     		ite	le
 2878 0046 3030     		addle	r0, r0, #48
 143:../USER/main_03.c **** void puth2(dt) int dt;{ puth((dt >> 4) & 0xf); puth(dt & 0xf); }
 2879              		.loc 1 143 55 view .LVU864
 2880 0048 3730     		addgt	r0, r0, #55
 2881 004a FFF7FEFF 		bl	putch_uart
 2882              	.LVL175:
 2883              	.LBE469:
 2884              	.LBE471:
 144:../USER/main_03.c **** void puth4(dt) int dt;{ puth2((dt >> 8) & 0xff); puth2(dt & 0xff); }
 2885              		.loc 1 144 48 view .LVU865
 2886 004e 07F00F03 		and	r3, r7, #15
 2887 0052 D8B2     		uxtb	r0, r3
 2888              	.LBB472:
 2889              	.LBB473:
 143:../USER/main_03.c **** void puth2(dt) int dt;{ puth((dt >> 4) & 0xf); puth(dt & 0xf); }
 2890              		.loc 1 143 26 view .LVU866
 2891 0054 092B     		cmp	r3, #9
 2892              	.LBE473:
 2893              	.LBE472:
 2894              	.LBE477:
 2895              	.LBE479:
 2896              	.LBE482:
 147:../USER/main_03.c **** void putsuart(char *buf){
 2897              		.loc 1 147 55 view .LVU867
 2898 0056 ACB2     		uxth	r4, r5
 2899              	.LVL176:
 147:../USER/main_03.c **** void putsuart(char *buf){
 2900              		.loc 1 147 70 is_stmt 1 view .LVU868
 2901              	.LBB483:
 2902              	.LBI451:
 145:../USER/main_03.c **** void puth6(dt) long dt;{ int dh,dl; dh = dt >> 16; dl = dt & 0xffff; puth2(dh); puth4(dl); }
 2903              		.loc 1 145 6 view .LVU869
 2904              	.LBE483:
 2905              	.LBE450:
 2906              	.LBE449:
 145:../USER/main_03.c **** void puth6(dt) long dt;{ int dh,dl; dh = dt >> 16; dl = dt & 0xffff; puth2(dh); puth4(dl); }
 2907              		.loc 1 145 25 view .LVU870
 2908              	.LBB510:
 2909              	.LBB508:
 2910              	.LBB484:
 2911              	.LBB480:
 2912              	.LBI452:
 144:../USER/main_03.c **** void puth4(dt) int dt;{ puth2((dt >> 8) & 0xff); puth2(dt & 0xff); }
 2913              		.loc 1 144 6 view .LVU871
 2914              	.LBB464:
 144:../USER/main_03.c **** void puth4(dt) int dt;{ puth2((dt >> 8) & 0xff); puth2(dt & 0xff); }
 2915              		.loc 1 144 25 view .LVU872
 2916              	.LBB462:
 2917              	.LBI454:
 143:../USER/main_03.c **** void puth2(dt) int dt;{ puth((dt >> 4) & 0xf); puth(dt & 0xf); }
 2918              		.loc 1 143 6 view .LVU873
 2919              	.LBB457:
 143:../USER/main_03.c **** void puth2(dt) int dt;{ puth((dt >> 4) & 0xf); puth(dt & 0xf); }
 2920              		.loc 1 143 24 view .LVU874
 143:../USER/main_03.c **** void puth2(dt) int dt;{ puth((dt >> 4) & 0xf); puth(dt & 0xf); }
 2921              		.loc 1 143 34 view .LVU875
 143:../USER/main_03.c **** void puth2(dt) int dt;{ puth((dt >> 4) & 0xf); puth(dt & 0xf); }
 2922              		.loc 1 143 55 view .LVU876
 2923              	.LBE457:
 2924              	.LBE462:
 144:../USER/main_03.c **** void puth4(dt) int dt;{ puth2((dt >> 8) & 0xff); puth2(dt & 0xff); }
 2925              		.loc 1 144 48 view .LVU877
 2926              	.LBB463:
 2927              	.LBI459:
 143:../USER/main_03.c **** void puth2(dt) int dt;{ puth((dt >> 4) & 0xf); puth(dt & 0xf); }
 2928              		.loc 1 143 6 view .LVU878
 2929              	.LBB461:
 143:../USER/main_03.c **** void puth2(dt) int dt;{ puth((dt >> 4) & 0xf); puth(dt & 0xf); }
 2930              		.loc 1 143 24 view .LVU879
 143:../USER/main_03.c **** void puth2(dt) int dt;{ puth((dt >> 4) & 0xf); puth(dt & 0xf); }
 2931              		.loc 1 143 34 view .LVU880
 143:../USER/main_03.c **** void puth2(dt) int dt;{ puth((dt >> 4) & 0xf); puth(dt & 0xf); }
 2932              		.loc 1 143 55 view .LVU881
 143:../USER/main_03.c **** void puth2(dt) int dt;{ puth((dt >> 4) & 0xf); puth(dt & 0xf); }
 2933              		.loc 1 143 55 is_stmt 0 view .LVU882
 2934              	.LBE461:
 2935              	.LBE463:
 2936              	.LBE464:
 2937              	.LBE480:
 2938              	.LBE484:
 2939              	.LBE508:
 2940              	.LBE510:
 145:../USER/main_03.c **** void puth6(dt) long dt;{ int dh,dl; dh = dt >> 16; dl = dt & 0xffff; puth2(dh); puth4(dl); }
 2941              		.loc 1 145 50 is_stmt 1 view .LVU883
 2942              	.LBB511:
 2943              	.LBB509:
 2944              	.LBB485:
 2945              	.LBB481:
 2946              	.LBI465:
 144:../USER/main_03.c **** void puth4(dt) int dt;{ puth2((dt >> 8) & 0xff); puth2(dt & 0xff); }
 2947              		.loc 1 144 6 view .LVU884
 2948              	.LBB478:
 144:../USER/main_03.c **** void puth4(dt) int dt;{ puth2((dt >> 8) & 0xff); puth2(dt & 0xff); }
 2949              		.loc 1 144 25 view .LVU885
 2950              	.LBB475:
 2951              	.LBI467:
 143:../USER/main_03.c **** void puth2(dt) int dt;{ puth((dt >> 4) & 0xf); puth(dt & 0xf); }
 2952              		.loc 1 143 6 view .LVU886
 2953              	.LBB470:
 143:../USER/main_03.c **** void puth2(dt) int dt;{ puth((dt >> 4) & 0xf); puth(dt & 0xf); }
 2954              		.loc 1 143 24 view .LVU887
 143:../USER/main_03.c **** void puth2(dt) int dt;{ puth((dt >> 4) & 0xf); puth(dt & 0xf); }
 2955              		.loc 1 143 34 view .LVU888
 143:../USER/main_03.c **** void puth2(dt) int dt;{ puth((dt >> 4) & 0xf); puth(dt & 0xf); }
 2956              		.loc 1 143 55 view .LVU889
 2957              	.LBE470:
 2958              	.LBE475:
 144:../USER/main_03.c **** void puth4(dt) int dt;{ puth2((dt >> 8) & 0xff); puth2(dt & 0xff); }
 2959              		.loc 1 144 48 view .LVU890
 2960              	.LBB476:
 2961              	.LBI472:
 143:../USER/main_03.c **** void puth2(dt) int dt;{ puth((dt >> 4) & 0xf); puth(dt & 0xf); }
 2962              		.loc 1 143 6 view .LVU891
 2963              	.LBB474:
 143:../USER/main_03.c **** void puth2(dt) int dt;{ puth((dt >> 4) & 0xf); puth(dt & 0xf); }
 2964              		.loc 1 143 24 view .LVU892
 143:../USER/main_03.c **** void puth2(dt) int dt;{ puth((dt >> 4) & 0xf); puth(dt & 0xf); }
 2965              		.loc 1 143 34 view .LVU893
 143:../USER/main_03.c **** void puth2(dt) int dt;{ puth((dt >> 4) & 0xf); puth(dt & 0xf); }
 2966              		.loc 1 143 55 view .LVU894
 143:../USER/main_03.c **** void puth2(dt) int dt;{ puth((dt >> 4) & 0xf); puth(dt & 0xf); }
 2967              		.loc 1 143 34 is_stmt 0 view .LVU895
 2968 0058 D4BF     		ite	le
 2969 005a 3030     		addle	r0, r0, #48
 143:../USER/main_03.c **** void puth2(dt) int dt;{ puth((dt >> 4) & 0xf); puth(dt & 0xf); }
 2970              		.loc 1 143 55 view .LVU896
 2971 005c 3730     		addgt	r0, r0, #55
 2972 005e FFF7FEFF 		bl	putch_uart
 2973              	.LVL177:
 143:../USER/main_03.c **** void puth2(dt) int dt;{ puth((dt >> 4) & 0xf); puth(dt & 0xf); }
 2974              		.loc 1 143 55 view .LVU897
 2975              	.LBE474:
 2976              	.LBE476:
 2977              	.LBE478:
 2978              	.LBE481:
 2979              	.LBE485:
 147:../USER/main_03.c **** void putsuart(char *buf){
 2980              		.loc 1 147 81 is_stmt 1 view .LVU898
 2981              	.LBB486:
 2982              	.LBI486:
 145:../USER/main_03.c **** void puth6(dt) long dt;{ int dh,dl; dh = dt >> 16; dl = dt & 0xffff; puth2(dh); puth4(dl); }
 2983              		.loc 1 145 6 view .LVU899
 2984              	.LBB487:
 145:../USER/main_03.c **** void puth6(dt) long dt;{ int dh,dl; dh = dt >> 16; dl = dt & 0xffff; puth2(dh); puth4(dl); }
 2985              		.loc 1 145 25 view .LVU900
 2986              	.LBB488:
 2987              	.LBB489:
 144:../USER/main_03.c **** void puth4(dt) int dt;{ puth2((dt >> 8) & 0xff); puth2(dt & 0xff); }
 2988              		.loc 1 144 34 is_stmt 0 view .LVU901
 2989 0062 2313     		asrs	r3, r4, #12
 2990 0064 D8B2     		uxtb	r0, r3
 2991              	.LBB490:
 2992              	.LBB491:
 143:../USER/main_03.c **** void puth2(dt) int dt;{ puth((dt >> 4) & 0xf); puth(dt & 0xf); }
 2993              		.loc 1 143 26 view .LVU902
 2994 0066 092B     		cmp	r3, #9
 2995              	.LBE491:
 2996              	.LBE490:
 2997              	.LBE489:
 2998              	.LBE488:
 145:../USER/main_03.c **** void puth6(dt) long dt;{ int dh,dl; dh = dt >> 16; dl = dt & 0xffff; puth2(dh); puth4(dl); }
 2999              		.loc 1 145 35 view .LVU903
 3000 0068 4FEA2424 		asr	r4, r4, #8
 3001              	.LVL178:
 3002              	.LBB499:
 3003              	.LBI488:
 144:../USER/main_03.c **** void puth4(dt) int dt;{ puth2((dt >> 8) & 0xff); puth2(dt & 0xff); }
 3004              		.loc 1 144 6 is_stmt 1 view .LVU904
 3005              	.LBB498:
 144:../USER/main_03.c **** void puth4(dt) int dt;{ puth2((dt >> 8) & 0xff); puth2(dt & 0xff); }
 3006              		.loc 1 144 25 view .LVU905
 3007              	.LBB494:
 3008              	.LBI490:
 143:../USER/main_03.c **** void puth2(dt) int dt;{ puth((dt >> 4) & 0xf); puth(dt & 0xf); }
 3009              		.loc 1 143 6 view .LVU906
 3010              	.LBB492:
 143:../USER/main_03.c **** void puth2(dt) int dt;{ puth((dt >> 4) & 0xf); puth(dt & 0xf); }
 3011              		.loc 1 143 24 view .LVU907
 143:../USER/main_03.c **** void puth2(dt) int dt;{ puth((dt >> 4) & 0xf); puth(dt & 0xf); }
 3012              		.loc 1 143 34 view .LVU908
 143:../USER/main_03.c **** void puth2(dt) int dt;{ puth((dt >> 4) & 0xf); puth(dt & 0xf); }
 3013              		.loc 1 143 55 view .LVU909
 143:../USER/main_03.c **** void puth2(dt) int dt;{ puth((dt >> 4) & 0xf); puth(dt & 0xf); }
 3014              		.loc 1 143 34 is_stmt 0 view .LVU910
 3015 006c D4BF     		ite	le
 3016 006e 3030     		addle	r0, r0, #48
 143:../USER/main_03.c **** void puth2(dt) int dt;{ puth((dt >> 4) & 0xf); puth(dt & 0xf); }
 3017              		.loc 1 143 55 view .LVU911
 3018 0070 3730     		addgt	r0, r0, #55
 3019              	.LBE492:
 3020              	.LBE494:
 144:../USER/main_03.c **** void puth4(dt) int dt;{ puth2((dt >> 8) & 0xff); puth2(dt & 0xff); }
 3021              		.loc 1 144 48 view .LVU912
 3022 0072 04F00F04 		and	r4, r4, #15
 3023              	.LVL179:
 3024              	.LBB495:
 3025              	.LBB493:
 143:../USER/main_03.c **** void puth2(dt) int dt;{ puth((dt >> 4) & 0xf); puth(dt & 0xf); }
 3026              		.loc 1 143 55 view .LVU913
 3027 0076 FFF7FEFF 		bl	putch_uart
 3028              	.LVL180:
 143:../USER/main_03.c **** void puth2(dt) int dt;{ puth((dt >> 4) & 0xf); puth(dt & 0xf); }
 3029              		.loc 1 143 55 view .LVU914
 3030              	.LBE493:
 3031              	.LBE495:
 144:../USER/main_03.c **** void puth4(dt) int dt;{ puth2((dt >> 8) & 0xff); puth2(dt & 0xff); }
 3032              		.loc 1 144 48 is_stmt 1 view .LVU915
 3033              	.LBB496:
 3034              	.LBI496:
 143:../USER/main_03.c **** void puth2(dt) int dt;{ puth((dt >> 4) & 0xf); puth(dt & 0xf); }
 3035              		.loc 1 143 6 view .LVU916
 3036              	.LBB497:
 143:../USER/main_03.c **** void puth2(dt) int dt;{ puth((dt >> 4) & 0xf); puth(dt & 0xf); }
 3037              		.loc 1 143 24 view .LVU917
 143:../USER/main_03.c **** void puth2(dt) int dt;{ puth((dt >> 4) & 0xf); puth(dt & 0xf); }
 3038              		.loc 1 143 34 view .LVU918
 143:../USER/main_03.c **** void puth2(dt) int dt;{ puth((dt >> 4) & 0xf); puth(dt & 0xf); }
 3039              		.loc 1 143 55 view .LVU919
 3040 007a E0B2     		uxtb	r0, r4
 143:../USER/main_03.c **** void puth2(dt) int dt;{ puth((dt >> 4) & 0xf); puth(dt & 0xf); }
 3041              		.loc 1 143 26 is_stmt 0 view .LVU920
 3042 007c 092C     		cmp	r4, #9
 143:../USER/main_03.c **** void puth2(dt) int dt;{ puth((dt >> 4) & 0xf); puth(dt & 0xf); }
 3043              		.loc 1 143 34 view .LVU921
 3044 007e D4BF     		ite	le
 3045 0080 3030     		addle	r0, r0, #48
 143:../USER/main_03.c **** void puth2(dt) int dt;{ puth((dt >> 4) & 0xf); puth(dt & 0xf); }
 3046              		.loc 1 143 55 view .LVU922
 3047 0082 3730     		addgt	r0, r0, #55
 3048 0084 FFF7FEFF 		bl	putch_uart
 3049              	.LVL181:
 143:../USER/main_03.c **** void puth2(dt) int dt;{ puth((dt >> 4) & 0xf); puth(dt & 0xf); }
 3050              		.loc 1 143 55 view .LVU923
 3051              	.LBE497:
 3052              	.LBE496:
 3053              	.LBE498:
 3054              	.LBE499:
 145:../USER/main_03.c **** void puth6(dt) long dt;{ int dh,dl; dh = dt >> 16; dl = dt & 0xffff; puth2(dh); puth4(dl); }
 3055              		.loc 1 145 50 is_stmt 1 view .LVU924
 3056              	.LBB500:
 3057              	.LBI500:
 144:../USER/main_03.c **** void puth4(dt) int dt;{ puth2((dt >> 8) & 0xff); puth2(dt & 0xff); }
 3058              		.loc 1 144 6 view .LVU925
 3059              	.LBB501:
 144:../USER/main_03.c **** void puth4(dt) int dt;{ puth2((dt >> 8) & 0xff); puth2(dt & 0xff); }
 3060              		.loc 1 144 25 view .LVU926
 144:../USER/main_03.c **** void puth4(dt) int dt;{ puth2((dt >> 8) & 0xff); puth2(dt & 0xff); }
 3061              		.loc 1 144 34 is_stmt 0 view .LVU927
 3062 0088 C5F30313 		ubfx	r3, r5, #4, #4
 3063              	.LVL182:
 3064              	.LBB502:
 3065              	.LBI502:
 143:../USER/main_03.c **** void puth2(dt) int dt;{ puth((dt >> 4) & 0xf); puth(dt & 0xf); }
 3066              		.loc 1 143 6 is_stmt 1 view .LVU928
 3067              	.LBB503:
 143:../USER/main_03.c **** void puth2(dt) int dt;{ puth((dt >> 4) & 0xf); puth(dt & 0xf); }
 3068              		.loc 1 143 24 view .LVU929
 143:../USER/main_03.c **** void puth2(dt) int dt;{ puth((dt >> 4) & 0xf); puth(dt & 0xf); }
 3069              		.loc 1 143 34 view .LVU930
 143:../USER/main_03.c **** void puth2(dt) int dt;{ puth((dt >> 4) & 0xf); puth(dt & 0xf); }
 3070              		.loc 1 143 55 view .LVU931
 3071 008c D8B2     		uxtb	r0, r3
 143:../USER/main_03.c **** void puth2(dt) int dt;{ puth((dt >> 4) & 0xf); puth(dt & 0xf); }
 3072              		.loc 1 143 26 is_stmt 0 view .LVU932
 3073 008e 092B     		cmp	r3, #9
 143:../USER/main_03.c **** void puth2(dt) int dt;{ puth((dt >> 4) & 0xf); puth(dt & 0xf); }
 3074              		.loc 1 143 34 view .LVU933
 3075 0090 D4BF     		ite	le
 3076 0092 3030     		addle	r0, r0, #48
 143:../USER/main_03.c **** void puth2(dt) int dt;{ puth((dt >> 4) & 0xf); puth(dt & 0xf); }
 3077              		.loc 1 143 55 view .LVU934
 3078 0094 3730     		addgt	r0, r0, #55
 3079              	.LBE503:
 3080              	.LBE502:
 144:../USER/main_03.c **** void puth4(dt) int dt;{ puth2((dt >> 8) & 0xff); puth2(dt & 0xff); }
 3081              		.loc 1 144 48 view .LVU935
 3082 0096 05F00F05 		and	r5, r5, #15
 3083              	.LVL183:
 3084              	.LBB505:
 3085              	.LBB504:
 143:../USER/main_03.c **** void puth2(dt) int dt;{ puth((dt >> 4) & 0xf); puth(dt & 0xf); }
 3086              		.loc 1 143 55 view .LVU936
 3087 009a FFF7FEFF 		bl	putch_uart
 3088              	.LVL184:
 143:../USER/main_03.c **** void puth2(dt) int dt;{ puth((dt >> 4) & 0xf); puth(dt & 0xf); }
 3089              		.loc 1 143 55 view .LVU937
 3090              	.LBE504:
 3091              	.LBE505:
 144:../USER/main_03.c **** void puth4(dt) int dt;{ puth2((dt >> 8) & 0xff); puth2(dt & 0xff); }
 3092              		.loc 1 144 48 is_stmt 1 view .LVU938
 3093              	.LBB506:
 3094              	.LBI506:
 143:../USER/main_03.c **** void puth2(dt) int dt;{ puth((dt >> 4) & 0xf); puth(dt & 0xf); }
 3095              		.loc 1 143 6 view .LVU939
 3096              	.LBB507:
 143:../USER/main_03.c **** void puth2(dt) int dt;{ puth((dt >> 4) & 0xf); puth(dt & 0xf); }
 3097              		.loc 1 143 24 view .LVU940
 143:../USER/main_03.c **** void puth2(dt) int dt;{ puth((dt >> 4) & 0xf); puth(dt & 0xf); }
 3098              		.loc 1 143 34 view .LVU941
 143:../USER/main_03.c **** void puth2(dt) int dt;{ puth((dt >> 4) & 0xf); puth(dt & 0xf); }
 3099              		.loc 1 143 55 view .LVU942
 3100 009e E8B2     		uxtb	r0, r5
 143:../USER/main_03.c **** void puth2(dt) int dt;{ puth((dt >> 4) & 0xf); puth(dt & 0xf); }
 3101              		.loc 1 143 26 is_stmt 0 view .LVU943
 3102 00a0 092D     		cmp	r5, #9
 143:../USER/main_03.c **** void puth2(dt) int dt;{ puth((dt >> 4) & 0xf); puth(dt & 0xf); }
 3103              		.loc 1 143 34 view .LVU944
 3104 00a2 D4BF     		ite	le
 3105 00a4 3030     		addle	r0, r0, #48
 143:../USER/main_03.c **** void puth2(dt) int dt;{ puth((dt >> 4) & 0xf); puth(dt & 0xf); }
 3106              		.loc 1 143 55 view .LVU945
 3107 00a6 3730     		addgt	r0, r0, #55
 3108 00a8 FFF7FEFF 		bl	putch_uart
 3109              	.LVL185:
 143:../USER/main_03.c **** void puth2(dt) int dt;{ puth((dt >> 4) & 0xf); puth(dt & 0xf); }
 3110              		.loc 1 143 55 view .LVU946
 3111              	.LBE507:
 3112              	.LBE506:
 3113              	.LBE501:
 3114              	.LBE500:
 3115              	.LBE487:
 3116              	.LBE486:
 3117              	.LBE509:
 3118              	.LBE511:
 169:../USER/main_03.c **** 
 3119              		.loc 1 169 56 is_stmt 1 view .LVU947
 169:../USER/main_03.c **** 
 3120              		.loc 1 169 1 is_stmt 0 view .LVU948
 3121 00ac BDE8F840 		pop	{r3, r4, r5, r6, r7, lr}
 3122              		.cfi_restore 14
 3123              		.cfi_restore 7
 3124              		.cfi_restore 6
 3125              		.cfi_restore 5
 3126              		.cfi_restore 4
 3127              		.cfi_restore 3
 3128              		.cfi_def_cfa_offset 0
 169:../USER/main_03.c **** 
 3129              		.loc 1 169 56 view .LVU949
 3130 00b0 3A20     		movs	r0, #58
 3131 00b2 FFF7FEBF 		b	putch_uart
 3132              	.LVL186:
 3133              	.L261:
 3134 00b6 00BF     		.align	2
 3135              	.L260:
 3136 00b8 00000000 		.word	.LC0
 3137              		.cfi_endproc
 3138              	.LFE50:
 3140              		.section	.text.getsh,"ax",%progbits
 3141              		.align	1
 3142              		.p2align 2,,3
 3143              		.global	getsh
 3144              		.syntax unified
 3145              		.thumb
 3146              		.thumb_func
 3147              		.fpu softvfp
 3149              	getsh:
 3150              	.LVL187:
 3151              	.LFB51:
 171:../USER/main_03.c ****   long num = 0; int hd;
 3152              		.loc 1 171 28 is_stmt 1 view -0
 3153              		.cfi_startproc
 3154              		@ args = 0, pretend = 0, frame = 0
 3155              		@ frame_needed = 0, uses_anonymous_args = 0
 3156              		@ link register save eliminated.
 172:../USER/main_03.c ****   if(**buf==0x0d) return -1;
 3157              		.loc 1 172 3 view .LVU951
 172:../USER/main_03.c ****   if(**buf==0x0d) return -1;
 3158              		.loc 1 172 17 view .LVU952
 173:../USER/main_03.c ****   while(**buf==' ') (*buf)++; /* spip sp*/
 3159              		.loc 1 173 3 view .LVU953
 173:../USER/main_03.c ****   while(**buf==' ') (*buf)++; /* spip sp*/
 3160              		.loc 1 173 7 is_stmt 0 view .LVU954
 3161 0000 0268     		ldr	r2, [r0]
 173:../USER/main_03.c ****   while(**buf==' ') (*buf)++; /* spip sp*/
 3162              		.loc 1 173 6 view .LVU955
 3163 0002 92F90030 		ldrsb	r3, [r2]
 173:../USER/main_03.c ****   while(**buf==' ') (*buf)++; /* spip sp*/
 3164              		.loc 1 173 5 view .LVU956
 3165 0006 0D2B     		cmp	r3, #13
 3166 0008 22D0     		beq	.L270
 3167              	.LBB516:
 3168              	.LBB517:
 174:../USER/main_03.c ****   while( (hd=ishex(**buf)) != -1){ num = num * 16 + hd; (*buf)++; }
 3169              		.loc 1 174 8 view .LVU957
 3170 000a 202B     		cmp	r3, #32
 3171              	.LBE517:
 3172              	.LBE516:
 171:../USER/main_03.c ****   long num = 0; int hd;
 3173              		.loc 1 171 28 view .LVU958
 3174 000c 30B4     		push	{r4, r5}
 3175              		.cfi_def_cfa_offset 8
 3176              		.cfi_offset 4, -8
 3177              		.cfi_offset 5, -4
 3178 000e 0546     		mov	r5, r0
 3179              	.LBB527:
 3180              	.LBB526:
 174:../USER/main_03.c ****   while( (hd=ishex(**buf)) != -1){ num = num * 16 + hd; (*buf)++; }
 3181              		.loc 1 174 8 view .LVU959
 3182 0010 05D1     		bne	.L264
 3183              	.L265:
 174:../USER/main_03.c ****   while( (hd=ishex(**buf)) != -1){ num = num * 16 + hd; (*buf)++; }
 3184              		.loc 1 174 21 is_stmt 1 view .LVU960
 174:../USER/main_03.c ****   while( (hd=ishex(**buf)) != -1){ num = num * 16 + hd; (*buf)++; }
 3185              		.loc 1 174 27 is_stmt 0 view .LVU961
 3186 0012 0132     		adds	r2, r2, #1
 3187 0014 2A60     		str	r2, [r5]
 174:../USER/main_03.c ****   while( (hd=ishex(**buf)) != -1){ num = num * 16 + hd; (*buf)++; }
 3188              		.loc 1 174 9 view .LVU962
 3189 0016 92F90030 		ldrsb	r3, [r2]
 174:../USER/main_03.c ****   while( (hd=ishex(**buf)) != -1){ num = num * 16 + hd; (*buf)++; }
 3190              		.loc 1 174 8 view .LVU963
 3191 001a 202B     		cmp	r3, #32
 3192 001c F9D0     		beq	.L265
 3193              	.L264:
 172:../USER/main_03.c ****   if(**buf==0x0d) return -1;
 3194              		.loc 1 172 8 view .LVU964
 3195 001e 0020     		movs	r0, #0
 3196              	.LVL188:
 172:../USER/main_03.c ****   if(**buf==0x0d) return -1;
 3197              		.loc 1 172 8 view .LVU965
 3198 0020 08E0     		b	.L266
 3199              	.LVL189:
 3200              	.L277:
 3201              	.LBB518:
 3202              	.LBB519:
 163:../USER/main_03.c ****   else if(ch>='A' && ch<='F') hd = ch - 0x37;
 3203              		.loc 1 163 29 view .LVU966
 3204 0022 303B     		subs	r3, r3, #48
 3205              	.LVL190:
 163:../USER/main_03.c ****   else if(ch>='A' && ch<='F') hd = ch - 0x37;
 3206              		.loc 1 163 29 view .LVU967
 3207              	.LBE519:
 3208              	.LBE518:
 175:../USER/main_03.c ****   return num;
 3209              		.loc 1 175 36 is_stmt 1 view .LVU968
 3210              	.LBB523:
 3211              	.LBB520:
 166:../USER/main_03.c **** }
 3212              		.loc 1 166 3 view .LVU969
 166:../USER/main_03.c **** }
 3213              		.loc 1 166 3 is_stmt 0 view .LVU970
 3214              	.LBE520:
 3215              	.LBE523:
 175:../USER/main_03.c ****   return num;
 3216              		.loc 1 175 8 view .LVU971
 3217 0024 591C     		adds	r1, r3, #1
 3218 0026 11D0     		beq	.L262
 3219              	.L269:
 175:../USER/main_03.c ****   return num;
 3220              		.loc 1 175 63 view .LVU972
 3221 0028 0132     		adds	r2, r2, #1
 3222 002a 2A60     		str	r2, [r5]
 175:../USER/main_03.c ****   return num;
 3223              		.loc 1 175 40 view .LVU973
 3224 002c 03EB0010 		add	r0, r3, r0, lsl #4
 3225              	.LVL191:
 175:../USER/main_03.c ****   return num;
 3226              		.loc 1 175 57 is_stmt 1 view .LVU974
 3227 0030 92F90030 		ldrsb	r3, [r2]
 3228              	.LVL192:
 3229              	.L266:
 3230              	.LBB524:
 3231              	.LBI518:
 161:../USER/main_03.c ****   int hd;
 3232              		.loc 1 161 5 view .LVU975
 3233              	.LBB521:
 162:../USER/main_03.c ****   if(ch>='0' && ch<='9') hd = ch - 0x30;
 3234              		.loc 1 162 3 view .LVU976
 163:../USER/main_03.c ****   else if(ch>='A' && ch<='F') hd = ch - 0x37;
 3235              		.loc 1 163 3 view .LVU977
 163:../USER/main_03.c ****   else if(ch>='A' && ch<='F') hd = ch - 0x37;
 3236              		.loc 1 163 26 view .LVU978
 164:../USER/main_03.c ****   else hd = -1;
 3237              		.loc 1 164 8 view .LVU979
 164:../USER/main_03.c ****   else hd = -1;
 3238              		.loc 1 164 31 view .LVU980
 163:../USER/main_03.c ****   else if(ch>='A' && ch<='F') hd = ch - 0x37;
 3239              		.loc 1 163 14 is_stmt 0 view .LVU981
 3240 0034 D9B2     		uxtb	r1, r3
 163:../USER/main_03.c ****   else if(ch>='A' && ch<='F') hd = ch - 0x37;
 3241              		.loc 1 163 5 view .LVU982
 3242 0036 A1F13004 		sub	r4, r1, #48
 3243 003a 092C     		cmp	r4, #9
 164:../USER/main_03.c ****   else hd = -1;
 3244              		.loc 1 164 10 view .LVU983
 3245 003c A1F14101 		sub	r1, r1, #65
 163:../USER/main_03.c ****   else if(ch>='A' && ch<='F') hd = ch - 0x37;
 3246              		.loc 1 163 5 view .LVU984
 3247 0040 EFD9     		bls	.L277
 164:../USER/main_03.c ****   else hd = -1;
 3248              		.loc 1 164 10 view .LVU985
 3249 0042 0529     		cmp	r1, #5
 3250 0044 02D8     		bhi	.L262
 164:../USER/main_03.c ****   else hd = -1;
 3251              		.loc 1 164 34 view .LVU986
 3252 0046 373B     		subs	r3, r3, #55
 3253              	.LVL193:
 164:../USER/main_03.c ****   else hd = -1;
 3254              		.loc 1 164 34 view .LVU987
 3255              	.LBE521:
 3256              	.LBE524:
 175:../USER/main_03.c ****   return num;
 3257              		.loc 1 175 36 is_stmt 1 view .LVU988
 3258              	.LBB525:
 3259              	.LBB522:
 166:../USER/main_03.c **** }
 3260              		.loc 1 166 3 view .LVU989
 166:../USER/main_03.c **** }
 3261              		.loc 1 166 3 is_stmt 0 view .LVU990
 3262              	.LBE522:
 3263              	.LBE525:
 175:../USER/main_03.c ****   return num;
 3264              		.loc 1 175 8 view .LVU991
 3265 0048 591C     		adds	r1, r3, #1
 3266 004a EDD1     		bne	.L269
 3267              	.LVL194:
 3268              	.L262:
 175:../USER/main_03.c ****   return num;
 3269              		.loc 1 175 8 view .LVU992
 3270              	.LBE526:
 3271              	.LBE527:
 3272              		.loc 1 177 1 view .LVU993
 3273 004c 30BC     		pop	{r4, r5}
 3274              		.cfi_restore 5
 3275              		.cfi_restore 4
 3276              		.cfi_def_cfa_offset 0
 3277              	.LVL195:
 3278              		.loc 1 177 1 view .LVU994
 3279 004e 7047     		bx	lr
 3280              	.LVL196:
 3281              	.L270:
 173:../USER/main_03.c ****   while(**buf==' ') (*buf)++; /* spip sp*/
 3282              		.loc 1 173 26 view .LVU995
 3283 0050 4FF0FF30 		mov	r0, #-1
 3284              	.LVL197:
 3285              		.loc 1 177 1 view .LVU996
 3286 0054 7047     		bx	lr
 3287              		.cfi_endproc
 3288              	.LFE51:
 3290 0056 00BF     		.section	.text.startup.main,"ax",%progbits
 3291              		.align	1
 3292              		.p2align 2,,3
 3293              		.global	main
 3294              		.syntax unified
 3295              		.thumb
 3296              		.thumb_func
 3297              		.fpu softvfp
 3299              	main:
 3300              	.LFB52:
 178:../USER/main_03.c **** 
 179:../USER/main_03.c **** int main(void){
 3301              		.loc 1 179 15 is_stmt 1 view -0
 3302              		.cfi_startproc
 3303              		@ args = 0, pretend = 0, frame = 184
 3304              		@ frame_needed = 0, uses_anonymous_args = 0
 180:../USER/main_03.c **** 	unsigned char *mbase;
 3305              		.loc 1 180 2 view .LVU998
 181:../USER/main_03.c **** 	  long adr,ade,adro,dt,dtr,wk,sct,scr,sl;
 3306              		.loc 1 181 4 view .LVU999
 182:../USER/main_03.c **** 	  long i,j,mmd,rno;
 3307              		.loc 1 182 4 view .LVU1000
 183:../USER/main_03.c **** 	  unsigned int * cmp, *wrp, *sbp;
 3308              		.loc 1 183 4 view .LVU1001
 184:../USER/main_03.c **** 	  char cmd, cbuf[32], *cbp, **cbpp;
 3309              		.loc 1 184 4 view .LVU1002
 185:../USER/main_03.c **** 
 186:../USER/main_03.c **** 		char ch,kd;
 3310              		.loc 1 186 3 view .LVU1003
 187:../USER/main_03.c **** 		SystemInit();	//Initializes system
 3311              		.loc 1 187 3 view .LVU1004
 179:../USER/main_03.c **** 	unsigned char *mbase;
 3312              		.loc 1 179 15 is_stmt 0 view .LVU1005
 3313 0000 2DE9F04F 		push	{r4, r5, r6, r7, r8, r9, r10, fp, lr}
 3314              		.cfi_def_cfa_offset 36
 3315              		.cfi_offset 4, -36
 3316              		.cfi_offset 5, -32
 3317              		.cfi_offset 6, -28
 3318              		.cfi_offset 7, -24
 3319              		.cfi_offset 8, -20
 3320              		.cfi_offset 9, -16
 3321              		.cfi_offset 10, -12
 3322              		.cfi_offset 11, -8
 3323              		.cfi_offset 14, -4
 3324 0004 B1B0     		sub	sp, sp, #196
 3325              		.cfi_def_cfa_offset 232
 3326              		.loc 1 187 3 view .LVU1006
 3327 0006 FFF7FEFF 		bl	SystemInit
 3328              	.LVL198:
 188:../USER/main_03.c **** 		UartInit();
 3329              		.loc 1 188 3 is_stmt 1 view .LVU1007
 3330 000a FFF7FEFF 		bl	UartInit
 3331              	.LVL199:
 189:../USER/main_03.c **** 		SPIInit();		//Initializes SPI
 3332              		.loc 1 189 3 view .LVU1008
 3333              	.LBB900:
 3334              	.LBI900:
  72:../USER/main_03.c **** {
 3335              		.loc 1 72 6 view .LVU1009
 3336              	.LBB901:
  74:../USER/main_03.c ****   init_spi.CLKSEL= CLKSEL_CLK_DIV_4;		//80MHZ / 8
 3337              		.loc 1 74 2 view .LVU1010
  75:../USER/main_03.c ****   init_spi.DIRECTION = DISABLE;					//MSB First
 3338              		.loc 1 75 3 view .LVU1011
  76:../USER/main_03.c ****   init_spi.PHASE =DISABLE;							//ENABLE;//posedge
 3339              		.loc 1 76 3 view .LVU1012
  77:../USER/main_03.c ****   init_spi.POLARITY =DISABLE;						//polarity 0
 3340              		.loc 1 77 3 view .LVU1013
  78:../USER/main_03.c ****   SPI_Init(&init_spi);
 3341              		.loc 1 78 3 view .LVU1014
  76:../USER/main_03.c ****   init_spi.PHASE =DISABLE;							//ENABLE;//posedge
 3342              		.loc 1 76 22 is_stmt 0 view .LVU1015
 3343 000e 4FF08073 		mov	r3, #16777216
  79:../USER/main_03.c **** }
 3344              		.loc 1 79 3 view .LVU1016
 3345 0012 28A8     		add	r0, sp, #160
  76:../USER/main_03.c ****   init_spi.PHASE =DISABLE;							//ENABLE;//posedge
 3346              		.loc 1 76 22 view .LVU1017
 3347 0014 2893     		str	r3, [sp, #160]
  79:../USER/main_03.c **** }
 3348              		.loc 1 79 3 is_stmt 1 view .LVU1018
 3349 0016 FFF7FEFF 		bl	SPI_Init
 3350              	.LVL200:
 3351              	.LBE901:
 3352              	.LBE900:
 190:../USER/main_03.c **** 		check_gpio();
 3353              		.loc 1 190 3 view .LVU1019
 3354 001a FFF7FEFF 		bl	check_gpio
 3355              	.LVL201:
 191:../USER/main_03.c **** 
 192:../USER/main_03.c **** 		cbpp = &cbp; adro = 0; mbase = 0;
 3356              		.loc 1 192 3 view .LVU1020
 3357              		.loc 1 192 16 view .LVU1021
 3358              		.loc 1 192 26 view .LVU1022
 193:../USER/main_03.c **** 	  puts("\r\nMon_TN4K");
 3359              		.loc 1 193 4 view .LVU1023
 3360              	.LBB902:
 3361              	.LBI902:
 148:../USER/main_03.c **** 	while(1){
 3362              		.loc 1 148 6 view .LVU1024
 3363              	.LBB903:
 149:../USER/main_03.c **** 		if(*buf==0) break;
 3364              		.loc 1 149 2 view .LVU1025
 150:../USER/main_03.c **** 		else        putch(*buf++);
 3365              		.loc 1 150 3 view .LVU1026
 150:../USER/main_03.c **** 		else        putch(*buf++);
 3366              		.loc 1 150 6 is_stmt 0 view .LVU1027
 3367 001e 0D20     		movs	r0, #13
 3368              	.LBE903:
 3369              	.LBE902:
 190:../USER/main_03.c **** 
 3370              		.loc 1 190 3 view .LVU1028
 3371 0020 B74C     		ldr	r4, .L1219
 3372              	.LVL202:
 3373              	.L280:
 3374              	.LBB905:
 3375              	.LBB904:
 151:../USER/main_03.c **** 	}
 3376              		.loc 1 151 15 is_stmt 1 view .LVU1029
 151:../USER/main_03.c **** 	}
 3377              		.loc 1 151 15 is_stmt 0 view .LVU1030
 3378 0022 FFF7FEFF 		bl	putch_uart
 3379              	.LVL203:
 149:../USER/main_03.c **** 		if(*buf==0) break;
 3380              		.loc 1 149 2 is_stmt 1 view .LVU1031
 150:../USER/main_03.c **** 		else        putch(*buf++);
 3381              		.loc 1 150 3 view .LVU1032
 150:../USER/main_03.c **** 		else        putch(*buf++);
 3382              		.loc 1 150 6 is_stmt 0 view .LVU1033
 3383 0026 14F9010F 		ldrsb	r0, [r4, #1]!
 3384              	.LVL204:
 150:../USER/main_03.c **** 		else        putch(*buf++);
 3385              		.loc 1 150 5 view .LVU1034
 3386 002a 0028     		cmp	r0, #0
 3387 002c F9D1     		bne	.L280
 3388              	.LBE904:
 3389              	.LBE905:
 3390              	.LBB906:
 3391              	.LBB907:
 3392              	.LBB908:
 3393              	.LBB909:
 3394              	.LBB910:
 3395              	.LBB911:
 114:../USER/main_03.c **** 	//
 3396              		.loc 1 114 25 view .LVU1035
 3397 002e 0746     		mov	r7, r0
 3398 0030 DFF8D8A2 		ldr	r10, .L1219+12
 3399 0034 DFF8D882 		ldr	r8, .L1219+16
 3400 0038 DFF8D892 		ldr	r9, .L1219+20
 3401              	.LBE911:
 3402              	.LBE910:
 3403              	.LBE909:
 3404              	.LBE908:
 3405              	.LBE907:
 3406              	.LBE906:
 192:../USER/main_03.c **** 	  puts("\r\nMon_TN4K");
 3407              		.loc 1 192 21 view .LVU1036
 3408 003c 0B90     		str	r0, [sp, #44]
 3409              	.LVL205:
 3410              	.L279:
 194:../USER/main_03.c **** 	  while(1){
 3411              		.loc 1 194 4 is_stmt 1 view .LVU1037
 195:../USER/main_03.c **** 		  puts("\r\n>"); getssu(cbuf);
 3412              		.loc 1 195 5 view .LVU1038
 3413              	.LBB927:
 3414              	.LBI906:
 148:../USER/main_03.c **** 	while(1){
 3415              		.loc 1 148 6 view .LVU1039
 3416              	.LBB924:
 149:../USER/main_03.c **** 		if(*buf==0) break;
 3417              		.loc 1 149 2 view .LVU1040
 150:../USER/main_03.c **** 		else        putch(*buf++);
 3418              		.loc 1 150 3 view .LVU1041
 3419 003e DFF8D8B2 		ldr	fp, .L1219+24
 150:../USER/main_03.c **** 		else        putch(*buf++);
 3420              		.loc 1 150 6 is_stmt 0 view .LVU1042
 3421 0042 0D24     		movs	r4, #13
 3422              	.LBE924:
 3423              	.LBE927:
 192:../USER/main_03.c **** 	  puts("\r\nMon_TN4K");
 3424              		.loc 1 192 21 view .LVU1043
 3425 0044 5E46     		mov	r6, fp
 3426              	.LVL206:
 3427              	.L281:
 3428              	.LBB928:
 3429              	.LBB925:
 151:../USER/main_03.c **** 	}
 3430              		.loc 1 151 15 is_stmt 1 view .LVU1044
 3431              	.LBB922:
 3432              	.LBI908:
 127:../USER/main_03.c **** 	volatile uint32_t gpiord;
 3433              		.loc 1 127 6 view .LVU1045
 3434              	.LBB920:
 128:../USER/main_03.c **** 	if((mdgpio & 0x2000)==0)
 3435              		.loc 1 128 2 view .LVU1046
 129:../USER/main_03.c **** 		UART_SendChar(UART0,ch);
 3436              		.loc 1 129 2 view .LVU1047
 129:../USER/main_03.c **** 		UART_SendChar(UART0,ch);
 3437              		.loc 1 129 13 is_stmt 0 view .LVU1048
 3438 0046 DAF80030 		ldr	r3, [r10]
 129:../USER/main_03.c **** 		UART_SendChar(UART0,ch);
 3439              		.loc 1 129 4 view .LVU1049
 3440 004a 9B04     		lsls	r3, r3, #18
 3441 004c 40F1AA84 		bpl	.L1107
 132:../USER/main_03.c **** 		while((gpiord & 0x4000)!=0) {
 3442              		.loc 1 132 3 is_stmt 1 view .LVU1050
 132:../USER/main_03.c **** 		while((gpiord & 0x4000)!=0) {
 3443              		.loc 1 132 10 is_stmt 0 view .LVU1051
 3444 0050 4FF48043 		mov	r3, #16384
 3445 0054 0E93     		str	r3, [sp, #56]
 133:../USER/main_03.c **** 			key_check();
 3446              		.loc 1 133 3 is_stmt 1 view .LVU1052
 133:../USER/main_03.c **** 			key_check();
 3447              		.loc 1 133 17 is_stmt 0 view .LVU1053
 3448 0056 0E9B     		ldr	r3, [sp, #56]
 133:../USER/main_03.c **** 			key_check();
 3449              		.loc 1 133 8 view .LVU1054
 3450 0058 5D04     		lsls	r5, r3, #17
 3451 005a 2CD5     		bpl	.L291
 135:../USER/main_03.c **** 		}
 3452              		.loc 1 135 13 view .LVU1055
 3453 005c A94D     		ldr	r5, .L1219+4
 3454 005e 1DE0     		b	.L285
 3455              	.LVL207:
 3456              	.L1108:
 135:../USER/main_03.c **** 		}
 3457              		.loc 1 135 13 view .LVU1056
 3458 0060 D8F80030 		ldr	r3, [r8]
 3459              	.L287:
 3460              	.LBB914:
 3461              	.LBB912:
 114:../USER/main_03.c **** 	//
 3462              		.loc 1 114 2 is_stmt 1 view .LVU1057
 114:../USER/main_03.c **** 	//
 3463              		.loc 1 114 18 view .LVU1058
 114:../USER/main_03.c **** 	//
 3464              		.loc 1 114 4 is_stmt 0 view .LVU1059
 3465 0064 FF2B     		cmp	r3, #255
 3466 0066 02DD     		ble	.L288
 114:../USER/main_03.c **** 	//
 3467              		.loc 1 114 25 view .LVU1060
 3468 0068 0023     		movs	r3, #0
 3469 006a C8F80070 		str	r7, [r8]
 3470              	.L288:
 116:../USER/main_03.c **** 	if(kinbwp>=256) kinbwp = 0;
 3471              		.loc 1 116 39 is_stmt 1 view .LVU1061
 116:../USER/main_03.c **** 	if(kinbwp>=256) kinbwp = 0;
 3472              		.loc 1 116 2 view .LVU1062
 116:../USER/main_03.c **** 	if(kinbwp>=256) kinbwp = 0;
 3473              		.loc 1 116 11 is_stmt 0 view .LVU1063
 3474 006e 4FF04021 		mov	r1, #1073758208
 3475 0072 4868     		ldr	r0, [r1, #4]
 3476              	.LVL208:
 116:../USER/main_03.c **** 	if(kinbwp>=256) kinbwp = 0;
 3477              		.loc 1 116 52 view .LVU1064
 3478 0074 5A1C     		adds	r2, r3, #1
 116:../USER/main_03.c **** 	if(kinbwp>=256) kinbwp = 0;
 3479              		.loc 1 116 4 view .LVU1065
 3480 0076 8007     		lsls	r0, r0, #30
 3481 0078 09D5     		bpl	.L290
 117:../USER/main_03.c **** 	//
 3482              		.loc 1 117 25 view .LVU1066
 3483 007a B2F5807F 		cmp	r2, #256
 116:../USER/main_03.c **** 	if(kinbwp>=256) kinbwp = 0;
 3484              		.loc 1 116 63 view .LVU1067
 3485 007e 0868     		ldr	r0, [r1]
 117:../USER/main_03.c **** 	//
 3486              		.loc 1 117 25 view .LVU1068
 3487 0080 14BF     		ite	ne
 3488 0082 1146     		movne	r1, r2
 3489 0084 3946     		moveq	r1, r7
 116:../USER/main_03.c **** 	if(kinbwp>=256) kinbwp = 0;
 3490              		.loc 1 116 56 view .LVU1069
 3491 0086 09F80300 		strb	r0, [r9, r3]
 117:../USER/main_03.c **** 	//
 3492              		.loc 1 117 2 is_stmt 1 view .LVU1070
 117:../USER/main_03.c **** 	//
 3493              		.loc 1 117 25 is_stmt 0 view .LVU1071
 3494 008a C8F80010 		str	r1, [r8]
 3495              	.L290:
 117:../USER/main_03.c **** 	//
 3496              		.loc 1 117 25 view .LVU1072
 3497              	.LBE912:
 3498              	.LBE914:
 135:../USER/main_03.c **** 		}
 3499              		.loc 1 135 4 is_stmt 1 view .LVU1073
 135:../USER/main_03.c **** 		}
 3500              		.loc 1 135 13 is_stmt 0 view .LVU1074
 3501 008e 2846     		mov	r0, r5
 3502 0090 FFF7FEFF 		bl	GPIO_ReadBits
 3503              	.LVL209:
 135:../USER/main_03.c **** 		}
 3504              		.loc 1 135 11 view .LVU1075
 3505 0094 0E90     		str	r0, [sp, #56]
 133:../USER/main_03.c **** 			key_check();
 3506              		.loc 1 133 17 view .LVU1076
 3507 0096 0E9B     		ldr	r3, [sp, #56]
 133:../USER/main_03.c **** 			key_check();
 3508              		.loc 1 133 8 view .LVU1077
 3509 0098 5804     		lsls	r0, r3, #17
 3510 009a 0CD5     		bpl	.L291
 3511              	.L285:
 134:../USER/main_03.c **** 			gpiord = GPIO_ReadBits(GPIO0);
 3512              		.loc 1 134 4 is_stmt 1 view .LVU1078
 3513              	.LBB915:
 3514              	.LBI910:
 109:../USER/main_03.c **** 	char ch;
 3515              		.loc 1 109 6 view .LVU1079
 3516              	.LBB913:
 110:../USER/main_03.c **** 	//
 3517              		.loc 1 110 2 view .LVU1080
 112:../USER/main_03.c **** 	if(ch!=0) kinbuf[kinbwp++] = ch;
 3518              		.loc 1 112 2 view .LVU1081
 112:../USER/main_03.c **** 	if(ch!=0) kinbuf[kinbwp++] = ch;
 3519              		.loc 1 112 7 is_stmt 0 view .LVU1082
 3520 009c FFF7FEFF 		bl	SPI_ReadData
 3521              	.LVL210:
 113:../USER/main_03.c **** 	if(kinbwp>=256) kinbwp = 0;
 3522              		.loc 1 113 12 is_stmt 1 view .LVU1083
 112:../USER/main_03.c **** 	if(ch!=0) kinbuf[kinbwp++] = ch;
 3523              		.loc 1 112 5 is_stmt 0 view .LVU1084
 3524 00a0 40B2     		sxtb	r0, r0
 3525              	.LVL211:
 113:../USER/main_03.c **** 	if(kinbwp>=256) kinbwp = 0;
 3526              		.loc 1 113 2 is_stmt 1 view .LVU1085
 113:../USER/main_03.c **** 	if(kinbwp>=256) kinbwp = 0;
 3527              		.loc 1 113 4 is_stmt 0 view .LVU1086
 3528 00a2 0028     		cmp	r0, #0
 3529 00a4 DCD0     		beq	.L1108
 113:../USER/main_03.c **** 	if(kinbwp>=256) kinbwp = 0;
 3530              		.loc 1 113 25 view .LVU1087
 3531 00a6 D8F80020 		ldr	r2, [r8]
 3532 00aa 531C     		adds	r3, r2, #1
 113:../USER/main_03.c **** 	if(kinbwp>=256) kinbwp = 0;
 3533              		.loc 1 113 29 view .LVU1088
 3534 00ac 09F80200 		strb	r0, [r9, r2]
 113:../USER/main_03.c **** 	if(kinbwp>=256) kinbwp = 0;
 3535              		.loc 1 113 25 view .LVU1089
 3536 00b0 C8F80030 		str	r3, [r8]
 3537 00b4 D6E7     		b	.L287
 3538              	.LVL212:
 3539              	.L291:
 113:../USER/main_03.c **** 	if(kinbwp>=256) kinbwp = 0;
 3540              		.loc 1 113 25 view .LVU1090
 3541              	.LBE913:
 3542              	.LBE915:
 137:../USER/main_03.c **** 	}
 3543              		.loc 1 137 3 is_stmt 1 view .LVU1091
 3544 00b6 E0B2     		uxtb	r0, r4
 3545 00b8 FFF7FEFF 		bl	SPI_WriteData
 3546              	.LVL213:
 3547              	.L284:
 3548              	.LBB916:
 3549              	.LBB917:
 116:../USER/main_03.c **** 	if(kinbwp>=256) kinbwp = 0;
 3550              		.loc 1 116 11 is_stmt 0 view .LVU1092
 3551 00bc 4FF04025 		mov	r5, #1073758208
 3552 00c0 18E0     		b	.L297
 3553              	.LVL214:
 3554              	.L1110:
 116:../USER/main_03.c **** 	if(kinbwp>=256) kinbwp = 0;
 3555              		.loc 1 116 11 view .LVU1093
 3556 00c2 D8F80030 		ldr	r3, [r8]
 3557              	.L293:
 114:../USER/main_03.c **** 	//
 3558              		.loc 1 114 2 is_stmt 1 view .LVU1094
 114:../USER/main_03.c **** 	//
 3559              		.loc 1 114 18 view .LVU1095
 114:../USER/main_03.c **** 	//
 3560              		.loc 1 114 4 is_stmt 0 view .LVU1096
 3561 00c6 FF2B     		cmp	r3, #255
 3562 00c8 02DD     		ble	.L294
 114:../USER/main_03.c **** 	//
 3563              		.loc 1 114 25 view .LVU1097
 3564 00ca 0023     		movs	r3, #0
 3565 00cc C8F80070 		str	r7, [r8]
 3566              	.L294:
 116:../USER/main_03.c **** 	if(kinbwp>=256) kinbwp = 0;
 3567              		.loc 1 116 39 is_stmt 1 view .LVU1098
 116:../USER/main_03.c **** 	if(kinbwp>=256) kinbwp = 0;
 3568              		.loc 1 116 2 view .LVU1099
 116:../USER/main_03.c **** 	if(kinbwp>=256) kinbwp = 0;
 3569              		.loc 1 116 11 is_stmt 0 view .LVU1100
 3570 00d0 6968     		ldr	r1, [r5, #4]
 116:../USER/main_03.c **** 	if(kinbwp>=256) kinbwp = 0;
 3571              		.loc 1 116 52 view .LVU1101
 3572 00d2 5A1C     		adds	r2, r3, #1
 116:../USER/main_03.c **** 	if(kinbwp>=256) kinbwp = 0;
 3573              		.loc 1 116 4 view .LVU1102
 3574 00d4 8807     		lsls	r0, r1, #30
 3575              	.LVL215:
 116:../USER/main_03.c **** 	if(kinbwp>=256) kinbwp = 0;
 3576              		.loc 1 116 4 view .LVU1103
 3577 00d6 09D5     		bpl	.L296
 117:../USER/main_03.c **** 	//
 3578              		.loc 1 117 25 view .LVU1104
 3579 00d8 B2F5807F 		cmp	r2, #256
 3580 00dc 14BF     		ite	ne
 3581 00de 1146     		movne	r1, r2
 3582 00e0 3946     		moveq	r1, r7
 116:../USER/main_03.c **** 	if(kinbwp>=256) kinbwp = 0;
 3583              		.loc 1 116 63 view .LVU1105
 3584 00e2 2868     		ldr	r0, [r5]
 117:../USER/main_03.c **** 	//
 3585              		.loc 1 117 25 view .LVU1106
 3586 00e4 C8F80010 		str	r1, [r8]
 116:../USER/main_03.c **** 	if(kinbwp>=256) kinbwp = 0;
 3587              		.loc 1 116 56 view .LVU1107
 3588 00e8 09F80300 		strb	r0, [r9, r3]
 117:../USER/main_03.c **** 	//
 3589              		.loc 1 117 2 is_stmt 1 view .LVU1108
 3590              	.L296:
 117:../USER/main_03.c **** 	//
 3591              		.loc 1 117 2 is_stmt 0 view .LVU1109
 3592              	.LBE917:
 3593              	.LBE916:
 140:../USER/main_03.c **** }
 3594              		.loc 1 140 27 is_stmt 1 view .LVU1110
 140:../USER/main_03.c **** }
 3595              		.loc 1 140 32 is_stmt 0 view .LVU1111
 3596 00ec 2046     		mov	r0, r4
 3597 00ee FFF7FEFF 		bl	disp_vram
 3598              	.LVL216:
 140:../USER/main_03.c **** }
 3599              		.loc 1 140 2 view .LVU1112
 3600 00f2 60B1     		cbz	r0, .L1109
 3601              	.LVL217:
 3602              	.L297:
 140:../USER/main_03.c **** }
 3603              		.loc 1 140 2 is_stmt 1 view .LVU1113
 140:../USER/main_03.c **** }
 3604              		.loc 1 140 10 view .LVU1114
 140:../USER/main_03.c **** }
 3605              		.loc 1 140 14 view .LVU1115
 3606              	.LBB919:
 3607              	.LBI916:
 109:../USER/main_03.c **** 	char ch;
 3608              		.loc 1 109 6 view .LVU1116
 3609              	.LBB918:
 110:../USER/main_03.c **** 	//
 3610              		.loc 1 110 2 view .LVU1117
 112:../USER/main_03.c **** 	if(ch!=0) kinbuf[kinbwp++] = ch;
 3611              		.loc 1 112 2 view .LVU1118
 112:../USER/main_03.c **** 	if(ch!=0) kinbuf[kinbwp++] = ch;
 3612              		.loc 1 112 7 is_stmt 0 view .LVU1119
 3613 00f4 FFF7FEFF 		bl	SPI_ReadData
 3614              	.LVL218:
 113:../USER/main_03.c **** 	if(kinbwp>=256) kinbwp = 0;
 3615              		.loc 1 113 12 is_stmt 1 view .LVU1120
 112:../USER/main_03.c **** 	if(ch!=0) kinbuf[kinbwp++] = ch;
 3616              		.loc 1 112 5 is_stmt 0 view .LVU1121
 3617 00f8 40B2     		sxtb	r0, r0
 3618              	.LVL219:
 113:../USER/main_03.c **** 	if(kinbwp>=256) kinbwp = 0;
 3619              		.loc 1 113 2 is_stmt 1 view .LVU1122
 113:../USER/main_03.c **** 	if(kinbwp>=256) kinbwp = 0;
 3620              		.loc 1 113 4 is_stmt 0 view .LVU1123
 3621 00fa 0028     		cmp	r0, #0
 3622 00fc E1D0     		beq	.L1110
 113:../USER/main_03.c **** 	if(kinbwp>=256) kinbwp = 0;
 3623              		.loc 1 113 25 view .LVU1124
 3624 00fe D8F80020 		ldr	r2, [r8]
 3625 0102 531C     		adds	r3, r2, #1
 113:../USER/main_03.c **** 	if(kinbwp>=256) kinbwp = 0;
 3626              		.loc 1 113 29 view .LVU1125
 3627 0104 09F80200 		strb	r0, [r9, r2]
 113:../USER/main_03.c **** 	if(kinbwp>=256) kinbwp = 0;
 3628              		.loc 1 113 25 view .LVU1126
 3629 0108 C8F80030 		str	r3, [r8]
 3630 010c DBE7     		b	.L293
 3631              	.LVL220:
 3632              	.L1109:
 113:../USER/main_03.c **** 	if(kinbwp>=256) kinbwp = 0;
 3633              		.loc 1 113 25 view .LVU1127
 3634              	.LBE918:
 3635              	.LBE919:
 3636              	.LBE920:
 3637              	.LBE922:
 149:../USER/main_03.c **** 		if(*buf==0) break;
 3638              		.loc 1 149 2 is_stmt 1 view .LVU1128
 150:../USER/main_03.c **** 		else        putch(*buf++);
 3639              		.loc 1 150 3 view .LVU1129
 150:../USER/main_03.c **** 		else        putch(*buf++);
 3640              		.loc 1 150 6 is_stmt 0 view .LVU1130
 3641 010e 16F9014F 		ldrsb	r4, [r6, #1]!
 3642              	.LVL221:
 150:../USER/main_03.c **** 		else        putch(*buf++);
 3643              		.loc 1 150 5 view .LVU1131
 3644 0112 002C     		cmp	r4, #0
 3645 0114 97D1     		bne	.L281
 3646 0116 28AE     		add	r6, sp, #160
 3647              	.LVL222:
 3648              	.L282:
 150:../USER/main_03.c **** 		else        putch(*buf++);
 3649              		.loc 1 150 5 view .LVU1132
 3650              	.LBE925:
 3651              	.LBE928:
 3652              	.LBB929:
 3653              	.LBB930:
 3654              	.LBB931:
 155:../USER/main_03.c **** 	while(1){
 3655              		.loc 1 155 2 is_stmt 1 view .LVU1133
 156:../USER/main_03.c **** 		ch = getch(); putch(ch); *buf++ = ch;
 3656              		.loc 1 156 2 view .LVU1134
 157:../USER/main_03.c **** 		if(ch==0x0d) break;
 3657              		.loc 1 157 3 view .LVU1135
 3658              	.LBB932:
 3659              	.LBI932:
 120:../USER/main_03.c **** 	char dt;
 3660              		.loc 1 120 6 view .LVU1136
 3661              	.LBB933:
 3662              	.LBB934:
 3663              	.LBB935:
 116:../USER/main_03.c **** 	if(kinbwp>=256) kinbwp = 0;
 3664              		.loc 1 116 11 is_stmt 0 view .LVU1137
 3665 0118 4FF04024 		mov	r4, #1073758208
 3666 011c D8F80030 		ldr	r3, [r8]
 3667              	.L306:
 3668              	.LBE935:
 3669              	.LBE934:
 122:../USER/main_03.c **** 	dt = kinbuf[kinbrp++];
 3670              		.loc 1 122 14 view .LVU1138
 3671 0120 794A     		ldr	r2, .L1219+8
 3672 0122 1268     		ldr	r2, [r2]
 122:../USER/main_03.c **** 	dt = kinbuf[kinbrp++];
 3673              		.loc 1 122 7 view .LVU1139
 3674 0124 9A42     		cmp	r2, r3
 3675 0126 31D1     		bne	.L1111
 3676              	.L307:
 122:../USER/main_03.c **** 	dt = kinbuf[kinbrp++];
 3677              		.loc 1 122 24 is_stmt 1 view .LVU1140
 3678              	.LBB938:
 3679              	.LBI934:
 109:../USER/main_03.c **** 	char ch;
 3680              		.loc 1 109 6 view .LVU1141
 3681              	.LBB936:
 110:../USER/main_03.c **** 	//
 3682              		.loc 1 110 2 view .LVU1142
 112:../USER/main_03.c **** 	if(ch!=0) kinbuf[kinbwp++] = ch;
 3683              		.loc 1 112 2 view .LVU1143
 112:../USER/main_03.c **** 	if(ch!=0) kinbuf[kinbwp++] = ch;
 3684              		.loc 1 112 7 is_stmt 0 view .LVU1144
 3685 0128 FFF7FEFF 		bl	SPI_ReadData
 3686              	.LVL223:
 112:../USER/main_03.c **** 	if(ch!=0) kinbuf[kinbwp++] = ch;
 3687              		.loc 1 112 5 view .LVU1145
 3688 012c 40B2     		sxtb	r0, r0
 3689              	.LVL224:
 113:../USER/main_03.c **** 	if(kinbwp>=256) kinbwp = 0;
 3690              		.loc 1 113 2 is_stmt 1 view .LVU1146
 113:../USER/main_03.c **** 	if(kinbwp>=256) kinbwp = 0;
 3691              		.loc 1 113 4 is_stmt 0 view .LVU1147
 3692 012e 88B9     		cbnz	r0, .L300
 3693 0130 D8F80030 		ldr	r3, [r8]
 114:../USER/main_03.c **** 	//
 3694              		.loc 1 114 2 is_stmt 1 view .LVU1148
 114:../USER/main_03.c **** 	//
 3695              		.loc 1 114 4 is_stmt 0 view .LVU1149
 3696 0134 FF2B     		cmp	r3, #255
 3697 0136 16DD     		ble	.L302
 3698              	.L1112:
 114:../USER/main_03.c **** 	//
 3699              		.loc 1 114 18 is_stmt 1 view .LVU1150
 116:../USER/main_03.c **** 	if(kinbwp>=256) kinbwp = 0;
 3700              		.loc 1 116 11 is_stmt 0 view .LVU1151
 3701 0138 6368     		ldr	r3, [r4, #4]
 114:../USER/main_03.c **** 	//
 3702              		.loc 1 114 25 view .LVU1152
 3703 013a C8F80070 		str	r7, [r8]
 116:../USER/main_03.c **** 	if(kinbwp>=256) kinbwp = 0;
 3704              		.loc 1 116 2 is_stmt 1 view .LVU1153
 116:../USER/main_03.c **** 	if(kinbwp>=256) kinbwp = 0;
 3705              		.loc 1 116 4 is_stmt 0 view .LVU1154
 3706 013e 13F00203 		ands	r3, r3, #2
 3707 0142 EDD0     		beq	.L306
 116:../USER/main_03.c **** 	if(kinbwp>=256) kinbwp = 0;
 3708              		.loc 1 116 39 is_stmt 1 view .LVU1155
 116:../USER/main_03.c **** 	if(kinbwp>=256) kinbwp = 0;
 3709              		.loc 1 116 52 is_stmt 0 view .LVU1156
 3710 0144 0122     		movs	r2, #1
 116:../USER/main_03.c **** 	if(kinbwp>=256) kinbwp = 0;
 3711              		.loc 1 116 63 view .LVU1157
 3712 0146 2368     		ldr	r3, [r4]
 116:../USER/main_03.c **** 	if(kinbwp>=256) kinbwp = 0;
 3713              		.loc 1 116 52 view .LVU1158
 3714 0148 C8F80020 		str	r2, [r8]
 116:../USER/main_03.c **** 	if(kinbwp>=256) kinbwp = 0;
 3715              		.loc 1 116 56 view .LVU1159
 3716 014c 89F80030 		strb	r3, [r9]
 117:../USER/main_03.c **** 	//
 3717              		.loc 1 117 2 is_stmt 1 view .LVU1160
 3718              	.L930:
 116:../USER/main_03.c **** 	if(kinbwp>=256) kinbwp = 0;
 3719              		.loc 1 116 4 is_stmt 0 view .LVU1161
 3720 0150 1346     		mov	r3, r2
 3721 0152 E5E7     		b	.L306
 3722              	.L300:
 113:../USER/main_03.c **** 	if(kinbwp>=256) kinbwp = 0;
 3723              		.loc 1 113 12 is_stmt 1 view .LVU1162
 113:../USER/main_03.c **** 	if(kinbwp>=256) kinbwp = 0;
 3724              		.loc 1 113 25 is_stmt 0 view .LVU1163
 3725 0154 D8F80020 		ldr	r2, [r8]
 3726 0158 531C     		adds	r3, r2, #1
 114:../USER/main_03.c **** 	//
 3727              		.loc 1 114 4 view .LVU1164
 3728 015a FF2B     		cmp	r3, #255
 113:../USER/main_03.c **** 	if(kinbwp>=256) kinbwp = 0;
 3729              		.loc 1 113 29 view .LVU1165
 3730 015c 09F80200 		strb	r0, [r9, r2]
 113:../USER/main_03.c **** 	if(kinbwp>=256) kinbwp = 0;
 3731              		.loc 1 113 25 view .LVU1166
 3732 0160 C8F80030 		str	r3, [r8]
 114:../USER/main_03.c **** 	//
 3733              		.loc 1 114 2 is_stmt 1 view .LVU1167
 114:../USER/main_03.c **** 	//
 3734              		.loc 1 114 4 is_stmt 0 view .LVU1168
 3735 0164 E8DC     		bgt	.L1112
 3736              	.L302:
 116:../USER/main_03.c **** 	if(kinbwp>=256) kinbwp = 0;
 3737              		.loc 1 116 2 is_stmt 1 view .LVU1169
 116:../USER/main_03.c **** 	if(kinbwp>=256) kinbwp = 0;
 3738              		.loc 1 116 11 is_stmt 0 view .LVU1170
 3739 0166 6268     		ldr	r2, [r4, #4]
 116:../USER/main_03.c **** 	if(kinbwp>=256) kinbwp = 0;
 3740              		.loc 1 116 4 view .LVU1171
 3741 0168 9507     		lsls	r5, r2, #30
 3742 016a D9D5     		bpl	.L306
 116:../USER/main_03.c **** 	if(kinbwp>=256) kinbwp = 0;
 3743              		.loc 1 116 39 is_stmt 1 view .LVU1172
 116:../USER/main_03.c **** 	if(kinbwp>=256) kinbwp = 0;
 3744              		.loc 1 116 63 is_stmt 0 view .LVU1173
 3745 016c 2168     		ldr	r1, [r4]
 116:../USER/main_03.c **** 	if(kinbwp>=256) kinbwp = 0;
 3746              		.loc 1 116 52 view .LVU1174
 3747 016e 5A1C     		adds	r2, r3, #1
 117:../USER/main_03.c **** 	//
 3748              		.loc 1 117 4 view .LVU1175
 3749 0170 B2F5807F 		cmp	r2, #256
 116:../USER/main_03.c **** 	if(kinbwp>=256) kinbwp = 0;
 3750              		.loc 1 116 56 view .LVU1176
 3751 0174 09F80310 		strb	r1, [r9, r3]
 117:../USER/main_03.c **** 	//
 3752              		.loc 1 117 2 is_stmt 1 view .LVU1177
 116:../USER/main_03.c **** 	if(kinbwp>=256) kinbwp = 0;
 3753              		.loc 1 116 52 is_stmt 0 view .LVU1178
 3754 0178 C8F80020 		str	r2, [r8]
 117:../USER/main_03.c **** 	//
 3755              		.loc 1 117 4 view .LVU1179
 3756 017c E8D1     		bne	.L930
 117:../USER/main_03.c **** 	//
 3757              		.loc 1 117 18 is_stmt 1 view .LVU1180
 3758 017e 0023     		movs	r3, #0
 3759              	.LBE936:
 3760              	.LBE938:
 122:../USER/main_03.c **** 	dt = kinbuf[kinbrp++];
 3761              		.loc 1 122 14 is_stmt 0 view .LVU1181
 3762 0180 614A     		ldr	r2, .L1219+8
 3763              	.LBB939:
 3764              	.LBB937:
 117:../USER/main_03.c **** 	//
 3765              		.loc 1 117 25 view .LVU1182
 3766 0182 C8F80070 		str	r7, [r8]
 3767              	.LBE937:
 3768              	.LBE939:
 122:../USER/main_03.c **** 	dt = kinbuf[kinbrp++];
 3769              		.loc 1 122 14 view .LVU1183
 3770 0186 1268     		ldr	r2, [r2]
 122:../USER/main_03.c **** 	dt = kinbuf[kinbrp++];
 3771              		.loc 1 122 7 view .LVU1184
 3772 0188 9A42     		cmp	r2, r3
 3773 018a CDD0     		beq	.L307
 3774              	.LVL225:
 3775              	.L1111:
 123:../USER/main_03.c **** 	if(kinbrp>=256) kinbrp = 0;
 3776              		.loc 1 123 2 is_stmt 1 view .LVU1185
 123:../USER/main_03.c **** 	if(kinbrp>=256) kinbrp = 0;
 3777              		.loc 1 123 20 is_stmt 0 view .LVU1186
 3778 018c 531C     		adds	r3, r2, #1
 124:../USER/main_03.c **** 	return dt;
 3779              		.loc 1 124 25 view .LVU1187
 3780 018e B3F5807F 		cmp	r3, #256
 3781 0192 B4BF     		ite	lt
 3782 0194 1946     		movlt	r1, r3
 3783 0196 3946     		movge	r1, r7
 123:../USER/main_03.c **** 	if(kinbrp>=256) kinbrp = 0;
 3784              		.loc 1 123 20 view .LVU1188
 3785 0198 5B48     		ldr	r0, .L1219+8
 3786              	.LBE933:
 3787              	.LBE932:
 3788              	.LBB942:
 3789              	.LBB943:
 129:../USER/main_03.c **** 		UART_SendChar(UART0,ch);
 3790              		.loc 1 129 13 view .LVU1189
 3791 019a DAF80030 		ldr	r3, [r10]
 3792              	.LBE943:
 3793              	.LBE942:
 3794              	.LBB955:
 3795              	.LBB940:
 124:../USER/main_03.c **** 	return dt;
 3796              		.loc 1 124 25 view .LVU1190
 3797 019e 0160     		str	r1, [r0]
 3798              	.LBE940:
 3799              	.LBE955:
 3800              	.LBB956:
 3801              	.LBB952:
 129:../USER/main_03.c **** 		UART_SendChar(UART0,ch);
 3802              		.loc 1 129 4 view .LVU1191
 3803 01a0 9904     		lsls	r1, r3, #18
 3804              	.LBE952:
 3805              	.LBE956:
 3806              	.LBB957:
 3807              	.LBB941:
 123:../USER/main_03.c **** 	if(kinbrp>=256) kinbrp = 0;
 3808              		.loc 1 123 5 view .LVU1192
 3809 01a2 19F90240 		ldrsb	r4, [r9, r2]
 3810              	.LVL226:
 124:../USER/main_03.c **** 	return dt;
 3811              		.loc 1 124 2 is_stmt 1 view .LVU1193
 125:../USER/main_03.c **** }
 3812              		.loc 1 125 2 view .LVU1194
 125:../USER/main_03.c **** }
 3813              		.loc 1 125 2 is_stmt 0 view .LVU1195
 3814              	.LBE941:
 3815              	.LBE957:
 157:../USER/main_03.c **** 		if(ch==0x0d) break;
 3816              		.loc 1 157 17 is_stmt 1 view .LVU1196
 3817              	.LBB958:
 3818              	.LBI942:
 127:../USER/main_03.c **** 	volatile uint32_t gpiord;
 3819              		.loc 1 127 6 view .LVU1197
 3820              	.LBB953:
 128:../USER/main_03.c **** 	if((mdgpio & 0x2000)==0)
 3821              		.loc 1 128 2 view .LVU1198
 129:../USER/main_03.c **** 		UART_SendChar(UART0,ch);
 3822              		.loc 1 129 2 view .LVU1199
 129:../USER/main_03.c **** 		UART_SendChar(UART0,ch);
 3823              		.loc 1 129 4 is_stmt 0 view .LVU1200
 3824 01a6 40F1F783 		bpl	.L1113
 132:../USER/main_03.c **** 		while((gpiord & 0x4000)!=0) {
 3825              		.loc 1 132 3 is_stmt 1 view .LVU1201
 132:../USER/main_03.c **** 		while((gpiord & 0x4000)!=0) {
 3826              		.loc 1 132 10 is_stmt 0 view .LVU1202
 3827 01aa 4FF48043 		mov	r3, #16384
 3828 01ae 0F93     		str	r3, [sp, #60]
 133:../USER/main_03.c **** 			key_check();
 3829              		.loc 1 133 3 is_stmt 1 view .LVU1203
 133:../USER/main_03.c **** 			key_check();
 3830              		.loc 1 133 17 is_stmt 0 view .LVU1204
 3831 01b0 0F9B     		ldr	r3, [sp, #60]
 133:../USER/main_03.c **** 			key_check();
 3832              		.loc 1 133 8 view .LVU1205
 3833 01b2 5A04     		lsls	r2, r3, #17
 3834 01b4 2CD5     		bpl	.L317
 135:../USER/main_03.c **** 		}
 3835              		.loc 1 135 13 view .LVU1206
 3836 01b6 534D     		ldr	r5, .L1219+4
 3837 01b8 1DE0     		b	.L311
 3838              	.LVL227:
 3839              	.L1114:
 135:../USER/main_03.c **** 		}
 3840              		.loc 1 135 13 view .LVU1207
 3841 01ba D8F80030 		ldr	r3, [r8]
 3842              	.L313:
 3843              	.LBB944:
 3844              	.LBB945:
 114:../USER/main_03.c **** 	//
 3845              		.loc 1 114 2 is_stmt 1 view .LVU1208
 114:../USER/main_03.c **** 	//
 3846              		.loc 1 114 18 view .LVU1209
 114:../USER/main_03.c **** 	//
 3847              		.loc 1 114 4 is_stmt 0 view .LVU1210
 3848 01be FF2B     		cmp	r3, #255
 3849 01c0 02DD     		ble	.L314
 114:../USER/main_03.c **** 	//
 3850              		.loc 1 114 25 view .LVU1211
 3851 01c2 0023     		movs	r3, #0
 3852 01c4 C8F80070 		str	r7, [r8]
 3853              	.L314:
 116:../USER/main_03.c **** 	if(kinbwp>=256) kinbwp = 0;
 3854              		.loc 1 116 39 is_stmt 1 view .LVU1212
 116:../USER/main_03.c **** 	if(kinbwp>=256) kinbwp = 0;
 3855              		.loc 1 116 2 view .LVU1213
 116:../USER/main_03.c **** 	if(kinbwp>=256) kinbwp = 0;
 3856              		.loc 1 116 11 is_stmt 0 view .LVU1214
 3857 01c8 4FF04021 		mov	r1, #1073758208
 3858 01cc 4868     		ldr	r0, [r1, #4]
 3859              	.LVL228:
 116:../USER/main_03.c **** 	if(kinbwp>=256) kinbwp = 0;
 3860              		.loc 1 116 52 view .LVU1215
 3861 01ce 5A1C     		adds	r2, r3, #1
 116:../USER/main_03.c **** 	if(kinbwp>=256) kinbwp = 0;
 3862              		.loc 1 116 4 view .LVU1216
 3863 01d0 8007     		lsls	r0, r0, #30
 3864 01d2 09D5     		bpl	.L316
 117:../USER/main_03.c **** 	//
 3865              		.loc 1 117 25 view .LVU1217
 3866 01d4 B2F5807F 		cmp	r2, #256
 116:../USER/main_03.c **** 	if(kinbwp>=256) kinbwp = 0;
 3867              		.loc 1 116 63 view .LVU1218
 3868 01d8 0868     		ldr	r0, [r1]
 117:../USER/main_03.c **** 	//
 3869              		.loc 1 117 25 view .LVU1219
 3870 01da 14BF     		ite	ne
 3871 01dc 1146     		movne	r1, r2
 3872 01de 3946     		moveq	r1, r7
 116:../USER/main_03.c **** 	if(kinbwp>=256) kinbwp = 0;
 3873              		.loc 1 116 56 view .LVU1220
 3874 01e0 09F80300 		strb	r0, [r9, r3]
 117:../USER/main_03.c **** 	//
 3875              		.loc 1 117 2 is_stmt 1 view .LVU1221
 117:../USER/main_03.c **** 	//
 3876              		.loc 1 117 25 is_stmt 0 view .LVU1222
 3877 01e4 C8F80010 		str	r1, [r8]
 3878              	.L316:
 117:../USER/main_03.c **** 	//
 3879              		.loc 1 117 25 view .LVU1223
 3880              	.LBE945:
 3881              	.LBE944:
 135:../USER/main_03.c **** 		}
 3882              		.loc 1 135 4 is_stmt 1 view .LVU1224
 135:../USER/main_03.c **** 		}
 3883              		.loc 1 135 13 is_stmt 0 view .LVU1225
 3884 01e8 2846     		mov	r0, r5
 3885 01ea FFF7FEFF 		bl	GPIO_ReadBits
 3886              	.LVL229:
 135:../USER/main_03.c **** 		}
 3887              		.loc 1 135 11 view .LVU1226
 3888 01ee 0F90     		str	r0, [sp, #60]
 133:../USER/main_03.c **** 			key_check();
 3889              		.loc 1 133 17 view .LVU1227
 3890 01f0 0F9B     		ldr	r3, [sp, #60]
 133:../USER/main_03.c **** 			key_check();
 3891              		.loc 1 133 8 view .LVU1228
 3892 01f2 5B04     		lsls	r3, r3, #17
 3893 01f4 0CD5     		bpl	.L317
 3894              	.L311:
 134:../USER/main_03.c **** 			gpiord = GPIO_ReadBits(GPIO0);
 3895              		.loc 1 134 4 is_stmt 1 view .LVU1229
 3896              	.LBB947:
 3897              	.LBI944:
 109:../USER/main_03.c **** 	char ch;
 3898              		.loc 1 109 6 view .LVU1230
 3899              	.LBB946:
 110:../USER/main_03.c **** 	//
 3900              		.loc 1 110 2 view .LVU1231
 112:../USER/main_03.c **** 	if(ch!=0) kinbuf[kinbwp++] = ch;
 3901              		.loc 1 112 2 view .LVU1232
 112:../USER/main_03.c **** 	if(ch!=0) kinbuf[kinbwp++] = ch;
 3902              		.loc 1 112 7 is_stmt 0 view .LVU1233
 3903 01f6 FFF7FEFF 		bl	SPI_ReadData
 3904              	.LVL230:
 113:../USER/main_03.c **** 	if(kinbwp>=256) kinbwp = 0;
 3905              		.loc 1 113 12 is_stmt 1 view .LVU1234
 112:../USER/main_03.c **** 	if(ch!=0) kinbuf[kinbwp++] = ch;
 3906              		.loc 1 112 5 is_stmt 0 view .LVU1235
 3907 01fa 40B2     		sxtb	r0, r0
 3908              	.LVL231:
 113:../USER/main_03.c **** 	if(kinbwp>=256) kinbwp = 0;
 3909              		.loc 1 113 2 is_stmt 1 view .LVU1236
 113:../USER/main_03.c **** 	if(kinbwp>=256) kinbwp = 0;
 3910              		.loc 1 113 4 is_stmt 0 view .LVU1237
 3911 01fc 0028     		cmp	r0, #0
 3912 01fe DCD0     		beq	.L1114
 113:../USER/main_03.c **** 	if(kinbwp>=256) kinbwp = 0;
 3913              		.loc 1 113 25 view .LVU1238
 3914 0200 D8F80020 		ldr	r2, [r8]
 3915 0204 531C     		adds	r3, r2, #1
 113:../USER/main_03.c **** 	if(kinbwp>=256) kinbwp = 0;
 3916              		.loc 1 113 29 view .LVU1239
 3917 0206 09F80200 		strb	r0, [r9, r2]
 113:../USER/main_03.c **** 	if(kinbwp>=256) kinbwp = 0;
 3918              		.loc 1 113 25 view .LVU1240
 3919 020a C8F80030 		str	r3, [r8]
 3920 020e D6E7     		b	.L313
 3921              	.LVL232:
 3922              	.L317:
 113:../USER/main_03.c **** 	if(kinbwp>=256) kinbwp = 0;
 3923              		.loc 1 113 25 view .LVU1241
 3924              	.LBE946:
 3925              	.LBE947:
 137:../USER/main_03.c **** 	}
 3926              		.loc 1 137 3 is_stmt 1 view .LVU1242
 3927 0210 E0B2     		uxtb	r0, r4
 3928 0212 FFF7FEFF 		bl	SPI_WriteData
 3929              	.LVL233:
 3930              	.L310:
 3931              	.LBB948:
 3932              	.LBB949:
 116:../USER/main_03.c **** 	if(kinbwp>=256) kinbwp = 0;
 3933              		.loc 1 116 11 is_stmt 0 view .LVU1243
 3934 0216 4FF04025 		mov	r5, #1073758208
 3935 021a 18E0     		b	.L323
 3936              	.LVL234:
 3937              	.L1116:
 116:../USER/main_03.c **** 	if(kinbwp>=256) kinbwp = 0;
 3938              		.loc 1 116 11 view .LVU1244
 3939 021c D8F80030 		ldr	r3, [r8]
 3940              	.L319:
 114:../USER/main_03.c **** 	//
 3941              		.loc 1 114 2 is_stmt 1 view .LVU1245
 114:../USER/main_03.c **** 	//
 3942              		.loc 1 114 18 view .LVU1246
 114:../USER/main_03.c **** 	//
 3943              		.loc 1 114 4 is_stmt 0 view .LVU1247
 3944 0220 FF2B     		cmp	r3, #255
 3945 0222 02DD     		ble	.L320
 114:../USER/main_03.c **** 	//
 3946              		.loc 1 114 25 view .LVU1248
 3947 0224 0023     		movs	r3, #0
 3948 0226 C8F80070 		str	r7, [r8]
 3949              	.L320:
 116:../USER/main_03.c **** 	if(kinbwp>=256) kinbwp = 0;
 3950              		.loc 1 116 39 is_stmt 1 view .LVU1249
 116:../USER/main_03.c **** 	if(kinbwp>=256) kinbwp = 0;
 3951              		.loc 1 116 2 view .LVU1250
 116:../USER/main_03.c **** 	if(kinbwp>=256) kinbwp = 0;
 3952              		.loc 1 116 11 is_stmt 0 view .LVU1251
 3953 022a 6968     		ldr	r1, [r5, #4]
 116:../USER/main_03.c **** 	if(kinbwp>=256) kinbwp = 0;
 3954              		.loc 1 116 52 view .LVU1252
 3955 022c 5A1C     		adds	r2, r3, #1
 116:../USER/main_03.c **** 	if(kinbwp>=256) kinbwp = 0;
 3956              		.loc 1 116 4 view .LVU1253
 3957 022e 8807     		lsls	r0, r1, #30
 3958              	.LVL235:
 116:../USER/main_03.c **** 	if(kinbwp>=256) kinbwp = 0;
 3959              		.loc 1 116 4 view .LVU1254
 3960 0230 09D5     		bpl	.L322
 117:../USER/main_03.c **** 	//
 3961              		.loc 1 117 25 view .LVU1255
 3962 0232 B2F5807F 		cmp	r2, #256
 3963 0236 14BF     		ite	ne
 3964 0238 1146     		movne	r1, r2
 3965 023a 3946     		moveq	r1, r7
 116:../USER/main_03.c **** 	if(kinbwp>=256) kinbwp = 0;
 3966              		.loc 1 116 63 view .LVU1256
 3967 023c 2868     		ldr	r0, [r5]
 117:../USER/main_03.c **** 	//
 3968              		.loc 1 117 25 view .LVU1257
 3969 023e C8F80010 		str	r1, [r8]
 116:../USER/main_03.c **** 	if(kinbwp>=256) kinbwp = 0;
 3970              		.loc 1 116 56 view .LVU1258
 3971 0242 09F80300 		strb	r0, [r9, r3]
 117:../USER/main_03.c **** 	//
 3972              		.loc 1 117 2 is_stmt 1 view .LVU1259
 3973              	.L322:
 117:../USER/main_03.c **** 	//
 3974              		.loc 1 117 2 is_stmt 0 view .LVU1260
 3975              	.LBE949:
 3976              	.LBE948:
 140:../USER/main_03.c **** }
 3977              		.loc 1 140 27 is_stmt 1 view .LVU1261
 140:../USER/main_03.c **** }
 3978              		.loc 1 140 32 is_stmt 0 view .LVU1262
 3979 0246 2046     		mov	r0, r4
 3980 0248 FFF7FEFF 		bl	disp_vram
 3981              	.LVL236:
 140:../USER/main_03.c **** }
 3982              		.loc 1 140 2 view .LVU1263
 3983 024c 60B1     		cbz	r0, .L1115
 3984              	.LVL237:
 3985              	.L323:
 140:../USER/main_03.c **** }
 3986              		.loc 1 140 2 is_stmt 1 view .LVU1264
 140:../USER/main_03.c **** }
 3987              		.loc 1 140 10 view .LVU1265
 140:../USER/main_03.c **** }
 3988              		.loc 1 140 14 view .LVU1266
 3989              	.LBB951:
 3990              	.LBI948:
 109:../USER/main_03.c **** 	char ch;
 3991              		.loc 1 109 6 view .LVU1267
 3992              	.LBB950:
 110:../USER/main_03.c **** 	//
 3993              		.loc 1 110 2 view .LVU1268
 112:../USER/main_03.c **** 	if(ch!=0) kinbuf[kinbwp++] = ch;
 3994              		.loc 1 112 2 view .LVU1269
 112:../USER/main_03.c **** 	if(ch!=0) kinbuf[kinbwp++] = ch;
 3995              		.loc 1 112 7 is_stmt 0 view .LVU1270
 3996 024e FFF7FEFF 		bl	SPI_ReadData
 3997              	.LVL238:
 113:../USER/main_03.c **** 	if(kinbwp>=256) kinbwp = 0;
 3998              		.loc 1 113 12 is_stmt 1 view .LVU1271
 112:../USER/main_03.c **** 	if(ch!=0) kinbuf[kinbwp++] = ch;
 3999              		.loc 1 112 5 is_stmt 0 view .LVU1272
 4000 0252 40B2     		sxtb	r0, r0
 4001              	.LVL239:
 113:../USER/main_03.c **** 	if(kinbwp>=256) kinbwp = 0;
 4002              		.loc 1 113 2 is_stmt 1 view .LVU1273
 113:../USER/main_03.c **** 	if(kinbwp>=256) kinbwp = 0;
 4003              		.loc 1 113 4 is_stmt 0 view .LVU1274
 4004 0254 0028     		cmp	r0, #0
 4005 0256 E1D0     		beq	.L1116
 113:../USER/main_03.c **** 	if(kinbwp>=256) kinbwp = 0;
 4006              		.loc 1 113 25 view .LVU1275
 4007 0258 D8F80020 		ldr	r2, [r8]
 4008 025c 531C     		adds	r3, r2, #1
 113:../USER/main_03.c **** 	if(kinbwp>=256) kinbwp = 0;
 4009              		.loc 1 113 29 view .LVU1276
 4010 025e 09F80200 		strb	r0, [r9, r2]
 113:../USER/main_03.c **** 	if(kinbwp>=256) kinbwp = 0;
 4011              		.loc 1 113 25 view .LVU1277
 4012 0262 C8F80030 		str	r3, [r8]
 4013 0266 DBE7     		b	.L319
 4014              	.LVL240:
 4015              	.L1115:
 113:../USER/main_03.c **** 	if(kinbwp>=256) kinbwp = 0;
 4016              		.loc 1 113 25 view .LVU1278
 4017              	.LBE950:
 4018              	.LBE951:
 4019              	.LBE953:
 4020              	.LBE958:
 157:../USER/main_03.c **** 		if(ch==0x0d) break;
 4021              		.loc 1 157 28 is_stmt 1 view .LVU1279
 158:../USER/main_03.c **** 	}
 4022              		.loc 1 158 5 is_stmt 0 view .LVU1280
 4023 0268 0D2C     		cmp	r4, #13
 157:../USER/main_03.c **** 		if(ch==0x0d) break;
 4024              		.loc 1 157 35 view .LVU1281
 4025 026a 06F8014B 		strb	r4, [r6], #1
 4026              	.LVL241:
 158:../USER/main_03.c **** 	}
 4027              		.loc 1 158 3 is_stmt 1 view .LVU1282
 158:../USER/main_03.c **** 	}
 4028              		.loc 1 158 5 is_stmt 0 view .LVU1283
 4029 026e 7FF453AF 		bne	.L282
 4030              	.LVL242:
 158:../USER/main_03.c **** 	}
 4031              		.loc 1 158 5 view .LVU1284
 4032              	.LBE931:
 4033              	.LBE930:
 4034              	.LBB961:
 4035              	.LBB962:
 102:../USER/main_03.c ****    if( *buf>='a' && *buf<='z') *buf = *buf - 0x20;
 4036              		.loc 1 102 9 view .LVU1285
 4037 0272 9DF9A030 		ldrsb	r3, [sp, #160]
 102:../USER/main_03.c ****    if( *buf>='a' && *buf<='z') *buf = *buf - 0x20;
 4038              		.loc 1 102 8 view .LVU1286
 4039 0276 0D2B     		cmp	r3, #13
 4040 0278 00F0DF81 		beq	.L324
 4041 027c 28AA     		add	r2, sp, #160
 4042              	.LVL243:
 4043              	.L328:
 103:../USER/main_03.c ****    buf++;
 4044              		.loc 1 103 4 is_stmt 1 view .LVU1287
 103:../USER/main_03.c ****    buf++;
 4045              		.loc 1 103 32 view .LVU1288
 104:../USER/main_03.c ****   }
 4046              		.loc 1 104 4 view .LVU1289
 103:../USER/main_03.c ****    buf++;
 4047              		.loc 1 103 18 is_stmt 0 view .LVU1290
 4048 027e DBB2     		uxtb	r3, r3
 103:../USER/main_03.c ****    buf++;
 4049              		.loc 1 103 44 view .LVU1291
 4050 0280 A3F12001 		sub	r1, r3, #32
 103:../USER/main_03.c ****    buf++;
 4051              		.loc 1 103 6 view .LVU1292
 4052 0284 613B     		subs	r3, r3, #97
 4053 0286 192B     		cmp	r3, #25
 4054 0288 00F27483 		bhi	.L325
 103:../USER/main_03.c ****    buf++;
 4055              		.loc 1 103 37 view .LVU1293
 4056 028c 1170     		strb	r1, [r2]
 104:../USER/main_03.c ****   }
 4057              		.loc 1 104 4 is_stmt 1 view .LVU1294
 102:../USER/main_03.c ****    if( *buf>='a' && *buf<='z') *buf = *buf - 0x20;
 4058              		.loc 1 102 9 is_stmt 0 view .LVU1295
 4059 028e 12F9013F 		ldrsb	r3, [r2, #1]!
 4060              	.LVL244:
 102:../USER/main_03.c ****    if( *buf>='a' && *buf<='z') *buf = *buf - 0x20;
 4061              		.loc 1 102 8 view .LVU1296
 4062 0292 0D2B     		cmp	r3, #13
 4063 0294 F3D1     		bne	.L328
 4064              	.LVL245:
 4065              	.L327:
 102:../USER/main_03.c ****    if( *buf>='a' && *buf<='z') *buf = *buf - 0x20;
 4066              		.loc 1 102 8 view .LVU1297
 4067              	.LBE962:
 4068              	.LBE961:
 4069              	.LBE929:
 196:../USER/main_03.c **** 		  cmd = cbuf[0]; cbp = &cbuf[1];
 4070              		.loc 1 196 5 is_stmt 1 view .LVU1298
 4071              		.loc 1 196 9 is_stmt 0 view .LVU1299
 4072 0296 9DF9A030 		ldrsb	r3, [sp, #160]
 4073              	.LVL246:
 4074              		.loc 1 196 20 is_stmt 1 view .LVU1300
 4075              		.loc 1 196 24 is_stmt 0 view .LVU1301
 4076 029a 0DF1A102 		add	r2, sp, #161
 197:../USER/main_03.c **** 		  switch(cmd){
 4077              		.loc 1 197 5 view .LVU1302
 4078 029e 423B     		subs	r3, r3, #66
 4079              	.LVL247:
 196:../USER/main_03.c **** 		  cmd = cbuf[0]; cbp = &cbuf[1];
 4080              		.loc 1 196 24 view .LVU1303
 4081 02a0 0D92     		str	r2, [sp, #52]
 4082              		.loc 1 197 5 is_stmt 1 view .LVU1304
 4083 02a2 152B     		cmp	r3, #21
 4084 02a4 00F2CC81 		bhi	.L329
 4085 02a8 DFE813F0 		tbh	[pc, r3, lsl #1]
 4086              	.L331:
 4087 02ac 1B00     		.2byte	(.L335-.L331)/2
 4088 02ae CA01     		.2byte	(.L329-.L331)/2
 4089 02b0 7701     		.2byte	(.L334-.L331)/2
 4090 02b2 CA01     		.2byte	(.L329-.L331)/2
 4091 02b4 CA01     		.2byte	(.L329-.L331)/2
 4092 02b6 CA01     		.2byte	(.L329-.L331)/2
 4093 02b8 CA01     		.2byte	(.L329-.L331)/2
 4094 02ba CA01     		.2byte	(.L329-.L331)/2
 4095 02bc CA01     		.2byte	(.L329-.L331)/2
 4096 02be CA01     		.2byte	(.L329-.L331)/2
 4097 02c0 CA01     		.2byte	(.L329-.L331)/2
 4098 02c2 1B01     		.2byte	(.L333-.L331)/2
 4099 02c4 CA01     		.2byte	(.L329-.L331)/2
 4100 02c6 CA01     		.2byte	(.L329-.L331)/2
 4101 02c8 CA01     		.2byte	(.L329-.L331)/2
 4102 02ca CA01     		.2byte	(.L329-.L331)/2
 4103 02cc 9500     		.2byte	(.L332-.L331)/2
 4104 02ce CA01     		.2byte	(.L329-.L331)/2
 4105 02d0 CA01     		.2byte	(.L329-.L331)/2
 4106 02d2 CA01     		.2byte	(.L329-.L331)/2
 4107 02d4 CA01     		.2byte	(.L329-.L331)/2
 4108 02d6 6400     		.2byte	(.L330-.L331)/2
 4109              	.LVL248:
 4110              		.p2align 1
 4111              	.L1151:
 4112              	.LBB966:
 4113              	.LBB967:
 149:../USER/main_03.c **** 		if(*buf==0) break;
 4114              		.loc 1 149 2 view .LVU1305
 150:../USER/main_03.c **** 		else        putch(*buf++);
 4115              		.loc 1 150 3 view .LVU1306
 150:../USER/main_03.c **** 		else        putch(*buf++);
 4116              		.loc 1 150 6 is_stmt 0 view .LVU1307
 4117 02d8 1BF9014F 		ldrsb	r4, [fp, #1]!
 4118              	.LVL249:
 150:../USER/main_03.c **** 		else        putch(*buf++);
 4119              		.loc 1 150 5 view .LVU1308
