   1              		.cpu cortex-m3
   2              		.eabi_attribute 20, 1
   3              		.eabi_attribute 21, 1
   4              		.eabi_attribute 23, 3
   5              		.eabi_attribute 24, 1
   6              		.eabi_attribute 25, 1
   7              		.eabi_attribute 26, 1
   8              		.eabi_attribute 30, 2
   9              		.eabi_attribute 34, 1
  10              		.eabi_attribute 18, 4
  11              		.file	"main.c"
  12              		.text
  13              	.Ltext0:
  14              		.cfi_sections	.debug_frame
  15              		.section	.text.getsh.part.0,"ax",%progbits
  16              		.align	1
  17              		.p2align 2,,3
  18              		.arch armv7-m
  19              		.syntax unified
  20              		.thumb
  21              		.thumb_func
  22              		.fpu softvfp
  24              	getsh.part.0:
  25              	.LVL0:
  26              	.LFB53:
  27              		.file 1 "../USER/main.c"
   1:../USER/main.c **** 
   2:../USER/main.c **** /*
   3:../USER/main.c ****  * *****************************************************************************************
   4:../USER/main.c ****  *
   5:../USER/main.c ****  * 		Copyright (C) 2014-2021 Gowin Semiconductor Technology Co.,Ltd.
   6:../USER/main.c ****  * 		
   7:../USER/main.c ****  * @file			main.c
   8:../USER/main.c ****  * @author		Embedded Development Team
   9:../USER/main.c ****  * @version		V1.x.x
  10:../USER/main.c ****  * @date			2021-01-01 09:00:00
  11:../USER/main.c ****  * @brief			Main program body.
  12:../USER/main.c ****  ******************************************************************************************
  13:../USER/main.c ****  */
  14:../USER/main.c **** 
  15:../USER/main.c **** /* Includes ------------------------------------------------------------------*/
  16:../USER/main.c **** #include "gw1ns4c.h"
  17:../USER/main.c **** //#include "GOWIN_M3.h"
  18:../USER/main.c **** #include "gw1ns4c_uart.h"
  19:../USER/main.c **** 
  20:../USER/main.c **** #include <stdio.h>
  21:../USER/main.c **** #include <stdlib.h>
  22:../USER/main.c **** #include <string.h>
  23:../USER/main.c **** /* Declarations ------------------------------------------------------------------*/
  24:../USER/main.c **** void delay_ms(__IO uint32_t delay_ms);
  25:../USER/main.c **** void GPIOInit(uint32_t pin);
  26:../USER/main.c **** void UartInit(void);
  27:../USER/main.c **** //
  28:../USER/main.c **** void get_vram(int adry, int adrx);
  29:../USER/main.c **** void set_vram(int adry, int adrx);
  30:../USER/main.c **** void set_char(int adry, int adrx, int ptn, int ccd);
  31:../USER/main.c **** void set_vramm(int adry, int adrx, int ptn, int mask, int loopy, int loopx);
  32:../USER/main.c **** void dispfull(int adry, int adrx, int ptn, int ccd, int len);
  33:../USER/main.c **** void move_vram(int sadr, int dadr, int dlen, int mode);
  34:../USER/main.c **** void dispscroll(int adry, int adrx);
  35:../USER/main.c **** int  disp_vram(char chd);
  36:../USER/main.c **** void pset(int xp, int yp, int ptn);
  37:../USER/main.c **** int pget(int xp, int yp);
  38:../USER/main.c **** void basic();
  39:../USER/main.c **** 
  40:../USER/main.c **** #define u16 unsigned short
  41:../USER/main.c **** void DLine(u16 x1, u16 y1, u16 x2, u16 y2, u16 ptn);
  42:../USER/main.c **** void DCircle(u16 x0,u16 y0,u16 r,u16 ptn);
  43:../USER/main.c **** void DPaint(int xp, int yp, int ptn);
  44:../USER/main.c **** 
  45:../USER/main.c **** extern union wddt_t {
  46:../USER/main.c **** 	unsigned char b[37];
  47:../USER/main.c **** 	short         s[18];
  48:../USER/main.c **** 	unsigned int  i[9];
  49:../USER/main.c **** } wddt;
  50:../USER/main.c **** //extern wddt_t wddt;
  51:../USER/main.c **** /* Functions ------------------------------------------------------------------*/
  52:../USER/main.c **** //Initializes GPIO
  53:../USER/main.c **** void GPIOInit(uint32_t pin)
  54:../USER/main.c **** {
  55:../USER/main.c **** 	GPIO_InitTypeDef GPIO_InitType;
  56:../USER/main.c **** 	GPIO_InitType.GPIO_Pin = pin;
  57:../USER/main.c **** 	GPIO_InitType.GPIO_Mode = GPIO_Mode_OUT;
  58:../USER/main.c **** 	GPIO_InitType.GPIO_Int = GPIO_Int_Disable;
  59:../USER/main.c **** 	GPIO_Init(GPIO0,&GPIO_InitType);
  60:../USER/main.c ****   GPIO_SetBit(GPIO0,pin);
  61:../USER/main.c **** }
  62:../USER/main.c **** 
  63:../USER/main.c **** void UartInit(void)
  64:../USER/main.c **** {
  65:../USER/main.c ****   UART_InitTypeDef UART_InitStruct;
  66:../USER/main.c **** 
  67:../USER/main.c ****   UART_InitStruct.UART_Mode.UARTMode_Tx = ENABLE;
  68:../USER/main.c ****   UART_InitStruct.UART_Mode.UARTMode_Rx = ENABLE;
  69:../USER/main.c ****   UART_InitStruct.UART_Int.UARTInt_Tx = DISABLE;
  70:../USER/main.c ****   UART_InitStruct.UART_Int.UARTInt_Rx = DISABLE;
  71:../USER/main.c ****   UART_InitStruct.UART_Ovr.UARTOvr_Tx = DISABLE;
  72:../USER/main.c ****   UART_InitStruct.UART_Ovr.UARTOvr_Rx = DISABLE;
  73:../USER/main.c ****   UART_InitStruct.UART_Hstm = DISABLE;
  74:../USER/main.c ****   UART_InitStruct.UART_BaudRate = 115200*80/72;//Baud Rate
  75:../USER/main.c ****   UART_Init(UART0,&UART_InitStruct);
  76:../USER/main.c **** }
  77:../USER/main.c **** 
  78:../USER/main.c **** //Initializes SPI
  79:../USER/main.c **** void SPIInit(void)
  80:../USER/main.c **** {
  81:../USER/main.c **** 	SPI_InitTypeDef init_spi;
  82:../USER/main.c ****   init_spi.CLKSEL= CLKSEL_CLK_DIV_4;		//80MHZ / 8
  83:../USER/main.c ****   init_spi.DIRECTION = DISABLE;					//MSB First
  84:../USER/main.c ****   init_spi.PHASE =DISABLE;							//ENABLE;//posedge
  85:../USER/main.c ****   init_spi.POLARITY =DISABLE;						//polarity 0
  86:../USER/main.c ****   SPI_Init(&init_spi);
  87:../USER/main.c **** }
  88:../USER/main.c **** //delay ms
  89:../USER/main.c **** void delay_ms(__IO uint32_t delay_ms) {
  90:../USER/main.c **** 	for(delay_ms=(SystemCoreClock>>13)*delay_ms; delay_ms != 0; delay_ms--);
  91:../USER/main.c **** }
  92:../USER/main.c **** 
  93:../USER/main.c **** int mdgpio, mdgpioi;
  94:../USER/main.c **** void check_gpio(){
  95:../USER/main.c **** 	int i;
  96:../USER/main.c **** 	mdgpio = GPIO_ReadBits(GPIO0);	// ukey2 = bit13
  97:../USER/main.c **** 	mdgpioi = mdgpio; mdgpio = mdgpio & 0xdfff;		// bit13.clear
  98:../USER/main.c **** 	for(i=0;i<2;i++){
  99:../USER/main.c **** 		GPIO_WriteBits(GPIO0,0x03); delay_ms(50);
 100:../USER/main.c **** 		GPIO_WriteBits(GPIO0,0x00); delay_ms(50);
 101:../USER/main.c **** 	}
 102:../USER/main.c **** }
 103:../USER/main.c **** 
 104:../USER/main.c **** #define getch getch_uart
 105:../USER/main.c **** #define putch putch_uart
 106:../USER/main.c **** #define gets  getsuart
 107:../USER/main.c **** #define puts  putsuart
 108:../USER/main.c **** void setsup(buf) char *buf;{
 109:../USER/main.c ****   while(*buf!=0x0d){
 110:../USER/main.c ****    if( *buf>='a' && *buf<='z') *buf = *buf - 0x20;
 111:../USER/main.c ****    buf++;
 112:../USER/main.c ****   }
 113:../USER/main.c **** }
 114:../USER/main.c **** char kinbuf[256];
 115:../USER/main.c **** int kinbwp =0, kinbrp = 0;
 116:../USER/main.c **** void key_check() {
 117:../USER/main.c **** 	char ch;
 118:../USER/main.c **** 	//
 119:../USER/main.c **** 	ch = SPI_ReadData();
 120:../USER/main.c **** 	if(ch!=0) kinbuf[kinbwp++] = ch;
 121:../USER/main.c **** 	if(kinbwp>=256) kinbwp = 0;
 122:../USER/main.c **** 	//
 123:../USER/main.c **** 	if((UART0->STATE & UART_STATE_RXBF)) kinbuf[kinbwp++] = UART0->DATA;
 124:../USER/main.c **** 	if(kinbwp>=256) kinbwp = 0;
 125:../USER/main.c **** 	//
 126:../USER/main.c **** }
 127:../USER/main.c **** char getch_uart(void){
 128:../USER/main.c **** 	char dt;
 129:../USER/main.c **** 	while(kinbrp==kinbwp) key_check();
 130:../USER/main.c **** 	dt = kinbuf[kinbrp++];
 131:../USER/main.c **** 	if(kinbrp>=256) kinbrp = 0;
 132:../USER/main.c **** 	return dt;
 133:../USER/main.c **** }
 134:../USER/main.c **** void putch_uart(char ch){
 135:../USER/main.c **** 	volatile uint32_t gpiord;
 136:../USER/main.c **** 	if((mdgpio & 0x2000)==0)
 137:../USER/main.c **** 		UART_SendChar(UART0,ch);
 138:../USER/main.c **** 	else {
 139:../USER/main.c **** 		gpiord = 0x4000;
 140:../USER/main.c **** 		while((gpiord & 0x4000)!=0) {
 141:../USER/main.c **** 			key_check();
 142:../USER/main.c **** 			gpiord = GPIO_ReadBits(GPIO0);
 143:../USER/main.c **** 		}
 144:../USER/main.c **** 		SPI_WriteData(ch);
 145:../USER/main.c **** 	}
 146:../USER/main.c **** 	//
 147:../USER/main.c **** 	int rc;	do{ key_check(); rc = disp_vram(ch); } while(rc!=0);	// VRam Display
 148:../USER/main.c **** }
 149:../USER/main.c **** 
 150:../USER/main.c **** void puth(dt) int dt;{ if(dt<10) putch(0x30+dt); else putch(0x37+dt); }
 151:../USER/main.c **** void puth2(dt) int dt;{ puth((dt >> 4) & 0xf); puth(dt & 0xf); }
 152:../USER/main.c **** void puth4(dt) int dt;{ puth2((dt >> 8) & 0xff); puth2(dt & 0xff); }
 153:../USER/main.c **** void puth6(dt) long dt;{ int dh,dl; dh = dt >> 16; dl = dt & 0xffff; puth2(dh); puth4(dl); }
 154:../USER/main.c **** void puth8(dt) long dt;{ int dh,dl; dh = dt >> 16; dl = dt & 0xffff; puth4(dh); puth4(dl); }
 155:../USER/main.c **** void putsuart(char *buf){
 156:../USER/main.c **** 	while(1){
 157:../USER/main.c **** 		if(*buf==0) break;
 158:../USER/main.c **** 		else        putch(*buf++);
 159:../USER/main.c **** 	}
 160:../USER/main.c **** }
 161:../USER/main.c **** void getsuart(char *buf){
 162:../USER/main.c **** 	char ch;
 163:../USER/main.c **** 	while(1){
 164:../USER/main.c **** 		ch = getch(); putch(ch); *buf++ = ch;
 165:../USER/main.c **** 		if(ch==0x0d) break;
 166:../USER/main.c **** 	}
 167:../USER/main.c **** }
 168:../USER/main.c **** int ishex(ch) char ch;{
 169:../USER/main.c ****   int hd;
 170:../USER/main.c ****   if(ch>='0' && ch<='9') hd = ch - 0x30;
 171:../USER/main.c ****   else if(ch>='A' && ch<='F') hd = ch - 0x37;
 172:../USER/main.c ****   else hd = -1;
 173:../USER/main.c ****   return hd;
 174:../USER/main.c **** }
 175:../USER/main.c **** void getssu(cbuf) char *cbuf;{ gets(cbuf); setsup(cbuf);}
 176:../USER/main.c **** void putadrhd(adr) long adr;{puts("\r\n"); puth8(adr); putch(':');}
 177:../USER/main.c **** 
 178:../USER/main.c **** long getsh(buf) char **buf;{
  28              		.loc 1 178 6 view -0
  29              		.cfi_startproc
  30              		@ args = 0, pretend = 0, frame = 0
  31              		@ frame_needed = 0, uses_anonymous_args = 0
  32              		@ link register save eliminated.
  33              		.loc 1 178 6 is_stmt 0 view .LVU1
  34 0000 30B4     		push	{r4, r5}
  35              		.cfi_def_cfa_offset 8
  36              		.cfi_offset 4, -8
  37              		.cfi_offset 5, -4
 179:../USER/main.c ****   long num = 0; int hd;
 180:../USER/main.c ****   if(**buf==0x0d) return -1;
 181:../USER/main.c ****   while(**buf==' ') (*buf)++; /* spip sp*/
  38              		.loc 1 181 10 view .LVU2
  39 0002 0268     		ldr	r2, [r0]
 178:../USER/main.c ****   long num = 0; int hd;
  40              		.loc 1 178 6 view .LVU3
  41 0004 0546     		mov	r5, r0
  42              		.loc 1 181 9 view .LVU4
  43 0006 92F90030 		ldrsb	r3, [r2]
  44              		.loc 1 181 8 view .LVU5
  45 000a 202B     		cmp	r3, #32
  46 000c 05D1     		bne	.L2
  47              	.L3:
  48              		.loc 1 181 21 is_stmt 1 view .LVU6
  49              		.loc 1 181 27 is_stmt 0 view .LVU7
  50 000e 0132     		adds	r2, r2, #1
  51 0010 2A60     		str	r2, [r5]
  52              		.loc 1 181 9 view .LVU8
  53 0012 92F90030 		ldrsb	r3, [r2]
  54              		.loc 1 181 8 view .LVU9
  55 0016 202B     		cmp	r3, #32
  56 0018 F9D0     		beq	.L3
  57              	.L2:
 179:../USER/main.c ****   long num = 0; int hd;
  58              		.loc 1 179 8 view .LVU10
  59 001a 0020     		movs	r0, #0
  60              	.LVL1:
 179:../USER/main.c ****   long num = 0; int hd;
  61              		.loc 1 179 8 view .LVU11
  62 001c 08E0     		b	.L4
  63              	.LVL2:
  64              	.L13:
  65              	.LBB115:
  66              	.LBB116:
 170:../USER/main.c ****   else if(ch>='A' && ch<='F') hd = ch - 0x37;
  67              		.loc 1 170 29 view .LVU12
  68 001e 303B     		subs	r3, r3, #48
  69              	.LVL3:
 170:../USER/main.c ****   else if(ch>='A' && ch<='F') hd = ch - 0x37;
  70              		.loc 1 170 29 view .LVU13
  71              	.LBE116:
  72              	.LBE115:
 182:../USER/main.c ****   while( (hd=ishex(**buf)) != -1){ num = num * 16 + hd; (*buf)++; }
  73              		.loc 1 182 36 is_stmt 1 view .LVU14
  74              	.LBB120:
  75              	.LBB117:
 173:../USER/main.c **** }
  76              		.loc 1 173 3 view .LVU15
 173:../USER/main.c **** }
  77              		.loc 1 173 3 is_stmt 0 view .LVU16
  78              	.LBE117:
  79              	.LBE120:
  80              		.loc 1 182 8 view .LVU17
  81 0020 591C     		adds	r1, r3, #1
  82 0022 11D0     		beq	.L1
  83              	.L8:
  84              		.loc 1 182 63 view .LVU18
  85 0024 0132     		adds	r2, r2, #1
  86 0026 2A60     		str	r2, [r5]
  87              		.loc 1 182 40 view .LVU19
  88 0028 03EB0010 		add	r0, r3, r0, lsl #4
  89              	.LVL4:
  90              		.loc 1 182 57 is_stmt 1 view .LVU20
  91 002c 92F90030 		ldrsb	r3, [r2]
  92              	.LVL5:
  93              	.L4:
  94              	.LBB121:
  95              	.LBI115:
 168:../USER/main.c ****   int hd;
  96              		.loc 1 168 5 view .LVU21
  97              	.LBB118:
 169:../USER/main.c ****   if(ch>='0' && ch<='9') hd = ch - 0x30;
  98              		.loc 1 169 3 view .LVU22
 170:../USER/main.c ****   else if(ch>='A' && ch<='F') hd = ch - 0x37;
  99              		.loc 1 170 3 view .LVU23
 170:../USER/main.c ****   else if(ch>='A' && ch<='F') hd = ch - 0x37;
 100              		.loc 1 170 26 view .LVU24
 171:../USER/main.c ****   else hd = -1;
 101              		.loc 1 171 8 view .LVU25
 171:../USER/main.c ****   else hd = -1;
 102              		.loc 1 171 31 view .LVU26
 170:../USER/main.c ****   else if(ch>='A' && ch<='F') hd = ch - 0x37;
 103              		.loc 1 170 14 is_stmt 0 view .LVU27
 104 0030 D9B2     		uxtb	r1, r3
 170:../USER/main.c ****   else if(ch>='A' && ch<='F') hd = ch - 0x37;
 105              		.loc 1 170 5 view .LVU28
 106 0032 A1F13004 		sub	r4, r1, #48
 107 0036 092C     		cmp	r4, #9
 171:../USER/main.c ****   else hd = -1;
 108              		.loc 1 171 10 view .LVU29
 109 0038 A1F14101 		sub	r1, r1, #65
 170:../USER/main.c ****   else if(ch>='A' && ch<='F') hd = ch - 0x37;
 110              		.loc 1 170 5 view .LVU30
 111 003c EFD9     		bls	.L13
 171:../USER/main.c ****   else hd = -1;
 112              		.loc 1 171 10 view .LVU31
 113 003e 0529     		cmp	r1, #5
 114 0040 02D8     		bhi	.L1
 171:../USER/main.c ****   else hd = -1;
 115              		.loc 1 171 34 view .LVU32
 116 0042 373B     		subs	r3, r3, #55
 117              	.LVL6:
 171:../USER/main.c ****   else hd = -1;
 118              		.loc 1 171 34 view .LVU33
 119              	.LBE118:
 120              	.LBE121:
 121              		.loc 1 182 36 is_stmt 1 view .LVU34
 122              	.LBB122:
 123              	.LBB119:
 173:../USER/main.c **** }
 124              		.loc 1 173 3 view .LVU35
 173:../USER/main.c **** }
 125              		.loc 1 173 3 is_stmt 0 view .LVU36
 126              	.LBE119:
 127              	.LBE122:
 128              		.loc 1 182 8 view .LVU37
 129 0044 591C     		adds	r1, r3, #1
 130 0046 EDD1     		bne	.L8
 131              	.LVL7:
 132              	.L1:
 183:../USER/main.c ****   return num;
 184:../USER/main.c **** }
 133              		.loc 1 184 1 view .LVU38
 134 0048 30BC     		pop	{r4, r5}
 135              		.cfi_restore 5
 136              		.cfi_restore 4
 137              		.cfi_def_cfa_offset 0
 138              	.LVL8:
 139              		.loc 1 184 1 view .LVU39
 140 004a 7047     		bx	lr
 141              		.cfi_endproc
 142              	.LFE53:
 144              		.section	.text.GPIOInit,"ax",%progbits
 145              		.align	1
 146              		.p2align 2,,3
 147              		.global	GPIOInit
 148              		.syntax unified
 149              		.thumb
 150              		.thumb_func
 151              		.fpu softvfp
 153              	GPIOInit:
 154              	.LVL9:
 155              	.LFB32:
  54:../USER/main.c **** 	GPIO_InitTypeDef GPIO_InitType;
 156              		.loc 1 54 1 is_stmt 1 view -0
 157              		.cfi_startproc
 158              		@ args = 0, pretend = 0, frame = 8
 159              		@ frame_needed = 0, uses_anonymous_args = 0
  55:../USER/main.c **** 	GPIO_InitType.GPIO_Pin = pin;
 160              		.loc 1 55 2 view .LVU41
  56:../USER/main.c **** 	GPIO_InitType.GPIO_Mode = GPIO_Mode_OUT;
 161              		.loc 1 56 2 view .LVU42
  54:../USER/main.c **** 	GPIO_InitTypeDef GPIO_InitType;
 162              		.loc 1 54 1 is_stmt 0 view .LVU43
 163 0000 30B5     		push	{r4, r5, lr}
 164              		.cfi_def_cfa_offset 12
 165              		.cfi_offset 4, -12
 166              		.cfi_offset 5, -8
 167              		.cfi_offset 14, -4
  57:../USER/main.c **** 	GPIO_InitType.GPIO_Int = GPIO_Int_Disable;
 168              		.loc 1 57 26 view .LVU44
 169 0002 0123     		movs	r3, #1
  54:../USER/main.c **** 	GPIO_InitTypeDef GPIO_InitType;
 170              		.loc 1 54 1 view .LVU45
 171 0004 0546     		mov	r5, r0
  59:../USER/main.c ****   GPIO_SetBit(GPIO0,pin);
 172              		.loc 1 59 2 view .LVU46
 173 0006 074C     		ldr	r4, .L16
  54:../USER/main.c **** 	GPIO_InitTypeDef GPIO_InitType;
 174              		.loc 1 54 1 view .LVU47
 175 0008 83B0     		sub	sp, sp, #12
 176              		.cfi_def_cfa_offset 24
  59:../USER/main.c ****   GPIO_SetBit(GPIO0,pin);
 177              		.loc 1 59 2 view .LVU48
 178 000a 6946     		mov	r1, sp
 179 000c 2046     		mov	r0, r4
 180              	.LVL10:
  57:../USER/main.c **** 	GPIO_InitType.GPIO_Int = GPIO_Int_Disable;
 181              		.loc 1 57 26 view .LVU49
 182 000e ADF80430 		strh	r3, [sp, #4]	@ movhi
  56:../USER/main.c **** 	GPIO_InitType.GPIO_Mode = GPIO_Mode_OUT;
 183              		.loc 1 56 25 view .LVU50
 184 0012 0095     		str	r5, [sp]
  57:../USER/main.c **** 	GPIO_InitType.GPIO_Int = GPIO_Int_Disable;
 185              		.loc 1 57 2 is_stmt 1 view .LVU51
  58:../USER/main.c **** 	GPIO_Init(GPIO0,&GPIO_InitType);
 186              		.loc 1 58 2 view .LVU52
  59:../USER/main.c ****   GPIO_SetBit(GPIO0,pin);
 187              		.loc 1 59 2 view .LVU53
 188 0014 FFF7FEFF 		bl	GPIO_Init
 189              	.LVL11:
  60:../USER/main.c **** }
 190              		.loc 1 60 3 view .LVU54
 191 0018 2946     		mov	r1, r5
 192 001a 2046     		mov	r0, r4
 193 001c FFF7FEFF 		bl	GPIO_SetBit
 194              	.LVL12:
  61:../USER/main.c **** 
 195              		.loc 1 61 1 is_stmt 0 view .LVU55
 196 0020 03B0     		add	sp, sp, #12
 197              		.cfi_def_cfa_offset 12
 198              		@ sp needed
 199 0022 30BD     		pop	{r4, r5, pc}
 200              	.LVL13:
 201              	.L17:
  61:../USER/main.c **** 
 202              		.loc 1 61 1 view .LVU56
 203              		.align	2
 204              	.L16:
 205 0024 00000140 		.word	1073807360
 206              		.cfi_endproc
 207              	.LFE32:
 209              		.section	.text.UartInit,"ax",%progbits
 210              		.align	1
 211              		.p2align 2,,3
 212              		.global	UartInit
 213              		.syntax unified
 214              		.thumb
 215              		.thumb_func
 216              		.fpu softvfp
 218              	UartInit:
 219              	.LFB33:
  64:../USER/main.c ****   UART_InitTypeDef UART_InitStruct;
 220              		.loc 1 64 1 is_stmt 1 view -0
 221              		.cfi_startproc
 222              		@ args = 0, pretend = 0, frame = 16
 223              		@ frame_needed = 0, uses_anonymous_args = 0
  65:../USER/main.c **** 
 224              		.loc 1 65 3 view .LVU58
  67:../USER/main.c ****   UART_InitStruct.UART_Mode.UARTMode_Rx = ENABLE;
 225              		.loc 1 67 3 view .LVU59
  68:../USER/main.c ****   UART_InitStruct.UART_Int.UARTInt_Tx = DISABLE;
 226              		.loc 1 68 3 view .LVU60
  69:../USER/main.c ****   UART_InitStruct.UART_Int.UARTInt_Rx = DISABLE;
 227              		.loc 1 69 3 view .LVU61
  70:../USER/main.c ****   UART_InitStruct.UART_Ovr.UARTOvr_Tx = DISABLE;
 228              		.loc 1 70 3 view .LVU62
  71:../USER/main.c ****   UART_InitStruct.UART_Ovr.UARTOvr_Rx = DISABLE;
 229              		.loc 1 71 3 view .LVU63
  72:../USER/main.c ****   UART_InitStruct.UART_Hstm = DISABLE;
 230              		.loc 1 72 3 view .LVU64
  73:../USER/main.c ****   UART_InitStruct.UART_BaudRate = 115200*80/72;//Baud Rate
 231              		.loc 1 73 3 view .LVU65
  74:../USER/main.c ****   UART_Init(UART0,&UART_InitStruct);
 232              		.loc 1 74 3 view .LVU66
  64:../USER/main.c ****   UART_InitTypeDef UART_InitStruct;
 233              		.loc 1 64 1 is_stmt 0 view .LVU67
 234 0000 10B5     		push	{r4, lr}
 235              		.cfi_def_cfa_offset 8
 236              		.cfi_offset 4, -8
 237              		.cfi_offset 14, -4
  71:../USER/main.c ****   UART_InitStruct.UART_Ovr.UARTOvr_Rx = DISABLE;
 238              		.loc 1 71 39 view .LVU68
 239 0002 0023     		movs	r3, #0
  67:../USER/main.c ****   UART_InitStruct.UART_Mode.UARTMode_Rx = ENABLE;
 240              		.loc 1 67 41 view .LVU69
 241 0004 40F20112 		movw	r2, #257
  74:../USER/main.c ****   UART_Init(UART0,&UART_InitStruct);
 242              		.loc 1 74 33 view .LVU70
 243 0008 4FF4FA34 		mov	r4, #128000
  64:../USER/main.c ****   UART_InitTypeDef UART_InitStruct;
 244              		.loc 1 64 1 view .LVU71
 245 000c 84B0     		sub	sp, sp, #16
 246              		.cfi_def_cfa_offset 24
  75:../USER/main.c **** }
 247              		.loc 1 75 3 view .LVU72
 248 000e 01A9     		add	r1, sp, #4
 249 0010 4FF04020 		mov	r0, #1073758208
  67:../USER/main.c ****   UART_InitStruct.UART_Mode.UARTMode_Rx = ENABLE;
 250              		.loc 1 67 41 view .LVU73
 251 0014 CDE90142 		strd	r4, r2, [sp, #4]
  71:../USER/main.c ****   UART_InitStruct.UART_Ovr.UARTOvr_Rx = DISABLE;
 252              		.loc 1 71 39 view .LVU74
 253 0018 ADF80C30 		strh	r3, [sp, #12]	@ movhi
  73:../USER/main.c ****   UART_InitStruct.UART_BaudRate = 115200*80/72;//Baud Rate
 254              		.loc 1 73 29 view .LVU75
 255 001c 8DF80E30 		strb	r3, [sp, #14]
  75:../USER/main.c **** }
 256              		.loc 1 75 3 is_stmt 1 view .LVU76
 257 0020 FFF7FEFF 		bl	UART_Init
 258              	.LVL14:
  76:../USER/main.c **** 
 259              		.loc 1 76 1 is_stmt 0 view .LVU77
 260 0024 04B0     		add	sp, sp, #16
 261              		.cfi_def_cfa_offset 8
 262              		@ sp needed
 263 0026 10BD     		pop	{r4, pc}
 264              		.cfi_endproc
 265              	.LFE33:
 267              		.section	.text.SPIInit,"ax",%progbits
 268              		.align	1
 269              		.p2align 2,,3
 270              		.global	SPIInit
 271              		.syntax unified
 272              		.thumb
 273              		.thumb_func
 274              		.fpu softvfp
 276              	SPIInit:
 277              	.LFB34:
  80:../USER/main.c **** 	SPI_InitTypeDef init_spi;
 278              		.loc 1 80 1 is_stmt 1 view -0
 279              		.cfi_startproc
 280              		@ args = 0, pretend = 0, frame = 8
 281              		@ frame_needed = 0, uses_anonymous_args = 0
  81:../USER/main.c ****   init_spi.CLKSEL= CLKSEL_CLK_DIV_4;		//80MHZ / 8
 282              		.loc 1 81 2 view .LVU79
  82:../USER/main.c ****   init_spi.DIRECTION = DISABLE;					//MSB First
 283              		.loc 1 82 3 view .LVU80
  83:../USER/main.c ****   init_spi.PHASE =DISABLE;							//ENABLE;//posedge
 284              		.loc 1 83 3 view .LVU81
  84:../USER/main.c ****   init_spi.POLARITY =DISABLE;						//polarity 0
 285              		.loc 1 84 3 view .LVU82
  85:../USER/main.c ****   SPI_Init(&init_spi);
 286              		.loc 1 85 3 view .LVU83
  83:../USER/main.c ****   init_spi.PHASE =DISABLE;							//ENABLE;//posedge
 287              		.loc 1 83 22 is_stmt 0 view .LVU84
 288 0000 4FF08073 		mov	r3, #16777216
  80:../USER/main.c **** 	SPI_InitTypeDef init_spi;
 289              		.loc 1 80 1 view .LVU85
 290 0004 00B5     		push	{lr}
 291              		.cfi_def_cfa_offset 4
 292              		.cfi_offset 14, -4
 293 0006 83B0     		sub	sp, sp, #12
 294              		.cfi_def_cfa_offset 16
  86:../USER/main.c **** }
 295              		.loc 1 86 3 view .LVU86
 296 0008 01A8     		add	r0, sp, #4
  83:../USER/main.c ****   init_spi.PHASE =DISABLE;							//ENABLE;//posedge
 297              		.loc 1 83 22 view .LVU87
 298 000a 0193     		str	r3, [sp, #4]
  86:../USER/main.c **** }
 299              		.loc 1 86 3 is_stmt 1 view .LVU88
 300 000c FFF7FEFF 		bl	SPI_Init
 301              	.LVL15:
  87:../USER/main.c **** //delay ms
 302              		.loc 1 87 1 is_stmt 0 view .LVU89
 303 0010 03B0     		add	sp, sp, #12
 304              		.cfi_def_cfa_offset 4
 305              		@ sp needed
 306 0012 5DF804FB 		ldr	pc, [sp], #4
 307              		.cfi_endproc
 308              	.LFE34:
 310 0016 00BF     		.section	.text.delay_ms,"ax",%progbits
 311              		.align	1
 312              		.p2align 2,,3
 313              		.global	delay_ms
 314              		.syntax unified
 315              		.thumb
 316              		.thumb_func
 317              		.fpu softvfp
 319              	delay_ms:
 320              	.LVL16:
 321              	.LFB35:
  89:../USER/main.c **** 	for(delay_ms=(SystemCoreClock>>13)*delay_ms; delay_ms != 0; delay_ms--);
 322              		.loc 1 89 39 is_stmt 1 view -0
 323              		.cfi_startproc
 324              		@ args = 0, pretend = 0, frame = 8
 325              		@ frame_needed = 0, uses_anonymous_args = 0
 326              		@ link register save eliminated.
  90:../USER/main.c **** }
 327              		.loc 1 90 2 view .LVU91
  90:../USER/main.c **** }
 328              		.loc 1 90 31 is_stmt 0 view .LVU92
 329 0000 094B     		ldr	r3, .L30
  89:../USER/main.c **** 	for(delay_ms=(SystemCoreClock>>13)*delay_ms; delay_ms != 0; delay_ms--);
 330              		.loc 1 89 39 view .LVU93
 331 0002 82B0     		sub	sp, sp, #8
 332              		.cfi_def_cfa_offset 8
  89:../USER/main.c **** 	for(delay_ms=(SystemCoreClock>>13)*delay_ms; delay_ms != 0; delay_ms--);
 333              		.loc 1 89 39 view .LVU94
 334 0004 0190     		str	r0, [sp, #4]
  90:../USER/main.c **** }
 335              		.loc 1 90 31 view .LVU95
 336 0006 1A68     		ldr	r2, [r3]
  90:../USER/main.c **** }
 337              		.loc 1 90 36 view .LVU96
 338 0008 019B     		ldr	r3, [sp, #4]
  90:../USER/main.c **** }
 339              		.loc 1 90 31 view .LVU97
 340 000a 520B     		lsrs	r2, r2, #13
  90:../USER/main.c **** }
 341              		.loc 1 90 36 view .LVU98
 342 000c 03FB02F3 		mul	r3, r3, r2
  90:../USER/main.c **** }
 343              		.loc 1 90 14 view .LVU99
 344 0010 0193     		str	r3, [sp, #4]
  90:../USER/main.c **** }
 345              		.loc 1 90 56 view .LVU100
 346 0012 019B     		ldr	r3, [sp, #4]
  90:../USER/main.c **** }
 347              		.loc 1 90 2 view .LVU101
 348 0014 2BB1     		cbz	r3, .L22
 349              	.L24:
  90:../USER/main.c **** }
 350              		.loc 1 90 73 is_stmt 1 discriminator 3 view .LVU102
  90:../USER/main.c **** }
 351              		.loc 1 90 70 is_stmt 0 discriminator 3 view .LVU103
 352 0016 019B     		ldr	r3, [sp, #4]
 353 0018 013B     		subs	r3, r3, #1
 354 001a 0193     		str	r3, [sp, #4]
  90:../USER/main.c **** }
 355              		.loc 1 90 56 discriminator 3 view .LVU104
 356 001c 019B     		ldr	r3, [sp, #4]
  90:../USER/main.c **** }
 357              		.loc 1 90 2 discriminator 3 view .LVU105
 358 001e 002B     		cmp	r3, #0
 359 0020 F9D1     		bne	.L24
 360              	.L22:
  91:../USER/main.c **** 
 361              		.loc 1 91 1 view .LVU106
 362 0022 02B0     		add	sp, sp, #8
 363              		.cfi_def_cfa_offset 0
 364              		@ sp needed
 365 0024 7047     		bx	lr
 366              	.L31:
 367 0026 00BF     		.align	2
 368              	.L30:
 369 0028 00000000 		.word	SystemCoreClock
 370              		.cfi_endproc
 371              	.LFE35:
 373              		.section	.text.check_gpio,"ax",%progbits
 374              		.align	1
 375              		.p2align 2,,3
 376              		.global	check_gpio
 377              		.syntax unified
 378              		.thumb
 379              		.thumb_func
 380              		.fpu softvfp
 382              	check_gpio:
 383              	.LFB36:
  94:../USER/main.c **** 	int i;
 384              		.loc 1 94 18 is_stmt 1 view -0
 385              		.cfi_startproc
 386              		@ args = 0, pretend = 0, frame = 0
 387              		@ frame_needed = 0, uses_anonymous_args = 0
  95:../USER/main.c **** 	mdgpio = GPIO_ReadBits(GPIO0);	// ukey2 = bit13
 388              		.loc 1 95 2 view .LVU108
  96:../USER/main.c **** 	mdgpioi = mdgpio; mdgpio = mdgpio & 0xdfff;		// bit13.clear
 389              		.loc 1 96 2 view .LVU109
  94:../USER/main.c **** 	int i;
 390              		.loc 1 94 18 is_stmt 0 view .LVU110
 391 0000 70B5     		push	{r4, r5, r6, lr}
 392              		.cfi_def_cfa_offset 16
 393              		.cfi_offset 4, -16
 394              		.cfi_offset 5, -12
 395              		.cfi_offset 6, -8
 396              		.cfi_offset 14, -4
  96:../USER/main.c **** 	mdgpioi = mdgpio; mdgpio = mdgpio & 0xdfff;		// bit13.clear
 397              		.loc 1 96 11 view .LVU111
 398 0002 1548     		ldr	r0, .L48
 399 0004 FFF7FEFF 		bl	GPIO_ReadBits
 400              	.LVL17:
  97:../USER/main.c **** 	for(i=0;i<2;i++){
 401              		.loc 1 97 2 is_stmt 1 view .LVU112
  97:../USER/main.c **** 	for(i=0;i<2;i++){
 402              		.loc 1 97 36 is_stmt 0 view .LVU113
 403 0008 4DF6FF73 		movw	r3, #57343
  97:../USER/main.c **** 	for(i=0;i<2;i++){
 404              		.loc 1 97 27 view .LVU114
 405 000c 0225     		movs	r5, #2
  97:../USER/main.c **** 	for(i=0;i<2;i++){
 406              		.loc 1 97 10 view .LVU115
 407 000e 1349     		ldr	r1, .L48+4
  97:../USER/main.c **** 	for(i=0;i<2;i++){
 408              		.loc 1 97 27 view .LVU116
 409 0010 134A     		ldr	r2, .L48+8
  97:../USER/main.c **** 	for(i=0;i<2;i++){
 410              		.loc 1 97 36 view .LVU117
 411 0012 0340     		ands	r3, r3, r0
 412 0014 134E     		ldr	r6, .L48+12
  99:../USER/main.c **** 		GPIO_WriteBits(GPIO0,0x00); delay_ms(50);
 413              		.loc 1 99 3 view .LVU118
 414 0016 104C     		ldr	r4, .L48
  97:../USER/main.c **** 	for(i=0;i<2;i++){
 415              		.loc 1 97 10 view .LVU119
 416 0018 0860     		str	r0, [r1]
  97:../USER/main.c **** 	for(i=0;i<2;i++){
 417              		.loc 1 97 20 is_stmt 1 view .LVU120
  97:../USER/main.c **** 	for(i=0;i<2;i++){
 418              		.loc 1 97 27 is_stmt 0 view .LVU121
 419 001a 1360     		str	r3, [r2]
  98:../USER/main.c **** 		GPIO_WriteBits(GPIO0,0x03); delay_ms(50);
 420              		.loc 1 98 2 is_stmt 1 view .LVU122
 421              	.LVL18:
 422              	.L37:
  99:../USER/main.c **** 		GPIO_WriteBits(GPIO0,0x00); delay_ms(50);
 423              		.loc 1 99 3 discriminator 3 view .LVU123
 424 001c 0321     		movs	r1, #3
 425 001e 2046     		mov	r0, r4
 426 0020 FFF7FEFF 		bl	GPIO_WriteBits
 427              	.LVL19:
  99:../USER/main.c **** 		GPIO_WriteBits(GPIO0,0x00); delay_ms(50);
 428              		.loc 1 99 31 discriminator 3 view .LVU124
 429 0024 3223     		movs	r3, #50
 430              	.LVL20:
 431              	.LBB123:
 432              	.LBI123:
  89:../USER/main.c **** 	for(delay_ms=(SystemCoreClock>>13)*delay_ms; delay_ms != 0; delay_ms--);
 433              		.loc 1 89 6 discriminator 3 view .LVU125
 434              	.LBB124:
  90:../USER/main.c **** }
 435              		.loc 1 90 2 discriminator 3 view .LVU126
  90:../USER/main.c **** }
 436              		.loc 1 90 31 is_stmt 0 discriminator 3 view .LVU127
 437 0026 3268     		ldr	r2, [r6]
 438 0028 520B     		lsrs	r2, r2, #13
  90:../USER/main.c **** }
 439              		.loc 1 90 36 discriminator 3 view .LVU128
 440 002a 03FB02F3 		mul	r3, r3, r2
  90:../USER/main.c **** }
 441              		.loc 1 90 2 discriminator 3 view .LVU129
 442 002e 0BB1     		cbz	r3, .L33
 443              	.L34:
  90:../USER/main.c **** }
 444              		.loc 1 90 73 is_stmt 1 view .LVU130
  90:../USER/main.c **** }
 445              		.loc 1 90 2 is_stmt 0 view .LVU131
 446 0030 013B     		subs	r3, r3, #1
 447 0032 FDD1     		bne	.L34
 448              	.L33:
 449              	.LVL21:
  90:../USER/main.c **** }
 450              		.loc 1 90 2 view .LVU132
 451              	.LBE124:
 452              	.LBE123:
 100:../USER/main.c **** 	}
 453              		.loc 1 100 3 is_stmt 1 view .LVU133
 454 0034 0021     		movs	r1, #0
 455 0036 2046     		mov	r0, r4
 456 0038 FFF7FEFF 		bl	GPIO_WriteBits
 457              	.LVL22:
 100:../USER/main.c **** 	}
 458              		.loc 1 100 31 view .LVU134
 459 003c 3223     		movs	r3, #50
 460              	.LVL23:
 461              	.LBB125:
 462              	.LBI125:
  89:../USER/main.c **** 	for(delay_ms=(SystemCoreClock>>13)*delay_ms; delay_ms != 0; delay_ms--);
 463              		.loc 1 89 6 view .LVU135
 464              	.LBB126:
  90:../USER/main.c **** }
 465              		.loc 1 90 2 view .LVU136
  90:../USER/main.c **** }
 466              		.loc 1 90 31 is_stmt 0 view .LVU137
 467 003e 3268     		ldr	r2, [r6]
 468 0040 520B     		lsrs	r2, r2, #13
  90:../USER/main.c **** }
 469              		.loc 1 90 36 view .LVU138
 470 0042 03FB02F3 		mul	r3, r3, r2
  90:../USER/main.c **** }
 471              		.loc 1 90 2 view .LVU139
 472 0046 0BB1     		cbz	r3, .L35
 473              	.L36:
  90:../USER/main.c **** }
 474              		.loc 1 90 73 is_stmt 1 view .LVU140
  90:../USER/main.c **** }
 475              		.loc 1 90 2 is_stmt 0 view .LVU141
 476 0048 013B     		subs	r3, r3, #1
 477 004a FDD1     		bne	.L36
 478              	.L35:
 479              	.LVL24:
  90:../USER/main.c **** }
 480              		.loc 1 90 2 view .LVU142
 481              	.LBE126:
 482              	.LBE125:
  98:../USER/main.c **** 		GPIO_WriteBits(GPIO0,0x03); delay_ms(50);
 483              		.loc 1 98 2 view .LVU143
 484 004c 012D     		cmp	r5, #1
 485 004e 00D1     		bne	.L38
 102:../USER/main.c **** 
 486              		.loc 1 102 1 view .LVU144
 487 0050 70BD     		pop	{r4, r5, r6, pc}
 488              	.L38:
 489 0052 0125     		movs	r5, #1
 490 0054 E2E7     		b	.L37
 491              	.L49:
 492 0056 00BF     		.align	2
 493              	.L48:
 494 0058 00000140 		.word	1073807360
 495 005c 00000000 		.word	mdgpioi
 496 0060 00000000 		.word	mdgpio
 497 0064 00000000 		.word	SystemCoreClock
 498              		.cfi_endproc
 499              	.LFE36:
 501              		.section	.text.setsup,"ax",%progbits
 502              		.align	1
 503              		.p2align 2,,3
 504              		.global	setsup
 505              		.syntax unified
 506              		.thumb
 507              		.thumb_func
 508              		.fpu softvfp
 510              	setsup:
 511              	.LVL25:
 512              	.LFB37:
 108:../USER/main.c ****   while(*buf!=0x0d){
 513              		.loc 1 108 28 is_stmt 1 view -0
 514              		.cfi_startproc
 515              		@ args = 0, pretend = 0, frame = 0
 516              		@ frame_needed = 0, uses_anonymous_args = 0
 517              		@ link register save eliminated.
 109:../USER/main.c ****    if( *buf>='a' && *buf<='z') *buf = *buf - 0x20;
 518              		.loc 1 109 3 view .LVU146
 109:../USER/main.c ****    if( *buf>='a' && *buf<='z') *buf = *buf - 0x20;
 519              		.loc 1 109 9 is_stmt 0 view .LVU147
 520 0000 90F90030 		ldrsb	r3, [r0]
 109:../USER/main.c ****    if( *buf>='a' && *buf<='z') *buf = *buf - 0x20;
 521              		.loc 1 109 8 view .LVU148
 522 0004 0D2B     		cmp	r3, #13
 523 0006 0FD0     		beq	.L50
 524              	.LVL26:
 525              	.L54:
 110:../USER/main.c ****    buf++;
 526              		.loc 1 110 4 is_stmt 1 view .LVU149
 110:../USER/main.c ****    buf++;
 527              		.loc 1 110 32 view .LVU150
 111:../USER/main.c ****   }
 528              		.loc 1 111 4 view .LVU151
 110:../USER/main.c ****    buf++;
 529              		.loc 1 110 18 is_stmt 0 view .LVU152
 530 0008 DBB2     		uxtb	r3, r3
 110:../USER/main.c ****    buf++;
 531              		.loc 1 110 44 view .LVU153
 532 000a A3F12002 		sub	r2, r3, #32
 110:../USER/main.c ****    buf++;
 533              		.loc 1 110 6 view .LVU154
 534 000e 613B     		subs	r3, r3, #97
 535 0010 192B     		cmp	r3, #25
 536 0012 05D8     		bhi	.L52
 110:../USER/main.c ****    buf++;
 537              		.loc 1 110 37 discriminator 1 view .LVU155
 538 0014 0270     		strb	r2, [r0]
 111:../USER/main.c ****   }
 539              		.loc 1 111 4 is_stmt 1 discriminator 1 view .LVU156
 109:../USER/main.c ****    if( *buf>='a' && *buf<='z') *buf = *buf - 0x20;
 540              		.loc 1 109 9 is_stmt 0 discriminator 1 view .LVU157
 541 0016 10F9013F 		ldrsb	r3, [r0, #1]!
 542              	.LVL27:
 109:../USER/main.c ****    if( *buf>='a' && *buf<='z') *buf = *buf - 0x20;
 543              		.loc 1 109 8 discriminator 1 view .LVU158
 544 001a 0D2B     		cmp	r3, #13
 545 001c F4D1     		bne	.L54
 546 001e 7047     		bx	lr
 547              	.LVL28:
 548              	.L52:
 109:../USER/main.c ****    if( *buf>='a' && *buf<='z') *buf = *buf - 0x20;
 549              		.loc 1 109 9 view .LVU159
 550 0020 10F9013F 		ldrsb	r3, [r0, #1]!
 551              	.LVL29:
 109:../USER/main.c ****    if( *buf>='a' && *buf<='z') *buf = *buf - 0x20;
 552              		.loc 1 109 8 view .LVU160
 553 0024 0D2B     		cmp	r3, #13
 554 0026 EFD1     		bne	.L54
 555              	.LVL30:
 556              	.L50:
 113:../USER/main.c **** char kinbuf[256];
 557              		.loc 1 113 1 view .LVU161
 558 0028 7047     		bx	lr
 559              		.cfi_endproc
 560              	.LFE37:
 562 002a 00BF     		.section	.text.key_check,"ax",%progbits
 563              		.align	1
 564              		.p2align 2,,3
 565              		.global	key_check
 566              		.syntax unified
 567              		.thumb
 568              		.thumb_func
 569              		.fpu softvfp
 571              	key_check:
 572              	.LFB38:
 116:../USER/main.c **** 	char ch;
 573              		.loc 1 116 18 is_stmt 1 view -0
 574              		.cfi_startproc
 575              		@ args = 0, pretend = 0, frame = 0
 576              		@ frame_needed = 0, uses_anonymous_args = 0
 117:../USER/main.c **** 	//
 577              		.loc 1 117 2 view .LVU163
 119:../USER/main.c **** 	if(ch!=0) kinbuf[kinbwp++] = ch;
 578              		.loc 1 119 2 view .LVU164
 116:../USER/main.c **** 	char ch;
 579              		.loc 1 116 18 is_stmt 0 view .LVU165
 580 0000 10B5     		push	{r4, lr}
 581              		.cfi_def_cfa_offset 8
 582              		.cfi_offset 4, -8
 583              		.cfi_offset 14, -4
 119:../USER/main.c **** 	if(ch!=0) kinbuf[kinbwp++] = ch;
 584              		.loc 1 119 7 view .LVU166
 585 0002 FFF7FEFF 		bl	SPI_ReadData
 586              	.LVL31:
 119:../USER/main.c **** 	if(ch!=0) kinbuf[kinbwp++] = ch;
 587              		.loc 1 119 5 view .LVU167
 588 0006 40B2     		sxtb	r0, r0
 589              	.LVL32:
 120:../USER/main.c **** 	if(kinbwp>=256) kinbwp = 0;
 590              		.loc 1 120 2 is_stmt 1 view .LVU168
 120:../USER/main.c **** 	if(kinbwp>=256) kinbwp = 0;
 591              		.loc 1 120 25 is_stmt 0 view .LVU169
 592 0008 0E4A     		ldr	r2, .L70
 120:../USER/main.c **** 	if(kinbwp>=256) kinbwp = 0;
 593              		.loc 1 120 4 view .LVU170
 594 000a A0B9     		cbnz	r0, .L62
 595 000c 1368     		ldr	r3, [r2]
 596              	.L63:
 121:../USER/main.c **** 	//
 597              		.loc 1 121 2 is_stmt 1 view .LVU171
 121:../USER/main.c **** 	//
 598              		.loc 1 121 4 is_stmt 0 view .LVU172
 599 000e FF2B     		cmp	r3, #255
 600 0010 01DD     		ble	.L64
 121:../USER/main.c **** 	//
 601              		.loc 1 121 18 is_stmt 1 discriminator 1 view .LVU173
 121:../USER/main.c **** 	//
 602              		.loc 1 121 25 is_stmt 0 discriminator 1 view .LVU174
 603 0012 0023     		movs	r3, #0
 604 0014 1360     		str	r3, [r2]
 605              	.L64:
 123:../USER/main.c **** 	if(kinbwp>=256) kinbwp = 0;
 606              		.loc 1 123 2 is_stmt 1 view .LVU175
 123:../USER/main.c **** 	if(kinbwp>=256) kinbwp = 0;
 607              		.loc 1 123 11 is_stmt 0 view .LVU176
 608 0016 4FF04021 		mov	r1, #1073758208
 609 001a 4868     		ldr	r0, [r1, #4]
 610              	.LVL33:
 123:../USER/main.c **** 	if(kinbwp>=256) kinbwp = 0;
 611              		.loc 1 123 4 view .LVU177
 612 001c 8007     		lsls	r0, r0, #30
 613 001e 09D5     		bpl	.L61
 123:../USER/main.c **** 	if(kinbwp>=256) kinbwp = 0;
 614              		.loc 1 123 39 is_stmt 1 discriminator 1 view .LVU178
 123:../USER/main.c **** 	if(kinbwp>=256) kinbwp = 0;
 615              		.loc 1 123 63 is_stmt 0 discriminator 1 view .LVU179
 616 0020 0C68     		ldr	r4, [r1]
 123:../USER/main.c **** 	if(kinbwp>=256) kinbwp = 0;
 617              		.loc 1 123 56 discriminator 1 view .LVU180
 618 0022 0948     		ldr	r0, .L70+4
 123:../USER/main.c **** 	if(kinbwp>=256) kinbwp = 0;
 619              		.loc 1 123 52 discriminator 1 view .LVU181
 620 0024 591C     		adds	r1, r3, #1
 124:../USER/main.c **** 	//
 621              		.loc 1 124 4 discriminator 1 view .LVU182
 622 0026 B1F5807F 		cmp	r1, #256
 123:../USER/main.c **** 	if(kinbwp>=256) kinbwp = 0;
 623              		.loc 1 123 56 discriminator 1 view .LVU183
 624 002a C454     		strb	r4, [r0, r3]
 124:../USER/main.c **** 	//
 625              		.loc 1 124 2 is_stmt 1 discriminator 1 view .LVU184
 123:../USER/main.c **** 	if(kinbwp>=256) kinbwp = 0;
 626              		.loc 1 123 52 is_stmt 0 discriminator 1 view .LVU185
 627 002c 1160     		str	r1, [r2]
 124:../USER/main.c **** 	//
 628              		.loc 1 124 4 discriminator 1 view .LVU186
 629 002e 01D1     		bne	.L61
 124:../USER/main.c **** 	//
 630              		.loc 1 124 18 is_stmt 1 discriminator 1 view .LVU187
 124:../USER/main.c **** 	//
 631              		.loc 1 124 25 is_stmt 0 discriminator 1 view .LVU188
 632 0030 0023     		movs	r3, #0
 633 0032 1360     		str	r3, [r2]
 634              	.L61:
 126:../USER/main.c **** char getch_uart(void){
 635              		.loc 1 126 1 view .LVU189
 636 0034 10BD     		pop	{r4, pc}
 637              	.LVL34:
 638              	.L62:
 120:../USER/main.c **** 	if(kinbwp>=256) kinbwp = 0;
 639              		.loc 1 120 12 is_stmt 1 discriminator 1 view .LVU190
 120:../USER/main.c **** 	if(kinbwp>=256) kinbwp = 0;
 640              		.loc 1 120 25 is_stmt 0 discriminator 1 view .LVU191
 641 0036 1168     		ldr	r1, [r2]
 120:../USER/main.c **** 	if(kinbwp>=256) kinbwp = 0;
 642              		.loc 1 120 29 discriminator 1 view .LVU192
 643 0038 034C     		ldr	r4, .L70+4
 120:../USER/main.c **** 	if(kinbwp>=256) kinbwp = 0;
 644              		.loc 1 120 25 discriminator 1 view .LVU193
 645 003a 4B1C     		adds	r3, r1, #1
 120:../USER/main.c **** 	if(kinbwp>=256) kinbwp = 0;
 646              		.loc 1 120 29 discriminator 1 view .LVU194
 647 003c 6054     		strb	r0, [r4, r1]
 120:../USER/main.c **** 	if(kinbwp>=256) kinbwp = 0;
 648              		.loc 1 120 25 discriminator 1 view .LVU195
 649 003e 1360     		str	r3, [r2]
 650 0040 E5E7     		b	.L63
 651              	.L71:
 652 0042 00BF     		.align	2
 653              	.L70:
 654 0044 00000000 		.word	.LANCHOR0
 655 0048 00000000 		.word	kinbuf
 656              		.cfi_endproc
 657              	.LFE38:
 659              		.section	.text.getch_uart,"ax",%progbits
 660              		.align	1
 661              		.p2align 2,,3
 662              		.global	getch_uart
 663              		.syntax unified
 664              		.thumb
 665              		.thumb_func
 666              		.fpu softvfp
 668              	getch_uart:
 669              	.LFB39:
 127:../USER/main.c **** 	char dt;
 670              		.loc 1 127 22 is_stmt 1 view -0
 671              		.cfi_startproc
 672              		@ args = 0, pretend = 0, frame = 0
 673              		@ frame_needed = 0, uses_anonymous_args = 0
 128:../USER/main.c **** 	while(kinbrp==kinbwp) key_check();
 674              		.loc 1 128 2 view .LVU197
 129:../USER/main.c **** 	dt = kinbuf[kinbrp++];
 675              		.loc 1 129 2 view .LVU198
 127:../USER/main.c **** 	char dt;
 676              		.loc 1 127 22 is_stmt 0 view .LVU199
 677 0000 2DE9F041 		push	{r4, r5, r6, r7, r8, lr}
 678              		.cfi_def_cfa_offset 24
 679              		.cfi_offset 4, -24
 680              		.cfi_offset 5, -20
 681              		.cfi_offset 6, -16
 682              		.cfi_offset 7, -12
 683              		.cfi_offset 8, -8
 684              		.cfi_offset 14, -4
 685              	.LBB129:
 686              	.LBB130:
 123:../USER/main.c **** 	if(kinbwp>=256) kinbwp = 0;
 687              		.loc 1 123 11 view .LVU200
 688 0004 4FF04025 		mov	r5, #1073758208
 123:../USER/main.c **** 	if(kinbwp>=256) kinbwp = 0;
 689              		.loc 1 123 52 view .LVU201
 690 0008 4FF00108 		mov	r8, #1
 691 000c 1C4C     		ldr	r4, .L89
 692 000e 1D4F     		ldr	r7, .L89+4
 693 0010 2368     		ldr	r3, [r4]
 694 0012 1D4E     		ldr	r6, .L89+8
 695              	.L80:
 696              	.LBE130:
 697              	.LBE129:
 129:../USER/main.c **** 	dt = kinbuf[kinbrp++];
 698              		.loc 1 129 14 discriminator 1 view .LVU202
 699 0014 3268     		ldr	r2, [r6]
 129:../USER/main.c **** 	dt = kinbuf[kinbrp++];
 700              		.loc 1 129 7 discriminator 1 view .LVU203
 701 0016 9A42     		cmp	r2, r3
 702 0018 29D1     		bne	.L87
 703              	.L81:
 129:../USER/main.c **** 	dt = kinbuf[kinbrp++];
 704              		.loc 1 129 24 is_stmt 1 view .LVU204
 705              	.LBB132:
 706              	.LBI129:
 116:../USER/main.c **** 	char ch;
 707              		.loc 1 116 6 view .LVU205
 708              	.LBB131:
 117:../USER/main.c **** 	//
 709              		.loc 1 117 2 view .LVU206
 119:../USER/main.c **** 	if(ch!=0) kinbuf[kinbwp++] = ch;
 710              		.loc 1 119 2 view .LVU207
 119:../USER/main.c **** 	if(ch!=0) kinbuf[kinbwp++] = ch;
 711              		.loc 1 119 7 is_stmt 0 view .LVU208
 712 001a FFF7FEFF 		bl	SPI_ReadData
 713              	.LVL35:
 119:../USER/main.c **** 	if(ch!=0) kinbuf[kinbwp++] = ch;
 714              		.loc 1 119 5 view .LVU209
 715 001e 40B2     		sxtb	r0, r0
 716              	.LVL36:
 120:../USER/main.c **** 	if(kinbwp>=256) kinbwp = 0;
 717              		.loc 1 120 2 is_stmt 1 view .LVU210
 120:../USER/main.c **** 	if(kinbwp>=256) kinbwp = 0;
 718              		.loc 1 120 4 is_stmt 0 view .LVU211
 719 0020 78B9     		cbnz	r0, .L74
 720 0022 2368     		ldr	r3, [r4]
 121:../USER/main.c **** 	//
 721              		.loc 1 121 2 is_stmt 1 view .LVU212
 121:../USER/main.c **** 	//
 722              		.loc 1 121 4 is_stmt 0 view .LVU213
 723 0024 FF2B     		cmp	r3, #255
 724 0026 12DD     		ble	.L76
 725              	.L88:
 121:../USER/main.c **** 	//
 726              		.loc 1 121 18 is_stmt 1 view .LVU214
 121:../USER/main.c **** 	//
 727              		.loc 1 121 25 is_stmt 0 view .LVU215
 728 0028 0023     		movs	r3, #0
 729 002a 2360     		str	r3, [r4]
 123:../USER/main.c **** 	if(kinbwp>=256) kinbwp = 0;
 730              		.loc 1 123 2 is_stmt 1 view .LVU216
 123:../USER/main.c **** 	if(kinbwp>=256) kinbwp = 0;
 731              		.loc 1 123 11 is_stmt 0 view .LVU217
 732 002c 6B68     		ldr	r3, [r5, #4]
 123:../USER/main.c **** 	if(kinbwp>=256) kinbwp = 0;
 733              		.loc 1 123 4 view .LVU218
 734 002e 13F00203 		ands	r3, r3, #2
 735 0032 EFD0     		beq	.L80
 123:../USER/main.c **** 	if(kinbwp>=256) kinbwp = 0;
 736              		.loc 1 123 39 is_stmt 1 view .LVU219
 123:../USER/main.c **** 	if(kinbwp>=256) kinbwp = 0;
 737              		.loc 1 123 52 is_stmt 0 view .LVU220
 738 0034 0122     		movs	r2, #1
 123:../USER/main.c **** 	if(kinbwp>=256) kinbwp = 0;
 739              		.loc 1 123 63 view .LVU221
 740 0036 2B68     		ldr	r3, [r5]
 123:../USER/main.c **** 	if(kinbwp>=256) kinbwp = 0;
 741              		.loc 1 123 52 view .LVU222
 742 0038 C4F80080 		str	r8, [r4]
 123:../USER/main.c **** 	if(kinbwp>=256) kinbwp = 0;
 743              		.loc 1 123 56 view .LVU223
 744 003c 3B70     		strb	r3, [r7]
 124:../USER/main.c **** 	//
 745              		.loc 1 124 2 is_stmt 1 view .LVU224
 746              	.L84:
 123:../USER/main.c **** 	if(kinbwp>=256) kinbwp = 0;
 747              		.loc 1 123 4 is_stmt 0 view .LVU225
 748 003e 1346     		mov	r3, r2
 749 0040 E8E7     		b	.L80
 750              	.L74:
 120:../USER/main.c **** 	if(kinbwp>=256) kinbwp = 0;
 751              		.loc 1 120 12 is_stmt 1 view .LVU226
 120:../USER/main.c **** 	if(kinbwp>=256) kinbwp = 0;
 752              		.loc 1 120 25 is_stmt 0 view .LVU227
 753 0042 2268     		ldr	r2, [r4]
 754 0044 531C     		adds	r3, r2, #1
 121:../USER/main.c **** 	//
 755              		.loc 1 121 4 view .LVU228
 756 0046 FF2B     		cmp	r3, #255
 120:../USER/main.c **** 	if(kinbwp>=256) kinbwp = 0;
 757              		.loc 1 120 29 view .LVU229
 758 0048 B854     		strb	r0, [r7, r2]
 120:../USER/main.c **** 	if(kinbwp>=256) kinbwp = 0;
 759              		.loc 1 120 25 view .LVU230
 760 004a 2360     		str	r3, [r4]
 121:../USER/main.c **** 	//
 761              		.loc 1 121 2 is_stmt 1 view .LVU231
 121:../USER/main.c **** 	//
 762              		.loc 1 121 4 is_stmt 0 view .LVU232
 763 004c ECDC     		bgt	.L88
 764              	.L76:
 123:../USER/main.c **** 	if(kinbwp>=256) kinbwp = 0;
 765              		.loc 1 123 2 is_stmt 1 view .LVU233
 123:../USER/main.c **** 	if(kinbwp>=256) kinbwp = 0;
 766              		.loc 1 123 11 is_stmt 0 view .LVU234
 767 004e 6A68     		ldr	r2, [r5, #4]
 123:../USER/main.c **** 	if(kinbwp>=256) kinbwp = 0;
 768              		.loc 1 123 4 view .LVU235
 769 0050 9207     		lsls	r2, r2, #30
 770 0052 DFD5     		bpl	.L80
 123:../USER/main.c **** 	if(kinbwp>=256) kinbwp = 0;
 771              		.loc 1 123 39 is_stmt 1 view .LVU236
 123:../USER/main.c **** 	if(kinbwp>=256) kinbwp = 0;
 772              		.loc 1 123 63 is_stmt 0 view .LVU237
 773 0054 2968     		ldr	r1, [r5]
 123:../USER/main.c **** 	if(kinbwp>=256) kinbwp = 0;
 774              		.loc 1 123 52 view .LVU238
 775 0056 5A1C     		adds	r2, r3, #1
 124:../USER/main.c **** 	//
 776              		.loc 1 124 4 view .LVU239
 777 0058 B2F5807F 		cmp	r2, #256
 123:../USER/main.c **** 	if(kinbwp>=256) kinbwp = 0;
 778              		.loc 1 123 56 view .LVU240
 779 005c F954     		strb	r1, [r7, r3]
 124:../USER/main.c **** 	//
 780              		.loc 1 124 2 is_stmt 1 view .LVU241
 123:../USER/main.c **** 	if(kinbwp>=256) kinbwp = 0;
 781              		.loc 1 123 52 is_stmt 0 view .LVU242
 782 005e 2260     		str	r2, [r4]
 124:../USER/main.c **** 	//
 783              		.loc 1 124 4 view .LVU243
 784 0060 EDD1     		bne	.L84
 124:../USER/main.c **** 	//
 785              		.loc 1 124 18 is_stmt 1 view .LVU244
 124:../USER/main.c **** 	//
 786              		.loc 1 124 25 is_stmt 0 view .LVU245
 787 0062 0022     		movs	r2, #0
 788 0064 1346     		mov	r3, r2
 789 0066 2260     		str	r2, [r4]
 790              	.LBE131:
 791              	.LBE132:
 129:../USER/main.c **** 	dt = kinbuf[kinbrp++];
 792              		.loc 1 129 14 view .LVU246
 793 0068 3268     		ldr	r2, [r6]
 129:../USER/main.c **** 	dt = kinbuf[kinbrp++];
 794              		.loc 1 129 7 view .LVU247
 795 006a 9A42     		cmp	r2, r3
 796 006c D5D0     		beq	.L81
 797              	.LVL37:
 798              	.L87:
 130:../USER/main.c **** 	if(kinbrp>=256) kinbrp = 0;
 799              		.loc 1 130 2 is_stmt 1 view .LVU248
 130:../USER/main.c **** 	if(kinbrp>=256) kinbrp = 0;
 800              		.loc 1 130 20 is_stmt 0 view .LVU249
 801 006e 531C     		adds	r3, r2, #1
 131:../USER/main.c **** 	return dt;
 802              		.loc 1 131 4 view .LVU250
 803 0070 FF2B     		cmp	r3, #255
 130:../USER/main.c **** 	if(kinbrp>=256) kinbrp = 0;
 804              		.loc 1 130 5 view .LVU251
 805 0072 B856     		ldrsb	r0, [r7, r2]
 806              	.LVL38:
 131:../USER/main.c **** 	return dt;
 807              		.loc 1 131 2 is_stmt 1 view .LVU252
 130:../USER/main.c **** 	if(kinbrp>=256) kinbrp = 0;
 808              		.loc 1 130 20 is_stmt 0 view .LVU253
 809 0074 3360     		str	r3, [r6]
 131:../USER/main.c **** 	return dt;
 810              		.loc 1 131 4 view .LVU254
 811 0076 01DD     		ble	.L85
 131:../USER/main.c **** 	return dt;
 812              		.loc 1 131 18 is_stmt 1 discriminator 1 view .LVU255
 131:../USER/main.c **** 	return dt;
 813              		.loc 1 131 25 is_stmt 0 discriminator 1 view .LVU256
 814 0078 0023     		movs	r3, #0
 815 007a 3360     		str	r3, [r6]
 132:../USER/main.c **** }
 816              		.loc 1 132 2 is_stmt 1 discriminator 1 view .LVU257
 817              	.L85:
 133:../USER/main.c **** void putch_uart(char ch){
 818              		.loc 1 133 1 is_stmt 0 view .LVU258
 819 007c BDE8F081 		pop	{r4, r5, r6, r7, r8, pc}
 820              	.L90:
 821              		.align	2
 822              	.L89:
 823 0080 00000000 		.word	.LANCHOR0
 824 0084 00000000 		.word	kinbuf
 825 0088 00000000 		.word	.LANCHOR1
 826              		.cfi_endproc
 827              	.LFE39:
 829              		.section	.text.putch_uart,"ax",%progbits
 830              		.align	1
 831              		.p2align 2,,3
 832              		.global	putch_uart
 833              		.syntax unified
 834              		.thumb
 835              		.thumb_func
 836              		.fpu softvfp
 838              	putch_uart:
 839              	.LVL39:
 840              	.LFB40:
 134:../USER/main.c **** 	volatile uint32_t gpiord;
 841              		.loc 1 134 25 is_stmt 1 view -0
 842              		.cfi_startproc
 843              		@ args = 0, pretend = 0, frame = 8
 844              		@ frame_needed = 0, uses_anonymous_args = 0
 135:../USER/main.c **** 	if((mdgpio & 0x2000)==0)
 845              		.loc 1 135 2 view .LVU260
 136:../USER/main.c **** 		UART_SendChar(UART0,ch);
 846              		.loc 1 136 2 view .LVU261
 134:../USER/main.c **** 	volatile uint32_t gpiord;
 847              		.loc 1 134 25 is_stmt 0 view .LVU262
 848 0000 F0B5     		push	{r4, r5, r6, r7, lr}
 849              		.cfi_def_cfa_offset 20
 850              		.cfi_offset 4, -20
 851              		.cfi_offset 5, -16
 852              		.cfi_offset 6, -12
 853              		.cfi_offset 7, -8
 854              		.cfi_offset 14, -4
 136:../USER/main.c **** 		UART_SendChar(UART0,ch);
 855              		.loc 1 136 13 view .LVU263
 856 0002 324B     		ldr	r3, .L120
 134:../USER/main.c **** 	volatile uint32_t gpiord;
 857              		.loc 1 134 25 view .LVU264
 858 0004 83B0     		sub	sp, sp, #12
 859              		.cfi_def_cfa_offset 32
 136:../USER/main.c **** 		UART_SendChar(UART0,ch);
 860              		.loc 1 136 13 view .LVU265
 861 0006 1B68     		ldr	r3, [r3]
 134:../USER/main.c **** 	volatile uint32_t gpiord;
 862              		.loc 1 134 25 view .LVU266
 863 0008 0546     		mov	r5, r0
 136:../USER/main.c **** 		UART_SendChar(UART0,ch);
 864              		.loc 1 136 4 view .LVU267
 865 000a 9904     		lsls	r1, r3, #18
 866 000c 56D5     		bpl	.L116
 139:../USER/main.c **** 		while((gpiord & 0x4000)!=0) {
 867              		.loc 1 139 3 is_stmt 1 view .LVU268
 139:../USER/main.c **** 		while((gpiord & 0x4000)!=0) {
 868              		.loc 1 139 10 is_stmt 0 view .LVU269
 869 000e 4FF48043 		mov	r3, #16384
 870 0012 0193     		str	r3, [sp, #4]
 140:../USER/main.c **** 			key_check();
 871              		.loc 1 140 3 is_stmt 1 view .LVU270
 140:../USER/main.c **** 			key_check();
 872              		.loc 1 140 17 is_stmt 0 view .LVU271
 873 0014 019B     		ldr	r3, [sp, #4]
 874 0016 2E4C     		ldr	r4, .L120+4
 140:../USER/main.c **** 			key_check();
 875              		.loc 1 140 8 view .LVU272
 876 0018 5A04     		lsls	r2, r3, #17
 877 001a 26D5     		bpl	.L101
 878              	.LBB137:
 879              	.LBB138:
 120:../USER/main.c **** 	if(kinbwp>=256) kinbwp = 0;
 880              		.loc 1 120 29 view .LVU273
 881 001c 2D4F     		ldr	r7, .L120+8
 121:../USER/main.c **** 	//
 882              		.loc 1 121 25 view .LVU274
 883 001e 0026     		movs	r6, #0
 884 0020 19E0     		b	.L94
 885              	.LVL40:
 886              	.L117:
 121:../USER/main.c **** 	//
 887              		.loc 1 121 25 view .LVU275
 888 0022 2368     		ldr	r3, [r4]
 889              	.L97:
 121:../USER/main.c **** 	//
 890              		.loc 1 121 2 is_stmt 1 view .LVU276
 121:../USER/main.c **** 	//
 891              		.loc 1 121 18 view .LVU277
 121:../USER/main.c **** 	//
 892              		.loc 1 121 4 is_stmt 0 view .LVU278
 893 0024 FF2B     		cmp	r3, #255
 894 0026 01DD     		ble	.L98
 121:../USER/main.c **** 	//
 895              		.loc 1 121 25 view .LVU279
 896 0028 0023     		movs	r3, #0
 897 002a 2660     		str	r6, [r4]
 898              	.L98:
 123:../USER/main.c **** 	if(kinbwp>=256) kinbwp = 0;
 899              		.loc 1 123 39 is_stmt 1 view .LVU280
 123:../USER/main.c **** 	if(kinbwp>=256) kinbwp = 0;
 900              		.loc 1 123 2 view .LVU281
 123:../USER/main.c **** 	if(kinbwp>=256) kinbwp = 0;
 901              		.loc 1 123 11 is_stmt 0 view .LVU282
 902 002c 4FF04021 		mov	r1, #1073758208
 903 0030 4868     		ldr	r0, [r1, #4]
 904              	.LVL41:
 123:../USER/main.c **** 	if(kinbwp>=256) kinbwp = 0;
 905              		.loc 1 123 52 view .LVU283
 906 0032 5A1C     		adds	r2, r3, #1
 123:../USER/main.c **** 	if(kinbwp>=256) kinbwp = 0;
 907              		.loc 1 123 4 view .LVU284
 908 0034 8007     		lsls	r0, r0, #30
 909 0036 07D5     		bpl	.L100
 124:../USER/main.c **** 	//
 910              		.loc 1 124 25 view .LVU285
 911 0038 B2F5807F 		cmp	r2, #256
 123:../USER/main.c **** 	if(kinbwp>=256) kinbwp = 0;
 912              		.loc 1 123 63 view .LVU286
 913 003c 0868     		ldr	r0, [r1]
 124:../USER/main.c **** 	//
 914              		.loc 1 124 25 view .LVU287
 915 003e 14BF     		ite	ne
 916 0040 1146     		movne	r1, r2
 917 0042 3146     		moveq	r1, r6
 123:../USER/main.c **** 	if(kinbwp>=256) kinbwp = 0;
 918              		.loc 1 123 56 view .LVU288
 919 0044 F854     		strb	r0, [r7, r3]
 124:../USER/main.c **** 	//
 920              		.loc 1 124 2 is_stmt 1 view .LVU289
 124:../USER/main.c **** 	//
 921              		.loc 1 124 25 is_stmt 0 view .LVU290
 922 0046 2160     		str	r1, [r4]
 923              	.L100:
 124:../USER/main.c **** 	//
 924              		.loc 1 124 25 view .LVU291
 925              	.LBE138:
 926              	.LBE137:
 142:../USER/main.c **** 		}
 927              		.loc 1 142 4 is_stmt 1 view .LVU292
 142:../USER/main.c **** 		}
 928              		.loc 1 142 13 is_stmt 0 view .LVU293
 929 0048 2348     		ldr	r0, .L120+12
 930 004a FFF7FEFF 		bl	GPIO_ReadBits
 931              	.LVL42:
 142:../USER/main.c **** 		}
 932              		.loc 1 142 11 view .LVU294
 933 004e 0190     		str	r0, [sp, #4]
 140:../USER/main.c **** 			key_check();
 934              		.loc 1 140 17 view .LVU295
 935 0050 019B     		ldr	r3, [sp, #4]
 140:../USER/main.c **** 			key_check();
 936              		.loc 1 140 8 view .LVU296
 937 0052 5B04     		lsls	r3, r3, #17
 938 0054 09D5     		bpl	.L101
 939              	.L94:
 141:../USER/main.c **** 			gpiord = GPIO_ReadBits(GPIO0);
 940              		.loc 1 141 4 is_stmt 1 view .LVU297
 941              	.LBB140:
 942              	.LBI137:
 116:../USER/main.c **** 	char ch;
 943              		.loc 1 116 6 view .LVU298
 944              	.LBB139:
 117:../USER/main.c **** 	//
 945              		.loc 1 117 2 view .LVU299
 119:../USER/main.c **** 	if(ch!=0) kinbuf[kinbwp++] = ch;
 946              		.loc 1 119 2 view .LVU300
 119:../USER/main.c **** 	if(ch!=0) kinbuf[kinbwp++] = ch;
 947              		.loc 1 119 7 is_stmt 0 view .LVU301
 948 0056 FFF7FEFF 		bl	SPI_ReadData
 949              	.LVL43:
 120:../USER/main.c **** 	if(kinbwp>=256) kinbwp = 0;
 950              		.loc 1 120 12 is_stmt 1 view .LVU302
 119:../USER/main.c **** 	if(ch!=0) kinbuf[kinbwp++] = ch;
 951              		.loc 1 119 5 is_stmt 0 view .LVU303
 952 005a 40B2     		sxtb	r0, r0
 953              	.LVL44:
 120:../USER/main.c **** 	if(kinbwp>=256) kinbwp = 0;
 954              		.loc 1 120 2 is_stmt 1 view .LVU304
 120:../USER/main.c **** 	if(kinbwp>=256) kinbwp = 0;
 955              		.loc 1 120 4 is_stmt 0 view .LVU305
 956 005c 0028     		cmp	r0, #0
 957 005e E0D0     		beq	.L117
 120:../USER/main.c **** 	if(kinbwp>=256) kinbwp = 0;
 958              		.loc 1 120 25 view .LVU306
 959 0060 2268     		ldr	r2, [r4]
 960 0062 531C     		adds	r3, r2, #1
 120:../USER/main.c **** 	if(kinbwp>=256) kinbwp = 0;
 961              		.loc 1 120 29 view .LVU307
 962 0064 B854     		strb	r0, [r7, r2]
 120:../USER/main.c **** 	if(kinbwp>=256) kinbwp = 0;
 963              		.loc 1 120 25 view .LVU308
 964 0066 2360     		str	r3, [r4]
 965 0068 DCE7     		b	.L97
 966              	.LVL45:
 967              	.L101:
 120:../USER/main.c **** 	if(kinbwp>=256) kinbwp = 0;
 968              		.loc 1 120 25 view .LVU309
 969              	.LBE139:
 970              	.LBE140:
 144:../USER/main.c **** 	}
 971              		.loc 1 144 3 is_stmt 1 view .LVU310
 972 006a E8B2     		uxtb	r0, r5
 973 006c FFF7FEFF 		bl	SPI_WriteData
 974              	.LVL46:
 975              	.L95:
 976              	.LBB141:
 977              	.LBB142:
 120:../USER/main.c **** 	if(kinbwp>=256) kinbwp = 0;
 978              		.loc 1 120 29 is_stmt 0 discriminator 1 view .LVU311
 979 0070 184F     		ldr	r7, .L120+8
 121:../USER/main.c **** 	//
 980              		.loc 1 121 25 discriminator 1 view .LVU312
 981 0072 0026     		movs	r6, #0
 982 0074 16E0     		b	.L93
 983              	.LVL47:
 984              	.L119:
 121:../USER/main.c **** 	//
 985              		.loc 1 121 25 discriminator 1 view .LVU313
 986 0076 2368     		ldr	r3, [r4]
 987              	.L103:
 121:../USER/main.c **** 	//
 988              		.loc 1 121 2 is_stmt 1 view .LVU314
 121:../USER/main.c **** 	//
 989              		.loc 1 121 18 view .LVU315
 121:../USER/main.c **** 	//
 990              		.loc 1 121 4 is_stmt 0 view .LVU316
 991 0078 FF2B     		cmp	r3, #255
 992 007a 01DD     		ble	.L104
 121:../USER/main.c **** 	//
 993              		.loc 1 121 25 view .LVU317
 994 007c 0023     		movs	r3, #0
 995 007e 2660     		str	r6, [r4]
 996              	.L104:
 123:../USER/main.c **** 	if(kinbwp>=256) kinbwp = 0;
 997              		.loc 1 123 39 is_stmt 1 view .LVU318
 123:../USER/main.c **** 	if(kinbwp>=256) kinbwp = 0;
 998              		.loc 1 123 2 view .LVU319
 123:../USER/main.c **** 	if(kinbwp>=256) kinbwp = 0;
 999              		.loc 1 123 11 is_stmt 0 view .LVU320
 1000 0080 4FF04021 		mov	r1, #1073758208
 1001 0084 4868     		ldr	r0, [r1, #4]
 1002              	.LVL48:
 123:../USER/main.c **** 	if(kinbwp>=256) kinbwp = 0;
 1003              		.loc 1 123 52 view .LVU321
 1004 0086 5A1C     		adds	r2, r3, #1
 123:../USER/main.c **** 	if(kinbwp>=256) kinbwp = 0;
 1005              		.loc 1 123 4 view .LVU322
 1006 0088 8007     		lsls	r0, r0, #30
 1007 008a 07D5     		bpl	.L106
 124:../USER/main.c **** 	//
 1008              		.loc 1 124 25 view .LVU323
 1009 008c B2F5807F 		cmp	r2, #256
 123:../USER/main.c **** 	if(kinbwp>=256) kinbwp = 0;
 1010              		.loc 1 123 63 view .LVU324
 1011 0090 0868     		ldr	r0, [r1]
 124:../USER/main.c **** 	//
 1012              		.loc 1 124 25 view .LVU325
 1013 0092 14BF     		ite	ne
 1014 0094 1146     		movne	r1, r2
 1015 0096 3146     		moveq	r1, r6
 123:../USER/main.c **** 	if(kinbwp>=256) kinbwp = 0;
 1016              		.loc 1 123 56 view .LVU326
 1017 0098 F854     		strb	r0, [r7, r3]
 124:../USER/main.c **** 	//
 1018              		.loc 1 124 2 is_stmt 1 view .LVU327
 124:../USER/main.c **** 	//
 1019              		.loc 1 124 25 is_stmt 0 view .LVU328
 1020 009a 2160     		str	r1, [r4]
 1021              	.L106:
 124:../USER/main.c **** 	//
 1022              		.loc 1 124 25 view .LVU329
 1023              	.LBE142:
 1024              	.LBE141:
 147:../USER/main.c **** }
 1025              		.loc 1 147 27 is_stmt 1 view .LVU330
 147:../USER/main.c **** }
 1026              		.loc 1 147 32 is_stmt 0 view .LVU331
 1027 009c 2846     		mov	r0, r5
 1028 009e FFF7FEFF 		bl	disp_vram
 1029              	.LVL49:
 147:../USER/main.c **** }
 1030              		.loc 1 147 2 view .LVU332
 1031 00a2 48B1     		cbz	r0, .L118
 1032              	.LVL50:
 1033              	.L93:
 147:../USER/main.c **** }
 1034              		.loc 1 147 2 is_stmt 1 discriminator 1 view .LVU333
 147:../USER/main.c **** }
 1035              		.loc 1 147 10 discriminator 1 view .LVU334
 147:../USER/main.c **** }
 1036              		.loc 1 147 14 discriminator 1 view .LVU335
 1037              	.LBB144:
 1038              	.LBI141:
 116:../USER/main.c **** 	char ch;
 1039              		.loc 1 116 6 discriminator 1 view .LVU336
 1040              	.LBB143:
 117:../USER/main.c **** 	//
 1041              		.loc 1 117 2 discriminator 1 view .LVU337
 119:../USER/main.c **** 	if(ch!=0) kinbuf[kinbwp++] = ch;
 1042              		.loc 1 119 2 discriminator 1 view .LVU338
 119:../USER/main.c **** 	if(ch!=0) kinbuf[kinbwp++] = ch;
 1043              		.loc 1 119 7 is_stmt 0 discriminator 1 view .LVU339
 1044 00a4 FFF7FEFF 		bl	SPI_ReadData
 1045              	.LVL51:
 120:../USER/main.c **** 	if(kinbwp>=256) kinbwp = 0;
 1046              		.loc 1 120 12 is_stmt 1 discriminator 1 view .LVU340
 119:../USER/main.c **** 	if(ch!=0) kinbuf[kinbwp++] = ch;
 1047              		.loc 1 119 5 is_stmt 0 discriminator 1 view .LVU341
 1048 00a8 40B2     		sxtb	r0, r0
 1049              	.LVL52:
 120:../USER/main.c **** 	if(kinbwp>=256) kinbwp = 0;
 1050              		.loc 1 120 2 is_stmt 1 discriminator 1 view .LVU342
 120:../USER/main.c **** 	if(kinbwp>=256) kinbwp = 0;
 1051              		.loc 1 120 4 is_stmt 0 discriminator 1 view .LVU343
 1052 00aa 0028     		cmp	r0, #0
 1053 00ac E3D0     		beq	.L119
 120:../USER/main.c **** 	if(kinbwp>=256) kinbwp = 0;
 1054              		.loc 1 120 25 view .LVU344
 1055 00ae 2268     		ldr	r2, [r4]
 1056 00b0 531C     		adds	r3, r2, #1
 120:../USER/main.c **** 	if(kinbwp>=256) kinbwp = 0;
 1057              		.loc 1 120 29 view .LVU345
 1058 00b2 B854     		strb	r0, [r7, r2]
 120:../USER/main.c **** 	if(kinbwp>=256) kinbwp = 0;
 1059              		.loc 1 120 25 view .LVU346
 1060 00b4 2360     		str	r3, [r4]
 1061 00b6 DFE7     		b	.L103
 1062              	.LVL53:
 1063              	.L118:
 120:../USER/main.c **** 	if(kinbwp>=256) kinbwp = 0;
 1064              		.loc 1 120 25 view .LVU347
 1065              	.LBE143:
 1066              	.LBE144:
 148:../USER/main.c **** 
 1067              		.loc 1 148 1 view .LVU348
 1068 00b8 03B0     		add	sp, sp, #12
 1069              		.cfi_remember_state
 1070              		.cfi_def_cfa_offset 20
 1071              		@ sp needed
 1072 00ba F0BD     		pop	{r4, r5, r6, r7, pc}
 1073              	.LVL54:
 1074              	.L116:
 1075              		.cfi_restore_state
 137:../USER/main.c **** 	else {
 1076              		.loc 1 137 3 is_stmt 1 view .LVU349
 1077 00bc 0146     		mov	r1, r0
 1078 00be 4FF04020 		mov	r0, #1073758208
 1079              	.LVL55:
 137:../USER/main.c **** 	else {
 1080              		.loc 1 137 3 is_stmt 0 view .LVU350
 1081 00c2 FFF7FEFF 		bl	UART_SendChar
 1082              	.LVL56:
 1083 00c6 024C     		ldr	r4, .L120+4
 1084 00c8 D2E7     		b	.L95
 1085              	.L121:
 1086 00ca 00BF     		.align	2
 1087              	.L120:
 1088 00cc 00000000 		.word	mdgpio
 1089 00d0 00000000 		.word	.LANCHOR0
 1090 00d4 00000000 		.word	kinbuf
 1091 00d8 00000140 		.word	1073807360
 1092              		.cfi_endproc
 1093              	.LFE40:
 1095              		.section	.text.puth,"ax",%progbits
 1096              		.align	1
 1097              		.p2align 2,,3
 1098              		.global	puth
 1099              		.syntax unified
 1100              		.thumb
 1101              		.thumb_func
 1102              		.fpu softvfp
 1104              	puth:
 1105              	.LVL57:
 1106              	.LFB41:
 150:../USER/main.c **** void puth2(dt) int dt;{ puth((dt >> 4) & 0xf); puth(dt & 0xf); }
 1107              		.loc 1 150 22 is_stmt 1 view -0
 1108              		.cfi_startproc
 1109              		@ args = 0, pretend = 0, frame = 0
 1110              		@ frame_needed = 0, uses_anonymous_args = 0
 1111              		@ link register save eliminated.
 150:../USER/main.c **** void puth2(dt) int dt;{ puth((dt >> 4) & 0xf); puth(dt & 0xf); }
 1112              		.loc 1 150 24 view .LVU352
 150:../USER/main.c **** void puth2(dt) int dt;{ puth((dt >> 4) & 0xf); puth(dt & 0xf); }
 1113              		.loc 1 150 26 is_stmt 0 view .LVU353
 1114 0000 0928     		cmp	r0, #9
 1115 0002 C3B2     		uxtb	r3, r0
 1116 0004 04DC     		bgt	.L123
 150:../USER/main.c **** void puth2(dt) int dt;{ puth((dt >> 4) & 0xf); puth(dt & 0xf); }
 1117              		.loc 1 150 34 is_stmt 1 discriminator 1 view .LVU354
 150:../USER/main.c **** void puth2(dt) int dt;{ puth((dt >> 4) & 0xf); puth(dt & 0xf); }
 1118              		.loc 1 150 44 is_stmt 0 discriminator 1 view .LVU355
 1119 0006 03F13000 		add	r0, r3, #48
 1120              	.LVL58:
 150:../USER/main.c **** void puth2(dt) int dt;{ puth((dt >> 4) & 0xf); puth(dt & 0xf); }
 1121              		.loc 1 150 34 discriminator 1 view .LVU356
 1122 000a 40B2     		sxtb	r0, r0
 1123 000c FFF7FEBF 		b	putch_uart
 1124              	.LVL59:
 1125              	.L123:
 150:../USER/main.c **** void puth2(dt) int dt;{ puth((dt >> 4) & 0xf); puth(dt & 0xf); }
 1126              		.loc 1 150 55 is_stmt 1 discriminator 2 view .LVU357
 150:../USER/main.c **** void puth2(dt) int dt;{ puth((dt >> 4) & 0xf); puth(dt & 0xf); }
 1127              		.loc 1 150 65 is_stmt 0 discriminator 2 view .LVU358
 1128 0010 03F13700 		add	r0, r3, #55
 1129              	.LVL60:
 150:../USER/main.c **** void puth2(dt) int dt;{ puth((dt >> 4) & 0xf); puth(dt & 0xf); }
 1130              		.loc 1 150 55 discriminator 2 view .LVU359
 1131 0014 40B2     		sxtb	r0, r0
 1132 0016 FFF7FEBF 		b	putch_uart
 1133              	.LVL61:
 1134              		.cfi_endproc
 1135              	.LFE41:
 1137 001a 00BF     		.section	.text.puth2,"ax",%progbits
 1138              		.align	1
 1139              		.p2align 2,,3
 1140              		.global	puth2
 1141              		.syntax unified
 1142              		.thumb
 1143              		.thumb_func
 1144              		.fpu softvfp
 1146              	puth2:
 1147              	.LVL62:
 1148              	.LFB42:
 151:../USER/main.c **** void puth4(dt) int dt;{ puth2((dt >> 8) & 0xff); puth2(dt & 0xff); }
 1149              		.loc 1 151 23 is_stmt 1 view -0
 1150              		.cfi_startproc
 1151              		@ args = 0, pretend = 0, frame = 0
 1152              		@ frame_needed = 0, uses_anonymous_args = 0
 151:../USER/main.c **** void puth4(dt) int dt;{ puth2((dt >> 8) & 0xff); puth2(dt & 0xff); }
 1153              		.loc 1 151 25 view .LVU361
 151:../USER/main.c **** void puth4(dt) int dt;{ puth2((dt >> 8) & 0xff); puth2(dt & 0xff); }
 1154              		.loc 1 151 23 is_stmt 0 view .LVU362
 1155 0000 10B5     		push	{r4, lr}
 1156              		.cfi_def_cfa_offset 8
 1157              		.cfi_offset 4, -8
 1158              		.cfi_offset 14, -4
 151:../USER/main.c **** void puth4(dt) int dt;{ puth2((dt >> 8) & 0xff); puth2(dt & 0xff); }
 1159              		.loc 1 151 23 view .LVU363
 1160 0002 0446     		mov	r4, r0
 151:../USER/main.c **** void puth4(dt) int dt;{ puth2((dt >> 8) & 0xff); puth2(dt & 0xff); }
 1161              		.loc 1 151 25 view .LVU364
 1162 0004 C0F30313 		ubfx	r3, r0, #4, #4
 1163              	.LVL63:
 1164              	.LBB149:
 1165              	.LBI149:
 150:../USER/main.c **** void puth2(dt) int dt;{ puth((dt >> 4) & 0xf); puth(dt & 0xf); }
 1166              		.loc 1 150 6 is_stmt 1 view .LVU365
 1167              	.LBB150:
 150:../USER/main.c **** void puth2(dt) int dt;{ puth((dt >> 4) & 0xf); puth(dt & 0xf); }
 1168              		.loc 1 150 24 view .LVU366
 150:../USER/main.c **** void puth2(dt) int dt;{ puth((dt >> 4) & 0xf); puth(dt & 0xf); }
 1169              		.loc 1 150 34 view .LVU367
 150:../USER/main.c **** void puth2(dt) int dt;{ puth((dt >> 4) & 0xf); puth(dt & 0xf); }
 1170              		.loc 1 150 55 view .LVU368
 1171 0008 D8B2     		uxtb	r0, r3
 1172              	.LVL64:
 150:../USER/main.c **** void puth2(dt) int dt;{ puth((dt >> 4) & 0xf); puth(dt & 0xf); }
 1173              		.loc 1 150 26 is_stmt 0 view .LVU369
 1174 000a 092B     		cmp	r3, #9
 150:../USER/main.c **** void puth2(dt) int dt;{ puth((dt >> 4) & 0xf); puth(dt & 0xf); }
 1175              		.loc 1 150 34 view .LVU370
 1176 000c D4BF     		ite	le
 1177 000e 3030     		addle	r0, r0, #48
 150:../USER/main.c **** void puth2(dt) int dt;{ puth((dt >> 4) & 0xf); puth(dt & 0xf); }
 1178              		.loc 1 150 55 view .LVU371
 1179 0010 3730     		addgt	r0, r0, #55
 1180              	.LBE150:
 1181              	.LBE149:
 151:../USER/main.c **** void puth4(dt) int dt;{ puth2((dt >> 8) & 0xff); puth2(dt & 0xff); }
 1182              		.loc 1 151 48 view .LVU372
 1183 0012 04F00F04 		and	r4, r4, #15
 1184              	.LVL65:
 1185              	.LBB152:
 1186              	.LBB151:
 150:../USER/main.c **** void puth2(dt) int dt;{ puth((dt >> 4) & 0xf); puth(dt & 0xf); }
 1187              		.loc 1 150 55 view .LVU373
 1188 0016 FFF7FEFF 		bl	putch_uart
 1189              	.LVL66:
 150:../USER/main.c **** void puth2(dt) int dt;{ puth((dt >> 4) & 0xf); puth(dt & 0xf); }
 1190              		.loc 1 150 55 view .LVU374
 1191              	.LBE151:
 1192              	.LBE152:
 151:../USER/main.c **** void puth4(dt) int dt;{ puth2((dt >> 8) & 0xff); puth2(dt & 0xff); }
 1193              		.loc 1 151 48 is_stmt 1 view .LVU375
 1194              	.LBB153:
 1195              	.LBI153:
 150:../USER/main.c **** void puth2(dt) int dt;{ puth((dt >> 4) & 0xf); puth(dt & 0xf); }
 1196              		.loc 1 150 6 view .LVU376
 1197              	.LBB154:
 150:../USER/main.c **** void puth2(dt) int dt;{ puth((dt >> 4) & 0xf); puth(dt & 0xf); }
 1198              		.loc 1 150 24 view .LVU377
 150:../USER/main.c **** void puth2(dt) int dt;{ puth((dt >> 4) & 0xf); puth(dt & 0xf); }
 1199              		.loc 1 150 26 is_stmt 0 view .LVU378
 1200 001a 092C     		cmp	r4, #9
 1201 001c E0B2     		uxtb	r0, r4
 1202 001e 04DC     		bgt	.L127
 150:../USER/main.c **** void puth2(dt) int dt;{ puth((dt >> 4) & 0xf); puth(dt & 0xf); }
 1203              		.loc 1 150 34 is_stmt 1 view .LVU379
 1204              	.LBE154:
 1205              	.LBE153:
 151:../USER/main.c **** void puth4(dt) int dt;{ puth2((dt >> 8) & 0xff); puth2(dt & 0xff); }
 1206              		.loc 1 151 1 is_stmt 0 view .LVU380
 1207 0020 BDE81040 		pop	{r4, lr}
 1208              		.cfi_remember_state
 1209              		.cfi_restore 14
 1210              		.cfi_restore 4
 1211              		.cfi_def_cfa_offset 0
 1212              	.LVL67:
 1213              	.LBB157:
 1214              	.LBB155:
 150:../USER/main.c **** void puth2(dt) int dt;{ puth((dt >> 4) & 0xf); puth(dt & 0xf); }
 1215              		.loc 1 150 34 view .LVU381
 1216 0024 3030     		adds	r0, r0, #48
 1217 0026 FFF7FEBF 		b	putch_uart
 1218              	.LVL68:
 1219              	.L127:
 1220              		.cfi_restore_state
 150:../USER/main.c **** void puth2(dt) int dt;{ puth((dt >> 4) & 0xf); puth(dt & 0xf); }
 1221              		.loc 1 150 55 is_stmt 1 view .LVU382
 1222 002a 3730     		adds	r0, r0, #55
 1223              	.LBE155:
 1224              	.LBE157:
 151:../USER/main.c **** void puth4(dt) int dt;{ puth2((dt >> 8) & 0xff); puth2(dt & 0xff); }
 1225              		.loc 1 151 1 is_stmt 0 view .LVU383
 1226 002c BDE81040 		pop	{r4, lr}
 1227              		.cfi_restore 14
 1228              		.cfi_restore 4
 1229              		.cfi_def_cfa_offset 0
 1230              	.LVL69:
 1231              	.LBB158:
 1232              	.LBB156:
 150:../USER/main.c **** void puth2(dt) int dt;{ puth((dt >> 4) & 0xf); puth(dt & 0xf); }
 1233              		.loc 1 150 55 view .LVU384
 1234 0030 FFF7FEBF 		b	putch_uart
 1235              	.LVL70:
 1236              	.LBE156:
 1237              	.LBE158:
 1238              		.cfi_endproc
 1239              	.LFE42:
 1241              		.section	.text.puth4,"ax",%progbits
 1242              		.align	1
 1243              		.p2align 2,,3
 1244              		.global	puth4
 1245              		.syntax unified
 1246              		.thumb
 1247              		.thumb_func
 1248              		.fpu softvfp
 1250              	puth4:
 1251              	.LVL71:
 1252              	.LFB43:
 152:../USER/main.c **** void puth6(dt) long dt;{ int dh,dl; dh = dt >> 16; dl = dt & 0xffff; puth2(dh); puth4(dl); }
 1253              		.loc 1 152 23 is_stmt 1 view -0
 1254              		.cfi_startproc
 1255              		@ args = 0, pretend = 0, frame = 0
 1256              		@ frame_needed = 0, uses_anonymous_args = 0
 152:../USER/main.c **** void puth6(dt) long dt;{ int dh,dl; dh = dt >> 16; dl = dt & 0xffff; puth2(dh); puth4(dl); }
 1257              		.loc 1 152 25 view .LVU386
 152:../USER/main.c **** void puth6(dt) long dt;{ int dh,dl; dh = dt >> 16; dl = dt & 0xffff; puth2(dh); puth4(dl); }
 1258              		.loc 1 152 23 is_stmt 0 view .LVU387
 1259 0000 38B5     		push	{r3, r4, r5, lr}
 1260              		.cfi_def_cfa_offset 16
 1261              		.cfi_offset 3, -16
 1262              		.cfi_offset 4, -12
 1263              		.cfi_offset 5, -8
 1264              		.cfi_offset 14, -4
 152:../USER/main.c **** void puth6(dt) long dt;{ int dh,dl; dh = dt >> 16; dl = dt & 0xffff; puth2(dh); puth4(dl); }
 1265              		.loc 1 152 23 view .LVU388
 1266 0002 0446     		mov	r4, r0
 1267              	.LBB171:
 1268              	.LBB172:
 151:../USER/main.c **** void puth4(dt) int dt;{ puth2((dt >> 8) & 0xff); puth2(dt & 0xff); }
 1269              		.loc 1 151 34 view .LVU389
 1270 0004 C0F30333 		ubfx	r3, r0, #12, #4
 1271 0008 D8B2     		uxtb	r0, r3
 1272              	.LVL72:
 1273              	.LBB173:
 1274              	.LBB174:
 150:../USER/main.c **** void puth2(dt) int dt;{ puth((dt >> 4) & 0xf); puth(dt & 0xf); }
 1275              		.loc 1 150 26 view .LVU390
 1276 000a 092B     		cmp	r3, #9
 150:../USER/main.c **** void puth2(dt) int dt;{ puth((dt >> 4) & 0xf); puth(dt & 0xf); }
 1277              		.loc 1 150 34 view .LVU391
 1278 000c D4BF     		ite	le
 1279 000e 3030     		addle	r0, r0, #48
 150:../USER/main.c **** void puth2(dt) int dt;{ puth((dt >> 4) & 0xf); puth(dt & 0xf); }
 1280              		.loc 1 150 55 view .LVU392
 1281 0010 3730     		addgt	r0, r0, #55
 1282              	.LBE174:
 1283              	.LBE173:
 1284              	.LBE172:
 1285              	.LBE171:
 152:../USER/main.c **** void puth6(dt) long dt;{ int dh,dl; dh = dt >> 16; dl = dt & 0xffff; puth2(dh); puth4(dl); }
 1286              		.loc 1 152 35 view .LVU393
 1287 0012 2512     		asrs	r5, r4, #8
 1288              	.LVL73:
 1289              	.LBB180:
 1290              	.LBI171:
 151:../USER/main.c **** void puth4(dt) int dt;{ puth2((dt >> 8) & 0xff); puth2(dt & 0xff); }
 1291              		.loc 1 151 6 is_stmt 1 view .LVU394
 1292              	.LBB179:
 151:../USER/main.c **** void puth4(dt) int dt;{ puth2((dt >> 8) & 0xff); puth2(dt & 0xff); }
 1293              		.loc 1 151 25 view .LVU395
 1294              	.LBB176:
 1295              	.LBI173:
 150:../USER/main.c **** void puth2(dt) int dt;{ puth((dt >> 4) & 0xf); puth(dt & 0xf); }
 1296              		.loc 1 150 6 view .LVU396
 1297              	.LBB175:
 150:../USER/main.c **** void puth2(dt) int dt;{ puth((dt >> 4) & 0xf); puth(dt & 0xf); }
 1298              		.loc 1 150 24 view .LVU397
 150:../USER/main.c **** void puth2(dt) int dt;{ puth((dt >> 4) & 0xf); puth(dt & 0xf); }
 1299              		.loc 1 150 34 view .LVU398
 150:../USER/main.c **** void puth2(dt) int dt;{ puth((dt >> 4) & 0xf); puth(dt & 0xf); }
 1300              		.loc 1 150 55 view .LVU399
 1301 0014 FFF7FEFF 		bl	putch_uart
 1302              	.LVL74:
 150:../USER/main.c **** void puth2(dt) int dt;{ puth((dt >> 4) & 0xf); puth(dt & 0xf); }
 1303              		.loc 1 150 55 is_stmt 0 view .LVU400
 1304              	.LBE175:
 1305              	.LBE176:
 151:../USER/main.c **** void puth4(dt) int dt;{ puth2((dt >> 8) & 0xff); puth2(dt & 0xff); }
 1306              		.loc 1 151 48 is_stmt 1 view .LVU401
 1307 0018 05F00F03 		and	r3, r5, #15
 1308              	.LVL75:
 1309              	.LBB177:
 1310              	.LBI177:
 150:../USER/main.c **** void puth2(dt) int dt;{ puth((dt >> 4) & 0xf); puth(dt & 0xf); }
 1311              		.loc 1 150 6 view .LVU402
 1312              	.LBB178:
 150:../USER/main.c **** void puth2(dt) int dt;{ puth((dt >> 4) & 0xf); puth(dt & 0xf); }
 1313              		.loc 1 150 24 view .LVU403
 150:../USER/main.c **** void puth2(dt) int dt;{ puth((dt >> 4) & 0xf); puth(dt & 0xf); }
 1314              		.loc 1 150 34 view .LVU404
 150:../USER/main.c **** void puth2(dt) int dt;{ puth((dt >> 4) & 0xf); puth(dt & 0xf); }
 1315              		.loc 1 150 55 view .LVU405
 1316 001c D8B2     		uxtb	r0, r3
 150:../USER/main.c **** void puth2(dt) int dt;{ puth((dt >> 4) & 0xf); puth(dt & 0xf); }
 1317              		.loc 1 150 26 is_stmt 0 view .LVU406
 1318 001e 092B     		cmp	r3, #9
 150:../USER/main.c **** void puth2(dt) int dt;{ puth((dt >> 4) & 0xf); puth(dt & 0xf); }
 1319              		.loc 1 150 34 view .LVU407
 1320 0020 D4BF     		ite	le
 1321 0022 3030     		addle	r0, r0, #48
 150:../USER/main.c **** void puth2(dt) int dt;{ puth((dt >> 4) & 0xf); puth(dt & 0xf); }
 1322              		.loc 1 150 55 view .LVU408
 1323 0024 3730     		addgt	r0, r0, #55
 1324 0026 FFF7FEFF 		bl	putch_uart
 1325              	.LVL76:
 150:../USER/main.c **** void puth2(dt) int dt;{ puth((dt >> 4) & 0xf); puth(dt & 0xf); }
 1326              		.loc 1 150 55 view .LVU409
 1327              	.LBE178:
 1328              	.LBE177:
 1329              	.LBE179:
 1330              	.LBE180:
 152:../USER/main.c **** void puth6(dt) long dt;{ int dh,dl; dh = dt >> 16; dl = dt & 0xffff; puth2(dh); puth4(dl); }
 1331              		.loc 1 152 50 is_stmt 1 view .LVU410
 1332              	.LBB181:
 1333              	.LBI181:
 151:../USER/main.c **** void puth4(dt) int dt;{ puth2((dt >> 8) & 0xff); puth2(dt & 0xff); }
 1334              		.loc 1 151 6 view .LVU411
 1335              	.LBB182:
 151:../USER/main.c **** void puth4(dt) int dt;{ puth2((dt >> 8) & 0xff); puth2(dt & 0xff); }
 1336              		.loc 1 151 25 view .LVU412
 151:../USER/main.c **** void puth4(dt) int dt;{ puth2((dt >> 8) & 0xff); puth2(dt & 0xff); }
 1337              		.loc 1 151 34 is_stmt 0 view .LVU413
 1338 002a C4F30313 		ubfx	r3, r4, #4, #4
 1339              	.LVL77:
 1340              	.LBB183:
 1341              	.LBI183:
 150:../USER/main.c **** void puth2(dt) int dt;{ puth((dt >> 4) & 0xf); puth(dt & 0xf); }
 1342              		.loc 1 150 6 is_stmt 1 view .LVU414
 1343              	.LBB184:
 150:../USER/main.c **** void puth2(dt) int dt;{ puth((dt >> 4) & 0xf); puth(dt & 0xf); }
 1344              		.loc 1 150 24 view .LVU415
 150:../USER/main.c **** void puth2(dt) int dt;{ puth((dt >> 4) & 0xf); puth(dt & 0xf); }
 1345              		.loc 1 150 34 view .LVU416
 150:../USER/main.c **** void puth2(dt) int dt;{ puth((dt >> 4) & 0xf); puth(dt & 0xf); }
 1346              		.loc 1 150 55 view .LVU417
 1347 002e D8B2     		uxtb	r0, r3
 150:../USER/main.c **** void puth2(dt) int dt;{ puth((dt >> 4) & 0xf); puth(dt & 0xf); }
 1348              		.loc 1 150 26 is_stmt 0 view .LVU418
 1349 0030 092B     		cmp	r3, #9
 150:../USER/main.c **** void puth2(dt) int dt;{ puth((dt >> 4) & 0xf); puth(dt & 0xf); }
 1350              		.loc 1 150 34 view .LVU419
 1351 0032 D4BF     		ite	le
 1352 0034 3030     		addle	r0, r0, #48
 150:../USER/main.c **** void puth2(dt) int dt;{ puth((dt >> 4) & 0xf); puth(dt & 0xf); }
 1353              		.loc 1 150 55 view .LVU420
 1354 0036 3730     		addgt	r0, r0, #55
 1355              	.LBE184:
 1356              	.LBE183:
 151:../USER/main.c **** void puth4(dt) int dt;{ puth2((dt >> 8) & 0xff); puth2(dt & 0xff); }
 1357              		.loc 1 151 48 view .LVU421
 1358 0038 04F00F04 		and	r4, r4, #15
 1359              	.LVL78:
 1360              	.LBB186:
 1361              	.LBB185:
 150:../USER/main.c **** void puth2(dt) int dt;{ puth((dt >> 4) & 0xf); puth(dt & 0xf); }
 1362              		.loc 1 150 55 view .LVU422
 1363 003c FFF7FEFF 		bl	putch_uart
 1364              	.LVL79:
 150:../USER/main.c **** void puth2(dt) int dt;{ puth((dt >> 4) & 0xf); puth(dt & 0xf); }
 1365              		.loc 1 150 55 view .LVU423
 1366              	.LBE185:
 1367              	.LBE186:
 151:../USER/main.c **** void puth4(dt) int dt;{ puth2((dt >> 8) & 0xff); puth2(dt & 0xff); }
 1368              		.loc 1 151 48 is_stmt 1 view .LVU424
 1369              	.LBB187:
 1370              	.LBI187:
 150:../USER/main.c **** void puth2(dt) int dt;{ puth((dt >> 4) & 0xf); puth(dt & 0xf); }
 1371              		.loc 1 150 6 view .LVU425
 1372              	.LBB188:
 150:../USER/main.c **** void puth2(dt) int dt;{ puth((dt >> 4) & 0xf); puth(dt & 0xf); }
 1373              		.loc 1 150 24 view .LVU426
 150:../USER/main.c **** void puth2(dt) int dt;{ puth((dt >> 4) & 0xf); puth(dt & 0xf); }
 1374              		.loc 1 150 26 is_stmt 0 view .LVU427
 1375 0040 092C     		cmp	r4, #9
 1376 0042 E0B2     		uxtb	r0, r4
 1377 0044 04DC     		bgt	.L136
 150:../USER/main.c **** void puth2(dt) int dt;{ puth((dt >> 4) & 0xf); puth(dt & 0xf); }
 1378              		.loc 1 150 34 is_stmt 1 view .LVU428
 1379              	.LBE188:
 1380              	.LBE187:
 1381              	.LBE182:
 1382              	.LBE181:
 152:../USER/main.c **** void puth6(dt) long dt;{ int dh,dl; dh = dt >> 16; dl = dt & 0xffff; puth2(dh); puth4(dl); }
 1383              		.loc 1 152 1 is_stmt 0 view .LVU429
 1384 0046 BDE83840 		pop	{r3, r4, r5, lr}
 1385              		.cfi_remember_state
 1386              		.cfi_restore 14
 1387              		.cfi_restore 5
 1388              		.cfi_restore 4
 1389              		.cfi_restore 3
 1390              		.cfi_def_cfa_offset 0
 1391              	.LVL80:
 1392              	.LBB195:
 1393              	.LBB193:
 1394              	.LBB191:
 1395              	.LBB189:
 150:../USER/main.c **** void puth2(dt) int dt;{ puth((dt >> 4) & 0xf); puth(dt & 0xf); }
 1396              		.loc 1 150 34 view .LVU430
 1397 004a 3030     		adds	r0, r0, #48
 1398 004c FFF7FEBF 		b	putch_uart
 1399              	.LVL81:
 1400              	.L136:
 1401              		.cfi_restore_state
 150:../USER/main.c **** void puth2(dt) int dt;{ puth((dt >> 4) & 0xf); puth(dt & 0xf); }
 1402              		.loc 1 150 55 is_stmt 1 view .LVU431
 1403 0050 3730     		adds	r0, r0, #55
 1404              	.LBE189:
 1405              	.LBE191:
 1406              	.LBE193:
 1407              	.LBE195:
 152:../USER/main.c **** void puth6(dt) long dt;{ int dh,dl; dh = dt >> 16; dl = dt & 0xffff; puth2(dh); puth4(dl); }
 1408              		.loc 1 152 1 is_stmt 0 view .LVU432
 1409 0052 BDE83840 		pop	{r3, r4, r5, lr}
 1410              		.cfi_restore 14
 1411              		.cfi_restore 5
 1412              		.cfi_restore 4
 1413              		.cfi_restore 3
 1414              		.cfi_def_cfa_offset 0
 1415              	.LVL82:
 1416              	.LBB196:
 1417              	.LBB194:
 1418              	.LBB192:
 1419              	.LBB190:
 150:../USER/main.c **** void puth2(dt) int dt;{ puth((dt >> 4) & 0xf); puth(dt & 0xf); }
 1420              		.loc 1 150 55 view .LVU433
 1421 0056 FFF7FEBF 		b	putch_uart
 1422              	.LVL83:
 1423              	.LBE190:
 1424              	.LBE192:
 1425              	.LBE194:
 1426              	.LBE196:
 1427              		.cfi_endproc
 1428              	.LFE43:
 1430 005a 00BF     		.section	.text.puth6,"ax",%progbits
 1431              		.align	1
 1432              		.p2align 2,,3
 1433              		.global	puth6
 1434              		.syntax unified
 1435              		.thumb
 1436              		.thumb_func
 1437              		.fpu softvfp
 1439              	puth6:
 1440              	.LVL84:
 1441              	.LFB44:
 153:../USER/main.c **** void puth8(dt) long dt;{ int dh,dl; dh = dt >> 16; dl = dt & 0xffff; puth4(dh); puth4(dl); }
 1442              		.loc 1 153 24 is_stmt 1 view -0
 1443              		.cfi_startproc
 1444              		@ args = 0, pretend = 0, frame = 0
 1445              		@ frame_needed = 0, uses_anonymous_args = 0
 153:../USER/main.c **** void puth8(dt) long dt;{ int dh,dl; dh = dt >> 16; dl = dt & 0xffff; puth4(dh); puth4(dl); }
 1446              		.loc 1 153 26 view .LVU435
 153:../USER/main.c **** void puth8(dt) long dt;{ int dh,dl; dh = dt >> 16; dl = dt & 0xffff; puth4(dh); puth4(dl); }
 1447              		.loc 1 153 37 view .LVU436
 153:../USER/main.c **** void puth8(dt) long dt;{ int dh,dl; dh = dt >> 16; dl = dt & 0xffff; puth4(dh); puth4(dl); }
 1448              		.loc 1 153 24 is_stmt 0 view .LVU437
 1449 0000 70B5     		push	{r4, r5, r6, lr}
 1450              		.cfi_def_cfa_offset 16
 1451              		.cfi_offset 4, -16
 1452              		.cfi_offset 5, -12
 1453              		.cfi_offset 6, -8
 1454              		.cfi_offset 14, -4
 153:../USER/main.c **** void puth8(dt) long dt;{ int dh,dl; dh = dt >> 16; dl = dt & 0xffff; puth4(dh); puth4(dl); }
 1455              		.loc 1 153 24 view .LVU438
 1456 0002 0446     		mov	r4, r0
 1457              	.LBB217:
 1458              	.LBB218:
 151:../USER/main.c **** void puth4(dt) int dt;{ puth2((dt >> 8) & 0xff); puth2(dt & 0xff); }
 1459              		.loc 1 151 25 view .LVU439
 1460 0004 C0F30353 		ubfx	r3, r0, #20, #4
 1461 0008 D8B2     		uxtb	r0, r3
 1462              	.LVL85:
 1463              	.LBB219:
 1464              	.LBB220:
 150:../USER/main.c **** void puth2(dt) int dt;{ puth((dt >> 4) & 0xf); puth(dt & 0xf); }
 1465              		.loc 1 150 26 view .LVU440
 1466 000a 092B     		cmp	r3, #9
 150:../USER/main.c **** void puth2(dt) int dt;{ puth((dt >> 4) & 0xf); puth(dt & 0xf); }
 1467              		.loc 1 150 34 view .LVU441
 1468 000c D4BF     		ite	le
 1469 000e 3030     		addle	r0, r0, #48
 150:../USER/main.c **** void puth2(dt) int dt;{ puth((dt >> 4) & 0xf); puth(dt & 0xf); }
 1470              		.loc 1 150 55 view .LVU442
 1471 0010 3730     		addgt	r0, r0, #55
 1472              	.LBE220:
 1473              	.LBE219:
 1474              	.LBE218:
 1475              	.LBE217:
 153:../USER/main.c **** void puth8(dt) long dt;{ int dh,dl; dh = dt >> 16; dl = dt & 0xffff; puth4(dh); puth4(dl); }
 1476              		.loc 1 153 40 view .LVU443
 1477 0012 2614     		asrs	r6, r4, #16
 1478              	.LVL86:
 153:../USER/main.c **** void puth8(dt) long dt;{ int dh,dl; dh = dt >> 16; dl = dt & 0xffff; puth4(dh); puth4(dl); }
 1479              		.loc 1 153 52 is_stmt 1 view .LVU444
 1480              	.LBB231:
 1481              	.LBB229:
 1482              	.LBB223:
 1483              	.LBB221:
 150:../USER/main.c **** void puth2(dt) int dt;{ puth((dt >> 4) & 0xf); puth(dt & 0xf); }
 1484              		.loc 1 150 55 is_stmt 0 view .LVU445
 1485 0014 FFF7FEFF 		bl	putch_uart
 1486              	.LVL87:
 1487              	.LBE221:
 1488              	.LBE223:
 151:../USER/main.c **** void puth4(dt) int dt;{ puth2((dt >> 8) & 0xff); puth2(dt & 0xff); }
 1489              		.loc 1 151 48 view .LVU446
 1490 0018 06F00F03 		and	r3, r6, #15
 1491 001c D8B2     		uxtb	r0, r3
 1492              	.LBB224:
 1493              	.LBB225:
 150:../USER/main.c **** void puth2(dt) int dt;{ puth((dt >> 4) & 0xf); puth(dt & 0xf); }
 1494              		.loc 1 150 26 view .LVU447
 1495 001e 092B     		cmp	r3, #9
 1496              	.LBE225:
 1497              	.LBE224:
 1498              	.LBE229:
 1499              	.LBE231:
 153:../USER/main.c **** void puth8(dt) long dt;{ int dh,dl; dh = dt >> 16; dl = dt & 0xffff; puth4(dh); puth4(dl); }
 1500              		.loc 1 153 55 view .LVU448
 1501 0020 A5B2     		uxth	r5, r4
 1502              	.LVL88:
 153:../USER/main.c **** void puth8(dt) long dt;{ int dh,dl; dh = dt >> 16; dl = dt & 0xffff; puth4(dh); puth4(dl); }
 1503              		.loc 1 153 70 is_stmt 1 view .LVU449
 1504              	.LBB232:
 1505              	.LBI217:
 151:../USER/main.c **** void puth4(dt) int dt;{ puth2((dt >> 8) & 0xff); puth2(dt & 0xff); }
 1506              		.loc 1 151 6 view .LVU450
 1507              	.LBB230:
 151:../USER/main.c **** void puth4(dt) int dt;{ puth2((dt >> 8) & 0xff); puth2(dt & 0xff); }
 1508              		.loc 1 151 25 view .LVU451
 1509              	.LBB227:
 1510              	.LBI219:
 150:../USER/main.c **** void puth2(dt) int dt;{ puth((dt >> 4) & 0xf); puth(dt & 0xf); }
 1511              		.loc 1 150 6 view .LVU452
 1512              	.LBB222:
 150:../USER/main.c **** void puth2(dt) int dt;{ puth((dt >> 4) & 0xf); puth(dt & 0xf); }
 1513              		.loc 1 150 24 view .LVU453
 150:../USER/main.c **** void puth2(dt) int dt;{ puth((dt >> 4) & 0xf); puth(dt & 0xf); }
 1514              		.loc 1 150 34 view .LVU454
 150:../USER/main.c **** void puth2(dt) int dt;{ puth((dt >> 4) & 0xf); puth(dt & 0xf); }
 1515              		.loc 1 150 55 view .LVU455
 1516              	.LBE222:
 1517              	.LBE227:
 151:../USER/main.c **** void puth4(dt) int dt;{ puth2((dt >> 8) & 0xff); puth2(dt & 0xff); }
 1518              		.loc 1 151 48 view .LVU456
 1519              	.LBB228:
 1520              	.LBI224:
 150:../USER/main.c **** void puth2(dt) int dt;{ puth((dt >> 4) & 0xf); puth(dt & 0xf); }
 1521              		.loc 1 150 6 view .LVU457
 1522              	.LBB226:
 150:../USER/main.c **** void puth2(dt) int dt;{ puth((dt >> 4) & 0xf); puth(dt & 0xf); }
 1523              		.loc 1 150 24 view .LVU458
 150:../USER/main.c **** void puth2(dt) int dt;{ puth((dt >> 4) & 0xf); puth(dt & 0xf); }
 1524              		.loc 1 150 34 view .LVU459
 150:../USER/main.c **** void puth2(dt) int dt;{ puth((dt >> 4) & 0xf); puth(dt & 0xf); }
 1525              		.loc 1 150 55 view .LVU460
 150:../USER/main.c **** void puth2(dt) int dt;{ puth((dt >> 4) & 0xf); puth(dt & 0xf); }
 1526              		.loc 1 150 34 is_stmt 0 view .LVU461
 1527 0022 D4BF     		ite	le
 1528 0024 3030     		addle	r0, r0, #48
 150:../USER/main.c **** void puth2(dt) int dt;{ puth((dt >> 4) & 0xf); puth(dt & 0xf); }
 1529              		.loc 1 150 55 view .LVU462
 1530 0026 3730     		addgt	r0, r0, #55
 1531 0028 FFF7FEFF 		bl	putch_uart
 1532              	.LVL89:
 150:../USER/main.c **** void puth2(dt) int dt;{ puth((dt >> 4) & 0xf); puth(dt & 0xf); }
 1533              		.loc 1 150 55 view .LVU463
 1534              	.LBE226:
 1535              	.LBE228:
 1536              	.LBE230:
 1537              	.LBE232:
 153:../USER/main.c **** void puth8(dt) long dt;{ int dh,dl; dh = dt >> 16; dl = dt & 0xffff; puth4(dh); puth4(dl); }
 1538              		.loc 1 153 81 is_stmt 1 view .LVU464
 1539              	.LBB233:
 1540              	.LBI233:
 152:../USER/main.c **** void puth6(dt) long dt;{ int dh,dl; dh = dt >> 16; dl = dt & 0xffff; puth2(dh); puth4(dl); }
 1541              		.loc 1 152 6 view .LVU465
 1542              	.LBB234:
 152:../USER/main.c **** void puth6(dt) long dt;{ int dh,dl; dh = dt >> 16; dl = dt & 0xffff; puth2(dh); puth4(dl); }
 1543              		.loc 1 152 25 view .LVU466
 1544              	.LBB235:
 1545              	.LBB236:
 151:../USER/main.c **** void puth4(dt) int dt;{ puth2((dt >> 8) & 0xff); puth2(dt & 0xff); }
 1546              		.loc 1 151 34 is_stmt 0 view .LVU467
 1547 002c 2B13     		asrs	r3, r5, #12
 1548 002e D8B2     		uxtb	r0, r3
 1549              	.LBB237:
 1550              	.LBB238:
 150:../USER/main.c **** void puth2(dt) int dt;{ puth((dt >> 4) & 0xf); puth(dt & 0xf); }
 1551              		.loc 1 150 26 view .LVU468
 1552 0030 092B     		cmp	r3, #9
 1553              	.LBE238:
 1554              	.LBE237:
 1555              	.LBE236:
 1556              	.LBE235:
 152:../USER/main.c **** void puth6(dt) long dt;{ int dh,dl; dh = dt >> 16; dl = dt & 0xffff; puth2(dh); puth4(dl); }
 1557              		.loc 1 152 35 view .LVU469
 1558 0032 4FEA2525 		asr	r5, r5, #8
 1559              	.LVL90:
 1560              	.LBB246:
 1561              	.LBI235:
 151:../USER/main.c **** void puth4(dt) int dt;{ puth2((dt >> 8) & 0xff); puth2(dt & 0xff); }
 1562              		.loc 1 151 6 is_stmt 1 view .LVU470
 1563              	.LBB245:
 151:../USER/main.c **** void puth4(dt) int dt;{ puth2((dt >> 8) & 0xff); puth2(dt & 0xff); }
 1564              		.loc 1 151 25 view .LVU471
 1565              	.LBB241:
 1566              	.LBI237:
 150:../USER/main.c **** void puth2(dt) int dt;{ puth((dt >> 4) & 0xf); puth(dt & 0xf); }
 1567              		.loc 1 150 6 view .LVU472
 1568              	.LBB239:
 150:../USER/main.c **** void puth2(dt) int dt;{ puth((dt >> 4) & 0xf); puth(dt & 0xf); }
 1569              		.loc 1 150 24 view .LVU473
 150:../USER/main.c **** void puth2(dt) int dt;{ puth((dt >> 4) & 0xf); puth(dt & 0xf); }
 1570              		.loc 1 150 34 view .LVU474
 150:../USER/main.c **** void puth2(dt) int dt;{ puth((dt >> 4) & 0xf); puth(dt & 0xf); }
 1571              		.loc 1 150 55 view .LVU475
 150:../USER/main.c **** void puth2(dt) int dt;{ puth((dt >> 4) & 0xf); puth(dt & 0xf); }
 1572              		.loc 1 150 34 is_stmt 0 view .LVU476
 1573 0036 D4BF     		ite	le
 1574 0038 3030     		addle	r0, r0, #48
 150:../USER/main.c **** void puth2(dt) int dt;{ puth((dt >> 4) & 0xf); puth(dt & 0xf); }
 1575              		.loc 1 150 55 view .LVU477
 1576 003a 3730     		addgt	r0, r0, #55
 1577              	.LBE239:
 1578              	.LBE241:
 151:../USER/main.c **** void puth4(dt) int dt;{ puth2((dt >> 8) & 0xff); puth2(dt & 0xff); }
 1579              		.loc 1 151 48 view .LVU478
 1580 003c 05F00F05 		and	r5, r5, #15
 1581              	.LVL91:
 1582              	.LBB242:
 1583              	.LBB240:
 150:../USER/main.c **** void puth2(dt) int dt;{ puth((dt >> 4) & 0xf); puth(dt & 0xf); }
 1584              		.loc 1 150 55 view .LVU479
 1585 0040 FFF7FEFF 		bl	putch_uart
 1586              	.LVL92:
 150:../USER/main.c **** void puth2(dt) int dt;{ puth((dt >> 4) & 0xf); puth(dt & 0xf); }
 1587              		.loc 1 150 55 view .LVU480
 1588              	.LBE240:
 1589              	.LBE242:
 151:../USER/main.c **** void puth4(dt) int dt;{ puth2((dt >> 8) & 0xff); puth2(dt & 0xff); }
 1590              		.loc 1 151 48 is_stmt 1 view .LVU481
 1591              	.LBB243:
 1592              	.LBI243:
 150:../USER/main.c **** void puth2(dt) int dt;{ puth((dt >> 4) & 0xf); puth(dt & 0xf); }
 1593              		.loc 1 150 6 view .LVU482
 1594              	.LBB244:
 150:../USER/main.c **** void puth2(dt) int dt;{ puth((dt >> 4) & 0xf); puth(dt & 0xf); }
 1595              		.loc 1 150 24 view .LVU483
 150:../USER/main.c **** void puth2(dt) int dt;{ puth((dt >> 4) & 0xf); puth(dt & 0xf); }
 1596              		.loc 1 150 34 view .LVU484
 150:../USER/main.c **** void puth2(dt) int dt;{ puth((dt >> 4) & 0xf); puth(dt & 0xf); }
 1597              		.loc 1 150 55 view .LVU485
 1598 0044 E8B2     		uxtb	r0, r5
 150:../USER/main.c **** void puth2(dt) int dt;{ puth((dt >> 4) & 0xf); puth(dt & 0xf); }
 1599              		.loc 1 150 26 is_stmt 0 view .LVU486
 1600 0046 092D     		cmp	r5, #9
 150:../USER/main.c **** void puth2(dt) int dt;{ puth((dt >> 4) & 0xf); puth(dt & 0xf); }
 1601              		.loc 1 150 34 view .LVU487
 1602 0048 D4BF     		ite	le
 1603 004a 3030     		addle	r0, r0, #48
 150:../USER/main.c **** void puth2(dt) int dt;{ puth((dt >> 4) & 0xf); puth(dt & 0xf); }
 1604              		.loc 1 150 55 view .LVU488
 1605 004c 3730     		addgt	r0, r0, #55
 1606 004e FFF7FEFF 		bl	putch_uart
 1607              	.LVL93:
 150:../USER/main.c **** void puth2(dt) int dt;{ puth((dt >> 4) & 0xf); puth(dt & 0xf); }
 1608              		.loc 1 150 55 view .LVU489
 1609              	.LBE244:
 1610              	.LBE243:
 1611              	.LBE245:
 1612              	.LBE246:
 152:../USER/main.c **** void puth6(dt) long dt;{ int dh,dl; dh = dt >> 16; dl = dt & 0xffff; puth2(dh); puth4(dl); }
 1613              		.loc 1 152 50 is_stmt 1 view .LVU490
 1614              	.LBB247:
 1615              	.LBI247:
 151:../USER/main.c **** void puth4(dt) int dt;{ puth2((dt >> 8) & 0xff); puth2(dt & 0xff); }
 1616              		.loc 1 151 6 view .LVU491
 1617              	.LBB248:
 151:../USER/main.c **** void puth4(dt) int dt;{ puth2((dt >> 8) & 0xff); puth2(dt & 0xff); }
 1618              		.loc 1 151 25 view .LVU492
 151:../USER/main.c **** void puth4(dt) int dt;{ puth2((dt >> 8) & 0xff); puth2(dt & 0xff); }
 1619              		.loc 1 151 34 is_stmt 0 view .LVU493
 1620 0052 C4F30313 		ubfx	r3, r4, #4, #4
 1621              	.LVL94:
 1622              	.LBB249:
 1623              	.LBI249:
 150:../USER/main.c **** void puth2(dt) int dt;{ puth((dt >> 4) & 0xf); puth(dt & 0xf); }
 1624              		.loc 1 150 6 is_stmt 1 view .LVU494
 1625              	.LBB250:
 150:../USER/main.c **** void puth2(dt) int dt;{ puth((dt >> 4) & 0xf); puth(dt & 0xf); }
 1626              		.loc 1 150 24 view .LVU495
 150:../USER/main.c **** void puth2(dt) int dt;{ puth((dt >> 4) & 0xf); puth(dt & 0xf); }
 1627              		.loc 1 150 34 view .LVU496
 150:../USER/main.c **** void puth2(dt) int dt;{ puth((dt >> 4) & 0xf); puth(dt & 0xf); }
 1628              		.loc 1 150 55 view .LVU497
 1629 0056 D8B2     		uxtb	r0, r3
 150:../USER/main.c **** void puth2(dt) int dt;{ puth((dt >> 4) & 0xf); puth(dt & 0xf); }
 1630              		.loc 1 150 26 is_stmt 0 view .LVU498
 1631 0058 092B     		cmp	r3, #9
 150:../USER/main.c **** void puth2(dt) int dt;{ puth((dt >> 4) & 0xf); puth(dt & 0xf); }
 1632              		.loc 1 150 34 view .LVU499
 1633 005a D4BF     		ite	le
 1634 005c 3030     		addle	r0, r0, #48
 150:../USER/main.c **** void puth2(dt) int dt;{ puth((dt >> 4) & 0xf); puth(dt & 0xf); }
 1635              		.loc 1 150 55 view .LVU500
 1636 005e 3730     		addgt	r0, r0, #55
 1637              	.LBE250:
 1638              	.LBE249:
 151:../USER/main.c **** void puth4(dt) int dt;{ puth2((dt >> 8) & 0xff); puth2(dt & 0xff); }
 1639              		.loc 1 151 48 view .LVU501
 1640 0060 04F00F04 		and	r4, r4, #15
 1641              	.LVL95:
 1642              	.LBB252:
 1643              	.LBB251:
 150:../USER/main.c **** void puth2(dt) int dt;{ puth((dt >> 4) & 0xf); puth(dt & 0xf); }
 1644              		.loc 1 150 55 view .LVU502
 1645 0064 FFF7FEFF 		bl	putch_uart
 1646              	.LVL96:
 150:../USER/main.c **** void puth2(dt) int dt;{ puth((dt >> 4) & 0xf); puth(dt & 0xf); }
 1647              		.loc 1 150 55 view .LVU503
 1648              	.LBE251:
 1649              	.LBE252:
 151:../USER/main.c **** void puth4(dt) int dt;{ puth2((dt >> 8) & 0xff); puth2(dt & 0xff); }
 1650              		.loc 1 151 48 is_stmt 1 view .LVU504
 1651              	.LBB253:
 1652              	.LBI253:
 150:../USER/main.c **** void puth2(dt) int dt;{ puth((dt >> 4) & 0xf); puth(dt & 0xf); }
 1653              		.loc 1 150 6 view .LVU505
 1654              	.LBB254:
 150:../USER/main.c **** void puth2(dt) int dt;{ puth((dt >> 4) & 0xf); puth(dt & 0xf); }
 1655              		.loc 1 150 24 view .LVU506
 150:../USER/main.c **** void puth2(dt) int dt;{ puth((dt >> 4) & 0xf); puth(dt & 0xf); }
 1656              		.loc 1 150 26 is_stmt 0 view .LVU507
 1657 0068 092C     		cmp	r4, #9
 1658 006a E0B2     		uxtb	r0, r4
 1659 006c 04DC     		bgt	.L149
 150:../USER/main.c **** void puth2(dt) int dt;{ puth((dt >> 4) & 0xf); puth(dt & 0xf); }
 1660              		.loc 1 150 34 is_stmt 1 view .LVU508
 1661              	.LBE254:
 1662              	.LBE253:
 1663              	.LBE248:
 1664              	.LBE247:
 1665              	.LBE234:
 1666              	.LBE233:
 153:../USER/main.c **** void puth8(dt) long dt;{ int dh,dl; dh = dt >> 16; dl = dt & 0xffff; puth4(dh); puth4(dl); }
 1667              		.loc 1 153 1 is_stmt 0 view .LVU509
 1668 006e BDE87040 		pop	{r4, r5, r6, lr}
 1669              		.cfi_remember_state
 1670              		.cfi_restore 14
 1671              		.cfi_restore 6
 1672              		.cfi_restore 5
 1673              		.cfi_restore 4
 1674              		.cfi_def_cfa_offset 0
 1675              	.LVL97:
 1676              	.LBB265:
 1677              	.LBB263:
 1678              	.LBB261:
 1679              	.LBB259:
 1680              	.LBB257:
 1681              	.LBB255:
 150:../USER/main.c **** void puth2(dt) int dt;{ puth((dt >> 4) & 0xf); puth(dt & 0xf); }
 1682              		.loc 1 150 34 view .LVU510
 1683 0072 3030     		adds	r0, r0, #48
 1684 0074 FFF7FEBF 		b	putch_uart
 1685              	.LVL98:
 1686              	.L149:
 1687              		.cfi_restore_state
 150:../USER/main.c **** void puth2(dt) int dt;{ puth((dt >> 4) & 0xf); puth(dt & 0xf); }
 1688              		.loc 1 150 55 is_stmt 1 view .LVU511
 1689 0078 3730     		adds	r0, r0, #55
 1690              	.LBE255:
 1691              	.LBE257:
 1692              	.LBE259:
 1693              	.LBE261:
 1694              	.LBE263:
 1695              	.LBE265:
 153:../USER/main.c **** void puth8(dt) long dt;{ int dh,dl; dh = dt >> 16; dl = dt & 0xffff; puth4(dh); puth4(dl); }
 1696              		.loc 1 153 1 is_stmt 0 view .LVU512
 1697 007a BDE87040 		pop	{r4, r5, r6, lr}
 1698              		.cfi_restore 14
 1699              		.cfi_restore 6
 1700              		.cfi_restore 5
 1701              		.cfi_restore 4
 1702              		.cfi_def_cfa_offset 0
 1703              	.LVL99:
 1704              	.LBB266:
 1705              	.LBB264:
 1706              	.LBB262:
 1707              	.LBB260:
 1708              	.LBB258:
 1709              	.LBB256:
 150:../USER/main.c **** void puth2(dt) int dt;{ puth((dt >> 4) & 0xf); puth(dt & 0xf); }
 1710              		.loc 1 150 55 view .LVU513
 1711 007e FFF7FEBF 		b	putch_uart
 1712              	.LVL100:
 1713              	.LBE256:
 1714              	.LBE258:
 1715              	.LBE260:
 1716              	.LBE262:
 1717              	.LBE264:
 1718              	.LBE266:
 1719              		.cfi_endproc
 1720              	.LFE44:
 1722 0082 00BF     		.section	.text.puth8,"ax",%progbits
 1723              		.align	1
 1724              		.p2align 2,,3
 1725              		.global	puth8
 1726              		.syntax unified
 1727              		.thumb
 1728              		.thumb_func
 1729              		.fpu softvfp
 1731              	puth8:
 1732              	.LVL101:
 1733              	.LFB45:
 154:../USER/main.c **** void putsuart(char *buf){
 1734              		.loc 1 154 24 is_stmt 1 view -0
 1735              		.cfi_startproc
 1736              		@ args = 0, pretend = 0, frame = 0
 1737              		@ frame_needed = 0, uses_anonymous_args = 0
 154:../USER/main.c **** void putsuart(char *buf){
 1738              		.loc 1 154 26 view .LVU515
 154:../USER/main.c **** void putsuart(char *buf){
 1739              		.loc 1 154 37 view .LVU516
 154:../USER/main.c **** void putsuart(char *buf){
 1740              		.loc 1 154 24 is_stmt 0 view .LVU517
 1741 0000 F8B5     		push	{r3, r4, r5, r6, r7, lr}
 1742              		.cfi_def_cfa_offset 24
 1743              		.cfi_offset 3, -24
 1744              		.cfi_offset 4, -20
 1745              		.cfi_offset 5, -16
 1746              		.cfi_offset 6, -12
 1747              		.cfi_offset 7, -8
 1748              		.cfi_offset 14, -4
 154:../USER/main.c **** void putsuart(char *buf){
 1749              		.loc 1 154 24 view .LVU518
 1750 0002 0446     		mov	r4, r0
 1751 0004 060E     		lsrs	r6, r0, #24
 1752              	.LBB295:
 1753              	.LBB296:
 1754              	.LBB297:
 151:../USER/main.c **** void puth4(dt) int dt;{ puth2((dt >> 8) & 0xff); puth2(dt & 0xff); }
 1755              		.loc 1 151 34 view .LVU519
 1756 0006 3311     		asrs	r3, r6, #4
 1757 0008 D8B2     		uxtb	r0, r3
 1758              	.LVL102:
 1759              	.LBB298:
 1760              	.LBB299:
 150:../USER/main.c **** void puth2(dt) int dt;{ puth((dt >> 4) & 0xf); puth(dt & 0xf); }
 1761              		.loc 1 150 26 view .LVU520
 1762 000a 092B     		cmp	r3, #9
 150:../USER/main.c **** void puth2(dt) int dt;{ puth((dt >> 4) & 0xf); puth(dt & 0xf); }
 1763              		.loc 1 150 34 view .LVU521
 1764 000c D4BF     		ite	le
 1765 000e 3030     		addle	r0, r0, #48
 150:../USER/main.c **** void puth2(dt) int dt;{ puth((dt >> 4) & 0xf); puth(dt & 0xf); }
 1766              		.loc 1 150 55 view .LVU522
 1767 0010 3730     		addgt	r0, r0, #55
 1768              	.LBE299:
 1769              	.LBE298:
 151:../USER/main.c **** void puth4(dt) int dt;{ puth2((dt >> 8) & 0xff); puth2(dt & 0xff); }
 1770              		.loc 1 151 48 view .LVU523
 1771 0012 06F00F06 		and	r6, r6, #15
 1772              	.LBB302:
 1773              	.LBB300:
 150:../USER/main.c **** void puth2(dt) int dt;{ puth((dt >> 4) & 0xf); puth(dt & 0xf); }
 1774              		.loc 1 150 55 view .LVU524
 1775 0016 FFF7FEFF 		bl	putch_uart
 1776              	.LVL103:
 1777 001a F0B2     		uxtb	r0, r6
 1778              	.LBE300:
 1779              	.LBE302:
 1780              	.LBB303:
 1781              	.LBB304:
 150:../USER/main.c **** void puth2(dt) int dt;{ puth((dt >> 4) & 0xf); puth(dt & 0xf); }
 1782              		.loc 1 150 26 view .LVU525
 1783 001c 092E     		cmp	r6, #9
 150:../USER/main.c **** void puth2(dt) int dt;{ puth((dt >> 4) & 0xf); puth(dt & 0xf); }
 1784              		.loc 1 150 34 view .LVU526
 1785 001e D4BF     		ite	le
 1786 0020 3030     		addle	r0, r0, #48
 150:../USER/main.c **** void puth2(dt) int dt;{ puth((dt >> 4) & 0xf); puth(dt & 0xf); }
 1787              		.loc 1 150 55 view .LVU527
 1788 0022 3730     		addgt	r0, r0, #55
 1789 0024 FFF7FEFF 		bl	putch_uart
 1790              	.LVL104:
 1791              	.LBE304:
 1792              	.LBE303:
 1793              	.LBE297:
 1794              	.LBE296:
 1795              	.LBB309:
 1796              	.LBB310:
 151:../USER/main.c **** void puth4(dt) int dt;{ puth2((dt >> 8) & 0xff); puth2(dt & 0xff); }
 1797              		.loc 1 151 34 view .LVU528
 1798 0028 C4F30353 		ubfx	r3, r4, #20, #4
 1799 002c D8B2     		uxtb	r0, r3
 1800              	.LBB311:
 1801              	.LBB312:
 150:../USER/main.c **** void puth2(dt) int dt;{ puth((dt >> 4) & 0xf); puth(dt & 0xf); }
 1802              		.loc 1 150 26 view .LVU529
 1803 002e 092B     		cmp	r3, #9
 150:../USER/main.c **** void puth2(dt) int dt;{ puth((dt >> 4) & 0xf); puth(dt & 0xf); }
 1804              		.loc 1 150 34 view .LVU530
 1805 0030 D4BF     		ite	le
 1806 0032 3030     		addle	r0, r0, #48
 150:../USER/main.c **** void puth2(dt) int dt;{ puth((dt >> 4) & 0xf); puth(dt & 0xf); }
 1807              		.loc 1 150 55 view .LVU531
 1808 0034 3730     		addgt	r0, r0, #55
 1809              	.LBE312:
 1810              	.LBE311:
 1811              	.LBE310:
 1812              	.LBE309:
 1813              	.LBE295:
 154:../USER/main.c **** void putsuart(char *buf){
 1814              		.loc 1 154 40 view .LVU532
 1815 0036 2714     		asrs	r7, r4, #16
 1816              	.LVL105:
 154:../USER/main.c **** void putsuart(char *buf){
 1817              		.loc 1 154 52 is_stmt 1 view .LVU533
 1818              	.LBB326:
 1819              	.LBB323:
 1820              	.LBB321:
 1821              	.LBB315:
 1822              	.LBB313:
 150:../USER/main.c **** void puth2(dt) int dt;{ puth((dt >> 4) & 0xf); puth(dt & 0xf); }
 1823              		.loc 1 150 55 is_stmt 0 view .LVU534
 1824 0038 FFF7FEFF 		bl	putch_uart
 1825              	.LVL106:
 1826              	.LBE313:
 1827              	.LBE315:
 151:../USER/main.c **** void puth4(dt) int dt;{ puth2((dt >> 8) & 0xff); puth2(dt & 0xff); }
 1828              		.loc 1 151 48 view .LVU535
 1829 003c 07F00F03 		and	r3, r7, #15
 1830 0040 D8B2     		uxtb	r0, r3
 1831              	.LBB316:
 1832              	.LBB317:
 150:../USER/main.c **** void puth2(dt) int dt;{ puth((dt >> 4) & 0xf); puth(dt & 0xf); }
 1833              		.loc 1 150 26 view .LVU536
 1834 0042 092B     		cmp	r3, #9
 1835              	.LBE317:
 1836              	.LBE316:
 1837              	.LBE321:
 1838              	.LBE323:
 1839              	.LBE326:
 154:../USER/main.c **** void putsuart(char *buf){
 1840              		.loc 1 154 55 view .LVU537
 1841 0044 A5B2     		uxth	r5, r4
 1842              	.LVL107:
 154:../USER/main.c **** void putsuart(char *buf){
 1843              		.loc 1 154 70 is_stmt 1 view .LVU538
 1844              	.LBB327:
 1845              	.LBI295:
 152:../USER/main.c **** void puth6(dt) long dt;{ int dh,dl; dh = dt >> 16; dl = dt & 0xffff; puth2(dh); puth4(dl); }
 1846              		.loc 1 152 6 view .LVU539
 1847              	.LBE327:
 152:../USER/main.c **** void puth6(dt) long dt;{ int dh,dl; dh = dt >> 16; dl = dt & 0xffff; puth2(dh); puth4(dl); }
 1848              		.loc 1 152 25 view .LVU540
 1849              	.LBB328:
 1850              	.LBB324:
 1851              	.LBI296:
 151:../USER/main.c **** void puth4(dt) int dt;{ puth2((dt >> 8) & 0xff); puth2(dt & 0xff); }
 1852              		.loc 1 151 6 view .LVU541
 1853              	.LBB308:
 151:../USER/main.c **** void puth4(dt) int dt;{ puth2((dt >> 8) & 0xff); puth2(dt & 0xff); }
 1854              		.loc 1 151 25 view .LVU542
 1855              	.LBB306:
 1856              	.LBI298:
 150:../USER/main.c **** void puth2(dt) int dt;{ puth((dt >> 4) & 0xf); puth(dt & 0xf); }
 1857              		.loc 1 150 6 view .LVU543
 1858              	.LBB301:
 150:../USER/main.c **** void puth2(dt) int dt;{ puth((dt >> 4) & 0xf); puth(dt & 0xf); }
 1859              		.loc 1 150 24 view .LVU544
 150:../USER/main.c **** void puth2(dt) int dt;{ puth((dt >> 4) & 0xf); puth(dt & 0xf); }
 1860              		.loc 1 150 34 view .LVU545
 150:../USER/main.c **** void puth2(dt) int dt;{ puth((dt >> 4) & 0xf); puth(dt & 0xf); }
 1861              		.loc 1 150 55 view .LVU546
 1862              	.LBE301:
 1863              	.LBE306:
 151:../USER/main.c **** void puth4(dt) int dt;{ puth2((dt >> 8) & 0xff); puth2(dt & 0xff); }
 1864              		.loc 1 151 48 view .LVU547
 1865              	.LBB307:
 1866              	.LBI303:
 150:../USER/main.c **** void puth2(dt) int dt;{ puth((dt >> 4) & 0xf); puth(dt & 0xf); }
 1867              		.loc 1 150 6 view .LVU548
 1868              	.LBB305:
 150:../USER/main.c **** void puth2(dt) int dt;{ puth((dt >> 4) & 0xf); puth(dt & 0xf); }
 1869              		.loc 1 150 24 view .LVU549
 150:../USER/main.c **** void puth2(dt) int dt;{ puth((dt >> 4) & 0xf); puth(dt & 0xf); }
 1870              		.loc 1 150 34 view .LVU550
 150:../USER/main.c **** void puth2(dt) int dt;{ puth((dt >> 4) & 0xf); puth(dt & 0xf); }
 1871              		.loc 1 150 55 view .LVU551
 150:../USER/main.c **** void puth2(dt) int dt;{ puth((dt >> 4) & 0xf); puth(dt & 0xf); }
 1872              		.loc 1 150 55 is_stmt 0 view .LVU552
 1873              	.LBE305:
 1874              	.LBE307:
 1875              	.LBE308:
 1876              	.LBE324:
 1877              	.LBE328:
 152:../USER/main.c **** void puth6(dt) long dt;{ int dh,dl; dh = dt >> 16; dl = dt & 0xffff; puth2(dh); puth4(dl); }
 1878              		.loc 1 152 50 is_stmt 1 view .LVU553
 1879              	.LBB329:
 1880              	.LBB325:
 1881              	.LBI309:
 151:../USER/main.c **** void puth4(dt) int dt;{ puth2((dt >> 8) & 0xff); puth2(dt & 0xff); }
 1882              		.loc 1 151 6 view .LVU554
 1883              	.LBB322:
 151:../USER/main.c **** void puth4(dt) int dt;{ puth2((dt >> 8) & 0xff); puth2(dt & 0xff); }
 1884              		.loc 1 151 25 view .LVU555
 1885              	.LBB319:
 1886              	.LBI311:
 150:../USER/main.c **** void puth2(dt) int dt;{ puth((dt >> 4) & 0xf); puth(dt & 0xf); }
 1887              		.loc 1 150 6 view .LVU556
 1888              	.LBB314:
 150:../USER/main.c **** void puth2(dt) int dt;{ puth((dt >> 4) & 0xf); puth(dt & 0xf); }
 1889              		.loc 1 150 24 view .LVU557
 150:../USER/main.c **** void puth2(dt) int dt;{ puth((dt >> 4) & 0xf); puth(dt & 0xf); }
 1890              		.loc 1 150 34 view .LVU558
 150:../USER/main.c **** void puth2(dt) int dt;{ puth((dt >> 4) & 0xf); puth(dt & 0xf); }
 1891              		.loc 1 150 55 view .LVU559
 1892              	.LBE314:
 1893              	.LBE319:
 151:../USER/main.c **** void puth4(dt) int dt;{ puth2((dt >> 8) & 0xff); puth2(dt & 0xff); }
 1894              		.loc 1 151 48 view .LVU560
 1895              	.LBB320:
 1896              	.LBI316:
 150:../USER/main.c **** void puth2(dt) int dt;{ puth((dt >> 4) & 0xf); puth(dt & 0xf); }
 1897              		.loc 1 150 6 view .LVU561
 1898              	.LBB318:
 150:../USER/main.c **** void puth2(dt) int dt;{ puth((dt >> 4) & 0xf); puth(dt & 0xf); }
 1899              		.loc 1 150 24 view .LVU562
 150:../USER/main.c **** void puth2(dt) int dt;{ puth((dt >> 4) & 0xf); puth(dt & 0xf); }
 1900              		.loc 1 150 34 view .LVU563
 150:../USER/main.c **** void puth2(dt) int dt;{ puth((dt >> 4) & 0xf); puth(dt & 0xf); }
 1901              		.loc 1 150 55 view .LVU564
 150:../USER/main.c **** void puth2(dt) int dt;{ puth((dt >> 4) & 0xf); puth(dt & 0xf); }
 1902              		.loc 1 150 34 is_stmt 0 view .LVU565
 1903 0046 D4BF     		ite	le
 1904 0048 3030     		addle	r0, r0, #48
 150:../USER/main.c **** void puth2(dt) int dt;{ puth((dt >> 4) & 0xf); puth(dt & 0xf); }
 1905              		.loc 1 150 55 view .LVU566
 1906 004a 3730     		addgt	r0, r0, #55
 1907 004c FFF7FEFF 		bl	putch_uart
 1908              	.LVL108:
 150:../USER/main.c **** void puth2(dt) int dt;{ puth((dt >> 4) & 0xf); puth(dt & 0xf); }
 1909              		.loc 1 150 55 view .LVU567
 1910              	.LBE318:
 1911              	.LBE320:
 1912              	.LBE322:
 1913              	.LBE325:
 1914              	.LBE329:
 154:../USER/main.c **** void putsuart(char *buf){
 1915              		.loc 1 154 81 is_stmt 1 view .LVU568
 1916              	.LBB330:
 1917              	.LBI330:
 152:../USER/main.c **** void puth6(dt) long dt;{ int dh,dl; dh = dt >> 16; dl = dt & 0xffff; puth2(dh); puth4(dl); }
 1918              		.loc 1 152 6 view .LVU569
 1919              	.LBB331:
 152:../USER/main.c **** void puth6(dt) long dt;{ int dh,dl; dh = dt >> 16; dl = dt & 0xffff; puth2(dh); puth4(dl); }
 1920              		.loc 1 152 25 view .LVU570
 1921              	.LBB332:
 1922              	.LBB333:
 151:../USER/main.c **** void puth4(dt) int dt;{ puth2((dt >> 8) & 0xff); puth2(dt & 0xff); }
 1923              		.loc 1 151 34 is_stmt 0 view .LVU571
 1924 0050 2B13     		asrs	r3, r5, #12
 1925 0052 D8B2     		uxtb	r0, r3
 1926              	.LBB334:
 1927              	.LBB335:
 150:../USER/main.c **** void puth2(dt) int dt;{ puth((dt >> 4) & 0xf); puth(dt & 0xf); }
 1928              		.loc 1 150 26 view .LVU572
 1929 0054 092B     		cmp	r3, #9
 1930              	.LBE335:
 1931              	.LBE334:
 1932              	.LBE333:
 1933              	.LBE332:
 152:../USER/main.c **** void puth6(dt) long dt;{ int dh,dl; dh = dt >> 16; dl = dt & 0xffff; puth2(dh); puth4(dl); }
 1934              		.loc 1 152 35 view .LVU573
 1935 0056 4FEA2525 		asr	r5, r5, #8
 1936              	.LVL109:
 1937              	.LBB343:
 1938              	.LBI332:
 151:../USER/main.c **** void puth4(dt) int dt;{ puth2((dt >> 8) & 0xff); puth2(dt & 0xff); }
 1939              		.loc 1 151 6 is_stmt 1 view .LVU574
 1940              	.LBB342:
 151:../USER/main.c **** void puth4(dt) int dt;{ puth2((dt >> 8) & 0xff); puth2(dt & 0xff); }
 1941              		.loc 1 151 25 view .LVU575
 1942              	.LBB338:
 1943              	.LBI334:
 150:../USER/main.c **** void puth2(dt) int dt;{ puth((dt >> 4) & 0xf); puth(dt & 0xf); }
 1944              		.loc 1 150 6 view .LVU576
 1945              	.LBB336:
 150:../USER/main.c **** void puth2(dt) int dt;{ puth((dt >> 4) & 0xf); puth(dt & 0xf); }
 1946              		.loc 1 150 24 view .LVU577
 150:../USER/main.c **** void puth2(dt) int dt;{ puth((dt >> 4) & 0xf); puth(dt & 0xf); }
 1947              		.loc 1 150 34 view .LVU578
 150:../USER/main.c **** void puth2(dt) int dt;{ puth((dt >> 4) & 0xf); puth(dt & 0xf); }
 1948              		.loc 1 150 55 view .LVU579
 150:../USER/main.c **** void puth2(dt) int dt;{ puth((dt >> 4) & 0xf); puth(dt & 0xf); }
 1949              		.loc 1 150 34 is_stmt 0 view .LVU580
 1950 005a D4BF     		ite	le
 1951 005c 3030     		addle	r0, r0, #48
 150:../USER/main.c **** void puth2(dt) int dt;{ puth((dt >> 4) & 0xf); puth(dt & 0xf); }
 1952              		.loc 1 150 55 view .LVU581
 1953 005e 3730     		addgt	r0, r0, #55
 1954              	.LBE336:
 1955              	.LBE338:
 151:../USER/main.c **** void puth4(dt) int dt;{ puth2((dt >> 8) & 0xff); puth2(dt & 0xff); }
 1956              		.loc 1 151 48 view .LVU582
 1957 0060 05F00F05 		and	r5, r5, #15
 1958              	.LVL110:
 1959              	.LBB339:
 1960              	.LBB337:
 150:../USER/main.c **** void puth2(dt) int dt;{ puth((dt >> 4) & 0xf); puth(dt & 0xf); }
 1961              		.loc 1 150 55 view .LVU583
 1962 0064 FFF7FEFF 		bl	putch_uart
 1963              	.LVL111:
 150:../USER/main.c **** void puth2(dt) int dt;{ puth((dt >> 4) & 0xf); puth(dt & 0xf); }
 1964              		.loc 1 150 55 view .LVU584
 1965              	.LBE337:
 1966              	.LBE339:
 151:../USER/main.c **** void puth4(dt) int dt;{ puth2((dt >> 8) & 0xff); puth2(dt & 0xff); }
 1967              		.loc 1 151 48 is_stmt 1 view .LVU585
 1968              	.LBB340:
 1969              	.LBI340:
 150:../USER/main.c **** void puth2(dt) int dt;{ puth((dt >> 4) & 0xf); puth(dt & 0xf); }
 1970              		.loc 1 150 6 view .LVU586
 1971              	.LBB341:
 150:../USER/main.c **** void puth2(dt) int dt;{ puth((dt >> 4) & 0xf); puth(dt & 0xf); }
 1972              		.loc 1 150 24 view .LVU587
 150:../USER/main.c **** void puth2(dt) int dt;{ puth((dt >> 4) & 0xf); puth(dt & 0xf); }
 1973              		.loc 1 150 34 view .LVU588
 150:../USER/main.c **** void puth2(dt) int dt;{ puth((dt >> 4) & 0xf); puth(dt & 0xf); }
 1974              		.loc 1 150 55 view .LVU589
 1975 0068 E8B2     		uxtb	r0, r5
 150:../USER/main.c **** void puth2(dt) int dt;{ puth((dt >> 4) & 0xf); puth(dt & 0xf); }
 1976              		.loc 1 150 26 is_stmt 0 view .LVU590
 1977 006a 092D     		cmp	r5, #9
 150:../USER/main.c **** void puth2(dt) int dt;{ puth((dt >> 4) & 0xf); puth(dt & 0xf); }
 1978              		.loc 1 150 34 view .LVU591
 1979 006c D4BF     		ite	le
 1980 006e 3030     		addle	r0, r0, #48
 150:../USER/main.c **** void puth2(dt) int dt;{ puth((dt >> 4) & 0xf); puth(dt & 0xf); }
 1981              		.loc 1 150 55 view .LVU592
 1982 0070 3730     		addgt	r0, r0, #55
 1983 0072 FFF7FEFF 		bl	putch_uart
 1984              	.LVL112:
 150:../USER/main.c **** void puth2(dt) int dt;{ puth((dt >> 4) & 0xf); puth(dt & 0xf); }
 1985              		.loc 1 150 55 view .LVU593
 1986              	.LBE341:
 1987              	.LBE340:
 1988              	.LBE342:
 1989              	.LBE343:
 152:../USER/main.c **** void puth6(dt) long dt;{ int dh,dl; dh = dt >> 16; dl = dt & 0xffff; puth2(dh); puth4(dl); }
 1990              		.loc 1 152 50 is_stmt 1 view .LVU594
 1991              	.LBB344:
 1992              	.LBI344:
 151:../USER/main.c **** void puth4(dt) int dt;{ puth2((dt >> 8) & 0xff); puth2(dt & 0xff); }
 1993              		.loc 1 151 6 view .LVU595
 1994              	.LBB345:
 151:../USER/main.c **** void puth4(dt) int dt;{ puth2((dt >> 8) & 0xff); puth2(dt & 0xff); }
 1995              		.loc 1 151 25 view .LVU596
 151:../USER/main.c **** void puth4(dt) int dt;{ puth2((dt >> 8) & 0xff); puth2(dt & 0xff); }
 1996              		.loc 1 151 34 is_stmt 0 view .LVU597
 1997 0076 C4F30313 		ubfx	r3, r4, #4, #4
 1998              	.LVL113:
 1999              	.LBB346:
 2000              	.LBI346:
 150:../USER/main.c **** void puth2(dt) int dt;{ puth((dt >> 4) & 0xf); puth(dt & 0xf); }
 2001              		.loc 1 150 6 is_stmt 1 view .LVU598
 2002              	.LBB347:
 150:../USER/main.c **** void puth2(dt) int dt;{ puth((dt >> 4) & 0xf); puth(dt & 0xf); }
 2003              		.loc 1 150 24 view .LVU599
 150:../USER/main.c **** void puth2(dt) int dt;{ puth((dt >> 4) & 0xf); puth(dt & 0xf); }
 2004              		.loc 1 150 34 view .LVU600
 150:../USER/main.c **** void puth2(dt) int dt;{ puth((dt >> 4) & 0xf); puth(dt & 0xf); }
 2005              		.loc 1 150 55 view .LVU601
 2006 007a D8B2     		uxtb	r0, r3
 150:../USER/main.c **** void puth2(dt) int dt;{ puth((dt >> 4) & 0xf); puth(dt & 0xf); }
 2007              		.loc 1 150 26 is_stmt 0 view .LVU602
 2008 007c 092B     		cmp	r3, #9
 150:../USER/main.c **** void puth2(dt) int dt;{ puth((dt >> 4) & 0xf); puth(dt & 0xf); }
 2009              		.loc 1 150 34 view .LVU603
 2010 007e D4BF     		ite	le
 2011 0080 3030     		addle	r0, r0, #48
 150:../USER/main.c **** void puth2(dt) int dt;{ puth((dt >> 4) & 0xf); puth(dt & 0xf); }
 2012              		.loc 1 150 55 view .LVU604
 2013 0082 3730     		addgt	r0, r0, #55
 2014              	.LBE347:
 2015              	.LBE346:
 151:../USER/main.c **** void puth4(dt) int dt;{ puth2((dt >> 8) & 0xff); puth2(dt & 0xff); }
 2016              		.loc 1 151 48 view .LVU605
 2017 0084 04F00F04 		and	r4, r4, #15
 2018              	.LVL114:
 2019              	.LBB349:
 2020              	.LBB348:
 150:../USER/main.c **** void puth2(dt) int dt;{ puth((dt >> 4) & 0xf); puth(dt & 0xf); }
 2021              		.loc 1 150 55 view .LVU606
 2022 0088 FFF7FEFF 		bl	putch_uart
 2023              	.LVL115:
 150:../USER/main.c **** void puth2(dt) int dt;{ puth((dt >> 4) & 0xf); puth(dt & 0xf); }
 2024              		.loc 1 150 55 view .LVU607
 2025              	.LBE348:
 2026              	.LBE349:
 151:../USER/main.c **** void puth4(dt) int dt;{ puth2((dt >> 8) & 0xff); puth2(dt & 0xff); }
 2027              		.loc 1 151 48 is_stmt 1 view .LVU608
 2028              	.LBB350:
 2029              	.LBI350:
 150:../USER/main.c **** void puth2(dt) int dt;{ puth((dt >> 4) & 0xf); puth(dt & 0xf); }
 2030              		.loc 1 150 6 view .LVU609
 2031              	.LBB351:
 150:../USER/main.c **** void puth2(dt) int dt;{ puth((dt >> 4) & 0xf); puth(dt & 0xf); }
 2032              		.loc 1 150 24 view .LVU610
 150:../USER/main.c **** void puth2(dt) int dt;{ puth((dt >> 4) & 0xf); puth(dt & 0xf); }
 2033              		.loc 1 150 26 is_stmt 0 view .LVU611
 2034 008c 092C     		cmp	r4, #9
 2035 008e E0B2     		uxtb	r0, r4
 2036 0090 04DC     		bgt	.L166
 150:../USER/main.c **** void puth2(dt) int dt;{ puth((dt >> 4) & 0xf); puth(dt & 0xf); }
 2037              		.loc 1 150 34 is_stmt 1 view .LVU612
 2038              	.LBE351:
 2039              	.LBE350:
 2040              	.LBE345:
 2041              	.LBE344:
 2042              	.LBE331:
 2043              	.LBE330:
 154:../USER/main.c **** void putsuart(char *buf){
 2044              		.loc 1 154 1 is_stmt 0 view .LVU613
 2045 0092 BDE8F840 		pop	{r3, r4, r5, r6, r7, lr}
 2046              		.cfi_remember_state
 2047              		.cfi_restore 14
 2048              		.cfi_restore 7
 2049              		.cfi_restore 6
 2050              		.cfi_restore 5
 2051              		.cfi_restore 4
 2052              		.cfi_restore 3
 2053              		.cfi_def_cfa_offset 0
 2054              	.LVL116:
 2055              	.LBB362:
 2056              	.LBB360:
 2057              	.LBB358:
 2058              	.LBB356:
 2059              	.LBB354:
 2060              	.LBB352:
 150:../USER/main.c **** void puth2(dt) int dt;{ puth((dt >> 4) & 0xf); puth(dt & 0xf); }
 2061              		.loc 1 150 34 view .LVU614
 2062 0096 3030     		adds	r0, r0, #48
 2063 0098 FFF7FEBF 		b	putch_uart
 2064              	.LVL117:
 2065              	.L166:
 2066              		.cfi_restore_state
 150:../USER/main.c **** void puth2(dt) int dt;{ puth((dt >> 4) & 0xf); puth(dt & 0xf); }
 2067              		.loc 1 150 55 is_stmt 1 view .LVU615
 2068 009c 3730     		adds	r0, r0, #55
 2069              	.LBE352:
 2070              	.LBE354:
 2071              	.LBE356:
 2072              	.LBE358:
 2073              	.LBE360:
 2074              	.LBE362:
 154:../USER/main.c **** void putsuart(char *buf){
 2075              		.loc 1 154 1 is_stmt 0 view .LVU616
 2076 009e BDE8F840 		pop	{r3, r4, r5, r6, r7, lr}
 2077              		.cfi_restore 14
 2078              		.cfi_restore 7
 2079              		.cfi_restore 6
 2080              		.cfi_restore 5
 2081              		.cfi_restore 4
 2082              		.cfi_restore 3
 2083              		.cfi_def_cfa_offset 0
 2084              	.LVL118:
 2085              	.LBB363:
 2086              	.LBB361:
 2087              	.LBB359:
 2088              	.LBB357:
 2089              	.LBB355:
 2090              	.LBB353:
 150:../USER/main.c **** void puth2(dt) int dt;{ puth((dt >> 4) & 0xf); puth(dt & 0xf); }
 2091              		.loc 1 150 55 view .LVU617
 2092 00a2 FFF7FEBF 		b	putch_uart
 2093              	.LVL119:
 2094              	.LBE353:
 2095              	.LBE355:
 2096              	.LBE357:
 2097              	.LBE359:
 2098              	.LBE361:
 2099              	.LBE363:
 2100              		.cfi_endproc
 2101              	.LFE45:
 2103 00a6 00BF     		.section	.text.putsuart,"ax",%progbits
 2104              		.align	1
 2105              		.p2align 2,,3
 2106              		.global	putsuart
 2107              		.syntax unified
 2108              		.thumb
 2109              		.thumb_func
 2110              		.fpu softvfp
 2112              	putsuart:
 2113              	.LVL120:
 2114              	.LFB46:
 155:../USER/main.c **** 	while(1){
 2115              		.loc 1 155 25 is_stmt 1 view -0
 2116              		.cfi_startproc
 2117              		@ args = 0, pretend = 0, frame = 0
 2118              		@ frame_needed = 0, uses_anonymous_args = 0
 155:../USER/main.c **** 	while(1){
 2119              		.loc 1 155 25 is_stmt 0 view .LVU619
 2120 0000 10B5     		push	{r4, lr}
 2121              		.cfi_def_cfa_offset 8
 2122              		.cfi_offset 4, -8
 2123              		.cfi_offset 14, -4
 155:../USER/main.c **** 	while(1){
 2124              		.loc 1 155 25 view .LVU620
 2125 0002 0446     		mov	r4, r0
 156:../USER/main.c **** 		if(*buf==0) break;
 2126              		.loc 1 156 2 is_stmt 1 view .LVU621
 157:../USER/main.c **** 		else        putch(*buf++);
 2127              		.loc 1 157 3 view .LVU622
 157:../USER/main.c **** 		else        putch(*buf++);
 2128              		.loc 1 157 6 is_stmt 0 view .LVU623
 2129 0004 90F90000 		ldrsb	r0, [r0]
 2130              	.LVL121:
 157:../USER/main.c **** 		else        putch(*buf++);
 2131              		.loc 1 157 5 view .LVU624
 2132 0008 28B1     		cbz	r0, .L168
 2133              	.LVL122:
 2134              	.L170:
 158:../USER/main.c **** 	}
 2135              		.loc 1 158 15 is_stmt 1 view .LVU625
 158:../USER/main.c **** 	}
 2136              		.loc 1 158 15 is_stmt 0 view .LVU626
 2137 000a FFF7FEFF 		bl	putch_uart
 2138              	.LVL123:
 156:../USER/main.c **** 		if(*buf==0) break;
 2139              		.loc 1 156 2 is_stmt 1 view .LVU627
 157:../USER/main.c **** 		else        putch(*buf++);
 2140              		.loc 1 157 3 view .LVU628
 157:../USER/main.c **** 		else        putch(*buf++);
 2141              		.loc 1 157 6 is_stmt 0 view .LVU629
 2142 000e 14F9010F 		ldrsb	r0, [r4, #1]!
 2143              	.LVL124:
 157:../USER/main.c **** 		else        putch(*buf++);
 2144              		.loc 1 157 5 view .LVU630
 2145 0012 0028     		cmp	r0, #0
 2146 0014 F9D1     		bne	.L170
 2147              	.LVL125:
 2148              	.L168:
 160:../USER/main.c **** void getsuart(char *buf){
 2149              		.loc 1 160 1 view .LVU631
 2150 0016 10BD     		pop	{r4, pc}
 2151              		.cfi_endproc
 2152              	.LFE46:
 2154              		.section	.text.getsuart,"ax",%progbits
 2155              		.align	1
 2156              		.p2align 2,,3
 2157              		.global	getsuart
 2158              		.syntax unified
 2159              		.thumb
 2160              		.thumb_func
 2161              		.fpu softvfp
 2163              	getsuart:
 2164              	.LVL126:
 2165              	.LFB47:
 161:../USER/main.c **** 	char ch;
 2166              		.loc 1 161 25 is_stmt 1 view -0
 2167              		.cfi_startproc
 2168              		@ args = 0, pretend = 0, frame = 0
 2169              		@ frame_needed = 0, uses_anonymous_args = 0
 161:../USER/main.c **** 	char ch;
 2170              		.loc 1 161 25 is_stmt 0 view .LVU633
 2171 0000 2DE9F843 		push	{r3, r4, r5, r6, r7, r8, r9, lr}
 2172              		.cfi_def_cfa_offset 32
 2173              		.cfi_offset 3, -32
 2174              		.cfi_offset 4, -28
 2175              		.cfi_offset 5, -24
 2176              		.cfi_offset 6, -20
 2177              		.cfi_offset 7, -16
 2178              		.cfi_offset 8, -12
 2179              		.cfi_offset 9, -8
 2180              		.cfi_offset 14, -4
 161:../USER/main.c **** 	char ch;
 2181              		.loc 1 161 25 view .LVU634
 2182 0004 0746     		mov	r7, r0
 2183              	.LBB368:
 2184              	.LBB369:
 2185              	.LBB370:
 2186              	.LBB371:
 123:../USER/main.c **** 	if(kinbwp>=256) kinbwp = 0;
 2187              		.loc 1 123 52 view .LVU635
 2188 0006 4FF00108 		mov	r8, #1
 2189 000a 284C     		ldr	r4, .L200
 2190 000c 284D     		ldr	r5, .L200+4
 2191 000e 294E     		ldr	r6, .L200+8
 2192              	.LVL127:
 2193              	.L189:
 123:../USER/main.c **** 	if(kinbwp>=256) kinbwp = 0;
 2194              		.loc 1 123 52 view .LVU636
 2195              	.LBE371:
 2196              	.LBE370:
 2197              	.LBE369:
 2198              	.LBE368:
 162:../USER/main.c **** 	while(1){
 2199              		.loc 1 162 2 is_stmt 1 view .LVU637
 163:../USER/main.c **** 		ch = getch(); putch(ch); *buf++ = ch;
 2200              		.loc 1 163 2 view .LVU638
 164:../USER/main.c **** 		if(ch==0x0d) break;
 2201              		.loc 1 164 3 view .LVU639
 2202              	.LBB381:
 2203              	.LBI368:
 127:../USER/main.c **** 	char dt;
 2204              		.loc 1 127 6 view .LVU640
 2205              	.LBB378:
 2206              	.LBB375:
 2207              	.LBB372:
 123:../USER/main.c **** 	if(kinbwp>=256) kinbwp = 0;
 2208              		.loc 1 123 11 is_stmt 0 view .LVU641
 2209 0010 4FF04029 		mov	r9, #1073758208
 2210 0014 2368     		ldr	r3, [r4]
 2211              	.L184:
 2212              	.LBE372:
 2213              	.LBE375:
 129:../USER/main.c **** 	dt = kinbuf[kinbrp++];
 2214              		.loc 1 129 14 view .LVU642
 2215 0016 3268     		ldr	r2, [r6]
 129:../USER/main.c **** 	dt = kinbuf[kinbrp++];
 2216              		.loc 1 129 7 view .LVU643
 2217 0018 9A42     		cmp	r2, r3
 2218 001a 15D1     		bne	.L199
 129:../USER/main.c **** 	dt = kinbuf[kinbrp++];
 2219              		.loc 1 129 24 is_stmt 1 view .LVU644
 2220              	.LBB376:
 2221              	.LBI370:
 116:../USER/main.c **** 	char ch;
 2222              		.loc 1 116 6 view .LVU645
 2223              	.LBB373:
 117:../USER/main.c **** 	//
 2224              		.loc 1 117 2 view .LVU646
 119:../USER/main.c **** 	if(ch!=0) kinbuf[kinbwp++] = ch;
 2225              		.loc 1 119 2 view .LVU647
 119:../USER/main.c **** 	if(ch!=0) kinbuf[kinbwp++] = ch;
 2226              		.loc 1 119 7 is_stmt 0 view .LVU648
 2227 001c FFF7FEFF 		bl	SPI_ReadData
 2228              	.LVL128:
 119:../USER/main.c **** 	if(ch!=0) kinbuf[kinbwp++] = ch;
 2229              		.loc 1 119 5 view .LVU649
 2230 0020 40B2     		sxtb	r0, r0
 2231              	.LVL129:
 120:../USER/main.c **** 	if(kinbwp>=256) kinbwp = 0;
 2232              		.loc 1 120 2 is_stmt 1 view .LVU650
 120:../USER/main.c **** 	if(kinbwp>=256) kinbwp = 0;
 2233              		.loc 1 120 4 is_stmt 0 view .LVU651
 2234 0022 98BB     		cbnz	r0, .L178
 2235 0024 2368     		ldr	r3, [r4]
 2236              	.L179:
 121:../USER/main.c **** 	//
 2237              		.loc 1 121 2 is_stmt 1 view .LVU652
 121:../USER/main.c **** 	//
 2238              		.loc 1 121 4 is_stmt 0 view .LVU653
 2239 0026 FF2B     		cmp	r3, #255
 2240 0028 20DD     		ble	.L180
 121:../USER/main.c **** 	//
 2241              		.loc 1 121 18 is_stmt 1 view .LVU654
 121:../USER/main.c **** 	//
 2242              		.loc 1 121 25 is_stmt 0 view .LVU655
 2243 002a 0023     		movs	r3, #0
 2244 002c 2360     		str	r3, [r4]
 123:../USER/main.c **** 	if(kinbwp>=256) kinbwp = 0;
 2245              		.loc 1 123 2 is_stmt 1 view .LVU656
 123:../USER/main.c **** 	if(kinbwp>=256) kinbwp = 0;
 2246              		.loc 1 123 11 is_stmt 0 view .LVU657
 2247 002e D9F80430 		ldr	r3, [r9, #4]
 123:../USER/main.c **** 	if(kinbwp>=256) kinbwp = 0;
 2248              		.loc 1 123 4 view .LVU658
 2249 0032 13F00203 		ands	r3, r3, #2
 2250 0036 EED0     		beq	.L184
 123:../USER/main.c **** 	if(kinbwp>=256) kinbwp = 0;
 2251              		.loc 1 123 39 is_stmt 1 view .LVU659
 123:../USER/main.c **** 	if(kinbwp>=256) kinbwp = 0;
 2252              		.loc 1 123 52 is_stmt 0 view .LVU660
 2253 0038 0122     		movs	r2, #1
 123:../USER/main.c **** 	if(kinbwp>=256) kinbwp = 0;
 2254              		.loc 1 123 63 view .LVU661
 2255 003a D9F80030 		ldr	r3, [r9]
 123:../USER/main.c **** 	if(kinbwp>=256) kinbwp = 0;
 2256              		.loc 1 123 52 view .LVU662
 2257 003e C4F80080 		str	r8, [r4]
 123:../USER/main.c **** 	if(kinbwp>=256) kinbwp = 0;
 2258              		.loc 1 123 56 view .LVU663
 2259 0042 2B70     		strb	r3, [r5]
 124:../USER/main.c **** 	//
 2260              		.loc 1 124 2 is_stmt 1 view .LVU664
 2261              	.L191:
 123:../USER/main.c **** 	if(kinbwp>=256) kinbwp = 0;
 2262              		.loc 1 123 4 is_stmt 0 view .LVU665
 2263 0044 1346     		mov	r3, r2
 2264 0046 E6E7     		b	.L184
 2265              	.LVL130:
 2266              	.L199:
 123:../USER/main.c **** 	if(kinbwp>=256) kinbwp = 0;
 2267              		.loc 1 123 4 view .LVU666
 2268              	.LBE373:
 2269              	.LBE376:
 130:../USER/main.c **** 	if(kinbrp>=256) kinbrp = 0;
 2270              		.loc 1 130 2 is_stmt 1 view .LVU667
 130:../USER/main.c **** 	if(kinbrp>=256) kinbrp = 0;
 2271              		.loc 1 130 20 is_stmt 0 view .LVU668
 2272 0048 531C     		adds	r3, r2, #1
 131:../USER/main.c **** 	return dt;
 2273              		.loc 1 131 4 view .LVU669
 2274 004a FF2B     		cmp	r3, #255
 130:../USER/main.c **** 	if(kinbrp>=256) kinbrp = 0;
 2275              		.loc 1 130 20 view .LVU670
 2276 004c 3360     		str	r3, [r6]
 130:../USER/main.c **** 	if(kinbrp>=256) kinbrp = 0;
 2277              		.loc 1 130 5 view .LVU671
 2278 004e 15F90290 		ldrsb	r9, [r5, r2]
 2279              	.LVL131:
 131:../USER/main.c **** 	return dt;
 2280              		.loc 1 131 2 is_stmt 1 view .LVU672
 131:../USER/main.c **** 	return dt;
 2281              		.loc 1 131 4 is_stmt 0 view .LVU673
 2282 0052 20DD     		ble	.L186
 131:../USER/main.c **** 	return dt;
 2283              		.loc 1 131 18 is_stmt 1 view .LVU674
 131:../USER/main.c **** 	return dt;
 2284              		.loc 1 131 25 is_stmt 0 view .LVU675
 2285 0054 0023     		movs	r3, #0
 2286              	.LBE378:
 2287              	.LBE381:
 164:../USER/main.c **** 		if(ch==0x0d) break;
 2288              		.loc 1 164 17 view .LVU676
 2289 0056 4846     		mov	r0, r9
 2290              	.LBB382:
 2291              	.LBB379:
 131:../USER/main.c **** 	return dt;
 2292              		.loc 1 131 25 view .LVU677
 2293 0058 3360     		str	r3, [r6]
 132:../USER/main.c **** }
 2294              		.loc 1 132 2 is_stmt 1 view .LVU678
 2295              	.LVL132:
 132:../USER/main.c **** }
 2296              		.loc 1 132 2 is_stmt 0 view .LVU679
 2297              	.LBE379:
 2298              	.LBE382:
 164:../USER/main.c **** 		if(ch==0x0d) break;
 2299              		.loc 1 164 17 is_stmt 1 view .LVU680
 2300 005a FFF7FEFF 		bl	putch_uart
 2301              	.LVL133:
 164:../USER/main.c **** 		if(ch==0x0d) break;
 2302              		.loc 1 164 28 view .LVU681
 165:../USER/main.c **** 	}
 2303              		.loc 1 165 5 is_stmt 0 view .LVU682
 2304 005e B9F10D0F 		cmp	r9, #13
 164:../USER/main.c **** 		if(ch==0x0d) break;
 2305              		.loc 1 164 35 view .LVU683
 2306 0062 07F8019B 		strb	r9, [r7], #1
 2307              	.LVL134:
 165:../USER/main.c **** 	}
 2308              		.loc 1 165 3 is_stmt 1 view .LVU684
 165:../USER/main.c **** 	}
 2309              		.loc 1 165 5 is_stmt 0 view .LVU685
 2310 0066 D3D1     		bne	.L189
 167:../USER/main.c **** int ishex(ch) char ch;{
 2311              		.loc 1 167 1 view .LVU686
 2312 0068 BDE8F883 		pop	{r3, r4, r5, r6, r7, r8, r9, pc}
 2313              	.LVL135:
 2314              	.L180:
 2315              	.LBB383:
 2316              	.LBB380:
 2317              	.LBB377:
 2318              	.LBB374:
 123:../USER/main.c **** 	if(kinbwp>=256) kinbwp = 0;
 2319              		.loc 1 123 2 is_stmt 1 view .LVU687
 123:../USER/main.c **** 	if(kinbwp>=256) kinbwp = 0;
 2320              		.loc 1 123 11 is_stmt 0 view .LVU688
 2321 006c D9F80420 		ldr	r2, [r9, #4]
 123:../USER/main.c **** 	if(kinbwp>=256) kinbwp = 0;
 2322              		.loc 1 123 4 view .LVU689
 2323 0070 9207     		lsls	r2, r2, #30
 2324 0072 D0D5     		bpl	.L184
 123:../USER/main.c **** 	if(kinbwp>=256) kinbwp = 0;
 2325              		.loc 1 123 39 is_stmt 1 view .LVU690
 123:../USER/main.c **** 	if(kinbwp>=256) kinbwp = 0;
 2326              		.loc 1 123 63 is_stmt 0 view .LVU691
 2327 0074 D9F80010 		ldr	r1, [r9]
 123:../USER/main.c **** 	if(kinbwp>=256) kinbwp = 0;
 2328              		.loc 1 123 52 view .LVU692
 2329 0078 5A1C     		adds	r2, r3, #1
 124:../USER/main.c **** 	//
 2330              		.loc 1 124 4 view .LVU693
 2331 007a B2F5807F 		cmp	r2, #256
 123:../USER/main.c **** 	if(kinbwp>=256) kinbwp = 0;
 2332              		.loc 1 123 56 view .LVU694
 2333 007e E954     		strb	r1, [r5, r3]
 124:../USER/main.c **** 	//
 2334              		.loc 1 124 2 is_stmt 1 view .LVU695
 123:../USER/main.c **** 	if(kinbwp>=256) kinbwp = 0;
 2335              		.loc 1 123 52 is_stmt 0 view .LVU696
 2336 0080 2260     		str	r2, [r4]
 124:../USER/main.c **** 	//
 2337              		.loc 1 124 4 view .LVU697
 2338 0082 DFD1     		bne	.L191
 124:../USER/main.c **** 	//
 2339              		.loc 1 124 18 is_stmt 1 view .LVU698
 124:../USER/main.c **** 	//
 2340              		.loc 1 124 25 is_stmt 0 view .LVU699
 2341 0084 0022     		movs	r2, #0
 2342 0086 1346     		mov	r3, r2
 2343 0088 2260     		str	r2, [r4]
 2344 008a C4E7     		b	.L184
 2345              	.L178:
 120:../USER/main.c **** 	if(kinbwp>=256) kinbwp = 0;
 2346              		.loc 1 120 12 is_stmt 1 view .LVU700
 120:../USER/main.c **** 	if(kinbwp>=256) kinbwp = 0;
 2347              		.loc 1 120 25 is_stmt 0 view .LVU701
 2348 008c 2268     		ldr	r2, [r4]
 2349 008e 531C     		adds	r3, r2, #1
 120:../USER/main.c **** 	if(kinbwp>=256) kinbwp = 0;
 2350              		.loc 1 120 29 view .LVU702
 2351 0090 A854     		strb	r0, [r5, r2]
 120:../USER/main.c **** 	if(kinbwp>=256) kinbwp = 0;
 2352              		.loc 1 120 25 view .LVU703
 2353 0092 2360     		str	r3, [r4]
 2354 0094 C7E7     		b	.L179
 2355              	.LVL136:
 2356              	.L186:
 120:../USER/main.c **** 	if(kinbwp>=256) kinbwp = 0;
 2357              		.loc 1 120 25 view .LVU704
 2358              	.LBE374:
 2359              	.LBE377:
 132:../USER/main.c **** }
 2360              		.loc 1 132 2 is_stmt 1 view .LVU705
 132:../USER/main.c **** }
 2361              		.loc 1 132 2 is_stmt 0 view .LVU706
 2362              	.LBE380:
 2363              	.LBE383:
 164:../USER/main.c **** 		if(ch==0x0d) break;
 2364              		.loc 1 164 17 is_stmt 1 view .LVU707
 2365 0096 4846     		mov	r0, r9
 2366 0098 FFF7FEFF 		bl	putch_uart
 2367              	.LVL137:
 164:../USER/main.c **** 		if(ch==0x0d) break;
 2368              		.loc 1 164 28 view .LVU708
 165:../USER/main.c **** 	}
 2369              		.loc 1 165 5 is_stmt 0 view .LVU709
 2370 009c B9F10D0F 		cmp	r9, #13
 164:../USER/main.c **** 		if(ch==0x0d) break;
 2371              		.loc 1 164 35 view .LVU710
 2372 00a0 07F8019B 		strb	r9, [r7], #1
 2373              	.LVL138:
 165:../USER/main.c **** 	}
 2374              		.loc 1 165 3 is_stmt 1 view .LVU711
 165:../USER/main.c **** 	}
 2375              		.loc 1 165 5 is_stmt 0 view .LVU712
 2376 00a4 B4D1     		bne	.L189
 167:../USER/main.c **** int ishex(ch) char ch;{
 2377              		.loc 1 167 1 view .LVU713
 2378 00a6 BDE8F883 		pop	{r3, r4, r5, r6, r7, r8, r9, pc}
 2379              	.LVL139:
 2380              	.L201:
 167:../USER/main.c **** int ishex(ch) char ch;{
 2381              		.loc 1 167 1 view .LVU714
 2382 00aa 00BF     		.align	2
 2383              	.L200:
 2384 00ac 00000000 		.word	.LANCHOR0
 2385 00b0 00000000 		.word	kinbuf
 2386 00b4 00000000 		.word	.LANCHOR1
 2387              		.cfi_endproc
 2388              	.LFE47:
 2390              		.section	.text.ishex,"ax",%progbits
 2391              		.align	1
 2392              		.p2align 2,,3
 2393              		.global	ishex
 2394              		.syntax unified
 2395              		.thumb
 2396              		.thumb_func
 2397              		.fpu softvfp
 2399              	ishex:
 2400              	.LVL140:
 2401              	.LFB48:
 168:../USER/main.c ****   int hd;
 2402              		.loc 1 168 23 is_stmt 1 view -0
 2403              		.cfi_startproc
 2404              		@ args = 0, pretend = 0, frame = 0
 2405              		@ frame_needed = 0, uses_anonymous_args = 0
 2406              		@ link register save eliminated.
 169:../USER/main.c ****   if(ch>='0' && ch<='9') hd = ch - 0x30;
 2407              		.loc 1 169 3 view .LVU716
 170:../USER/main.c ****   else if(ch>='A' && ch<='F') hd = ch - 0x37;
 2408              		.loc 1 170 3 view .LVU717
 168:../USER/main.c ****   int hd;
 2409              		.loc 1 168 23 is_stmt 0 view .LVU718
 2410 0000 40B2     		sxtb	r0, r0
 170:../USER/main.c ****   else if(ch>='A' && ch<='F') hd = ch - 0x37;
 2411              		.loc 1 170 14 view .LVU719
 2412 0002 C3B2     		uxtb	r3, r0
 170:../USER/main.c ****   else if(ch>='A' && ch<='F') hd = ch - 0x37;
 2413              		.loc 1 170 5 view .LVU720
 2414 0004 A3F13002 		sub	r2, r3, #48
 2415 0008 092A     		cmp	r2, #9
 2416 000a 01D8     		bhi	.L203
 170:../USER/main.c ****   else if(ch>='A' && ch<='F') hd = ch - 0x37;
 2417              		.loc 1 170 26 is_stmt 1 discriminator 1 view .LVU721
 170:../USER/main.c ****   else if(ch>='A' && ch<='F') hd = ch - 0x37;
 2418              		.loc 1 170 29 is_stmt 0 discriminator 1 view .LVU722
 2419 000c 3038     		subs	r0, r0, #48
 2420              	.LVL141:
 170:../USER/main.c ****   else if(ch>='A' && ch<='F') hd = ch - 0x37;
 2421              		.loc 1 170 29 discriminator 1 view .LVU723
 2422 000e 7047     		bx	lr
 2423              	.LVL142:
 2424              	.L203:
 171:../USER/main.c ****   else hd = -1;
 2425              		.loc 1 171 8 is_stmt 1 view .LVU724
 171:../USER/main.c ****   else hd = -1;
 2426              		.loc 1 171 10 is_stmt 0 view .LVU725
 2427 0010 413B     		subs	r3, r3, #65
 2428 0012 052B     		cmp	r3, #5
 171:../USER/main.c ****   else hd = -1;
 2429              		.loc 1 171 31 is_stmt 1 view .LVU726
 171:../USER/main.c ****   else hd = -1;
 2430              		.loc 1 171 34 is_stmt 0 view .LVU727
 2431 0014 94BF     		ite	ls
 2432 0016 3738     		subls	r0, r0, #55
 2433              	.LVL143:
 172:../USER/main.c ****   return hd;
 2434              		.loc 1 172 11 view .LVU728
 2435 0018 4FF0FF30 		movhi	r0, #-1
 2436              	.LVL144:
 173:../USER/main.c **** }
 2437              		.loc 1 173 3 is_stmt 1 view .LVU729
 174:../USER/main.c **** void getssu(cbuf) char *cbuf;{ gets(cbuf); setsup(cbuf);}
 2438              		.loc 1 174 1 is_stmt 0 view .LVU730
 2439 001c 7047     		bx	lr
 2440              		.cfi_endproc
 2441              	.LFE48:
 2443 001e 00BF     		.section	.text.getssu,"ax",%progbits
 2444              		.align	1
 2445              		.p2align 2,,3
 2446              		.global	getssu
 2447              		.syntax unified
 2448              		.thumb
 2449              		.thumb_func
 2450              		.fpu softvfp
 2452              	getssu:
 2453              	.LVL145:
 2454              	.LFB49:
 175:../USER/main.c **** void putadrhd(adr) long adr;{puts("\r\n"); puth8(adr); putch(':');}
 2455              		.loc 1 175 30 is_stmt 1 view -0
 2456              		.cfi_startproc
 2457              		@ args = 0, pretend = 0, frame = 0
 2458              		@ frame_needed = 0, uses_anonymous_args = 0
 175:../USER/main.c **** void putadrhd(adr) long adr;{puts("\r\n"); puth8(adr); putch(':');}
 2459              		.loc 1 175 32 view .LVU732
 175:../USER/main.c **** void putadrhd(adr) long adr;{puts("\r\n"); puth8(adr); putch(':');}
 2460              		.loc 1 175 30 is_stmt 0 view .LVU733
 2461 0000 2DE9F047 		push	{r4, r5, r6, r7, r8, r9, r10, lr}
 2462              		.cfi_def_cfa_offset 32
 2463              		.cfi_offset 4, -32
 2464              		.cfi_offset 5, -28
 2465              		.cfi_offset 6, -24
 2466              		.cfi_offset 7, -20
 2467              		.cfi_offset 8, -16
 2468              		.cfi_offset 9, -12
 2469              		.cfi_offset 10, -8
 2470              		.cfi_offset 14, -4
 175:../USER/main.c **** void putadrhd(adr) long adr;{puts("\r\n"); puth8(adr); putch(':');}
 2471              		.loc 1 175 30 view .LVU734
 2472 0004 0546     		mov	r5, r0
 2473              	.LVL146:
 2474              	.LBB394:
 2475              	.LBI394:
 161:../USER/main.c **** 	char ch;
 2476              		.loc 1 161 6 is_stmt 1 view .LVU735
 2477              	.LBB395:
 2478              	.LBB396:
 2479              	.LBB397:
 2480              	.LBB398:
 2481              	.LBB399:
 123:../USER/main.c **** 	if(kinbwp>=256) kinbwp = 0;
 2482              		.loc 1 123 52 is_stmt 0 view .LVU736
 2483 0006 4FF00108 		mov	r8, #1
 2484              	.LBE399:
 2485              	.LBE398:
 2486              	.LBE397:
 2487              	.LBE396:
 2488              	.LBE395:
 2489              	.LBE394:
 175:../USER/main.c **** void putadrhd(adr) long adr;{puts("\r\n"); puth8(adr); putch(':');}
 2490              		.loc 1 175 30 view .LVU737
 2491 000a 0746     		mov	r7, r0
 2492 000c DFF8E090 		ldr	r9, .L238+8
 2493 0010 354C     		ldr	r4, .L238
 2494 0012 364E     		ldr	r6, .L238+4
 2495              	.LVL147:
 2496              	.L219:
 2497              	.LBB414:
 2498              	.LBB412:
 162:../USER/main.c **** 	while(1){
 2499              		.loc 1 162 2 is_stmt 1 view .LVU738
 163:../USER/main.c **** 		ch = getch(); putch(ch); *buf++ = ch;
 2500              		.loc 1 163 2 view .LVU739
 164:../USER/main.c **** 		if(ch==0x0d) break;
 2501              		.loc 1 164 3 view .LVU740
 2502              	.LBB409:
 2503              	.LBI396:
 127:../USER/main.c **** 	char dt;
 2504              		.loc 1 127 6 view .LVU741
 2505              	.LBB406:
 2506              	.LBB403:
 2507              	.LBB400:
 123:../USER/main.c **** 	if(kinbwp>=256) kinbwp = 0;
 2508              		.loc 1 123 11 is_stmt 0 view .LVU742
 2509 0014 4FF0402A 		mov	r10, #1073758208
 2510 0018 D9F80030 		ldr	r3, [r9]
 2511              	.L214:
 2512              	.LBE400:
 2513              	.LBE403:
 129:../USER/main.c **** 	dt = kinbuf[kinbrp++];
 2514              		.loc 1 129 14 view .LVU743
 2515 001c 3268     		ldr	r2, [r6]
 129:../USER/main.c **** 	dt = kinbuf[kinbrp++];
 2516              		.loc 1 129 7 view .LVU744
 2517 001e 9A42     		cmp	r2, r3
 2518 0020 18D1     		bne	.L237
 129:../USER/main.c **** 	dt = kinbuf[kinbrp++];
 2519              		.loc 1 129 24 is_stmt 1 view .LVU745
 2520              	.LBB404:
 2521              	.LBI398:
 116:../USER/main.c **** 	char ch;
 2522              		.loc 1 116 6 view .LVU746
 2523              	.LBB401:
 117:../USER/main.c **** 	//
 2524              		.loc 1 117 2 view .LVU747
 119:../USER/main.c **** 	if(ch!=0) kinbuf[kinbwp++] = ch;
 2525              		.loc 1 119 2 view .LVU748
 119:../USER/main.c **** 	if(ch!=0) kinbuf[kinbwp++] = ch;
 2526              		.loc 1 119 7 is_stmt 0 view .LVU749
 2527 0022 FFF7FEFF 		bl	SPI_ReadData
 2528              	.LVL148:
 119:../USER/main.c **** 	if(ch!=0) kinbuf[kinbwp++] = ch;
 2529              		.loc 1 119 5 view .LVU750
 2530 0026 40B2     		sxtb	r0, r0
 2531              	.LVL149:
 120:../USER/main.c **** 	if(kinbwp>=256) kinbwp = 0;
 2532              		.loc 1 120 2 is_stmt 1 view .LVU751
 120:../USER/main.c **** 	if(kinbwp>=256) kinbwp = 0;
 2533              		.loc 1 120 4 is_stmt 0 view .LVU752
 2534 0028 0028     		cmp	r0, #0
 2535 002a 46D1     		bne	.L208
 2536 002c D9F80030 		ldr	r3, [r9]
 2537              	.L209:
 121:../USER/main.c **** 	//
 2538              		.loc 1 121 2 is_stmt 1 view .LVU753
 121:../USER/main.c **** 	//
 2539              		.loc 1 121 4 is_stmt 0 view .LVU754
 2540 0030 FF2B     		cmp	r3, #255
 2541 0032 30DD     		ble	.L210
 121:../USER/main.c **** 	//
 2542              		.loc 1 121 18 is_stmt 1 view .LVU755
 121:../USER/main.c **** 	//
 2543              		.loc 1 121 25 is_stmt 0 view .LVU756
 2544 0034 0023     		movs	r3, #0
 2545 0036 C9F80030 		str	r3, [r9]
 123:../USER/main.c **** 	if(kinbwp>=256) kinbwp = 0;
 2546              		.loc 1 123 2 is_stmt 1 view .LVU757
 123:../USER/main.c **** 	if(kinbwp>=256) kinbwp = 0;
 2547              		.loc 1 123 11 is_stmt 0 view .LVU758
 2548 003a DAF80430 		ldr	r3, [r10, #4]
 123:../USER/main.c **** 	if(kinbwp>=256) kinbwp = 0;
 2549              		.loc 1 123 4 view .LVU759
 2550 003e 13F00203 		ands	r3, r3, #2
 2551 0042 EBD0     		beq	.L214
 123:../USER/main.c **** 	if(kinbwp>=256) kinbwp = 0;
 2552              		.loc 1 123 39 is_stmt 1 view .LVU760
 123:../USER/main.c **** 	if(kinbwp>=256) kinbwp = 0;
 2553              		.loc 1 123 52 is_stmt 0 view .LVU761
 2554 0044 0122     		movs	r2, #1
 123:../USER/main.c **** 	if(kinbwp>=256) kinbwp = 0;
 2555              		.loc 1 123 63 view .LVU762
 2556 0046 DAF80030 		ldr	r3, [r10]
 123:../USER/main.c **** 	if(kinbwp>=256) kinbwp = 0;
 2557              		.loc 1 123 52 view .LVU763
 2558 004a C9F80080 		str	r8, [r9]
 123:../USER/main.c **** 	if(kinbwp>=256) kinbwp = 0;
 2559              		.loc 1 123 56 view .LVU764
 2560 004e 2370     		strb	r3, [r4]
 124:../USER/main.c **** 	//
 2561              		.loc 1 124 2 is_stmt 1 view .LVU765
 2562              	.L225:
 123:../USER/main.c **** 	if(kinbwp>=256) kinbwp = 0;
 2563              		.loc 1 123 4 is_stmt 0 view .LVU766
 2564 0050 1346     		mov	r3, r2
 2565 0052 E3E7     		b	.L214
 2566              	.LVL150:
 2567              	.L237:
 123:../USER/main.c **** 	if(kinbwp>=256) kinbwp = 0;
 2568              		.loc 1 123 4 view .LVU767
 2569              	.LBE401:
 2570              	.LBE404:
 130:../USER/main.c **** 	if(kinbrp>=256) kinbrp = 0;
 2571              		.loc 1 130 2 is_stmt 1 view .LVU768
 130:../USER/main.c **** 	if(kinbrp>=256) kinbrp = 0;
 2572              		.loc 1 130 20 is_stmt 0 view .LVU769
 2573 0054 531C     		adds	r3, r2, #1
 131:../USER/main.c **** 	return dt;
 2574              		.loc 1 131 4 view .LVU770
 2575 0056 FF2B     		cmp	r3, #255
 130:../USER/main.c **** 	if(kinbrp>=256) kinbrp = 0;
 2576              		.loc 1 130 20 view .LVU771
 2577 0058 3360     		str	r3, [r6]
 130:../USER/main.c **** 	if(kinbrp>=256) kinbrp = 0;
 2578              		.loc 1 130 5 view .LVU772
 2579 005a 14F902A0 		ldrsb	r10, [r4, r2]
 2580              	.LVL151:
 131:../USER/main.c **** 	return dt;
 2581              		.loc 1 131 2 is_stmt 1 view .LVU773
 131:../USER/main.c **** 	return dt;
 2582              		.loc 1 131 4 is_stmt 0 view .LVU774
 2583 005e 33DD     		ble	.L216
 131:../USER/main.c **** 	return dt;
 2584              		.loc 1 131 18 is_stmt 1 view .LVU775
 131:../USER/main.c **** 	return dt;
 2585              		.loc 1 131 25 is_stmt 0 view .LVU776
 2586 0060 0023     		movs	r3, #0
 2587              	.LBE406:
 2588              	.LBE409:
 164:../USER/main.c **** 		if(ch==0x0d) break;
 2589              		.loc 1 164 17 view .LVU777
 2590 0062 5046     		mov	r0, r10
 2591              	.LBB410:
 2592              	.LBB407:
 131:../USER/main.c **** 	return dt;
 2593              		.loc 1 131 25 view .LVU778
 2594 0064 3360     		str	r3, [r6]
 132:../USER/main.c **** }
 2595              		.loc 1 132 2 is_stmt 1 view .LVU779
 2596              	.LVL152:
 132:../USER/main.c **** }
 2597              		.loc 1 132 2 is_stmt 0 view .LVU780
 2598              	.LBE407:
 2599              	.LBE410:
 164:../USER/main.c **** 		if(ch==0x0d) break;
 2600              		.loc 1 164 17 is_stmt 1 view .LVU781
 2601 0066 FFF7FEFF 		bl	putch_uart
 2602              	.LVL153:
 164:../USER/main.c **** 		if(ch==0x0d) break;
 2603              		.loc 1 164 28 view .LVU782
 165:../USER/main.c **** 	}
 2604              		.loc 1 165 5 is_stmt 0 view .LVU783
 2605 006a BAF10D0F 		cmp	r10, #13
 164:../USER/main.c **** 		if(ch==0x0d) break;
 2606              		.loc 1 164 35 view .LVU784
 2607 006e 07F801AB 		strb	r10, [r7], #1
 2608              	.LVL154:
 165:../USER/main.c **** 	}
 2609              		.loc 1 165 3 is_stmt 1 view .LVU785
 165:../USER/main.c **** 	}
 2610              		.loc 1 165 5 is_stmt 0 view .LVU786
 2611 0072 CFD1     		bne	.L219
 2612              	.LVL155:
 2613              	.L217:
 165:../USER/main.c **** 	}
 2614              		.loc 1 165 5 view .LVU787
 2615              	.LBE412:
 2616              	.LBE414:
 2617              	.LBB415:
 2618              	.LBB416:
 109:../USER/main.c ****    if( *buf>='a' && *buf<='z') *buf = *buf - 0x20;
 2619              		.loc 1 109 9 view .LVU788
 2620 0074 95F90030 		ldrsb	r3, [r5]
 109:../USER/main.c ****    if( *buf>='a' && *buf<='z') *buf = *buf - 0x20;
 2621              		.loc 1 109 8 view .LVU789
 2622 0078 0D2B     		cmp	r3, #13
 2623 007a 0AD0     		beq	.L206
 2624              	.LVL156:
 2625              	.L220:
 110:../USER/main.c ****    buf++;
 2626              		.loc 1 110 4 is_stmt 1 view .LVU790
 110:../USER/main.c ****    buf++;
 2627              		.loc 1 110 32 view .LVU791
 111:../USER/main.c ****   }
 2628              		.loc 1 111 4 view .LVU792
 110:../USER/main.c ****    buf++;
 2629              		.loc 1 110 18 is_stmt 0 view .LVU793
 2630 007c DBB2     		uxtb	r3, r3
 110:../USER/main.c ****    buf++;
 2631              		.loc 1 110 44 view .LVU794
 2632 007e A3F12002 		sub	r2, r3, #32
 110:../USER/main.c ****    buf++;
 2633              		.loc 1 110 6 view .LVU795
 2634 0082 613B     		subs	r3, r3, #97
 2635 0084 192B     		cmp	r3, #25
 2636 0086 28D8     		bhi	.L221
 110:../USER/main.c ****    buf++;
 2637              		.loc 1 110 37 view .LVU796
 2638 0088 2A70     		strb	r2, [r5]
 111:../USER/main.c ****   }
 2639              		.loc 1 111 4 is_stmt 1 view .LVU797
 109:../USER/main.c ****    if( *buf>='a' && *buf<='z') *buf = *buf - 0x20;
 2640              		.loc 1 109 9 is_stmt 0 view .LVU798
 2641 008a 15F9013F 		ldrsb	r3, [r5, #1]!
 2642              	.LVL157:
 109:../USER/main.c ****    if( *buf>='a' && *buf<='z') *buf = *buf - 0x20;
 2643              		.loc 1 109 8 view .LVU799
 2644 008e 0D2B     		cmp	r3, #13
 2645 0090 F4D1     		bne	.L220
 2646              	.LVL158:
 2647              	.L206:
 109:../USER/main.c ****    if( *buf>='a' && *buf<='z') *buf = *buf - 0x20;
 2648              		.loc 1 109 8 view .LVU800
 2649              	.LBE416:
 2650              	.LBE415:
 175:../USER/main.c **** void putadrhd(adr) long adr;{puts("\r\n"); puth8(adr); putch(':');}
 2651              		.loc 1 175 1 view .LVU801
 2652 0092 BDE8F087 		pop	{r4, r5, r6, r7, r8, r9, r10, pc}
 2653              	.LVL159:
 2654              	.L210:
 2655              	.LBB418:
 2656              	.LBB413:
 2657              	.LBB411:
 2658              	.LBB408:
 2659              	.LBB405:
 2660              	.LBB402:
 123:../USER/main.c **** 	if(kinbwp>=256) kinbwp = 0;
 2661              		.loc 1 123 2 is_stmt 1 view .LVU802
 123:../USER/main.c **** 	if(kinbwp>=256) kinbwp = 0;
 2662              		.loc 1 123 11 is_stmt 0 view .LVU803
 2663 0096 DAF80420 		ldr	r2, [r10, #4]
 123:../USER/main.c **** 	if(kinbwp>=256) kinbwp = 0;
 2664              		.loc 1 123 4 view .LVU804
 2665 009a 9207     		lsls	r2, r2, #30
 2666 009c BED5     		bpl	.L214
 123:../USER/main.c **** 	if(kinbwp>=256) kinbwp = 0;
 2667              		.loc 1 123 39 is_stmt 1 view .LVU805
 123:../USER/main.c **** 	if(kinbwp>=256) kinbwp = 0;
 2668              		.loc 1 123 63 is_stmt 0 view .LVU806
 2669 009e DAF80010 		ldr	r1, [r10]
 123:../USER/main.c **** 	if(kinbwp>=256) kinbwp = 0;
 2670              		.loc 1 123 52 view .LVU807
 2671 00a2 5A1C     		adds	r2, r3, #1
 124:../USER/main.c **** 	//
 2672              		.loc 1 124 4 view .LVU808
 2673 00a4 B2F5807F 		cmp	r2, #256
 123:../USER/main.c **** 	if(kinbwp>=256) kinbwp = 0;
 2674              		.loc 1 123 56 view .LVU809
 2675 00a8 E154     		strb	r1, [r4, r3]
 124:../USER/main.c **** 	//
 2676              		.loc 1 124 2 is_stmt 1 view .LVU810
 123:../USER/main.c **** 	if(kinbwp>=256) kinbwp = 0;
 2677              		.loc 1 123 52 is_stmt 0 view .LVU811
 2678 00aa C9F80020 		str	r2, [r9]
 124:../USER/main.c **** 	//
 2679              		.loc 1 124 4 view .LVU812
 2680 00ae CFD1     		bne	.L225
 124:../USER/main.c **** 	//
 2681              		.loc 1 124 18 is_stmt 1 view .LVU813
 124:../USER/main.c **** 	//
 2682              		.loc 1 124 25 is_stmt 0 view .LVU814
 2683 00b0 0022     		movs	r2, #0
 2684 00b2 1346     		mov	r3, r2
 2685 00b4 C9F80020 		str	r2, [r9]
 2686 00b8 B0E7     		b	.L214
 2687              	.L208:
 120:../USER/main.c **** 	if(kinbwp>=256) kinbwp = 0;
 2688              		.loc 1 120 12 is_stmt 1 view .LVU815
 120:../USER/main.c **** 	if(kinbwp>=256) kinbwp = 0;
 2689              		.loc 1 120 25 is_stmt 0 view .LVU816
 2690 00ba D9F80020 		ldr	r2, [r9]
 2691 00be 531C     		adds	r3, r2, #1
 120:../USER/main.c **** 	if(kinbwp>=256) kinbwp = 0;
 2692              		.loc 1 120 29 view .LVU817
 2693 00c0 A054     		strb	r0, [r4, r2]
 120:../USER/main.c **** 	if(kinbwp>=256) kinbwp = 0;
 2694              		.loc 1 120 25 view .LVU818
 2695 00c2 C9F80030 		str	r3, [r9]
 2696 00c6 B3E7     		b	.L209
 2697              	.LVL160:
 2698              	.L216:
 120:../USER/main.c **** 	if(kinbwp>=256) kinbwp = 0;
 2699              		.loc 1 120 25 view .LVU819
 2700              	.LBE402:
 2701              	.LBE405:
 132:../USER/main.c **** }
 2702              		.loc 1 132 2 is_stmt 1 view .LVU820
 132:../USER/main.c **** }
 2703              		.loc 1 132 2 is_stmt 0 view .LVU821
 2704              	.LBE408:
 2705              	.LBE411:
 164:../USER/main.c **** 		if(ch==0x0d) break;
 2706              		.loc 1 164 17 is_stmt 1 view .LVU822
 2707 00c8 5046     		mov	r0, r10
 2708 00ca FFF7FEFF 		bl	putch_uart
 2709              	.LVL161:
 164:../USER/main.c **** 		if(ch==0x0d) break;
 2710              		.loc 1 164 28 view .LVU823
 165:../USER/main.c **** 	}
 2711              		.loc 1 165 5 is_stmt 0 view .LVU824
 2712 00ce BAF10D0F 		cmp	r10, #13
 164:../USER/main.c **** 		if(ch==0x0d) break;
 2713              		.loc 1 164 35 view .LVU825
 2714 00d2 07F801AB 		strb	r10, [r7], #1
 2715              	.LVL162:
 165:../USER/main.c **** 	}
 2716              		.loc 1 165 3 is_stmt 1 view .LVU826
 165:../USER/main.c **** 	}
 2717              		.loc 1 165 5 is_stmt 0 view .LVU827
 2718 00d6 9DD1     		bne	.L219
 165:../USER/main.c **** 	}
 2719              		.loc 1 165 5 view .LVU828
 2720 00d8 CCE7     		b	.L217
 2721              	.LVL163:
 2722              	.L221:
 165:../USER/main.c **** 	}
 2723              		.loc 1 165 5 view .LVU829
 2724              	.LBE413:
 2725              	.LBE418:
 2726              	.LBB419:
 2727              	.LBB417:
 109:../USER/main.c ****    if( *buf>='a' && *buf<='z') *buf = *buf - 0x20;
 2728              		.loc 1 109 9 view .LVU830
 2729 00da 15F9013F 		ldrsb	r3, [r5, #1]!
 2730              	.LVL164:
 109:../USER/main.c ****    if( *buf>='a' && *buf<='z') *buf = *buf - 0x20;
 2731              		.loc 1 109 8 view .LVU831
 2732 00de 0D2B     		cmp	r3, #13
 2733 00e0 CCD1     		bne	.L220
 2734              	.LBE417:
 2735              	.LBE419:
 175:../USER/main.c **** void putadrhd(adr) long adr;{puts("\r\n"); puth8(adr); putch(':');}
 2736              		.loc 1 175 1 view .LVU832
 2737 00e2 BDE8F087 		pop	{r4, r5, r6, r7, r8, r9, r10, pc}
 2738              	.LVL165:
 2739              	.L239:
 175:../USER/main.c **** void putadrhd(adr) long adr;{puts("\r\n"); puth8(adr); putch(':');}
 2740              		.loc 1 175 1 view .LVU833
 2741 00e6 00BF     		.align	2
 2742              	.L238:
 2743 00e8 00000000 		.word	kinbuf
 2744 00ec 00000000 		.word	.LANCHOR1
 2745 00f0 00000000 		.word	.LANCHOR0
 2746              		.cfi_endproc
 2747              	.LFE49:
 2749              		.section	.text.putadrhd,"ax",%progbits
 2750              		.align	1
 2751              		.p2align 2,,3
 2752              		.global	putadrhd
 2753              		.syntax unified
 2754              		.thumb
 2755              		.thumb_func
 2756              		.fpu softvfp
 2758              	putadrhd:
 2759              	.LVL166:
 2760              	.LFB50:
 176:../USER/main.c **** 
 2761              		.loc 1 176 29 is_stmt 1 view -0
 2762              		.cfi_startproc
 2763              		@ args = 0, pretend = 0, frame = 0
 2764              		@ frame_needed = 0, uses_anonymous_args = 0
 176:../USER/main.c **** 
 2765              		.loc 1 176 30 view .LVU835
 2766              	.LBB456:
 2767              	.LBI456:
 155:../USER/main.c **** 	while(1){
 2768              		.loc 1 155 6 view .LVU836
 2769              	.LBB457:
 156:../USER/main.c **** 		if(*buf==0) break;
 2770              		.loc 1 156 2 view .LVU837
 157:../USER/main.c **** 		else        putch(*buf++);
 2771              		.loc 1 157 3 view .LVU838
 2772              	.LBE457:
 2773              	.LBE456:
 176:../USER/main.c **** 
 2774              		.loc 1 176 29 is_stmt 0 view .LVU839
 2775 0000 F8B5     		push	{r3, r4, r5, r6, r7, lr}
 2776              		.cfi_def_cfa_offset 24
 2777              		.cfi_offset 3, -24
 2778              		.cfi_offset 4, -20
 2779              		.cfi_offset 5, -16
 2780              		.cfi_offset 6, -12
 2781              		.cfi_offset 7, -8
 2782              		.cfi_offset 14, -4
 176:../USER/main.c **** 
 2783              		.loc 1 176 29 view .LVU840
 2784 0002 0546     		mov	r5, r0
 2785              	.LBB459:
 2786              	.LBB458:
 157:../USER/main.c **** 		else        putch(*buf++);
 2787              		.loc 1 157 6 view .LVU841
 2788 0004 0D20     		movs	r0, #13
 2789              	.LVL167:
 157:../USER/main.c **** 		else        putch(*buf++);
 2790              		.loc 1 157 6 view .LVU842
 2791 0006 2C4C     		ldr	r4, .L260
 2792              	.LVL168:
 2793              	.L241:
 158:../USER/main.c **** 	}
 2794              		.loc 1 158 15 is_stmt 1 view .LVU843
 158:../USER/main.c **** 	}
 2795              		.loc 1 158 15 is_stmt 0 view .LVU844
 2796 0008 FFF7FEFF 		bl	putch_uart
 2797              	.LVL169:
 156:../USER/main.c **** 		if(*buf==0) break;
 2798              		.loc 1 156 2 is_stmt 1 view .LVU845
 157:../USER/main.c **** 		else        putch(*buf++);
 2799              		.loc 1 157 3 view .LVU846
 157:../USER/main.c **** 		else        putch(*buf++);
 2800              		.loc 1 157 6 is_stmt 0 view .LVU847
 2801 000c 14F9010F 		ldrsb	r0, [r4, #1]!
 2802              	.LVL170:
 157:../USER/main.c **** 		else        putch(*buf++);
 2803              		.loc 1 157 5 view .LVU848
 2804 0010 0028     		cmp	r0, #0
 2805 0012 F9D1     		bne	.L241
 2806              	.LVL171:
 157:../USER/main.c **** 		else        putch(*buf++);
 2807              		.loc 1 157 5 view .LVU849
 2808              	.LBE458:
 2809              	.LBE459:
 176:../USER/main.c **** 
 2810              		.loc 1 176 44 is_stmt 1 view .LVU850
 2811              	.LBB460:
 2812              	.LBI460:
 154:../USER/main.c **** void putsuart(char *buf){
 2813              		.loc 1 154 6 view .LVU851
 2814              	.LBB461:
 154:../USER/main.c **** void putsuart(char *buf){
 2815              		.loc 1 154 26 view .LVU852
 154:../USER/main.c **** void putsuart(char *buf){
 2816              		.loc 1 154 37 view .LVU853
 2817 0014 2E0E     		lsrs	r6, r5, #24
 2818              	.LBB462:
 2819              	.LBB463:
 2820              	.LBB464:
 151:../USER/main.c **** void puth4(dt) int dt;{ puth2((dt >> 8) & 0xff); puth2(dt & 0xff); }
 2821              		.loc 1 151 34 is_stmt 0 view .LVU854
 2822 0016 3311     		asrs	r3, r6, #4
 2823 0018 D8B2     		uxtb	r0, r3
 2824              	.LBB465:
 2825              	.LBB466:
 150:../USER/main.c **** void puth2(dt) int dt;{ puth((dt >> 4) & 0xf); puth(dt & 0xf); }
 2826              		.loc 1 150 26 view .LVU855
 2827 001a 092B     		cmp	r3, #9
 150:../USER/main.c **** void puth2(dt) int dt;{ puth((dt >> 4) & 0xf); puth(dt & 0xf); }
 2828              		.loc 1 150 34 view .LVU856
 2829 001c D4BF     		ite	le
 2830 001e 3030     		addle	r0, r0, #48
 150:../USER/main.c **** void puth2(dt) int dt;{ puth((dt >> 4) & 0xf); puth(dt & 0xf); }
 2831              		.loc 1 150 55 view .LVU857
 2832 0020 3730     		addgt	r0, r0, #55
 2833              	.LBE466:
 2834              	.LBE465:
 151:../USER/main.c **** void puth4(dt) int dt;{ puth2((dt >> 8) & 0xff); puth2(dt & 0xff); }
 2835              		.loc 1 151 48 view .LVU858
 2836 0022 06F00F06 		and	r6, r6, #15
 2837              	.LBB469:
 2838              	.LBB467:
 150:../USER/main.c **** void puth2(dt) int dt;{ puth((dt >> 4) & 0xf); puth(dt & 0xf); }
 2839              		.loc 1 150 55 view .LVU859
 2840 0026 FFF7FEFF 		bl	putch_uart
 2841              	.LVL172:
 2842 002a F0B2     		uxtb	r0, r6
 2843              	.LBE467:
 2844              	.LBE469:
 2845              	.LBB470:
 2846              	.LBB471:
 150:../USER/main.c **** void puth2(dt) int dt;{ puth((dt >> 4) & 0xf); puth(dt & 0xf); }
 2847              		.loc 1 150 26 view .LVU860
 2848 002c 092E     		cmp	r6, #9
 150:../USER/main.c **** void puth2(dt) int dt;{ puth((dt >> 4) & 0xf); puth(dt & 0xf); }
 2849              		.loc 1 150 34 view .LVU861
 2850 002e D4BF     		ite	le
 2851 0030 3030     		addle	r0, r0, #48
 150:../USER/main.c **** void puth2(dt) int dt;{ puth((dt >> 4) & 0xf); puth(dt & 0xf); }
 2852              		.loc 1 150 55 view .LVU862
 2853 0032 3730     		addgt	r0, r0, #55
 2854 0034 FFF7FEFF 		bl	putch_uart
 2855              	.LVL173:
 2856              	.LBE471:
 2857              	.LBE470:
 2858              	.LBE464:
 2859              	.LBE463:
 2860              	.LBB476:
 2861              	.LBB477:
 151:../USER/main.c **** void puth4(dt) int dt;{ puth2((dt >> 8) & 0xff); puth2(dt & 0xff); }
 2862              		.loc 1 151 34 view .LVU863
 2863 0038 C5F30353 		ubfx	r3, r5, #20, #4
 2864 003c D8B2     		uxtb	r0, r3
 2865              	.LBB478:
 2866              	.LBB479:
 150:../USER/main.c **** void puth2(dt) int dt;{ puth((dt >> 4) & 0xf); puth(dt & 0xf); }
 2867              		.loc 1 150 26 view .LVU864
 2868 003e 092B     		cmp	r3, #9
 2869              	.LBE479:
 2870              	.LBE478:
 2871              	.LBE477:
 2872              	.LBE476:
 2873              	.LBE462:
 154:../USER/main.c **** void putsuart(char *buf){
 2874              		.loc 1 154 40 view .LVU865
 2875 0040 4FEA2547 		asr	r7, r5, #16
 2876              	.LVL174:
 154:../USER/main.c **** void putsuart(char *buf){
 2877              		.loc 1 154 52 is_stmt 1 view .LVU866
 2878              	.LBB493:
 2879              	.LBB490:
 2880              	.LBB488:
 2881              	.LBB482:
 2882              	.LBB480:
 150:../USER/main.c **** void puth2(dt) int dt;{ puth((dt >> 4) & 0xf); puth(dt & 0xf); }
 2883              		.loc 1 150 34 is_stmt 0 view .LVU867
 2884 0044 D4BF     		ite	le
 2885 0046 3030     		addle	r0, r0, #48
 150:../USER/main.c **** void puth2(dt) int dt;{ puth((dt >> 4) & 0xf); puth(dt & 0xf); }
 2886              		.loc 1 150 55 view .LVU868
 2887 0048 3730     		addgt	r0, r0, #55
 2888 004a FFF7FEFF 		bl	putch_uart
 2889              	.LVL175:
 2890              	.LBE480:
 2891              	.LBE482:
 151:../USER/main.c **** void puth4(dt) int dt;{ puth2((dt >> 8) & 0xff); puth2(dt & 0xff); }
 2892              		.loc 1 151 48 view .LVU869
 2893 004e 07F00F03 		and	r3, r7, #15
 2894 0052 D8B2     		uxtb	r0, r3
 2895              	.LBB483:
 2896              	.LBB484:
 150:../USER/main.c **** void puth2(dt) int dt;{ puth((dt >> 4) & 0xf); puth(dt & 0xf); }
 2897              		.loc 1 150 26 view .LVU870
 2898 0054 092B     		cmp	r3, #9
 2899              	.LBE484:
 2900              	.LBE483:
 2901              	.LBE488:
 2902              	.LBE490:
 2903              	.LBE493:
 154:../USER/main.c **** void putsuart(char *buf){
 2904              		.loc 1 154 55 view .LVU871
 2905 0056 ACB2     		uxth	r4, r5
 2906              	.LVL176:
 154:../USER/main.c **** void putsuart(char *buf){
 2907              		.loc 1 154 70 is_stmt 1 view .LVU872
 2908              	.LBB494:
 2909              	.LBI462:
 152:../USER/main.c **** void puth6(dt) long dt;{ int dh,dl; dh = dt >> 16; dl = dt & 0xffff; puth2(dh); puth4(dl); }
 2910              		.loc 1 152 6 view .LVU873
 2911              	.LBE494:
 2912              	.LBE461:
 2913              	.LBE460:
 152:../USER/main.c **** void puth6(dt) long dt;{ int dh,dl; dh = dt >> 16; dl = dt & 0xffff; puth2(dh); puth4(dl); }
 2914              		.loc 1 152 25 view .LVU874
 2915              	.LBB521:
 2916              	.LBB519:
 2917              	.LBB495:
 2918              	.LBB491:
 2919              	.LBI463:
 151:../USER/main.c **** void puth4(dt) int dt;{ puth2((dt >> 8) & 0xff); puth2(dt & 0xff); }
 2920              		.loc 1 151 6 view .LVU875
 2921              	.LBB475:
 151:../USER/main.c **** void puth4(dt) int dt;{ puth2((dt >> 8) & 0xff); puth2(dt & 0xff); }
 2922              		.loc 1 151 25 view .LVU876
 2923              	.LBB473:
 2924              	.LBI465:
 150:../USER/main.c **** void puth2(dt) int dt;{ puth((dt >> 4) & 0xf); puth(dt & 0xf); }
 2925              		.loc 1 150 6 view .LVU877
 2926              	.LBB468:
 150:../USER/main.c **** void puth2(dt) int dt;{ puth((dt >> 4) & 0xf); puth(dt & 0xf); }
 2927              		.loc 1 150 24 view .LVU878
 150:../USER/main.c **** void puth2(dt) int dt;{ puth((dt >> 4) & 0xf); puth(dt & 0xf); }
 2928              		.loc 1 150 34 view .LVU879
 150:../USER/main.c **** void puth2(dt) int dt;{ puth((dt >> 4) & 0xf); puth(dt & 0xf); }
 2929              		.loc 1 150 55 view .LVU880
 2930              	.LBE468:
 2931              	.LBE473:
 151:../USER/main.c **** void puth4(dt) int dt;{ puth2((dt >> 8) & 0xff); puth2(dt & 0xff); }
 2932              		.loc 1 151 48 view .LVU881
 2933              	.LBB474:
 2934              	.LBI470:
 150:../USER/main.c **** void puth2(dt) int dt;{ puth((dt >> 4) & 0xf); puth(dt & 0xf); }
 2935              		.loc 1 150 6 view .LVU882
 2936              	.LBB472:
 150:../USER/main.c **** void puth2(dt) int dt;{ puth((dt >> 4) & 0xf); puth(dt & 0xf); }
 2937              		.loc 1 150 24 view .LVU883
 150:../USER/main.c **** void puth2(dt) int dt;{ puth((dt >> 4) & 0xf); puth(dt & 0xf); }
 2938              		.loc 1 150 34 view .LVU884
 150:../USER/main.c **** void puth2(dt) int dt;{ puth((dt >> 4) & 0xf); puth(dt & 0xf); }
 2939              		.loc 1 150 55 view .LVU885
 150:../USER/main.c **** void puth2(dt) int dt;{ puth((dt >> 4) & 0xf); puth(dt & 0xf); }
 2940              		.loc 1 150 55 is_stmt 0 view .LVU886
 2941              	.LBE472:
 2942              	.LBE474:
 2943              	.LBE475:
 2944              	.LBE491:
 2945              	.LBE495:
 2946              	.LBE519:
 2947              	.LBE521:
 152:../USER/main.c **** void puth6(dt) long dt;{ int dh,dl; dh = dt >> 16; dl = dt & 0xffff; puth2(dh); puth4(dl); }
 2948              		.loc 1 152 50 is_stmt 1 view .LVU887
 2949              	.LBB522:
 2950              	.LBB520:
 2951              	.LBB496:
 2952              	.LBB492:
 2953              	.LBI476:
 151:../USER/main.c **** void puth4(dt) int dt;{ puth2((dt >> 8) & 0xff); puth2(dt & 0xff); }
 2954              		.loc 1 151 6 view .LVU888
 2955              	.LBB489:
 151:../USER/main.c **** void puth4(dt) int dt;{ puth2((dt >> 8) & 0xff); puth2(dt & 0xff); }
 2956              		.loc 1 151 25 view .LVU889
 2957              	.LBB486:
 2958              	.LBI478:
 150:../USER/main.c **** void puth2(dt) int dt;{ puth((dt >> 4) & 0xf); puth(dt & 0xf); }
 2959              		.loc 1 150 6 view .LVU890
 2960              	.LBB481:
 150:../USER/main.c **** void puth2(dt) int dt;{ puth((dt >> 4) & 0xf); puth(dt & 0xf); }
 2961              		.loc 1 150 24 view .LVU891
 150:../USER/main.c **** void puth2(dt) int dt;{ puth((dt >> 4) & 0xf); puth(dt & 0xf); }
 2962              		.loc 1 150 34 view .LVU892
 150:../USER/main.c **** void puth2(dt) int dt;{ puth((dt >> 4) & 0xf); puth(dt & 0xf); }
 2963              		.loc 1 150 55 view .LVU893
 2964              	.LBE481:
 2965              	.LBE486:
 151:../USER/main.c **** void puth4(dt) int dt;{ puth2((dt >> 8) & 0xff); puth2(dt & 0xff); }
 2966              		.loc 1 151 48 view .LVU894
 2967              	.LBB487:
 2968              	.LBI483:
 150:../USER/main.c **** void puth2(dt) int dt;{ puth((dt >> 4) & 0xf); puth(dt & 0xf); }
 2969              		.loc 1 150 6 view .LVU895
 2970              	.LBB485:
 150:../USER/main.c **** void puth2(dt) int dt;{ puth((dt >> 4) & 0xf); puth(dt & 0xf); }
 2971              		.loc 1 150 24 view .LVU896
 150:../USER/main.c **** void puth2(dt) int dt;{ puth((dt >> 4) & 0xf); puth(dt & 0xf); }
 2972              		.loc 1 150 34 view .LVU897
 150:../USER/main.c **** void puth2(dt) int dt;{ puth((dt >> 4) & 0xf); puth(dt & 0xf); }
 2973              		.loc 1 150 55 view .LVU898
 150:../USER/main.c **** void puth2(dt) int dt;{ puth((dt >> 4) & 0xf); puth(dt & 0xf); }
 2974              		.loc 1 150 34 is_stmt 0 view .LVU899
 2975 0058 D4BF     		ite	le
 2976 005a 3030     		addle	r0, r0, #48
 150:../USER/main.c **** void puth2(dt) int dt;{ puth((dt >> 4) & 0xf); puth(dt & 0xf); }
 2977              		.loc 1 150 55 view .LVU900
 2978 005c 3730     		addgt	r0, r0, #55
 2979 005e FFF7FEFF 		bl	putch_uart
 2980              	.LVL177:
 150:../USER/main.c **** void puth2(dt) int dt;{ puth((dt >> 4) & 0xf); puth(dt & 0xf); }
 2981              		.loc 1 150 55 view .LVU901
 2982              	.LBE485:
 2983              	.LBE487:
 2984              	.LBE489:
 2985              	.LBE492:
 2986              	.LBE496:
 154:../USER/main.c **** void putsuart(char *buf){
 2987              		.loc 1 154 81 is_stmt 1 view .LVU902
 2988              	.LBB497:
 2989              	.LBI497:
 152:../USER/main.c **** void puth6(dt) long dt;{ int dh,dl; dh = dt >> 16; dl = dt & 0xffff; puth2(dh); puth4(dl); }
 2990              		.loc 1 152 6 view .LVU903
 2991              	.LBB498:
 152:../USER/main.c **** void puth6(dt) long dt;{ int dh,dl; dh = dt >> 16; dl = dt & 0xffff; puth2(dh); puth4(dl); }
 2992              		.loc 1 152 25 view .LVU904
 2993              	.LBB499:
 2994              	.LBB500:
 151:../USER/main.c **** void puth4(dt) int dt;{ puth2((dt >> 8) & 0xff); puth2(dt & 0xff); }
 2995              		.loc 1 151 34 is_stmt 0 view .LVU905
 2996 0062 2313     		asrs	r3, r4, #12
 2997 0064 D8B2     		uxtb	r0, r3
 2998              	.LBB501:
 2999              	.LBB502:
 150:../USER/main.c **** void puth2(dt) int dt;{ puth((dt >> 4) & 0xf); puth(dt & 0xf); }
 3000              		.loc 1 150 26 view .LVU906
 3001 0066 092B     		cmp	r3, #9
 3002              	.LBE502:
 3003              	.LBE501:
 3004              	.LBE500:
 3005              	.LBE499:
 152:../USER/main.c **** void puth6(dt) long dt;{ int dh,dl; dh = dt >> 16; dl = dt & 0xffff; puth2(dh); puth4(dl); }
 3006              		.loc 1 152 35 view .LVU907
 3007 0068 4FEA2424 		asr	r4, r4, #8
 3008              	.LVL178:
 3009              	.LBB510:
 3010              	.LBI499:
 151:../USER/main.c **** void puth4(dt) int dt;{ puth2((dt >> 8) & 0xff); puth2(dt & 0xff); }
 3011              		.loc 1 151 6 is_stmt 1 view .LVU908
 3012              	.LBB509:
 151:../USER/main.c **** void puth4(dt) int dt;{ puth2((dt >> 8) & 0xff); puth2(dt & 0xff); }
 3013              		.loc 1 151 25 view .LVU909
 3014              	.LBB505:
 3015              	.LBI501:
 150:../USER/main.c **** void puth2(dt) int dt;{ puth((dt >> 4) & 0xf); puth(dt & 0xf); }
 3016              		.loc 1 150 6 view .LVU910
 3017              	.LBB503:
 150:../USER/main.c **** void puth2(dt) int dt;{ puth((dt >> 4) & 0xf); puth(dt & 0xf); }
 3018              		.loc 1 150 24 view .LVU911
 150:../USER/main.c **** void puth2(dt) int dt;{ puth((dt >> 4) & 0xf); puth(dt & 0xf); }
 3019              		.loc 1 150 34 view .LVU912
 150:../USER/main.c **** void puth2(dt) int dt;{ puth((dt >> 4) & 0xf); puth(dt & 0xf); }
 3020              		.loc 1 150 55 view .LVU913
 150:../USER/main.c **** void puth2(dt) int dt;{ puth((dt >> 4) & 0xf); puth(dt & 0xf); }
 3021              		.loc 1 150 34 is_stmt 0 view .LVU914
 3022 006c D4BF     		ite	le
 3023 006e 3030     		addle	r0, r0, #48
 150:../USER/main.c **** void puth2(dt) int dt;{ puth((dt >> 4) & 0xf); puth(dt & 0xf); }
 3024              		.loc 1 150 55 view .LVU915
 3025 0070 3730     		addgt	r0, r0, #55
 3026              	.LBE503:
 3027              	.LBE505:
 151:../USER/main.c **** void puth4(dt) int dt;{ puth2((dt >> 8) & 0xff); puth2(dt & 0xff); }
 3028              		.loc 1 151 48 view .LVU916
 3029 0072 04F00F04 		and	r4, r4, #15
 3030              	.LVL179:
 3031              	.LBB506:
 3032              	.LBB504:
 150:../USER/main.c **** void puth2(dt) int dt;{ puth((dt >> 4) & 0xf); puth(dt & 0xf); }
 3033              		.loc 1 150 55 view .LVU917
 3034 0076 FFF7FEFF 		bl	putch_uart
 3035              	.LVL180:
 150:../USER/main.c **** void puth2(dt) int dt;{ puth((dt >> 4) & 0xf); puth(dt & 0xf); }
 3036              		.loc 1 150 55 view .LVU918
 3037              	.LBE504:
 3038              	.LBE506:
 151:../USER/main.c **** void puth4(dt) int dt;{ puth2((dt >> 8) & 0xff); puth2(dt & 0xff); }
 3039              		.loc 1 151 48 is_stmt 1 view .LVU919
 3040              	.LBB507:
 3041              	.LBI507:
 150:../USER/main.c **** void puth2(dt) int dt;{ puth((dt >> 4) & 0xf); puth(dt & 0xf); }
 3042              		.loc 1 150 6 view .LVU920
 3043              	.LBB508:
 150:../USER/main.c **** void puth2(dt) int dt;{ puth((dt >> 4) & 0xf); puth(dt & 0xf); }
 3044              		.loc 1 150 24 view .LVU921
 150:../USER/main.c **** void puth2(dt) int dt;{ puth((dt >> 4) & 0xf); puth(dt & 0xf); }
 3045              		.loc 1 150 34 view .LVU922
 150:../USER/main.c **** void puth2(dt) int dt;{ puth((dt >> 4) & 0xf); puth(dt & 0xf); }
 3046              		.loc 1 150 55 view .LVU923
 3047 007a E0B2     		uxtb	r0, r4
 150:../USER/main.c **** void puth2(dt) int dt;{ puth((dt >> 4) & 0xf); puth(dt & 0xf); }
 3048              		.loc 1 150 26 is_stmt 0 view .LVU924
 3049 007c 092C     		cmp	r4, #9
 150:../USER/main.c **** void puth2(dt) int dt;{ puth((dt >> 4) & 0xf); puth(dt & 0xf); }
 3050              		.loc 1 150 34 view .LVU925
 3051 007e D4BF     		ite	le
 3052 0080 3030     		addle	r0, r0, #48
 150:../USER/main.c **** void puth2(dt) int dt;{ puth((dt >> 4) & 0xf); puth(dt & 0xf); }
 3053              		.loc 1 150 55 view .LVU926
 3054 0082 3730     		addgt	r0, r0, #55
 3055 0084 FFF7FEFF 		bl	putch_uart
 3056              	.LVL181:
 150:../USER/main.c **** void puth2(dt) int dt;{ puth((dt >> 4) & 0xf); puth(dt & 0xf); }
 3057              		.loc 1 150 55 view .LVU927
 3058              	.LBE508:
 3059              	.LBE507:
 3060              	.LBE509:
 3061              	.LBE510:
 152:../USER/main.c **** void puth6(dt) long dt;{ int dh,dl; dh = dt >> 16; dl = dt & 0xffff; puth2(dh); puth4(dl); }
 3062              		.loc 1 152 50 is_stmt 1 view .LVU928
 3063              	.LBB511:
 3064              	.LBI511:
 151:../USER/main.c **** void puth4(dt) int dt;{ puth2((dt >> 8) & 0xff); puth2(dt & 0xff); }
 3065              		.loc 1 151 6 view .LVU929
 3066              	.LBB512:
 151:../USER/main.c **** void puth4(dt) int dt;{ puth2((dt >> 8) & 0xff); puth2(dt & 0xff); }
 3067              		.loc 1 151 25 view .LVU930
 151:../USER/main.c **** void puth4(dt) int dt;{ puth2((dt >> 8) & 0xff); puth2(dt & 0xff); }
 3068              		.loc 1 151 34 is_stmt 0 view .LVU931
 3069 0088 C5F30313 		ubfx	r3, r5, #4, #4
 3070              	.LVL182:
 3071              	.LBB513:
 3072              	.LBI513:
 150:../USER/main.c **** void puth2(dt) int dt;{ puth((dt >> 4) & 0xf); puth(dt & 0xf); }
 3073              		.loc 1 150 6 is_stmt 1 view .LVU932
 3074              	.LBB514:
 150:../USER/main.c **** void puth2(dt) int dt;{ puth((dt >> 4) & 0xf); puth(dt & 0xf); }
 3075              		.loc 1 150 24 view .LVU933
 150:../USER/main.c **** void puth2(dt) int dt;{ puth((dt >> 4) & 0xf); puth(dt & 0xf); }
 3076              		.loc 1 150 34 view .LVU934
 150:../USER/main.c **** void puth2(dt) int dt;{ puth((dt >> 4) & 0xf); puth(dt & 0xf); }
 3077              		.loc 1 150 55 view .LVU935
 3078 008c D8B2     		uxtb	r0, r3
 150:../USER/main.c **** void puth2(dt) int dt;{ puth((dt >> 4) & 0xf); puth(dt & 0xf); }
 3079              		.loc 1 150 26 is_stmt 0 view .LVU936
 3080 008e 092B     		cmp	r3, #9
 150:../USER/main.c **** void puth2(dt) int dt;{ puth((dt >> 4) & 0xf); puth(dt & 0xf); }
 3081              		.loc 1 150 34 view .LVU937
 3082 0090 D4BF     		ite	le
 3083 0092 3030     		addle	r0, r0, #48
 150:../USER/main.c **** void puth2(dt) int dt;{ puth((dt >> 4) & 0xf); puth(dt & 0xf); }
 3084              		.loc 1 150 55 view .LVU938
 3085 0094 3730     		addgt	r0, r0, #55
 3086              	.LBE514:
 3087              	.LBE513:
 151:../USER/main.c **** void puth4(dt) int dt;{ puth2((dt >> 8) & 0xff); puth2(dt & 0xff); }
 3088              		.loc 1 151 48 view .LVU939
 3089 0096 05F00F05 		and	r5, r5, #15
 3090              	.LVL183:
 3091              	.LBB516:
 3092              	.LBB515:
 150:../USER/main.c **** void puth2(dt) int dt;{ puth((dt >> 4) & 0xf); puth(dt & 0xf); }
 3093              		.loc 1 150 55 view .LVU940
 3094 009a FFF7FEFF 		bl	putch_uart
 3095              	.LVL184:
 150:../USER/main.c **** void puth2(dt) int dt;{ puth((dt >> 4) & 0xf); puth(dt & 0xf); }
 3096              		.loc 1 150 55 view .LVU941
 3097              	.LBE515:
 3098              	.LBE516:
 151:../USER/main.c **** void puth4(dt) int dt;{ puth2((dt >> 8) & 0xff); puth2(dt & 0xff); }
 3099              		.loc 1 151 48 is_stmt 1 view .LVU942
 3100              	.LBB517:
 3101              	.LBI517:
 150:../USER/main.c **** void puth2(dt) int dt;{ puth((dt >> 4) & 0xf); puth(dt & 0xf); }
 3102              		.loc 1 150 6 view .LVU943
 3103              	.LBB518:
 150:../USER/main.c **** void puth2(dt) int dt;{ puth((dt >> 4) & 0xf); puth(dt & 0xf); }
 3104              		.loc 1 150 24 view .LVU944
 150:../USER/main.c **** void puth2(dt) int dt;{ puth((dt >> 4) & 0xf); puth(dt & 0xf); }
 3105              		.loc 1 150 34 view .LVU945
 150:../USER/main.c **** void puth2(dt) int dt;{ puth((dt >> 4) & 0xf); puth(dt & 0xf); }
 3106              		.loc 1 150 55 view .LVU946
 3107 009e E8B2     		uxtb	r0, r5
 150:../USER/main.c **** void puth2(dt) int dt;{ puth((dt >> 4) & 0xf); puth(dt & 0xf); }
 3108              		.loc 1 150 26 is_stmt 0 view .LVU947
 3109 00a0 092D     		cmp	r5, #9
 150:../USER/main.c **** void puth2(dt) int dt;{ puth((dt >> 4) & 0xf); puth(dt & 0xf); }
 3110              		.loc 1 150 34 view .LVU948
 3111 00a2 D4BF     		ite	le
 3112 00a4 3030     		addle	r0, r0, #48
 150:../USER/main.c **** void puth2(dt) int dt;{ puth((dt >> 4) & 0xf); puth(dt & 0xf); }
 3113              		.loc 1 150 55 view .LVU949
 3114 00a6 3730     		addgt	r0, r0, #55
 3115 00a8 FFF7FEFF 		bl	putch_uart
 3116              	.LVL185:
 150:../USER/main.c **** void puth2(dt) int dt;{ puth((dt >> 4) & 0xf); puth(dt & 0xf); }
 3117              		.loc 1 150 55 view .LVU950
 3118              	.LBE518:
 3119              	.LBE517:
 3120              	.LBE512:
 3121              	.LBE511:
 3122              	.LBE498:
 3123              	.LBE497:
 3124              	.LBE520:
 3125              	.LBE522:
 176:../USER/main.c **** 
 3126              		.loc 1 176 56 is_stmt 1 view .LVU951
 176:../USER/main.c **** 
 3127              		.loc 1 176 1 is_stmt 0 view .LVU952
 3128 00ac BDE8F840 		pop	{r3, r4, r5, r6, r7, lr}
 3129              		.cfi_restore 14
 3130              		.cfi_restore 7
 3131              		.cfi_restore 6
 3132              		.cfi_restore 5
 3133              		.cfi_restore 4
 3134              		.cfi_restore 3
 3135              		.cfi_def_cfa_offset 0
 176:../USER/main.c **** 
 3136              		.loc 1 176 56 view .LVU953
 3137 00b0 3A20     		movs	r0, #58
 3138 00b2 FFF7FEBF 		b	putch_uart
 3139              	.LVL186:
 3140              	.L261:
 3141 00b6 00BF     		.align	2
 3142              	.L260:
 3143 00b8 00000000 		.word	.LC0
 3144              		.cfi_endproc
 3145              	.LFE50:
 3147              		.section	.text.getsh,"ax",%progbits
 3148              		.align	1
 3149              		.p2align 2,,3
 3150              		.global	getsh
 3151              		.syntax unified
 3152              		.thumb
 3153              		.thumb_func
 3154              		.fpu softvfp
 3156              	getsh:
 3157              	.LVL187:
 3158              	.LFB51:
 178:../USER/main.c ****   long num = 0; int hd;
 3159              		.loc 1 178 28 is_stmt 1 view -0
 3160              		.cfi_startproc
 3161              		@ args = 0, pretend = 0, frame = 0
 3162              		@ frame_needed = 0, uses_anonymous_args = 0
 3163              		@ link register save eliminated.
 179:../USER/main.c ****   if(**buf==0x0d) return -1;
 3164              		.loc 1 179 3 view .LVU955
 179:../USER/main.c ****   if(**buf==0x0d) return -1;
 3165              		.loc 1 179 17 view .LVU956
 180:../USER/main.c ****   while(**buf==' ') (*buf)++; /* spip sp*/
 3166              		.loc 1 180 3 view .LVU957
 180:../USER/main.c ****   while(**buf==' ') (*buf)++; /* spip sp*/
 3167              		.loc 1 180 7 is_stmt 0 view .LVU958
 3168 0000 0268     		ldr	r2, [r0]
 180:../USER/main.c ****   while(**buf==' ') (*buf)++; /* spip sp*/
 3169              		.loc 1 180 6 view .LVU959
 3170 0002 92F90030 		ldrsb	r3, [r2]
 180:../USER/main.c ****   while(**buf==' ') (*buf)++; /* spip sp*/
 3171              		.loc 1 180 5 view .LVU960
 3172 0006 0D2B     		cmp	r3, #13
 3173 0008 22D0     		beq	.L270
 3174              	.LBB527:
 3175              	.LBB528:
 181:../USER/main.c ****   while( (hd=ishex(**buf)) != -1){ num = num * 16 + hd; (*buf)++; }
 3176              		.loc 1 181 8 view .LVU961
 3177 000a 202B     		cmp	r3, #32
 3178              	.LBE528:
 3179              	.LBE527:
 178:../USER/main.c ****   long num = 0; int hd;
 3180              		.loc 1 178 28 view .LVU962
 3181 000c 30B4     		push	{r4, r5}
 3182              		.cfi_def_cfa_offset 8
 3183              		.cfi_offset 4, -8
 3184              		.cfi_offset 5, -4
 3185 000e 0546     		mov	r5, r0
 3186              	.LBB538:
 3187              	.LBB537:
 181:../USER/main.c ****   while( (hd=ishex(**buf)) != -1){ num = num * 16 + hd; (*buf)++; }
 3188              		.loc 1 181 8 view .LVU963
 3189 0010 05D1     		bne	.L264
 3190              	.L265:
 181:../USER/main.c ****   while( (hd=ishex(**buf)) != -1){ num = num * 16 + hd; (*buf)++; }
 3191              		.loc 1 181 21 is_stmt 1 view .LVU964
 181:../USER/main.c ****   while( (hd=ishex(**buf)) != -1){ num = num * 16 + hd; (*buf)++; }
 3192              		.loc 1 181 27 is_stmt 0 view .LVU965
 3193 0012 0132     		adds	r2, r2, #1
 3194 0014 2A60     		str	r2, [r5]
 181:../USER/main.c ****   while( (hd=ishex(**buf)) != -1){ num = num * 16 + hd; (*buf)++; }
 3195              		.loc 1 181 9 view .LVU966
 3196 0016 92F90030 		ldrsb	r3, [r2]
 181:../USER/main.c ****   while( (hd=ishex(**buf)) != -1){ num = num * 16 + hd; (*buf)++; }
 3197              		.loc 1 181 8 view .LVU967
 3198 001a 202B     		cmp	r3, #32
 3199 001c F9D0     		beq	.L265
 3200              	.L264:
 179:../USER/main.c ****   if(**buf==0x0d) return -1;
 3201              		.loc 1 179 8 view .LVU968
 3202 001e 0020     		movs	r0, #0
 3203              	.LVL188:
 179:../USER/main.c ****   if(**buf==0x0d) return -1;
 3204              		.loc 1 179 8 view .LVU969
 3205 0020 08E0     		b	.L266
 3206              	.LVL189:
 3207              	.L277:
 3208              	.LBB529:
 3209              	.LBB530:
 170:../USER/main.c ****   else if(ch>='A' && ch<='F') hd = ch - 0x37;
 3210              		.loc 1 170 29 view .LVU970
 3211 0022 303B     		subs	r3, r3, #48
 3212              	.LVL190:
 170:../USER/main.c ****   else if(ch>='A' && ch<='F') hd = ch - 0x37;
 3213              		.loc 1 170 29 view .LVU971
 3214              	.LBE530:
 3215              	.LBE529:
 182:../USER/main.c ****   return num;
 3216              		.loc 1 182 36 is_stmt 1 view .LVU972
 3217              	.LBB534:
 3218              	.LBB531:
 173:../USER/main.c **** }
 3219              		.loc 1 173 3 view .LVU973
 173:../USER/main.c **** }
 3220              		.loc 1 173 3 is_stmt 0 view .LVU974
 3221              	.LBE531:
 3222              	.LBE534:
 182:../USER/main.c ****   return num;
 3223              		.loc 1 182 8 view .LVU975
 3224 0024 591C     		adds	r1, r3, #1
 3225 0026 11D0     		beq	.L262
 3226              	.L269:
 182:../USER/main.c ****   return num;
 3227              		.loc 1 182 63 view .LVU976
 3228 0028 0132     		adds	r2, r2, #1
 3229 002a 2A60     		str	r2, [r5]
 182:../USER/main.c ****   return num;
 3230              		.loc 1 182 40 view .LVU977
 3231 002c 03EB0010 		add	r0, r3, r0, lsl #4
 3232              	.LVL191:
 182:../USER/main.c ****   return num;
 3233              		.loc 1 182 57 is_stmt 1 view .LVU978
 3234 0030 92F90030 		ldrsb	r3, [r2]
 3235              	.LVL192:
 3236              	.L266:
 3237              	.LBB535:
 3238              	.LBI529:
 168:../USER/main.c ****   int hd;
 3239              		.loc 1 168 5 view .LVU979
 3240              	.LBB532:
 169:../USER/main.c ****   if(ch>='0' && ch<='9') hd = ch - 0x30;
 3241              		.loc 1 169 3 view .LVU980
 170:../USER/main.c ****   else if(ch>='A' && ch<='F') hd = ch - 0x37;
 3242              		.loc 1 170 3 view .LVU981
 170:../USER/main.c ****   else if(ch>='A' && ch<='F') hd = ch - 0x37;
 3243              		.loc 1 170 26 view .LVU982
 171:../USER/main.c ****   else hd = -1;
 3244              		.loc 1 171 8 view .LVU983
 171:../USER/main.c ****   else hd = -1;
 3245              		.loc 1 171 31 view .LVU984
 170:../USER/main.c ****   else if(ch>='A' && ch<='F') hd = ch - 0x37;
 3246              		.loc 1 170 14 is_stmt 0 view .LVU985
 3247 0034 D9B2     		uxtb	r1, r3
 170:../USER/main.c ****   else if(ch>='A' && ch<='F') hd = ch - 0x37;
 3248              		.loc 1 170 5 view .LVU986
 3249 0036 A1F13004 		sub	r4, r1, #48
 3250 003a 092C     		cmp	r4, #9
 171:../USER/main.c ****   else hd = -1;
 3251              		.loc 1 171 10 view .LVU987
 3252 003c A1F14101 		sub	r1, r1, #65
 170:../USER/main.c ****   else if(ch>='A' && ch<='F') hd = ch - 0x37;
 3253              		.loc 1 170 5 view .LVU988
 3254 0040 EFD9     		bls	.L277
 171:../USER/main.c ****   else hd = -1;
 3255              		.loc 1 171 10 view .LVU989
 3256 0042 0529     		cmp	r1, #5
 3257 0044 02D8     		bhi	.L262
 171:../USER/main.c ****   else hd = -1;
 3258              		.loc 1 171 34 view .LVU990
 3259 0046 373B     		subs	r3, r3, #55
 3260              	.LVL193:
 171:../USER/main.c ****   else hd = -1;
 3261              		.loc 1 171 34 view .LVU991
 3262              	.LBE532:
 3263              	.LBE535:
 182:../USER/main.c ****   return num;
 3264              		.loc 1 182 36 is_stmt 1 view .LVU992
 3265              	.LBB536:
 3266              	.LBB533:
 173:../USER/main.c **** }
 3267              		.loc 1 173 3 view .LVU993
 173:../USER/main.c **** }
 3268              		.loc 1 173 3 is_stmt 0 view .LVU994
 3269              	.LBE533:
 3270              	.LBE536:
 182:../USER/main.c ****   return num;
 3271              		.loc 1 182 8 view .LVU995
 3272 0048 591C     		adds	r1, r3, #1
 3273 004a EDD1     		bne	.L269
 3274              	.LVL194:
 3275              	.L262:
 182:../USER/main.c ****   return num;
 3276              		.loc 1 182 8 view .LVU996
 3277              	.LBE537:
 3278              	.LBE538:
 3279              		.loc 1 184 1 view .LVU997
 3280 004c 30BC     		pop	{r4, r5}
 3281              		.cfi_restore 5
 3282              		.cfi_restore 4
 3283              		.cfi_def_cfa_offset 0
 3284              	.LVL195:
 3285              		.loc 1 184 1 view .LVU998
 3286 004e 7047     		bx	lr
 3287              	.LVL196:
 3288              	.L270:
 180:../USER/main.c ****   while(**buf==' ') (*buf)++; /* spip sp*/
 3289              		.loc 1 180 26 view .LVU999
 3290 0050 4FF0FF30 		mov	r0, #-1
 3291              	.LVL197:
 3292              		.loc 1 184 1 view .LVU1000
 3293 0054 7047     		bx	lr
 3294              		.cfi_endproc
 3295              	.LFE51:
 3297 0056 00BF     		.section	.text.startup.main,"ax",%progbits
 3298              		.align	1
 3299              		.p2align 2,,3
 3300              		.global	main
 3301              		.syntax unified
 3302              		.thumb
 3303              		.thumb_func
 3304              		.fpu softvfp
 3306              	main:
 3307              	.LFB52:
 185:../USER/main.c **** 
 186:../USER/main.c **** int main(void){
 3308              		.loc 1 186 15 is_stmt 1 view -0
 3309              		.cfi_startproc
 3310              		@ args = 0, pretend = 0, frame = 208
 3311              		@ frame_needed = 0, uses_anonymous_args = 0
 187:../USER/main.c **** 	unsigned char *mbase;
 3312              		.loc 1 187 2 view .LVU1002
 188:../USER/main.c **** 	  long adr,ade,adro,dt,dtr,wk,sct,scr,sl;
 3313              		.loc 1 188 4 view .LVU1003
 189:../USER/main.c **** 	  long i,j,mmd,rno;
 3314              		.loc 1 189 4 view .LVU1004
 190:../USER/main.c **** 	  unsigned int * cmp, *wrp, *sbp;
 3315              		.loc 1 190 4 view .LVU1005
 191:../USER/main.c **** 	  char cmd, cbuf[32], *cbp, **cbpp;
 3316              		.loc 1 191 4 view .LVU1006
 192:../USER/main.c **** 
 193:../USER/main.c **** 		char ch,kd;
 3317              		.loc 1 193 3 view .LVU1007
 194:../USER/main.c **** 		SystemInit();	//Initializes system
 3318              		.loc 1 194 3 view .LVU1008
 186:../USER/main.c **** 	unsigned char *mbase;
 3319              		.loc 1 186 15 is_stmt 0 view .LVU1009
 3320 0000 2DE9F04F 		push	{r4, r5, r6, r7, r8, r9, r10, fp, lr}
 3321              		.cfi_def_cfa_offset 36
 3322              		.cfi_offset 4, -36
 3323              		.cfi_offset 5, -32
 3324              		.cfi_offset 6, -28
 3325              		.cfi_offset 7, -24
 3326              		.cfi_offset 8, -20
 3327              		.cfi_offset 9, -16
 3328              		.cfi_offset 10, -12
 3329              		.cfi_offset 11, -8
 3330              		.cfi_offset 14, -4
 3331 0004 B7B0     		sub	sp, sp, #220
 3332              		.cfi_def_cfa_offset 256
 3333              		.loc 1 194 3 view .LVU1010
 3334 0006 FFF7FEFF 		bl	SystemInit
 3335              	.LVL198:
 195:../USER/main.c **** 		UartInit();
 3336              		.loc 1 195 3 is_stmt 1 view .LVU1011
 3337 000a FFF7FEFF 		bl	UartInit
 3338              	.LVL199:
 196:../USER/main.c **** 		SPIInit();		//Initializes SPI
 3339              		.loc 1 196 3 view .LVU1012
 3340              	.LBB930:
 3341              	.LBI930:
  79:../USER/main.c **** {
 3342              		.loc 1 79 6 view .LVU1013
 3343              	.LBB931:
  81:../USER/main.c ****   init_spi.CLKSEL= CLKSEL_CLK_DIV_4;		//80MHZ / 8
 3344              		.loc 1 81 2 view .LVU1014
  82:../USER/main.c ****   init_spi.DIRECTION = DISABLE;					//MSB First
 3345              		.loc 1 82 3 view .LVU1015
  83:../USER/main.c ****   init_spi.PHASE =DISABLE;							//ENABLE;//posedge
 3346              		.loc 1 83 3 view .LVU1016
  84:../USER/main.c ****   init_spi.POLARITY =DISABLE;						//polarity 0
 3347              		.loc 1 84 3 view .LVU1017
  85:../USER/main.c ****   SPI_Init(&init_spi);
 3348              		.loc 1 85 3 view .LVU1018
  83:../USER/main.c ****   init_spi.PHASE =DISABLE;							//ENABLE;//posedge
 3349              		.loc 1 83 22 is_stmt 0 view .LVU1019
 3350 000e 4FF08073 		mov	r3, #16777216
  86:../USER/main.c **** }
 3351              		.loc 1 86 3 view .LVU1020
 3352 0012 2EA8     		add	r0, sp, #184
  83:../USER/main.c ****   init_spi.PHASE =DISABLE;							//ENABLE;//posedge
 3353              		.loc 1 83 22 view .LVU1021
 3354 0014 2E93     		str	r3, [sp, #184]
  86:../USER/main.c **** }
 3355              		.loc 1 86 3 is_stmt 1 view .LVU1022
 3356 0016 FFF7FEFF 		bl	SPI_Init
 3357              	.LVL200:
 3358              	.LBE931:
 3359              	.LBE930:
 197:../USER/main.c **** 		check_gpio();
 3360              		.loc 1 197 3 view .LVU1023
 3361 001a FFF7FEFF 		bl	check_gpio
 3362              	.LVL201:
 198:../USER/main.c **** 
 199:../USER/main.c **** 		cbpp = &cbp; adro = 0; mbase = 0;
 3363              		.loc 1 199 3 view .LVU1024
 3364              		.loc 1 199 16 view .LVU1025
 3365              		.loc 1 199 26 view .LVU1026
 200:../USER/main.c **** 	  puts("\r\nMon_TN4K");
 3366              		.loc 1 200 4 view .LVU1027
 3367              	.LBB932:
 3368              	.LBI932:
 155:../USER/main.c **** 	while(1){
 3369              		.loc 1 155 6 view .LVU1028
 3370              	.LBB933:
 156:../USER/main.c **** 		if(*buf==0) break;
 3371              		.loc 1 156 2 view .LVU1029
 157:../USER/main.c **** 		else        putch(*buf++);
 3372              		.loc 1 157 3 view .LVU1030
 157:../USER/main.c **** 		else        putch(*buf++);
 3373              		.loc 1 157 6 is_stmt 0 view .LVU1031
 3374 001e 0D20     		movs	r0, #13
 3375              	.LBE933:
 3376              	.LBE932:
 197:../USER/main.c **** 
 3377              		.loc 1 197 3 view .LVU1032
 3378 0020 B74C     		ldr	r4, .L1209
 3379              	.LVL202:
 3380              	.L280:
 3381              	.LBB935:
 3382              	.LBB934:
 158:../USER/main.c **** 	}
 3383              		.loc 1 158 15 is_stmt 1 view .LVU1033
 158:../USER/main.c **** 	}
 3384              		.loc 1 158 15 is_stmt 0 view .LVU1034
 3385 0022 FFF7FEFF 		bl	putch_uart
 3386              	.LVL203:
 156:../USER/main.c **** 		if(*buf==0) break;
 3387              		.loc 1 156 2 is_stmt 1 view .LVU1035
 157:../USER/main.c **** 		else        putch(*buf++);
 3388              		.loc 1 157 3 view .LVU1036
 157:../USER/main.c **** 		else        putch(*buf++);
 3389              		.loc 1 157 6 is_stmt 0 view .LVU1037
 3390 0026 14F9010F 		ldrsb	r0, [r4, #1]!
 3391              	.LVL204:
 157:../USER/main.c **** 		else        putch(*buf++);
 3392              		.loc 1 157 5 view .LVU1038
 3393 002a 0028     		cmp	r0, #0
 3394 002c F9D1     		bne	.L280
 3395              	.LBE934:
 3396              	.LBE935:
 3397              	.LBB936:
 3398              	.LBB937:
 3399              	.LBB938:
 3400              	.LBB939:
 3401              	.LBB940:
 3402              	.LBB941:
 121:../USER/main.c **** 	//
 3403              		.loc 1 121 25 view .LVU1039
 3404 002e 0746     		mov	r7, r0
 3405 0030 DFF8D8A2 		ldr	r10, .L1209+12
 3406 0034 DFF8D882 		ldr	r8, .L1209+16
 3407 0038 DFF8D892 		ldr	r9, .L1209+20
 3408              	.LBE941:
 3409              	.LBE940:
 3410              	.LBE939:
 3411              	.LBE938:
 3412              	.LBE937:
 3413              	.LBE936:
 199:../USER/main.c **** 	  puts("\r\nMon_TN4K");
 3414              		.loc 1 199 21 view .LVU1040
 3415 003c 0B90     		str	r0, [sp, #44]
 3416              	.LVL205:
 3417              	.L279:
 201:../USER/main.c **** 	  while(1){
 3418              		.loc 1 201 4 is_stmt 1 view .LVU1041
 202:../USER/main.c **** 		  puts("\r\n>"); getssu(cbuf);
 3419              		.loc 1 202 5 view .LVU1042
 3420              	.LBB957:
 3421              	.LBI936:
 155:../USER/main.c **** 	while(1){
 3422              		.loc 1 155 6 view .LVU1043
 3423              	.LBB954:
 156:../USER/main.c **** 		if(*buf==0) break;
 3424              		.loc 1 156 2 view .LVU1044
 157:../USER/main.c **** 		else        putch(*buf++);
 3425              		.loc 1 157 3 view .LVU1045
 3426 003e DFF8D8B2 		ldr	fp, .L1209+24
 157:../USER/main.c **** 		else        putch(*buf++);
 3427              		.loc 1 157 6 is_stmt 0 view .LVU1046
 3428 0042 0D24     		movs	r4, #13
 3429              	.LBE954:
 3430              	.LBE957:
 199:../USER/main.c **** 	  puts("\r\nMon_TN4K");
 3431              		.loc 1 199 21 view .LVU1047
 3432 0044 5E46     		mov	r6, fp
 3433              	.LVL206:
 3434              	.L281:
 3435              	.LBB958:
 3436              	.LBB955:
 158:../USER/main.c **** 	}
 3437              		.loc 1 158 15 is_stmt 1 view .LVU1048
 3438              	.LBB952:
 3439              	.LBI938:
 134:../USER/main.c **** 	volatile uint32_t gpiord;
 3440              		.loc 1 134 6 view .LVU1049
 3441              	.LBB950:
 135:../USER/main.c **** 	if((mdgpio & 0x2000)==0)
 3442              		.loc 1 135 2 view .LVU1050
 136:../USER/main.c **** 		UART_SendChar(UART0,ch);
 3443              		.loc 1 136 2 view .LVU1051
 136:../USER/main.c **** 		UART_SendChar(UART0,ch);
 3444              		.loc 1 136 13 is_stmt 0 view .LVU1052
 3445 0046 DAF80030 		ldr	r3, [r10]
 136:../USER/main.c **** 		UART_SendChar(UART0,ch);
 3446              		.loc 1 136 4 view .LVU1053
 3447 004a 9B04     		lsls	r3, r3, #18
 3448 004c 40F1BB84 		bpl	.L1098
 139:../USER/main.c **** 		while((gpiord & 0x4000)!=0) {
 3449              		.loc 1 139 3 is_stmt 1 view .LVU1054
 139:../USER/main.c **** 		while((gpiord & 0x4000)!=0) {
 3450              		.loc 1 139 10 is_stmt 0 view .LVU1055
 3451 0050 4FF48043 		mov	r3, #16384
 3452 0054 0E93     		str	r3, [sp, #56]
 140:../USER/main.c **** 			key_check();
 3453              		.loc 1 140 3 is_stmt 1 view .LVU1056
 140:../USER/main.c **** 			key_check();
 3454              		.loc 1 140 17 is_stmt 0 view .LVU1057
 3455 0056 0E9B     		ldr	r3, [sp, #56]
 140:../USER/main.c **** 			key_check();
 3456              		.loc 1 140 8 view .LVU1058
 3457 0058 5D04     		lsls	r5, r3, #17
 3458 005a 2CD5     		bpl	.L291
 142:../USER/main.c **** 		}
 3459              		.loc 1 142 13 view .LVU1059
 3460 005c A94D     		ldr	r5, .L1209+4
 3461 005e 1DE0     		b	.L285
 3462              	.LVL207:
 3463              	.L1099:
 142:../USER/main.c **** 		}
 3464              		.loc 1 142 13 view .LVU1060
 3465 0060 D8F80030 		ldr	r3, [r8]
 3466              	.L287:
 3467              	.LBB944:
 3468              	.LBB942:
 121:../USER/main.c **** 	//
 3469              		.loc 1 121 2 is_stmt 1 view .LVU1061
 121:../USER/main.c **** 	//
 3470              		.loc 1 121 18 view .LVU1062
 121:../USER/main.c **** 	//
 3471              		.loc 1 121 4 is_stmt 0 view .LVU1063
 3472 0064 FF2B     		cmp	r3, #255
 3473 0066 02DD     		ble	.L288
 121:../USER/main.c **** 	//
 3474              		.loc 1 121 25 view .LVU1064
 3475 0068 0023     		movs	r3, #0
 3476 006a C8F80070 		str	r7, [r8]
 3477              	.L288:
 123:../USER/main.c **** 	if(kinbwp>=256) kinbwp = 0;
 3478              		.loc 1 123 39 is_stmt 1 view .LVU1065
 123:../USER/main.c **** 	if(kinbwp>=256) kinbwp = 0;
 3479              		.loc 1 123 2 view .LVU1066
 123:../USER/main.c **** 	if(kinbwp>=256) kinbwp = 0;
 3480              		.loc 1 123 11 is_stmt 0 view .LVU1067
 3481 006e 4FF04021 		mov	r1, #1073758208
 3482 0072 4868     		ldr	r0, [r1, #4]
 3483              	.LVL208:
 123:../USER/main.c **** 	if(kinbwp>=256) kinbwp = 0;
 3484              		.loc 1 123 52 view .LVU1068
 3485 0074 5A1C     		adds	r2, r3, #1
 123:../USER/main.c **** 	if(kinbwp>=256) kinbwp = 0;
 3486              		.loc 1 123 4 view .LVU1069
 3487 0076 8007     		lsls	r0, r0, #30
 3488 0078 09D5     		bpl	.L290
 124:../USER/main.c **** 	//
 3489              		.loc 1 124 25 view .LVU1070
 3490 007a B2F5807F 		cmp	r2, #256
 123:../USER/main.c **** 	if(kinbwp>=256) kinbwp = 0;
 3491              		.loc 1 123 63 view .LVU1071
 3492 007e 0868     		ldr	r0, [r1]
 124:../USER/main.c **** 	//
 3493              		.loc 1 124 25 view .LVU1072
 3494 0080 14BF     		ite	ne
 3495 0082 1146     		movne	r1, r2
 3496 0084 3946     		moveq	r1, r7
 123:../USER/main.c **** 	if(kinbwp>=256) kinbwp = 0;
 3497              		.loc 1 123 56 view .LVU1073
 3498 0086 09F80300 		strb	r0, [r9, r3]
 124:../USER/main.c **** 	//
 3499              		.loc 1 124 2 is_stmt 1 view .LVU1074
 124:../USER/main.c **** 	//
 3500              		.loc 1 124 25 is_stmt 0 view .LVU1075
 3501 008a C8F80010 		str	r1, [r8]
 3502              	.L290:
 124:../USER/main.c **** 	//
 3503              		.loc 1 124 25 view .LVU1076
 3504              	.LBE942:
 3505              	.LBE944:
 142:../USER/main.c **** 		}
 3506              		.loc 1 142 4 is_stmt 1 view .LVU1077
 142:../USER/main.c **** 		}
 3507              		.loc 1 142 13 is_stmt 0 view .LVU1078
 3508 008e 2846     		mov	r0, r5
 3509 0090 FFF7FEFF 		bl	GPIO_ReadBits
 3510              	.LVL209:
 142:../USER/main.c **** 		}
 3511              		.loc 1 142 11 view .LVU1079
 3512 0094 0E90     		str	r0, [sp, #56]
 140:../USER/main.c **** 			key_check();
 3513              		.loc 1 140 17 view .LVU1080
 3514 0096 0E9B     		ldr	r3, [sp, #56]
 140:../USER/main.c **** 			key_check();
 3515              		.loc 1 140 8 view .LVU1081
 3516 0098 5804     		lsls	r0, r3, #17
 3517 009a 0CD5     		bpl	.L291
 3518              	.L285:
 141:../USER/main.c **** 			gpiord = GPIO_ReadBits(GPIO0);
 3519              		.loc 1 141 4 is_stmt 1 view .LVU1082
 3520              	.LBB945:
 3521              	.LBI940:
 116:../USER/main.c **** 	char ch;
 3522              		.loc 1 116 6 view .LVU1083
 3523              	.LBB943:
 117:../USER/main.c **** 	//
 3524              		.loc 1 117 2 view .LVU1084
 119:../USER/main.c **** 	if(ch!=0) kinbuf[kinbwp++] = ch;
 3525              		.loc 1 119 2 view .LVU1085
 119:../USER/main.c **** 	if(ch!=0) kinbuf[kinbwp++] = ch;
 3526              		.loc 1 119 7 is_stmt 0 view .LVU1086
 3527 009c FFF7FEFF 		bl	SPI_ReadData
 3528              	.LVL210:
 120:../USER/main.c **** 	if(kinbwp>=256) kinbwp = 0;
 3529              		.loc 1 120 12 is_stmt 1 view .LVU1087
 119:../USER/main.c **** 	if(ch!=0) kinbuf[kinbwp++] = ch;
 3530              		.loc 1 119 5 is_stmt 0 view .LVU1088
 3531 00a0 40B2     		sxtb	r0, r0
 3532              	.LVL211:
 120:../USER/main.c **** 	if(kinbwp>=256) kinbwp = 0;
 3533              		.loc 1 120 2 is_stmt 1 view .LVU1089
 120:../USER/main.c **** 	if(kinbwp>=256) kinbwp = 0;
 3534              		.loc 1 120 4 is_stmt 0 view .LVU1090
 3535 00a2 0028     		cmp	r0, #0
 3536 00a4 DCD0     		beq	.L1099
 120:../USER/main.c **** 	if(kinbwp>=256) kinbwp = 0;
 3537              		.loc 1 120 25 view .LVU1091
 3538 00a6 D8F80020 		ldr	r2, [r8]
 3539 00aa 531C     		adds	r3, r2, #1
 120:../USER/main.c **** 	if(kinbwp>=256) kinbwp = 0;
 3540              		.loc 1 120 29 view .LVU1092
 3541 00ac 09F80200 		strb	r0, [r9, r2]
 120:../USER/main.c **** 	if(kinbwp>=256) kinbwp = 0;
 3542              		.loc 1 120 25 view .LVU1093
 3543 00b0 C8F80030 		str	r3, [r8]
 3544 00b4 D6E7     		b	.L287
 3545              	.LVL212:
 3546              	.L291:
 120:../USER/main.c **** 	if(kinbwp>=256) kinbwp = 0;
 3547              		.loc 1 120 25 view .LVU1094
 3548              	.LBE943:
 3549              	.LBE945:
 144:../USER/main.c **** 	}
 3550              		.loc 1 144 3 is_stmt 1 view .LVU1095
 3551 00b6 E0B2     		uxtb	r0, r4
 3552 00b8 FFF7FEFF 		bl	SPI_WriteData
 3553              	.LVL213:
 3554              	.L284:
 3555              	.LBB946:
 3556              	.LBB947:
 123:../USER/main.c **** 	if(kinbwp>=256) kinbwp = 0;
 3557              		.loc 1 123 11 is_stmt 0 view .LVU1096
 3558 00bc 4FF04025 		mov	r5, #1073758208
 3559 00c0 18E0     		b	.L297
 3560              	.LVL214:
 3561              	.L1101:
 123:../USER/main.c **** 	if(kinbwp>=256) kinbwp = 0;
 3562              		.loc 1 123 11 view .LVU1097
 3563 00c2 D8F80030 		ldr	r3, [r8]
 3564              	.L293:
 121:../USER/main.c **** 	//
 3565              		.loc 1 121 2 is_stmt 1 view .LVU1098
 121:../USER/main.c **** 	//
 3566              		.loc 1 121 18 view .LVU1099
 121:../USER/main.c **** 	//
 3567              		.loc 1 121 4 is_stmt 0 view .LVU1100
 3568 00c6 FF2B     		cmp	r3, #255
 3569 00c8 02DD     		ble	.L294
 121:../USER/main.c **** 	//
 3570              		.loc 1 121 25 view .LVU1101
 3571 00ca 0023     		movs	r3, #0
 3572 00cc C8F80070 		str	r7, [r8]
 3573              	.L294:
 123:../USER/main.c **** 	if(kinbwp>=256) kinbwp = 0;
 3574              		.loc 1 123 39 is_stmt 1 view .LVU1102
 123:../USER/main.c **** 	if(kinbwp>=256) kinbwp = 0;
 3575              		.loc 1 123 2 view .LVU1103
 123:../USER/main.c **** 	if(kinbwp>=256) kinbwp = 0;
 3576              		.loc 1 123 11 is_stmt 0 view .LVU1104
 3577 00d0 6968     		ldr	r1, [r5, #4]
 123:../USER/main.c **** 	if(kinbwp>=256) kinbwp = 0;
 3578              		.loc 1 123 52 view .LVU1105
 3579 00d2 5A1C     		adds	r2, r3, #1
 123:../USER/main.c **** 	if(kinbwp>=256) kinbwp = 0;
 3580              		.loc 1 123 4 view .LVU1106
 3581 00d4 8807     		lsls	r0, r1, #30
 3582              	.LVL215:
 123:../USER/main.c **** 	if(kinbwp>=256) kinbwp = 0;
 3583              		.loc 1 123 4 view .LVU1107
 3584 00d6 09D5     		bpl	.L296
 124:../USER/main.c **** 	//
 3585              		.loc 1 124 25 view .LVU1108
 3586 00d8 B2F5807F 		cmp	r2, #256
 3587 00dc 14BF     		ite	ne
 3588 00de 1146     		movne	r1, r2
 3589 00e0 3946     		moveq	r1, r7
 123:../USER/main.c **** 	if(kinbwp>=256) kinbwp = 0;
 3590              		.loc 1 123 63 view .LVU1109
 3591 00e2 2868     		ldr	r0, [r5]
 124:../USER/main.c **** 	//
 3592              		.loc 1 124 25 view .LVU1110
 3593 00e4 C8F80010 		str	r1, [r8]
 123:../USER/main.c **** 	if(kinbwp>=256) kinbwp = 0;
 3594              		.loc 1 123 56 view .LVU1111
 3595 00e8 09F80300 		strb	r0, [r9, r3]
 124:../USER/main.c **** 	//
 3596              		.loc 1 124 2 is_stmt 1 view .LVU1112
 3597              	.L296:
 124:../USER/main.c **** 	//
 3598              		.loc 1 124 2 is_stmt 0 view .LVU1113
 3599              	.LBE947:
 3600              	.LBE946:
 147:../USER/main.c **** }
 3601              		.loc 1 147 27 is_stmt 1 view .LVU1114
 147:../USER/main.c **** }
 3602              		.loc 1 147 32 is_stmt 0 view .LVU1115
 3603 00ec 2046     		mov	r0, r4
 3604 00ee FFF7FEFF 		bl	disp_vram
 3605              	.LVL216:
 147:../USER/main.c **** }
 3606              		.loc 1 147 2 view .LVU1116
 3607 00f2 60B1     		cbz	r0, .L1100
 3608              	.LVL217:
 3609              	.L297:
 147:../USER/main.c **** }
 3610              		.loc 1 147 2 is_stmt 1 view .LVU1117
 147:../USER/main.c **** }
 3611              		.loc 1 147 10 view .LVU1118
 147:../USER/main.c **** }
 3612              		.loc 1 147 14 view .LVU1119
 3613              	.LBB949:
 3614              	.LBI946:
 116:../USER/main.c **** 	char ch;
 3615              		.loc 1 116 6 view .LVU1120
 3616              	.LBB948:
 117:../USER/main.c **** 	//
 3617              		.loc 1 117 2 view .LVU1121
 119:../USER/main.c **** 	if(ch!=0) kinbuf[kinbwp++] = ch;
 3618              		.loc 1 119 2 view .LVU1122
 119:../USER/main.c **** 	if(ch!=0) kinbuf[kinbwp++] = ch;
 3619              		.loc 1 119 7 is_stmt 0 view .LVU1123
 3620 00f4 FFF7FEFF 		bl	SPI_ReadData
 3621              	.LVL218:
 120:../USER/main.c **** 	if(kinbwp>=256) kinbwp = 0;
 3622              		.loc 1 120 12 is_stmt 1 view .LVU1124
 119:../USER/main.c **** 	if(ch!=0) kinbuf[kinbwp++] = ch;
 3623              		.loc 1 119 5 is_stmt 0 view .LVU1125
 3624 00f8 40B2     		sxtb	r0, r0
 3625              	.LVL219:
 120:../USER/main.c **** 	if(kinbwp>=256) kinbwp = 0;
 3626              		.loc 1 120 2 is_stmt 1 view .LVU1126
 120:../USER/main.c **** 	if(kinbwp>=256) kinbwp = 0;
 3627              		.loc 1 120 4 is_stmt 0 view .LVU1127
 3628 00fa 0028     		cmp	r0, #0
 3629 00fc E1D0     		beq	.L1101
 120:../USER/main.c **** 	if(kinbwp>=256) kinbwp = 0;
 3630              		.loc 1 120 25 view .LVU1128
 3631 00fe D8F80020 		ldr	r2, [r8]
 3632 0102 531C     		adds	r3, r2, #1
 120:../USER/main.c **** 	if(kinbwp>=256) kinbwp = 0;
 3633              		.loc 1 120 29 view .LVU1129
 3634 0104 09F80200 		strb	r0, [r9, r2]
 120:../USER/main.c **** 	if(kinbwp>=256) kinbwp = 0;
 3635              		.loc 1 120 25 view .LVU1130
 3636 0108 C8F80030 		str	r3, [r8]
 3637 010c DBE7     		b	.L293
 3638              	.LVL220:
 3639              	.L1100:
 120:../USER/main.c **** 	if(kinbwp>=256) kinbwp = 0;
 3640              		.loc 1 120 25 view .LVU1131
 3641              	.LBE948:
 3642              	.LBE949:
 3643              	.LBE950:
 3644              	.LBE952:
 156:../USER/main.c **** 		if(*buf==0) break;
 3645              		.loc 1 156 2 is_stmt 1 view .LVU1132
 157:../USER/main.c **** 		else        putch(*buf++);
 3646              		.loc 1 157 3 view .LVU1133
 157:../USER/main.c **** 		else        putch(*buf++);
 3647              		.loc 1 157 6 is_stmt 0 view .LVU1134
 3648 010e 16F9014F 		ldrsb	r4, [r6, #1]!
 3649              	.LVL221:
 157:../USER/main.c **** 		else        putch(*buf++);
 3650              		.loc 1 157 5 view .LVU1135
 3651 0112 002C     		cmp	r4, #0
 3652 0114 97D1     		bne	.L281
 3653 0116 26AE     		add	r6, sp, #152
 3654              	.LVL222:
 3655              	.L282:
 157:../USER/main.c **** 		else        putch(*buf++);
 3656              		.loc 1 157 5 view .LVU1136
 3657              	.LBE955:
 3658              	.LBE958:
 3659              	.LBB959:
 3660              	.LBB960:
 3661              	.LBB961:
 162:../USER/main.c **** 	while(1){
 3662              		.loc 1 162 2 is_stmt 1 view .LVU1137
 163:../USER/main.c **** 		ch = getch(); putch(ch); *buf++ = ch;
 3663              		.loc 1 163 2 view .LVU1138
 164:../USER/main.c **** 		if(ch==0x0d) break;
 3664              		.loc 1 164 3 view .LVU1139
 3665              	.LBB962:
 3666              	.LBI962:
 127:../USER/main.c **** 	char dt;
 3667              		.loc 1 127 6 view .LVU1140
 3668              	.LBB963:
 3669              	.LBB964:
 3670              	.LBB965:
 123:../USER/main.c **** 	if(kinbwp>=256) kinbwp = 0;
 3671              		.loc 1 123 11 is_stmt 0 view .LVU1141
 3672 0118 4FF04024 		mov	r4, #1073758208
 3673 011c D8F80030 		ldr	r3, [r8]
 3674              	.L306:
 3675              	.LBE965:
 3676              	.LBE964:
 129:../USER/main.c **** 	dt = kinbuf[kinbrp++];
 3677              		.loc 1 129 14 view .LVU1142
 3678 0120 794A     		ldr	r2, .L1209+8
 3679 0122 1268     		ldr	r2, [r2]
 129:../USER/main.c **** 	dt = kinbuf[kinbrp++];
 3680              		.loc 1 129 7 view .LVU1143
 3681 0124 9A42     		cmp	r2, r3
 3682 0126 31D1     		bne	.L1102
 3683              	.L307:
 129:../USER/main.c **** 	dt = kinbuf[kinbrp++];
 3684              		.loc 1 129 24 is_stmt 1 view .LVU1144
 3685              	.LBB968:
 3686              	.LBI964:
 116:../USER/main.c **** 	char ch;
 3687              		.loc 1 116 6 view .LVU1145
 3688              	.LBB966:
 117:../USER/main.c **** 	//
 3689              		.loc 1 117 2 view .LVU1146
 119:../USER/main.c **** 	if(ch!=0) kinbuf[kinbwp++] = ch;
 3690              		.loc 1 119 2 view .LVU1147
 119:../USER/main.c **** 	if(ch!=0) kinbuf[kinbwp++] = ch;
 3691              		.loc 1 119 7 is_stmt 0 view .LVU1148
 3692 0128 FFF7FEFF 		bl	SPI_ReadData
 3693              	.LVL223:
 119:../USER/main.c **** 	if(ch!=0) kinbuf[kinbwp++] = ch;
 3694              		.loc 1 119 5 view .LVU1149
 3695 012c 40B2     		sxtb	r0, r0
 3696              	.LVL224:
 120:../USER/main.c **** 	if(kinbwp>=256) kinbwp = 0;
 3697              		.loc 1 120 2 is_stmt 1 view .LVU1150
 120:../USER/main.c **** 	if(kinbwp>=256) kinbwp = 0;
 3698              		.loc 1 120 4 is_stmt 0 view .LVU1151
 3699 012e 88B9     		cbnz	r0, .L300
 3700 0130 D8F80030 		ldr	r3, [r8]
 121:../USER/main.c **** 	//
 3701              		.loc 1 121 2 is_stmt 1 view .LVU1152
 121:../USER/main.c **** 	//
 3702              		.loc 1 121 4 is_stmt 0 view .LVU1153
 3703 0134 FF2B     		cmp	r3, #255
 3704 0136 16DD     		ble	.L302
 3705              	.L1103:
 121:../USER/main.c **** 	//
 3706              		.loc 1 121 18 is_stmt 1 view .LVU1154
 123:../USER/main.c **** 	if(kinbwp>=256) kinbwp = 0;
 3707              		.loc 1 123 11 is_stmt 0 view .LVU1155
 3708 0138 6368     		ldr	r3, [r4, #4]
 121:../USER/main.c **** 	//
 3709              		.loc 1 121 25 view .LVU1156
 3710 013a C8F80070 		str	r7, [r8]
 123:../USER/main.c **** 	if(kinbwp>=256) kinbwp = 0;
 3711              		.loc 1 123 2 is_stmt 1 view .LVU1157
 123:../USER/main.c **** 	if(kinbwp>=256) kinbwp = 0;
 3712              		.loc 1 123 4 is_stmt 0 view .LVU1158
 3713 013e 13F00203 		ands	r3, r3, #2
 3714 0142 EDD0     		beq	.L306
 123:../USER/main.c **** 	if(kinbwp>=256) kinbwp = 0;
 3715              		.loc 1 123 39 is_stmt 1 view .LVU1159
 123:../USER/main.c **** 	if(kinbwp>=256) kinbwp = 0;
 3716              		.loc 1 123 52 is_stmt 0 view .LVU1160
 3717 0144 0122     		movs	r2, #1
 123:../USER/main.c **** 	if(kinbwp>=256) kinbwp = 0;
 3718              		.loc 1 123 63 view .LVU1161
 3719 0146 2368     		ldr	r3, [r4]
 123:../USER/main.c **** 	if(kinbwp>=256) kinbwp = 0;
 3720              		.loc 1 123 52 view .LVU1162
 3721 0148 C8F80020 		str	r2, [r8]
 123:../USER/main.c **** 	if(kinbwp>=256) kinbwp = 0;
 3722              		.loc 1 123 56 view .LVU1163
 3723 014c 89F80030 		strb	r3, [r9]
 124:../USER/main.c **** 	//
 3724              		.loc 1 124 2 is_stmt 1 view .LVU1164
 3725              	.L915:
 123:../USER/main.c **** 	if(kinbwp>=256) kinbwp = 0;
 3726              		.loc 1 123 4 is_stmt 0 view .LVU1165
 3727 0150 1346     		mov	r3, r2
 3728 0152 E5E7     		b	.L306
 3729              	.L300:
 120:../USER/main.c **** 	if(kinbwp>=256) kinbwp = 0;
 3730              		.loc 1 120 12 is_stmt 1 view .LVU1166
 120:../USER/main.c **** 	if(kinbwp>=256) kinbwp = 0;
 3731              		.loc 1 120 25 is_stmt 0 view .LVU1167
 3732 0154 D8F80020 		ldr	r2, [r8]
 3733 0158 531C     		adds	r3, r2, #1
 121:../USER/main.c **** 	//
 3734              		.loc 1 121 4 view .LVU1168
 3735 015a FF2B     		cmp	r3, #255
 120:../USER/main.c **** 	if(kinbwp>=256) kinbwp = 0;
 3736              		.loc 1 120 29 view .LVU1169
 3737 015c 09F80200 		strb	r0, [r9, r2]
 120:../USER/main.c **** 	if(kinbwp>=256) kinbwp = 0;
 3738              		.loc 1 120 25 view .LVU1170
 3739 0160 C8F80030 		str	r3, [r8]
 121:../USER/main.c **** 	//
 3740              		.loc 1 121 2 is_stmt 1 view .LVU1171
 121:../USER/main.c **** 	//
 3741              		.loc 1 121 4 is_stmt 0 view .LVU1172
 3742 0164 E8DC     		bgt	.L1103
 3743              	.L302:
 123:../USER/main.c **** 	if(kinbwp>=256) kinbwp = 0;
 3744              		.loc 1 123 2 is_stmt 1 view .LVU1173
 123:../USER/main.c **** 	if(kinbwp>=256) kinbwp = 0;
 3745              		.loc 1 123 11 is_stmt 0 view .LVU1174
 3746 0166 6268     		ldr	r2, [r4, #4]
 123:../USER/main.c **** 	if(kinbwp>=256) kinbwp = 0;
 3747              		.loc 1 123 4 view .LVU1175
 3748 0168 9507     		lsls	r5, r2, #30
 3749 016a D9D5     		bpl	.L306
 123:../USER/main.c **** 	if(kinbwp>=256) kinbwp = 0;
 3750              		.loc 1 123 39 is_stmt 1 view .LVU1176
 123:../USER/main.c **** 	if(kinbwp>=256) kinbwp = 0;
 3751              		.loc 1 123 63 is_stmt 0 view .LVU1177
 3752 016c 2168     		ldr	r1, [r4]
 123:../USER/main.c **** 	if(kinbwp>=256) kinbwp = 0;
 3753              		.loc 1 123 52 view .LVU1178
 3754 016e 5A1C     		adds	r2, r3, #1
 124:../USER/main.c **** 	//
 3755              		.loc 1 124 4 view .LVU1179
 3756 0170 B2F5807F 		cmp	r2, #256
 123:../USER/main.c **** 	if(kinbwp>=256) kinbwp = 0;
 3757              		.loc 1 123 56 view .LVU1180
 3758 0174 09F80310 		strb	r1, [r9, r3]
 124:../USER/main.c **** 	//
 3759              		.loc 1 124 2 is_stmt 1 view .LVU1181
 123:../USER/main.c **** 	if(kinbwp>=256) kinbwp = 0;
 3760              		.loc 1 123 52 is_stmt 0 view .LVU1182
 3761 0178 C8F80020 		str	r2, [r8]
 124:../USER/main.c **** 	//
 3762              		.loc 1 124 4 view .LVU1183
 3763 017c E8D1     		bne	.L915
 124:../USER/main.c **** 	//
 3764              		.loc 1 124 18 is_stmt 1 view .LVU1184
 3765 017e 0023     		movs	r3, #0
 3766              	.LBE966:
 3767              	.LBE968:
 129:../USER/main.c **** 	dt = kinbuf[kinbrp++];
 3768              		.loc 1 129 14 is_stmt 0 view .LVU1185
 3769 0180 614A     		ldr	r2, .L1209+8
 3770              	.LBB969:
 3771              	.LBB967:
 124:../USER/main.c **** 	//
 3772              		.loc 1 124 25 view .LVU1186
 3773 0182 C8F80070 		str	r7, [r8]
 3774              	.LBE967:
 3775              	.LBE969:
 129:../USER/main.c **** 	dt = kinbuf[kinbrp++];
 3776              		.loc 1 129 14 view .LVU1187
 3777 0186 1268     		ldr	r2, [r2]
 129:../USER/main.c **** 	dt = kinbuf[kinbrp++];
 3778              		.loc 1 129 7 view .LVU1188
 3779 0188 9A42     		cmp	r2, r3
 3780 018a CDD0     		beq	.L307
 3781              	.LVL225:
 3782              	.L1102:
 130:../USER/main.c **** 	if(kinbrp>=256) kinbrp = 0;
 3783              		.loc 1 130 2 is_stmt 1 view .LVU1189
 130:../USER/main.c **** 	if(kinbrp>=256) kinbrp = 0;
 3784              		.loc 1 130 20 is_stmt 0 view .LVU1190
 3785 018c 531C     		adds	r3, r2, #1
 131:../USER/main.c **** 	return dt;
 3786              		.loc 1 131 25 view .LVU1191
 3787 018e B3F5807F 		cmp	r3, #256
 3788 0192 B4BF     		ite	lt
 3789 0194 1946     		movlt	r1, r3
 3790 0196 3946     		movge	r1, r7
 130:../USER/main.c **** 	if(kinbrp>=256) kinbrp = 0;
 3791              		.loc 1 130 20 view .LVU1192
 3792 0198 5B48     		ldr	r0, .L1209+8
 3793              	.LBE963:
 3794              	.LBE962:
 3795              	.LBB972:
 3796              	.LBB973:
 136:../USER/main.c **** 		UART_SendChar(UART0,ch);
 3797              		.loc 1 136 13 view .LVU1193
 3798 019a DAF80030 		ldr	r3, [r10]
 3799              	.LBE973:
 3800              	.LBE972:
 3801              	.LBB985:
 3802              	.LBB970:
 131:../USER/main.c **** 	return dt;
 3803              		.loc 1 131 25 view .LVU1194
 3804 019e 0160     		str	r1, [r0]
 3805              	.LBE970:
 3806              	.LBE985:
 3807              	.LBB986:
 3808              	.LBB982:
 136:../USER/main.c **** 		UART_SendChar(UART0,ch);
 3809              		.loc 1 136 4 view .LVU1195
 3810 01a0 9904     		lsls	r1, r3, #18
 3811              	.LBE982:
 3812              	.LBE986:
 3813              	.LBB987:
 3814              	.LBB971:
 130:../USER/main.c **** 	if(kinbrp>=256) kinbrp = 0;
 3815              		.loc 1 130 5 view .LVU1196
 3816 01a2 19F90240 		ldrsb	r4, [r9, r2]
 3817              	.LVL226:
 131:../USER/main.c **** 	return dt;
 3818              		.loc 1 131 2 is_stmt 1 view .LVU1197
 132:../USER/main.c **** }
 3819              		.loc 1 132 2 view .LVU1198
 132:../USER/main.c **** }
 3820              		.loc 1 132 2 is_stmt 0 view .LVU1199
 3821              	.LBE971:
 3822              	.LBE987:
 164:../USER/main.c **** 		if(ch==0x0d) break;
 3823              		.loc 1 164 17 is_stmt 1 view .LVU1200
 3824              	.LBB988:
 3825              	.LBI972:
 134:../USER/main.c **** 	volatile uint32_t gpiord;
 3826              		.loc 1 134 6 view .LVU1201
 3827              	.LBB983:
 135:../USER/main.c **** 	if((mdgpio & 0x2000)==0)
 3828              		.loc 1 135 2 view .LVU1202
 136:../USER/main.c **** 		UART_SendChar(UART0,ch);
 3829              		.loc 1 136 2 view .LVU1203
 136:../USER/main.c **** 		UART_SendChar(UART0,ch);
 3830              		.loc 1 136 4 is_stmt 0 view .LVU1204
 3831 01a6 40F10884 		bpl	.L1104
 139:../USER/main.c **** 		while((gpiord & 0x4000)!=0) {
 3832              		.loc 1 139 3 is_stmt 1 view .LVU1205
 139:../USER/main.c **** 		while((gpiord & 0x4000)!=0) {
 3833              		.loc 1 139 10 is_stmt 0 view .LVU1206
 3834 01aa 4FF48043 		mov	r3, #16384
 3835 01ae 0F93     		str	r3, [sp, #60]
 140:../USER/main.c **** 			key_check();
 3836              		.loc 1 140 3 is_stmt 1 view .LVU1207
 140:../USER/main.c **** 			key_check();
 3837              		.loc 1 140 17 is_stmt 0 view .LVU1208
 3838 01b0 0F9B     		ldr	r3, [sp, #60]
 140:../USER/main.c **** 			key_check();
 3839              		.loc 1 140 8 view .LVU1209
 3840 01b2 5A04     		lsls	r2, r3, #17
 3841 01b4 2CD5     		bpl	.L317
 142:../USER/main.c **** 		}
 3842              		.loc 1 142 13 view .LVU1210
 3843 01b6 534D     		ldr	r5, .L1209+4
 3844 01b8 1DE0     		b	.L311
 3845              	.LVL227:
 3846              	.L1105:
 142:../USER/main.c **** 		}
 3847              		.loc 1 142 13 view .LVU1211
 3848 01ba D8F80030 		ldr	r3, [r8]
 3849              	.L313:
 3850              	.LBB974:
 3851              	.LBB975:
 121:../USER/main.c **** 	//
 3852              		.loc 1 121 2 is_stmt 1 view .LVU1212
 121:../USER/main.c **** 	//
 3853              		.loc 1 121 18 view .LVU1213
 121:../USER/main.c **** 	//
 3854              		.loc 1 121 4 is_stmt 0 view .LVU1214
 3855 01be FF2B     		cmp	r3, #255
 3856 01c0 02DD     		ble	.L314
 121:../USER/main.c **** 	//
 3857              		.loc 1 121 25 view .LVU1215
 3858 01c2 0023     		movs	r3, #0
 3859 01c4 C8F80070 		str	r7, [r8]
 3860              	.L314:
 123:../USER/main.c **** 	if(kinbwp>=256) kinbwp = 0;
 3861              		.loc 1 123 39 is_stmt 1 view .LVU1216
 123:../USER/main.c **** 	if(kinbwp>=256) kinbwp = 0;
 3862              		.loc 1 123 2 view .LVU1217
 123:../USER/main.c **** 	if(kinbwp>=256) kinbwp = 0;
 3863              		.loc 1 123 11 is_stmt 0 view .LVU1218
 3864 01c8 4FF04021 		mov	r1, #1073758208
 3865 01cc 4868     		ldr	r0, [r1, #4]
 3866              	.LVL228:
 123:../USER/main.c **** 	if(kinbwp>=256) kinbwp = 0;
 3867              		.loc 1 123 52 view .LVU1219
 3868 01ce 5A1C     		adds	r2, r3, #1
 123:../USER/main.c **** 	if(kinbwp>=256) kinbwp = 0;
 3869              		.loc 1 123 4 view .LVU1220
 3870 01d0 8007     		lsls	r0, r0, #30
 3871 01d2 09D5     		bpl	.L316
 124:../USER/main.c **** 	//
 3872              		.loc 1 124 25 view .LVU1221
 3873 01d4 B2F5807F 		cmp	r2, #256
 123:../USER/main.c **** 	if(kinbwp>=256) kinbwp = 0;
 3874              		.loc 1 123 63 view .LVU1222
 3875 01d8 0868     		ldr	r0, [r1]
 124:../USER/main.c **** 	//
 3876              		.loc 1 124 25 view .LVU1223
 3877 01da 14BF     		ite	ne
 3878 01dc 1146     		movne	r1, r2
 3879 01de 3946     		moveq	r1, r7
 123:../USER/main.c **** 	if(kinbwp>=256) kinbwp = 0;
 3880              		.loc 1 123 56 view .LVU1224
 3881 01e0 09F80300 		strb	r0, [r9, r3]
 124:../USER/main.c **** 	//
 3882              		.loc 1 124 2 is_stmt 1 view .LVU1225
 124:../USER/main.c **** 	//
 3883              		.loc 1 124 25 is_stmt 0 view .LVU1226
 3884 01e4 C8F80010 		str	r1, [r8]
 3885              	.L316:
 124:../USER/main.c **** 	//
 3886              		.loc 1 124 25 view .LVU1227
 3887              	.LBE975:
 3888              	.LBE974:
 142:../USER/main.c **** 		}
 3889              		.loc 1 142 4 is_stmt 1 view .LVU1228
 142:../USER/main.c **** 		}
 3890              		.loc 1 142 13 is_stmt 0 view .LVU1229
 3891 01e8 2846     		mov	r0, r5
 3892 01ea FFF7FEFF 		bl	GPIO_ReadBits
 3893              	.LVL229:
 142:../USER/main.c **** 		}
 3894              		.loc 1 142 11 view .LVU1230
 3895 01ee 0F90     		str	r0, [sp, #60]
 140:../USER/main.c **** 			key_check();
 3896              		.loc 1 140 17 view .LVU1231
 3897 01f0 0F9B     		ldr	r3, [sp, #60]
 140:../USER/main.c **** 			key_check();
 3898              		.loc 1 140 8 view .LVU1232
 3899 01f2 5B04     		lsls	r3, r3, #17
 3900 01f4 0CD5     		bpl	.L317
 3901              	.L311:
 141:../USER/main.c **** 			gpiord = GPIO_ReadBits(GPIO0);
 3902              		.loc 1 141 4 is_stmt 1 view .LVU1233
 3903              	.LBB977:
 3904              	.LBI974:
 116:../USER/main.c **** 	char ch;
 3905              		.loc 1 116 6 view .LVU1234
 3906              	.LBB976:
 117:../USER/main.c **** 	//
 3907              		.loc 1 117 2 view .LVU1235
 119:../USER/main.c **** 	if(ch!=0) kinbuf[kinbwp++] = ch;
 3908              		.loc 1 119 2 view .LVU1236
 119:../USER/main.c **** 	if(ch!=0) kinbuf[kinbwp++] = ch;
 3909              		.loc 1 119 7 is_stmt 0 view .LVU1237
 3910 01f6 FFF7FEFF 		bl	SPI_ReadData
 3911              	.LVL230:
 120:../USER/main.c **** 	if(kinbwp>=256) kinbwp = 0;
 3912              		.loc 1 120 12 is_stmt 1 view .LVU1238
 119:../USER/main.c **** 	if(ch!=0) kinbuf[kinbwp++] = ch;
 3913              		.loc 1 119 5 is_stmt 0 view .LVU1239
 3914 01fa 40B2     		sxtb	r0, r0
 3915              	.LVL231:
 120:../USER/main.c **** 	if(kinbwp>=256) kinbwp = 0;
 3916              		.loc 1 120 2 is_stmt 1 view .LVU1240
 120:../USER/main.c **** 	if(kinbwp>=256) kinbwp = 0;
 3917              		.loc 1 120 4 is_stmt 0 view .LVU1241
 3918 01fc 0028     		cmp	r0, #0
 3919 01fe DCD0     		beq	.L1105
 120:../USER/main.c **** 	if(kinbwp>=256) kinbwp = 0;
 3920              		.loc 1 120 25 view .LVU1242
 3921 0200 D8F80020 		ldr	r2, [r8]
 3922 0204 531C     		adds	r3, r2, #1
 120:../USER/main.c **** 	if(kinbwp>=256) kinbwp = 0;
 3923              		.loc 1 120 29 view .LVU1243
 3924 0206 09F80200 		strb	r0, [r9, r2]
 120:../USER/main.c **** 	if(kinbwp>=256) kinbwp = 0;
 3925              		.loc 1 120 25 view .LVU1244
 3926 020a C8F80030 		str	r3, [r8]
 3927 020e D6E7     		b	.L313
 3928              	.LVL232:
 3929              	.L317:
 120:../USER/main.c **** 	if(kinbwp>=256) kinbwp = 0;
 3930              		.loc 1 120 25 view .LVU1245
 3931              	.LBE976:
 3932              	.LBE977:
 144:../USER/main.c **** 	}
 3933              		.loc 1 144 3 is_stmt 1 view .LVU1246
 3934 0210 E0B2     		uxtb	r0, r4
 3935 0212 FFF7FEFF 		bl	SPI_WriteData
 3936              	.LVL233:
 3937              	.L310:
 3938              	.LBB978:
 3939              	.LBB979:
 123:../USER/main.c **** 	if(kinbwp>=256) kinbwp = 0;
 3940              		.loc 1 123 11 is_stmt 0 view .LVU1247
 3941 0216 4FF04025 		mov	r5, #1073758208
 3942 021a 18E0     		b	.L323
 3943              	.LVL234:
 3944              	.L1107:
 123:../USER/main.c **** 	if(kinbwp>=256) kinbwp = 0;
 3945              		.loc 1 123 11 view .LVU1248
 3946 021c D8F80030 		ldr	r3, [r8]
 3947              	.L319:
 121:../USER/main.c **** 	//
 3948              		.loc 1 121 2 is_stmt 1 view .LVU1249
 121:../USER/main.c **** 	//
 3949              		.loc 1 121 18 view .LVU1250
 121:../USER/main.c **** 	//
 3950              		.loc 1 121 4 is_stmt 0 view .LVU1251
 3951 0220 FF2B     		cmp	r3, #255
 3952 0222 02DD     		ble	.L320
 121:../USER/main.c **** 	//
 3953              		.loc 1 121 25 view .LVU1252
 3954 0224 0023     		movs	r3, #0
 3955 0226 C8F80070 		str	r7, [r8]
 3956              	.L320:
 123:../USER/main.c **** 	if(kinbwp>=256) kinbwp = 0;
 3957              		.loc 1 123 39 is_stmt 1 view .LVU1253
 123:../USER/main.c **** 	if(kinbwp>=256) kinbwp = 0;
 3958              		.loc 1 123 2 view .LVU1254
 123:../USER/main.c **** 	if(kinbwp>=256) kinbwp = 0;
 3959              		.loc 1 123 11 is_stmt 0 view .LVU1255
 3960 022a 6968     		ldr	r1, [r5, #4]
 123:../USER/main.c **** 	if(kinbwp>=256) kinbwp = 0;
 3961              		.loc 1 123 52 view .LVU1256
 3962 022c 5A1C     		adds	r2, r3, #1
 123:../USER/main.c **** 	if(kinbwp>=256) kinbwp = 0;
 3963              		.loc 1 123 4 view .LVU1257
 3964 022e 8807     		lsls	r0, r1, #30
 3965              	.LVL235:
 123:../USER/main.c **** 	if(kinbwp>=256) kinbwp = 0;
 3966              		.loc 1 123 4 view .LVU1258
 3967 0230 09D5     		bpl	.L322
 124:../USER/main.c **** 	//
 3968              		.loc 1 124 25 view .LVU1259
 3969 0232 B2F5807F 		cmp	r2, #256
 3970 0236 14BF     		ite	ne
 3971 0238 1146     		movne	r1, r2
 3972 023a 3946     		moveq	r1, r7
 123:../USER/main.c **** 	if(kinbwp>=256) kinbwp = 0;
 3973              		.loc 1 123 63 view .LVU1260
 3974 023c 2868     		ldr	r0, [r5]
 124:../USER/main.c **** 	//
 3975              		.loc 1 124 25 view .LVU1261
 3976 023e C8F80010 		str	r1, [r8]
 123:../USER/main.c **** 	if(kinbwp>=256) kinbwp = 0;
 3977              		.loc 1 123 56 view .LVU1262
 3978 0242 09F80300 		strb	r0, [r9, r3]
 124:../USER/main.c **** 	//
 3979              		.loc 1 124 2 is_stmt 1 view .LVU1263
 3980              	.L322:
 124:../USER/main.c **** 	//
 3981              		.loc 1 124 2 is_stmt 0 view .LVU1264
 3982              	.LBE979:
 3983              	.LBE978:
 147:../USER/main.c **** }
 3984              		.loc 1 147 27 is_stmt 1 view .LVU1265
 147:../USER/main.c **** }
 3985              		.loc 1 147 32 is_stmt 0 view .LVU1266
 3986 0246 2046     		mov	r0, r4
 3987 0248 FFF7FEFF 		bl	disp_vram
 3988              	.LVL236:
 147:../USER/main.c **** }
 3989              		.loc 1 147 2 view .LVU1267
 3990 024c 60B1     		cbz	r0, .L1106
 3991              	.LVL237:
 3992              	.L323:
 147:../USER/main.c **** }
 3993              		.loc 1 147 2 is_stmt 1 view .LVU1268
 147:../USER/main.c **** }
 3994              		.loc 1 147 10 view .LVU1269
 147:../USER/main.c **** }
 3995              		.loc 1 147 14 view .LVU1270
 3996              	.LBB981:
 3997              	.LBI978:
 116:../USER/main.c **** 	char ch;
 3998              		.loc 1 116 6 view .LVU1271
 3999              	.LBB980:
 117:../USER/main.c **** 	//
 4000              		.loc 1 117 2 view .LVU1272
 119:../USER/main.c **** 	if(ch!=0) kinbuf[kinbwp++] = ch;
 4001              		.loc 1 119 2 view .LVU1273
 119:../USER/main.c **** 	if(ch!=0) kinbuf[kinbwp++] = ch;
 4002              		.loc 1 119 7 is_stmt 0 view .LVU1274
 4003 024e FFF7FEFF 		bl	SPI_ReadData
 4004              	.LVL238:
 120:../USER/main.c **** 	if(kinbwp>=256) kinbwp = 0;
 4005              		.loc 1 120 12 is_stmt 1 view .LVU1275
 119:../USER/main.c **** 	if(ch!=0) kinbuf[kinbwp++] = ch;
 4006              		.loc 1 119 5 is_stmt 0 view .LVU1276
 4007 0252 40B2     		sxtb	r0, r0
 4008              	.LVL239:
 120:../USER/main.c **** 	if(kinbwp>=256) kinbwp = 0;
 4009              		.loc 1 120 2 is_stmt 1 view .LVU1277
 120:../USER/main.c **** 	if(kinbwp>=256) kinbwp = 0;
 4010              		.loc 1 120 4 is_stmt 0 view .LVU1278
 4011 0254 0028     		cmp	r0, #0
 4012 0256 E1D0     		beq	.L1107
 120:../USER/main.c **** 	if(kinbwp>=256) kinbwp = 0;
 4013              		.loc 1 120 25 view .LVU1279
 4014 0258 D8F80020 		ldr	r2, [r8]
 4015 025c 531C     		adds	r3, r2, #1
 120:../USER/main.c **** 	if(kinbwp>=256) kinbwp = 0;
 4016              		.loc 1 120 29 view .LVU1280
 4017 025e 09F80200 		strb	r0, [r9, r2]
 120:../USER/main.c **** 	if(kinbwp>=256) kinbwp = 0;
 4018              		.loc 1 120 25 view .LVU1281
 4019 0262 C8F80030 		str	r3, [r8]
 4020 0266 DBE7     		b	.L319
 4021              	.LVL240:
 4022              	.L1106:
 120:../USER/main.c **** 	if(kinbwp>=256) kinbwp = 0;
 4023              		.loc 1 120 25 view .LVU1282
 4024              	.LBE980:
 4025              	.LBE981:
 4026              	.LBE983:
 4027              	.LBE988:
 164:../USER/main.c **** 		if(ch==0x0d) break;
 4028              		.loc 1 164 28 is_stmt 1 view .LVU1283
 165:../USER/main.c **** 	}
 4029              		.loc 1 165 5 is_stmt 0 view .LVU1284
 4030 0268 0D2C     		cmp	r4, #13
 164:../USER/main.c **** 		if(ch==0x0d) break;
 4031              		.loc 1 164 35 view .LVU1285
 4032 026a 06F8014B 		strb	r4, [r6], #1
 4033              	.LVL241:
 165:../USER/main.c **** 	}
 4034              		.loc 1 165 3 is_stmt 1 view .LVU1286
 165:../USER/main.c **** 	}
 4035              		.loc 1 165 5 is_stmt 0 view .LVU1287
 4036 026e 7FF453AF 		bne	.L282
 4037              	.LVL242:
 165:../USER/main.c **** 	}
 4038              		.loc 1 165 5 view .LVU1288
 4039              	.LBE961:
 4040              	.LBE960:
 4041              	.LBB991:
 4042              	.LBB992:
 109:../USER/main.c ****    if( *buf>='a' && *buf<='z') *buf = *buf - 0x20;
 4043              		.loc 1 109 9 view .LVU1289
 4044 0272 9DF99830 		ldrsb	r3, [sp, #152]
 109:../USER/main.c ****    if( *buf>='a' && *buf<='z') *buf = *buf - 0x20;
 4045              		.loc 1 109 8 view .LVU1290
 4046 0276 0D2B     		cmp	r3, #13
 4047 0278 00F0E581 		beq	.L324
 4048 027c 26AA     		add	r2, sp, #152
 4049              	.LVL243:
 4050              	.L328:
 110:../USER/main.c ****    buf++;
 4051              		.loc 1 110 4 is_stmt 1 view .LVU1291
 110:../USER/main.c ****    buf++;
 4052              		.loc 1 110 32 view .LVU1292
 111:../USER/main.c ****   }
 4053              		.loc 1 111 4 view .LVU1293
 110:../USER/main.c ****    buf++;
 4054              		.loc 1 110 18 is_stmt 0 view .LVU1294
 4055 027e DBB2     		uxtb	r3, r3
 110:../USER/main.c ****    buf++;
 4056              		.loc 1 110 44 view .LVU1295
 4057 0280 A3F12001 		sub	r1, r3, #32
 110:../USER/main.c ****    buf++;
 4058              		.loc 1 110 6 view .LVU1296
 4059 0284 613B     		subs	r3, r3, #97
 4060 0286 192B     		cmp	r3, #25
 4061 0288 00F28583 		bhi	.L325
 110:../USER/main.c ****    buf++;
 4062              		.loc 1 110 37 view .LVU1297
 4063 028c 1170     		strb	r1, [r2]
 111:../USER/main.c ****   }
 4064              		.loc 1 111 4 is_stmt 1 view .LVU1298
 109:../USER/main.c ****    if( *buf>='a' && *buf<='z') *buf = *buf - 0x20;
 4065              		.loc 1 109 9 is_stmt 0 view .LVU1299
 4066 028e 12F9013F 		ldrsb	r3, [r2, #1]!
 4067              	.LVL244:
 109:../USER/main.c ****    if( *buf>='a' && *buf<='z') *buf = *buf - 0x20;
 4068              		.loc 1 109 8 view .LVU1300
 4069 0292 0D2B     		cmp	r3, #13
 4070 0294 F3D1     		bne	.L328
 4071              	.LVL245:
 4072              	.L327:
 109:../USER/main.c ****    if( *buf>='a' && *buf<='z') *buf = *buf - 0x20;
 4073              		.loc 1 109 8 view .LVU1301
 4074              	.LBE992:
 4075              	.LBE991:
 4076              	.LBE959:
 203:../USER/main.c **** 		  cmd = cbuf[0]; cbp = &cbuf[1];
 4077              		.loc 1 203 5 is_stmt 1 view .LVU1302
 4078              		.loc 1 203 9 is_stmt 0 view .LVU1303
 4079 0296 9DF99830 		ldrsb	r3, [sp, #152]
 4080              	.LVL246:
 4081              		.loc 1 203 20 is_stmt 1 view .LVU1304
 4082              		.loc 1 203 24 is_stmt 0 view .LVU1305
 4083 029a 0DF19902 		add	r2, sp, #153
 204:../USER/main.c **** 		  switch(cmd){
 4084              		.loc 1 204 5 view .LVU1306
 4085 029e 423B     		subs	r3, r3, #66
 4086              	.LVL247:
 203:../USER/main.c **** 		  cmd = cbuf[0]; cbp = &cbuf[1];
 4087              		.loc 1 203 24 view .LVU1307
 4088 02a0 0D92     		str	r2, [sp, #52]
 4089              		.loc 1 204 5 is_stmt 1 view .LVU1308
 4090 02a2 152B     		cmp	r3, #21
 4091 02a4 00F2D281 		bhi	.L329
 4092 02a8 DFE813F0 		tbh	[pc, r3, lsl #1]
 4093              	.L331:
 4094 02ac 1B00     		.2byte	(.L335-.L331)/2
 4095 02ae D001     		.2byte	(.L329-.L331)/2
 4096 02b0 7D01     		.2byte	(.L334-.L331)/2
 4097 02b2 D001     		.2byte	(.L329-.L331)/2
 4098 02b4 D001     		.2byte	(.L329-.L331)/2
 4099 02b6 D001     		.2byte	(.L329-.L331)/2
 4100 02b8 D001     		.2byte	(.L329-.L331)/2
 4101 02ba D001     		.2byte	(.L329-.L331)/2
 4102 02bc D001     		.2byte	(.L329-.L331)/2
 4103 02be D001     		.2byte	(.L329-.L331)/2
 4104 02c0 D001     		.2byte	(.L329-.L331)/2
 4105 02c2 2101     		.2byte	(.L333-.L331)/2
 4106 02c4 D001     		.2byte	(.L329-.L331)/2
 4107 02c6 D001     		.2byte	(.L329-.L331)/2
 4108 02c8 D001     		.2byte	(.L329-.L331)/2
 4109 02ca D001     		.2byte	(.L329-.L331)/2
 4110 02cc 9800     		.2byte	(.L332-.L331)/2
 4111 02ce D001     		.2byte	(.L329-.L331)/2
 4112 02d0 D001     		.2byte	(.L329-.L331)/2
 4113 02d2 D001     		.2byte	(.L329-.L331)/2
 4114 02d4 D001     		.2byte	(.L329-.L331)/2
 4115 02d6 6400     		.2byte	(.L330-.L331)/2
 4116              	.LVL248:
 4117              		.p2align 1
 4118              	.L1140:
 4119              	.LBB996:
 4120              	.LBB997:
 156:../USER/main.c **** 		if(*buf==0) break;
 4121              		.loc 1 156 2 view .LVU1309
 157:../USER/main.c **** 		else        putch(*buf++);
 4122              		.loc 1 157 3 view .LVU1310
 157:../USER/main.c **** 		else        putch(*buf++);
 4123              		.loc 1 157 6 is_stmt 0 view .LVU1311
 4124 02d8 1BF9014F 		ldrsb	r4, [fp, #1]!
 4125              	.LVL249:
 157:../USER/main.c **** 		else        putch(*buf++);
 4126              		.loc 1 157 5 view .LVU1312
 4127 02dc 002C     		cmp	r4, #0
 4128 02de 00F0A783 		beq	.L336
 4129              	.LVL250:
 4130              	.L335:
 158:../USER/main.c **** 	}
 4131              		.loc 1 158 15 is_stmt 1 view .LVU1313
 4132              	.LBB998:
 4133              	.LBI998:
 134:../USER/main.c **** 	volatile uint32_t gpiord;
 4134              		.loc 1 134 6 view .LVU1314
 4135              	.LBB999:
 135:../USER/main.c **** 	if((mdgpio & 0x2000)==0)
 4136              		.loc 1 135 2 view .LVU1315
 136:../USER/main.c **** 		UART_SendChar(UART0,ch);
 4137              		.loc 1 136 2 view .LVU1316
 136:../USER/main.c **** 		UART_SendChar(UART0,ch);
 4138              		.loc 1 136 13 is_stmt 0 view .LVU1317
 4139 02e2 DAF80030 		ldr	r3, [r10]
 136:../USER/main.c **** 		UART_SendChar(UART0,ch);
 4140              		.loc 1 136 4 view .LVU1318
 4141 02e6 9E04     		lsls	r6, r3, #18
 4142 02e8 41F1C482 		bpl	.L1108
 139:../USER/main.c **** 		while((gpiord & 0x4000)!=0) {
 4143              		.loc 1 139 3 is_stmt 1 view .LVU1319
 139:../USER/main.c **** 		while((gpiord & 0x4000)!=0) {
 4144              		.loc 1 139 10 is_stmt 0 view .LVU1320
 4145 02ec 4FF48043 		mov	r3, #16384
 4146 02f0 1093     		str	r3, [sp, #64]
 140:../USER/main.c **** 			key_check();
 4147              		.loc 1 140 3 is_stmt 1 view .LVU1321
 140:../USER/main.c **** 			key_check();
 4148              		.loc 1 140 17 is_stmt 0 view .LVU1322
 4149 02f2 109B     		ldr	r3, [sp, #64]
 140:../USER/main.c **** 			key_check();
 4150              		.loc 1 140 8 view .LVU1323
 4151 02f4 5D04     		lsls	r5, r3, #17
 4152 02f6 40F16D83 		bpl	.L345
 142:../USER/main.c **** 		}
 4153              		.loc 1 142 13 view .LVU1324
 4154 02fa 024D     		ldr	r5, .L1209+4
 4155 02fc 2DE0     		b	.L339
 4156              	.L1210:
 4157 02fe 00BF     		.align	2
 4158              	.L1209:
 4159 0300 00000000 		.word	.LC1
 4160 0304 00000140 		.word	1073807360
 4161 0308 00000000 		.word	.LANCHOR1
 4162 030c 00000000 		.word	mdgpio
 4163 0310 00000000 		.word	.LANCHOR0
 4164 0314 00000000 		.word	kinbuf
 4165 0318 0C000000 		.word	.LC2
 4166              	.LVL251:
 4167              	.L1109:
 142:../USER/main.c **** 		}
 4168              		.loc 1 142 13 view .LVU1325
 4169 031c D8F80030 		ldr	r3, [r8]
 4170              	.L341:
 4171              	.LBB1000:
 4172              	.LBB1001:
 121:../USER/main.c **** 	//
 4173              		.loc 1 121 2 is_stmt 1 view .LVU1326
 121:../USER/main.c **** 	//
 4174              		.loc 1 121 18 view .LVU1327
 121:../USER/main.c **** 	//
 4175              		.loc 1 121 4 is_stmt 0 view .LVU1328
 4176 0320 FF2B     		cmp	r3, #255
 4177 0322 02DD     		ble	.L342
 121:../USER/main.c **** 	//
 4178              		.loc 1 121 25 view .LVU1329
 4179 0324 0023     		movs	r3, #0
 4180 0326 C8F80070 		str	r7, [r8]
 4181              	.L342:
 123:../USER/main.c **** 	if(kinbwp>=256) kinbwp = 0;
 4182              		.loc 1 123 39 is_stmt 1 view .LVU1330
 123:../USER/main.c **** 	if(kinbwp>=256) kinbwp = 0;
 4183              		.loc 1 123 2 view .LVU1331
 123:../USER/main.c **** 	if(kinbwp>=256) kinbwp = 0;
 4184              		.loc 1 123 11 is_stmt 0 view .LVU1332
 4185 032a 4FF04021 		mov	r1, #1073758208
 4186 032e 4868     		ldr	r0, [r1, #4]
 4187              	.LVL252:
 123:../USER/main.c **** 	if(kinbwp>=256) kinbwp = 0;
 4188              		.loc 1 123 52 view .LVU1333
 4189 0330 5A1C     		adds	r2, r3, #1
 123:../USER/main.c **** 	if(kinbwp>=256) kinbwp = 0;
 4190              		.loc 1 123 4 view .LVU1334
 4191 0332 8007     		lsls	r0, r0, #30
 4192 0334 09D5     		bpl	.L344
 124:../USER/main.c **** 	//
 4193              		.loc 1 124 25 view .LVU1335
 4194 0336 B2F5807F 		cmp	r2, #256
 123:../USER/main.c **** 	if(kinbwp>=256) kinbwp = 0;
 4195              		.loc 1 123 63 view .LVU1336
 4196 033a 0868     		ldr	r0, [r1]
 124:../USER/main.c **** 	//
 4197              		.loc 1 124 25 view .LVU1337
 4198 033c 14BF     		ite	ne
 4199 033e 1146     		movne	r1, r2
 4200 0340 3946     		moveq	r1, r7
 123:../USER/main.c **** 	if(kinbwp>=256) kinbwp = 0;
 4201              		.loc 1 123 56 view .LVU1338
 4202 0342 09F80300 		strb	r0, [r9, r3]
 124:../USER/main.c **** 	//
 4203              		.loc 1 124 2 is_stmt 1 view .LVU1339
 124:../USER/main.c **** 	//
 4204              		.loc 1 124 25 is_stmt 0 view .LVU1340
 4205 0346 C8F80010 		str	r1, [r8]
 4206              	.L344:
 124:../USER/main.c **** 	//
 4207              		.loc 1 124 25 view .LVU1341
 4208              	.LBE1001:
 4209              	.LBE1000:
 142:../USER/main.c **** 		}
 4210              		.loc 1 142 4 is_stmt 1 view .LVU1342
 142:../USER/main.c **** 		}
 4211              		.loc 1 142 13 is_stmt 0 view .LVU1343
 4212 034a 2846     		mov	r0, r5
 4213 034c FFF7FEFF 		bl	GPIO_ReadBits
 4214              	.LVL253:
 142:../USER/main.c **** 		}
 4215              		.loc 1 142 11 view .LVU1344
 4216 0350 1090     		str	r0, [sp, #64]
 140:../USER/main.c **** 			key_check();
 4217              		.loc 1 140 17 view .LVU1345
 4218 0352 109B     		ldr	r3, [sp, #64]
 140:../USER/main.c **** 			key_check();
 4219              		.loc 1 140 8 view .LVU1346
 4220 0354 5804     		lsls	r0, r3, #17
 4221 0356 40F13D83 		bpl	.L345
 4222              	.L339:
 141:../USER/main.c **** 			gpiord = GPIO_ReadBits(GPIO0);
 4223              		.loc 1 141 4 is_stmt 1 view .LVU1347
 4224              	.LBB1003:
 4225              	.LBI1000:
 116:../USER/main.c **** 	char ch;
 4226              		.loc 1 116 6 view .LVU1348
 4227              	.LBB1002:
 117:../USER/main.c **** 	//
 4228              		.loc 1 117 2 view .LVU1349
 119:../USER/main.c **** 	if(ch!=0) kinbuf[kinbwp++] = ch;
 4229              		.loc 1 119 2 view .LVU1350
 119:../USER/main.c **** 	if(ch!=0) kinbuf[kinbwp++] = ch;
 4230              		.loc 1 119 7 is_stmt 0 view .LVU1351
 4231 035a FFF7FEFF 		bl	SPI_ReadData
 4232              	.LVL254:
 120:../USER/main.c **** 	if(kinbwp>=256) kinbwp = 0;
 4233              		.loc 1 120 12 is_stmt 1 view .LVU1352
 119:../USER/main.c **** 	if(ch!=0) kinbuf[kinbwp++] = ch;
 4234              		.loc 1 119 5 is_stmt 0 view .LVU1353
 4235 035e 40B2     		sxtb	r0, r0
 4236              	.LVL255:
 120:../USER/main.c **** 	if(kinbwp>=256) kinbwp = 0;
 4237              		.loc 1 120 2 is_stmt 1 view .LVU1354
 120:../USER/main.c **** 	if(kinbwp>=256) kinbwp = 0;
 4238              		.loc 1 120 4 is_stmt 0 view .LVU1355
 4239 0360 0028     		cmp	r0, #0
 4240 0362 DBD0     		beq	.L1109
 120:../USER/main.c **** 	if(kinbwp>=256) kinbwp = 0;
 4241              		.loc 1 120 25 view .LVU1356
 4242 0364 D8F80020 		ldr	r2, [r8]
 4243 0368 531C     		adds	r3, r2, #1
 120:../USER/main.c **** 	if(kinbwp>=256) kinbwp = 0;
 4244              		.loc 1 120 29 view .LVU1357
 4245 036a 09F80200 		strb	r0, [r9, r2]
 120:../USER/main.c **** 	if(kinbwp>=256) kinbwp = 0;
 4246              		.loc 1 120 25 view .LVU1358
 4247 036e C8F80030 		str	r3, [r8]
 4248 0372 D5E7     		b	.L341
 4249              	.LVL256:
 4250              	.L330:
 120:../USER/main.c **** 	if(kinbwp>=256) kinbwp = 0;
 4251              		.loc 1 120 25 view .LVU1359
 4252              	.LBE1002:
 4253              	.LBE1003:
 4254              	.LBE999:
 4255              	.LBE998:
 4256              	.LBE997:
 4257              	.LBE996:
 205:../USER/main.c **** 		  case 'B': puts("\r\n>"); basic();
 206:../USER/main.c **** 			  break;
 207:../USER/main.c **** 		  case 'D':
 208:../USER/main.c **** 	        adr = getsh(cbpp);
 209:../USER/main.c **** 	        if(adr==-1) adr = adro;
 210:../USER/main.c **** 	        for(i=0; i<8; i++){
 211:../USER/main.c **** 	          putadrhd(adr);
 212:../USER/main.c **** 	          for(j=0; j<16; j++) { putch(' '); puth2(mbase[adr++]); }
 213:../USER/main.c **** 	        }
 214:../USER/main.c **** 	        adro = adr;
 215:../USER/main.c **** 	        break;
 216:../USER/main.c **** 	      case 'W':
 217:../USER/main.c **** 	    	if(*cbp=='S'){
 4258              		.loc 1 217 7 is_stmt 1 view .LVU1360
 4259              		.loc 1 217 10 is_stmt 0 view .LVU1361
 4260 0374 9DF99910 		ldrsb	r1, [sp, #153]
 4261              		.loc 1 217 9 view .LVU1362
 4262 0378 5329     		cmp	r1, #83
 4263 037a 01F0CB85 		beq	.L1110
 4264 037e 0DF19903 		add	r3, sp, #153
 4265              	.LVL257:
 4266              	.L488:
 218:../USER/main.c **** 	    		cbp++; dt = 0;
 219:../USER/main.c **** 	    		while(dt!=-1){
 220:../USER/main.c **** 	    			dt = getsh(cbpp); if(dt!=-1) SPI_WriteData(dt);
 221:../USER/main.c **** 	    		}
 222:../USER/main.c **** 	    	}
 223:../USER/main.c **** 	    	if(*cbp=='D'){
 4267              		.loc 1 223 7 is_stmt 1 view .LVU1363
 4268              		.loc 1 223 9 is_stmt 0 view .LVU1364
 4269 0382 4429     		cmp	r1, #68
 4270 0384 01F02D85 		beq	.L1111
 4271              	.L499:
 224:../USER/main.c **** 	    		cbp++; set_vramm((int)getsh(cbpp),(int)getsh(cbpp),(int)getsh(cbpp), (int)getsh(cbpp), (int)
 225:../USER/main.c **** 	    	}
 226:../USER/main.c **** 			if(*cbp=='C') {
 4272              		.loc 1 226 4 is_stmt 1 view .LVU1365
 4273              		.loc 1 226 6 is_stmt 0 view .LVU1366
 4274 0388 4329     		cmp	r1, #67
 4275 038a 01F0A984 		beq	.L1112
 4276              	.L504:
 227:../USER/main.c **** 				cbp++; dispfull((int)getsh(cbpp),(int)getsh(cbpp),(int)getsh(cbpp),(int)getsh(cbpp),(int)getsh(
 228:../USER/main.c **** 			if(*cbp=='F') {
 4277              		.loc 1 228 4 is_stmt 1 view .LVU1367
 4278              		.loc 1 228 6 is_stmt 0 view .LVU1368
 4279 038e 4629     		cmp	r1, #70
 4280 0390 01F00D84 		beq	.L1113
 229:../USER/main.c **** 				cbp++; move_vram((int)getsh(cbpp),(int)getsh(cbpp),(int)getsh(cbpp), 10); }
 230:../USER/main.c **** 			if(*cbp=='L'){
 4281              		.loc 1 230 4 is_stmt 1 view .LVU1369
 4282              		.loc 1 230 6 is_stmt 0 view .LVU1370
 4283 0394 4C29     		cmp	r1, #76
 4284 0396 01F03484 		beq	.L1114
 4285              	.L512:
 231:../USER/main.c **** 				cbp++; DLine((int)getsh(cbpp),(int)getsh(cbpp),(int)getsh(cbpp),(int)getsh(cbpp),(int)getsh(cbp
 232:../USER/main.c **** 			if(*cbp=='M'){
 4286              		.loc 1 232 4 is_stmt 1 view .LVU1371
 4287              		.loc 1 232 6 is_stmt 0 view .LVU1372
 4288 039a 4D29     		cmp	r1, #77
 4289 039c 01F07284 		beq	.L1115
 4290              	.L516:
 233:../USER/main.c **** 				cbp++; move_vram((int)getsh(cbpp),(int)getsh(cbpp),(int)getsh(cbpp), 12); }
 234:../USER/main.c **** 			if(*cbp=='P'){
 4291              		.loc 1 234 4 is_stmt 1 view .LVU1373
 4292              		.loc 1 234 6 is_stmt 0 view .LVU1374
 4293 03a0 5029     		cmp	r1, #80
 4294 03a2 01F0CE83 		beq	.L1116
 4295              	.L518:
 235:../USER/main.c **** 				cbp++; pset((int)getsh(cbpp),(int)getsh(cbpp),(int)getsh(cbpp)); }
 236:../USER/main.c **** 			if(*cbp=='Q'){
 4296              		.loc 1 236 4 is_stmt 1 view .LVU1375
 4297              		.loc 1 236 6 is_stmt 0 view .LVU1376
 4298 03a6 5129     		cmp	r1, #81
 4299 03a8 01F0A383 		beq	.L1117
 4300              	.L520:
 237:../USER/main.c **** 				cbp++; DPaint((int)getsh(cbpp),(int)getsh(cbpp),(int)getsh(cbpp)); }
 238:../USER/main.c **** 			if(*cbp=='R'){
 4301              		.loc 1 238 4 is_stmt 1 view .LVU1377
 4302              		.loc 1 238 6 is_stmt 0 view .LVU1378
 4303 03ac 5229     		cmp	r1, #82
 4304 03ae 01F06D83 		beq	.L1118
 4305              	.L522:
 239:../USER/main.c **** 				cbp++; DCircle((int)getsh(cbpp),(int)getsh(cbpp),(int)getsh(cbpp),(int)getsh(cbpp)); }
 240:../USER/main.c **** 			if(*cbp=='U'){
 4306              		.loc 1 240 4 is_stmt 1 view .LVU1379
 4307              		.loc 1 240 6 is_stmt 0 view .LVU1380
 4308 03b2 5529     		cmp	r1, #85
 4309 03b4 01F04D83 		beq	.L1119
 4310              	.L525:
 241:../USER/main.c **** 				cbp++; dispscroll((int)getsh(cbpp),(int)getsh(cbpp)); }
 242:../USER/main.c **** 			if(*cbp=='G'){
 4311              		.loc 1 242 4 is_stmt 1 view .LVU1381
 4312              		.loc 1 242 6 is_stmt 0 view .LVU1382
 4313 03b8 4729     		cmp	r1, #71
 4314 03ba 7FF440AE 		bne	.L279
 243:../USER/main.c **** 				cbp++; dt = getsh(cbpp); GPIO_WriteBits(GPIO0,dt); }
 4315              		.loc 1 243 5 is_stmt 1 view .LVU1383
 4316              		.loc 1 243 8 is_stmt 0 view .LVU1384
 4317 03be 5A1C     		adds	r2, r3, #1
 4318 03c0 0D92     		str	r2, [sp, #52]
 4319              		.loc 1 243 12 is_stmt 1 view .LVU1385
 4320              	.LVL258:
 4321              	.LBB1014:
 4322              	.LBI1014:
 178:../USER/main.c ****   long num = 0; int hd;
 4323              		.loc 1 178 6 view .LVU1386
 4324              	.LBB1015:
 179:../USER/main.c ****   if(**buf==0x0d) return -1;
 4325              		.loc 1 179 3 view .LVU1387
 179:../USER/main.c ****   if(**buf==0x0d) return -1;
 4326              		.loc 1 179 17 view .LVU1388
 180:../USER/main.c ****   while(**buf==' ') (*buf)++; /* spip sp*/
 4327              		.loc 1 180 3 view .LVU1389
 180:../USER/main.c ****   while(**buf==' ') (*buf)++; /* spip sp*/
 4328              		.loc 1 180 5 is_stmt 0 view .LVU1390
 4329 03c2 93F90130 		ldrsb	r3, [r3, #1]
 4330 03c6 0D2B     		cmp	r3, #13
 4331 03c8 01F03186 		beq	.L948
 4332 03cc 0DA8     		add	r0, sp, #52
 4333              	.LVL259:
 180:../USER/main.c ****   while(**buf==' ') (*buf)++; /* spip sp*/
 4334              		.loc 1 180 5 view .LVU1391
 4335 03ce FFF7FEFF 		bl	getsh.part.0
 4336              	.LVL260:
 180:../USER/main.c ****   while(**buf==' ') (*buf)++; /* spip sp*/
 4337              		.loc 1 180 5 view .LVU1392
 4338 03d2 0146     		mov	r1, r0
 4339              	.L527:
 4340              	.LVL261:
 180:../USER/main.c ****   while(**buf==' ') (*buf)++; /* spip sp*/
 4341              		.loc 1 180 5 view .LVU1393
 4342              	.LBE1015:
 4343              	.LBE1014:
 4344              		.loc 1 243 30 is_stmt 1 view .LVU1394
 4345 03d4 BF48     		ldr	r0, .L1211
 4346 03d6 FFF7FEFF 		bl	GPIO_WriteBits
 4347              	.LVL262:
 4348 03da 30E6     		b	.L279
 4349              	.LVL263:
 4350              	.L332:
 244:../USER/main.c **** 	    	break;
 245:../USER/main.c **** 	      case 'R':
 246:../USER/main.c **** 	    	if(*cbp=='S'){
 4351              		.loc 1 246 7 view .LVU1395
 4352              		.loc 1 246 10 is_stmt 0 view .LVU1396
 4353 03dc 9DF99930 		ldrsb	r3, [sp, #153]
 4354              	.LVL264:
 4355              		.loc 1 246 9 view .LVU1397
 4356 03e0 532B     		cmp	r3, #83
 4357 03e2 37D0     		beq	.L548
 247:../USER/main.c **** 	    		dt = -1;
 248:../USER/main.c **** 	    		while(dt!=0){
 249:../USER/main.c **** 	    			dt = SPI_ReadData(); puth2(dt); putch(' ');
 250:../USER/main.c **** 	    		}
 251:../USER/main.c **** 	    	}
 252:../USER/main.c **** 	    	if(*cbp=='D'){
 4358              		.loc 1 252 9 view .LVU1398
 4359 03e4 442B     		cmp	r3, #68
 4360 03e6 0DF19902 		add	r2, sp, #153
 4361              		.loc 1 252 7 is_stmt 1 view .LVU1399
 4362              		.loc 1 252 9 is_stmt 0 view .LVU1400
 4363 03ea 01F0C682 		beq	.L1120
 4364              	.LVL265:
 4365              	.L549:
 253:../USER/main.c **** 	    		unsigned char wddtwk[32];
 254:../USER/main.c **** 	    		cbp++;
 255:../USER/main.c **** 	    		get_vram((int)getsh(cbpp), (int)getsh(cbpp));
 256:../USER/main.c **** 	    		memcpy(&wddtwk[0], &wddt.b[4], 32);
 257:../USER/main.c **** 	    		for(j=0; j<32; j++) { putch(' '); puth2(wddtwk[j]); }
 258:../USER/main.c **** 	    	}
 259:../USER/main.c **** 	    	if(*cbp=='P'){
 4366              		.loc 1 259 7 is_stmt 1 view .LVU1401
 4367              		.loc 1 259 9 is_stmt 0 view .LVU1402
 4368 03ee 502B     		cmp	r3, #80
 4369 03f0 01F0B484 		beq	.L1121
 4370              	.L571:
 260:../USER/main.c **** 	    		cbp++; dt = pget((int)getsh(cbpp),(int)getsh(cbpp)); puth4(dt); }
 261:../USER/main.c **** 	    	if(*cbp=='G'){ dt = GPIO_ReadBits(GPIO0); puth4(dt); }
 4371              		.loc 1 261 7 is_stmt 1 view .LVU1403
 4372              		.loc 1 261 9 is_stmt 0 view .LVU1404
 4373 03f4 472B     		cmp	r3, #71
 4374 03f6 7FF422AE 		bne	.L279
 4375              		.loc 1 261 22 is_stmt 1 discriminator 1 view .LVU1405
 4376              		.loc 1 261 27 is_stmt 0 discriminator 1 view .LVU1406
 4377 03fa B648     		ldr	r0, .L1211
 4378 03fc FFF7FEFF 		bl	GPIO_ReadBits
 4379              	.LVL266:
 4380 0400 0446     		mov	r4, r0
 4381              	.LVL267:
 4382              		.loc 1 261 49 is_stmt 1 discriminator 1 view .LVU1407
 4383              	.LBB1017:
 4384              	.LBI1017:
 152:../USER/main.c **** void puth6(dt) long dt;{ int dh,dl; dh = dt >> 16; dl = dt & 0xffff; puth2(dh); puth4(dl); }
 4385              		.loc 1 152 6 discriminator 1 view .LVU1408
 4386              	.LBB1018:
 152:../USER/main.c **** void puth6(dt) long dt;{ int dh,dl; dh = dt >> 16; dl = dt & 0xffff; puth2(dh); puth4(dl); }
 4387              		.loc 1 152 25 discriminator 1 view .LVU1409
 4388              	.LBB1019:
 4389              	.LBB1020:
 151:../USER/main.c **** void puth4(dt) int dt;{ puth2((dt >> 8) & 0xff); puth2(dt & 0xff); }
 4390              		.loc 1 151 34 is_stmt 0 discriminator 1 view .LVU1410
 4391 0402 C0F30333 		ubfx	r3, r0, #12, #4
 4392 0406 D8B2     		uxtb	r0, r3
 4393              	.LVL268:
 4394              	.LBB1021:
 4395              	.LBB1022:
 150:../USER/main.c **** void puth2(dt) int dt;{ puth((dt >> 4) & 0xf); puth(dt & 0xf); }
 4396              		.loc 1 150 26 discriminator 1 view .LVU1411
 4397 0408 092B     		cmp	r3, #9
 150:../USER/main.c **** void puth2(dt) int dt;{ puth((dt >> 4) & 0xf); puth(dt & 0xf); }
 4398              		.loc 1 150 34 discriminator 1 view .LVU1412
 4399 040a D4BF     		ite	le
 4400 040c 3030     		addle	r0, r0, #48
 150:../USER/main.c **** void puth2(dt) int dt;{ puth((dt >> 4) & 0xf); puth(dt & 0xf); }
 4401              		.loc 1 150 55 discriminator 1 view .LVU1413
 4402 040e 3730     		addgt	r0, r0, #55
 4403              	.LBE1022:
 4404              	.LBE1021:
 4405              	.LBE1020:
 4406              	.LBE1019:
 152:../USER/main.c **** void puth6(dt) long dt;{ int dh,dl; dh = dt >> 16; dl = dt & 0xffff; puth2(dh); puth4(dl); }
 4407              		.loc 1 152 35 discriminator 1 view .LVU1414
 4408 0410 2512     		asrs	r5, r4, #8
 4409              	.LVL269:
 4410              	.LBB1028:
 4411              	.LBI1019:
 151:../USER/main.c **** void puth4(dt) int dt;{ puth2((dt >> 8) & 0xff); puth2(dt & 0xff); }
 4412              		.loc 1 151 6 is_stmt 1 discriminator 1 view .LVU1415
 4413              	.LBB1027:
 151:../USER/main.c **** void puth4(dt) int dt;{ puth2((dt >> 8) & 0xff); puth2(dt & 0xff); }
 4414              		.loc 1 151 25 discriminator 1 view .LVU1416
 4415              	.LBB1024:
 4416              	.LBI1021:
 150:../USER/main.c **** void puth2(dt) int dt;{ puth((dt >> 4) & 0xf); puth(dt & 0xf); }
 4417              		.loc 1 150 6 discriminator 1 view .LVU1417
 4418              	.LBB1023:
 150:../USER/main.c **** void puth2(dt) int dt;{ puth((dt >> 4) & 0xf); puth(dt & 0xf); }
 4419              		.loc 1 150 24 discriminator 1 view .LVU1418
 150:../USER/main.c **** void puth2(dt) int dt;{ puth((dt >> 4) & 0xf); puth(dt & 0xf); }
 4420              		.loc 1 150 34 discriminator 1 view .LVU1419
 150:../USER/main.c **** void puth2(dt) int dt;{ puth((dt >> 4) & 0xf); puth(dt & 0xf); }
 4421              		.loc 1 150 55 discriminator 1 view .LVU1420
 4422 0412 FFF7FEFF 		bl	putch_uart
 4423              	.LVL270:
 150:../USER/main.c **** void puth2(dt) int dt;{ puth((dt >> 4) & 0xf); puth(dt & 0xf); }
 4424              		.loc 1 150 55 is_stmt 0 discriminator 1 view .LVU1421
 4425              	.LBE1023:
 4426              	.LBE1024:
 151:../USER/main.c **** void puth4(dt) int dt;{ puth2((dt >> 8) & 0xff); puth2(dt & 0xff); }
 4427              		.loc 1 151 48 is_stmt 1 discriminator 1 view .LVU1422
 4428 0416 05F00F03 		and	r3, r5, #15
 4429              	.LVL271:
 4430              	.LBB1025:
 4431              	.LBI1025:
 150:../USER/main.c **** void puth2(dt) int dt;{ puth((dt >> 4) & 0xf); puth(dt & 0xf); }
 4432              		.loc 1 150 6 discriminator 1 view .LVU1423
 4433              	.LBB1026:
 150:../USER/main.c **** void puth2(dt) int dt;{ puth((dt >> 4) & 0xf); puth(dt & 0xf); }
 4434              		.loc 1 150 24 discriminator 1 view .LVU1424
 150:../USER/main.c **** void puth2(dt) int dt;{ puth((dt >> 4) & 0xf); puth(dt & 0xf); }
 4435              		.loc 1 150 34 discriminator 1 view .LVU1425
 150:../USER/main.c **** void puth2(dt) int dt;{ puth((dt >> 4) & 0xf); puth(dt & 0xf); }
 4436              		.loc 1 150 55 discriminator 1 view .LVU1426
 4437 041a D8B2     		uxtb	r0, r3
 150:../USER/main.c **** void puth2(dt) int dt;{ puth((dt >> 4) & 0xf); puth(dt & 0xf); }
 4438              		.loc 1 150 26 is_stmt 0 discriminator 1 view .LVU1427
 4439 041c 092B     		cmp	r3, #9
 150:../USER/main.c **** void puth2(dt) int dt;{ puth((dt >> 4) & 0xf); puth(dt & 0xf); }
 4440              		.loc 1 150 34 discriminator 1 view .LVU1428
 4441 041e D4BF     		ite	le
 4442 0420 3030     		addle	r0, r0, #48
 150:../USER/main.c **** void puth2(dt) int dt;{ puth((dt >> 4) & 0xf); puth(dt & 0xf); }
 4443              		.loc 1 150 55 discriminator 1 view .LVU1429
 4444 0422 3730     		addgt	r0, r0, #55
 4445 0424 FFF7FEFF 		bl	putch_uart
 4446              	.LVL272:
 150:../USER/main.c **** void puth2(dt) int dt;{ puth((dt >> 4) & 0xf); puth(dt & 0xf); }
 4447              		.loc 1 150 55 discriminator 1 view .LVU1430
 4448              	.LBE1026:
 4449              	.LBE1025:
 4450              	.LBE1027:
 4451              	.LBE1028:
 152:../USER/main.c **** void puth6(dt) long dt;{ int dh,dl; dh = dt >> 16; dl = dt & 0xffff; puth2(dh); puth4(dl); }
 4452              		.loc 1 152 50 is_stmt 1 discriminator 1 view .LVU1431
 4453              	.LBB1029:
 4454              	.LBI1029:
 151:../USER/main.c **** void puth4(dt) int dt;{ puth2((dt >> 8) & 0xff); puth2(dt & 0xff); }
 4455              		.loc 1 151 6 discriminator 1 view .LVU1432
 4456              	.LBB1030:
 151:../USER/main.c **** void puth4(dt) int dt;{ puth2((dt >> 8) & 0xff); puth2(dt & 0xff); }
 4457              		.loc 1 151 25 discriminator 1 view .LVU1433
 151:../USER/main.c **** void puth4(dt) int dt;{ puth2((dt >> 8) & 0xff); puth2(dt & 0xff); }
 4458              		.loc 1 151 34 is_stmt 0 discriminator 1 view .LVU1434
 4459 0428 C4F30313 		ubfx	r3, r4, #4, #4
 4460              	.LVL273:
 4461              	.LBB1031:
 4462              	.LBI1031:
 150:../USER/main.c **** void puth2(dt) int dt;{ puth((dt >> 4) & 0xf); puth(dt & 0xf); }
 4463              		.loc 1 150 6 is_stmt 1 discriminator 1 view .LVU1435
 4464              	.LBB1032:
 150:../USER/main.c **** void puth2(dt) int dt;{ puth((dt >> 4) & 0xf); puth(dt & 0xf); }
 4465              		.loc 1 150 24 discriminator 1 view .LVU1436
 150:../USER/main.c **** void puth2(dt) int dt;{ puth((dt >> 4) & 0xf); puth(dt & 0xf); }
 4466              		.loc 1 150 34 discriminator 1 view .LVU1437
 150:../USER/main.c **** void puth2(dt) int dt;{ puth((dt >> 4) & 0xf); puth(dt & 0xf); }
 4467              		.loc 1 150 55 discriminator 1 view .LVU1438
 4468 042c D8B2     		uxtb	r0, r3
 150:../USER/main.c **** void puth2(dt) int dt;{ puth((dt >> 4) & 0xf); puth(dt & 0xf); }
 4469              		.loc 1 150 26 is_stmt 0 discriminator 1 view .LVU1439
 4470 042e 092B     		cmp	r3, #9
 150:../USER/main.c **** void puth2(dt) int dt;{ puth((dt >> 4) & 0xf); puth(dt & 0xf); }
 4471              		.loc 1 150 34 discriminator 1 view .LVU1440
 4472 0430 D4BF     		ite	le
 4473 0432 3030     		addle	r0, r0, #48
 150:../USER/main.c **** void puth2(dt) int dt;{ puth((dt >> 4) & 0xf); puth(dt & 0xf); }
 4474              		.loc 1 150 55 discriminator 1 view .LVU1441
 4475 0434 3730     		addgt	r0, r0, #55
 4476              	.LBE1032:
 4477              	.LBE1031:
 151:../USER/main.c **** void puth4(dt) int dt;{ puth2((dt >> 8) & 0xff); puth2(dt & 0xff); }
 4478              		.loc 1 151 48 discriminator 1 view .LVU1442
 4479 0436 04F00F04 		and	r4, r4, #15
 4480              	.LVL274:
 4481              	.LBB1034:
 4482              	.LBB1033:
 150:../USER/main.c **** void puth2(dt) int dt;{ puth((dt >> 4) & 0xf); puth(dt & 0xf); }
 4483              		.loc 1 150 55 discriminator 1 view .LVU1443
 4484 043a FFF7FEFF 		bl	putch_uart
 4485              	.LVL275:
 150:../USER/main.c **** void puth2(dt) int dt;{ puth((dt >> 4) & 0xf); puth(dt & 0xf); }
 4486              		.loc 1 150 55 discriminator 1 view .LVU1444
 4487              	.LBE1033:
 4488              	.LBE1034:
 151:../USER/main.c **** void puth4(dt) int dt;{ puth2((dt >> 8) & 0xff); puth2(dt & 0xff); }
 4489              		.loc 1 151 48 is_stmt 1 discriminator 1 view .LVU1445
 4490              	.LBB1035:
 4491              	.LBI1035:
 150:../USER/main.c **** void puth2(dt) int dt;{ puth((dt >> 4) & 0xf); puth(dt & 0xf); }
 4492              		.loc 1 150 6 discriminator 1 view .LVU1446
 4493              	.LBB1036:
 150:../USER/main.c **** void puth2(dt) int dt;{ puth((dt >> 4) & 0xf); puth(dt & 0xf); }
 4494              		.loc 1 150 24 discriminator 1 view .LVU1447
 150:../USER/main.c **** void puth2(dt) int dt;{ puth((dt >> 4) & 0xf); puth(dt & 0xf); }
 4495              		.loc 1 150 34 discriminator 1 view .LVU1448
 150:../USER/main.c **** void puth2(dt) int dt;{ puth((dt >> 4) & 0xf); puth(dt & 0xf); }
 4496              		.loc 1 150 55 discriminator 1 view .LVU1449
 4497 043e E0B2     		uxtb	r0, r4
 150:../USER/main.c **** void puth2(dt) int dt;{ puth((dt >> 4) & 0xf); puth(dt & 0xf); }
 4498              		.loc 1 150 26 is_stmt 0 discriminator 1 view .LVU1450
 4499 0440 092C     		cmp	r4, #9
 150:../USER/main.c **** void puth2(dt) int dt;{ puth((dt >> 4) & 0xf); puth(dt & 0xf); }
 4500              		.loc 1 150 34 discriminator 1 view .LVU1451
 4501 0442 D4BF     		ite	le
 4502 0444 3030     		addle	r0, r0, #48
 150:../USER/main.c **** void puth2(dt) int dt;{ puth((dt >> 4) & 0xf); puth(dt & 0xf); }
 4503              		.loc 1 150 55 discriminator 1 view .LVU1452
 4504 0446 3730     		addgt	r0, r0, #55
 4505 0448 FFF7FEFF 		bl	putch_uart
 4506              	.LVL276:
 4507 044c F7E5     		b	.L279
 4508              	.LVL277:
 4509              	.L1200:
 150:../USER/main.c **** void puth2(dt) int dt;{ puth((dt >> 4) & 0xf); puth(dt & 0xf); }
 4510              		.loc 1 150 55 discriminator 1 view .LVU1453
 4511              	.LBE1036:
 4512              	.LBE1035:
 4513              	.LBE1030:
 4514              	.LBE1029:
 4515              	.LBE1018:
 4516              	.LBE1017:
 248:../USER/main.c **** 	    			dt = SPI_ReadData(); puth2(dt); putch(' ');
 4517              		.loc 1 248 13 view .LVU1454
 4518 044e 002D     		cmp	r5, #0
 4519 0450 01F08D82 		beq	.L1122
 4520              	.LVL278:
 4521              	.L548:
 249:../USER/main.c **** 	    		}
 4522              		.loc 1 249 9 is_stmt 1 view .LVU1455
 249:../USER/main.c **** 	    		}
 4523              		.loc 1 249 14 is_stmt 0 view .LVU1456
 4524 0454 FFF7FEFF 		bl	SPI_ReadData
 4525              	.LVL279:
 4526 0458 0546     		mov	r5, r0
 4527              	.LVL280:
 249:../USER/main.c **** 	    		}
 4528              		.loc 1 249 30 is_stmt 1 view .LVU1457
 4529              	.LBB1037:
 4530              	.LBI1037:
 151:../USER/main.c **** void puth4(dt) int dt;{ puth2((dt >> 8) & 0xff); puth2(dt & 0xff); }
 4531              		.loc 1 151 6 view .LVU1458
 4532              	.LBB1038:
 151:../USER/main.c **** void puth4(dt) int dt;{ puth2((dt >> 8) & 0xff); puth2(dt & 0xff); }
 4533              		.loc 1 151 25 view .LVU1459
 151:../USER/main.c **** void puth4(dt) int dt;{ puth2((dt >> 8) & 0xff); puth2(dt & 0xff); }
 4534              		.loc 1 151 34 is_stmt 0 view .LVU1460
 4535 045a 0311     		asrs	r3, r0, #4
 4536              	.LVL281:
 4537              	.LBB1039:
 4538              	.LBI1039:
 150:../USER/main.c **** void puth2(dt) int dt;{ puth((dt >> 4) & 0xf); puth(dt & 0xf); }
 4539              		.loc 1 150 6 is_stmt 1 view .LVU1461
 4540              	.LBB1040:
 150:../USER/main.c **** void puth2(dt) int dt;{ puth((dt >> 4) & 0xf); puth(dt & 0xf); }
 4541              		.loc 1 150 24 view .LVU1462
 150:../USER/main.c **** void puth2(dt) int dt;{ puth((dt >> 4) & 0xf); puth(dt & 0xf); }
 4542              		.loc 1 150 34 view .LVU1463
 150:../USER/main.c **** void puth2(dt) int dt;{ puth((dt >> 4) & 0xf); puth(dt & 0xf); }
 4543              		.loc 1 150 55 view .LVU1464
 150:../USER/main.c **** void puth2(dt) int dt;{ puth((dt >> 4) & 0xf); puth(dt & 0xf); }
 4544              		.loc 1 150 26 is_stmt 0 view .LVU1465
 4545 045c 092B     		cmp	r3, #9
 150:../USER/main.c **** void puth2(dt) int dt;{ puth((dt >> 4) & 0xf); puth(dt & 0xf); }
 4546              		.loc 1 150 44 view .LVU1466
 4547 045e D4BF     		ite	le
 4548 0460 3033     		addle	r3, r3, #48
 4549              	.LVL282:
 150:../USER/main.c **** void puth2(dt) int dt;{ puth((dt >> 4) & 0xf); puth(dt & 0xf); }
 4550              		.loc 1 150 65 view .LVU1467
 4551 0462 3733     		addgt	r3, r3, #55
 150:../USER/main.c **** void puth2(dt) int dt;{ puth((dt >> 4) & 0xf); puth(dt & 0xf); }
 4552              		.loc 1 150 55 view .LVU1468
 4553 0464 58B2     		sxtb	r0, r3
 4554              	.LVL283:
 150:../USER/main.c **** void puth2(dt) int dt;{ puth((dt >> 4) & 0xf); puth(dt & 0xf); }
 4555              		.loc 1 150 55 view .LVU1469
 4556 0466 FFF7FEFF 		bl	putch_uart
 4557              	.LVL284:
 150:../USER/main.c **** void puth2(dt) int dt;{ puth((dt >> 4) & 0xf); puth(dt & 0xf); }
 4558              		.loc 1 150 55 view .LVU1470
 4559              	.LBE1040:
 4560              	.LBE1039:
 151:../USER/main.c **** void puth4(dt) int dt;{ puth2((dt >> 8) & 0xff); puth2(dt & 0xff); }
 4561              		.loc 1 151 48 is_stmt 1 view .LVU1471
 4562 046a 05F00F00 		and	r0, r5, #15
 4563              	.LVL285:
 4564              	.LBB1041:
 4565              	.LBI1041:
 150:../USER/main.c **** void puth2(dt) int dt;{ puth((dt >> 4) & 0xf); puth(dt & 0xf); }
 4566              		.loc 1 150 6 view .LVU1472
 4567              	.LBB1042:
 150:../USER/main.c **** void puth2(dt) int dt;{ puth((dt >> 4) & 0xf); puth(dt & 0xf); }
 4568              		.loc 1 150 24 view .LVU1473
 150:../USER/main.c **** void puth2(dt) int dt;{ puth((dt >> 4) & 0xf); puth(dt & 0xf); }
 4569              		.loc 1 150 34 view .LVU1474
 150:../USER/main.c **** void puth2(dt) int dt;{ puth((dt >> 4) & 0xf); puth(dt & 0xf); }
 4570              		.loc 1 150 55 view .LVU1475
 150:../USER/main.c **** void puth2(dt) int dt;{ puth((dt >> 4) & 0xf); puth(dt & 0xf); }
 4571              		.loc 1 150 26 is_stmt 0 view .LVU1476
 4572 046e 0928     		cmp	r0, #9
 150:../USER/main.c **** void puth2(dt) int dt;{ puth((dt >> 4) & 0xf); puth(dt & 0xf); }
 4573              		.loc 1 150 34 view .LVU1477
 4574 0470 94BF     		ite	ls
 4575 0472 3030     		addls	r0, r0, #48
 4576              	.LVL286:
 150:../USER/main.c **** void puth2(dt) int dt;{ puth((dt >> 4) & 0xf); puth(dt & 0xf); }
 4577              		.loc 1 150 55 view .LVU1478
 4578 0474 3730     		addhi	r0, r0, #55
 4579 0476 FFF7FEFF 		bl	putch_uart
 4580              	.LVL287:
 150:../USER/main.c **** void puth2(dt) int dt;{ puth((dt >> 4) & 0xf); puth(dt & 0xf); }
 4581              		.loc 1 150 55 view .LVU1479
 4582              	.LBE1042:
 4583              	.LBE1041:
 4584              	.LBE1038:
 4585              	.LBE1037:
 249:../USER/main.c **** 	    		}
 4586              		.loc 1 249 41 is_stmt 1 view .LVU1480
 4587              	.LBB1043:
 4588              	.LBI1043:
 134:../USER/main.c **** 	volatile uint32_t gpiord;
 4589              		.loc 1 134 6 view .LVU1481
 4590              	.LBB1044:
 135:../USER/main.c **** 	if((mdgpio & 0x2000)==0)
 4591              		.loc 1 135 2 view .LVU1482
 136:../USER/main.c **** 		UART_SendChar(UART0,ch);
 4592              		.loc 1 136 2 view .LVU1483
 136:../USER/main.c **** 		UART_SendChar(UART0,ch);
 4593              		.loc 1 136 13 is_stmt 0 view .LVU1484
 4594 047a DAF80030 		ldr	r3, [r10]
 136:../USER/main.c **** 		UART_SendChar(UART0,ch);
 4595              		.loc 1 136 4 view .LVU1485
 4596 047e 9C04     		lsls	r4, r3, #18
 4597 0480 41F1E182 		bpl	.L1123
 139:../USER/main.c **** 		while((gpiord & 0x4000)!=0) {
 4598              		.loc 1 139 3 is_stmt 1 view .LVU1486
 139:../USER/main.c **** 		while((gpiord & 0x4000)!=0) {
 4599              		.loc 1 139 10 is_stmt 0 view .LVU1487
 4600 0484 4FF48043 		mov	r3, #16384
 4601 0488 1893     		str	r3, [sp, #96]
 140:../USER/main.c **** 			key_check();
 4602              		.loc 1 140 3 is_stmt 1 view .LVU1488
 140:../USER/main.c **** 			key_check();
 4603              		.loc 1 140 17 is_stmt 0 view .LVU1489
 4604 048a 189B     		ldr	r3, [sp, #96]
 140:../USER/main.c **** 			key_check();
 4605              		.loc 1 140 8 view .LVU1490
 4606 048c 5804     		lsls	r0, r3, #17
 4607 048e 41F14082 		bpl	.L541
 142:../USER/main.c **** 		}
 4608              		.loc 1 142 13 view .LVU1491
 4609 0492 904C     		ldr	r4, .L1211
 4610 0494 1EE0     		b	.L535
 4611              	.LVL288:
 4612              	.L1124:
 142:../USER/main.c **** 		}
 4613              		.loc 1 142 13 view .LVU1492
 4614 0496 D8F80030 		ldr	r3, [r8]
 4615              	.L537:
 4616              	.LBB1045:
 4617              	.LBB1046:
 121:../USER/main.c **** 	//
 4618              		.loc 1 121 2 is_stmt 1 view .LVU1493
 121:../USER/main.c **** 	//
 4619              		.loc 1 121 18 view .LVU1494
 121:../USER/main.c **** 	//
 4620              		.loc 1 121 4 is_stmt 0 view .LVU1495
 4621 049a FF2B     		cmp	r3, #255
 4622 049c 02DD     		ble	.L538
 121:../USER/main.c **** 	//
 4623              		.loc 1 121 25 view .LVU1496
 4624 049e 0023     		movs	r3, #0
 4625 04a0 C8F80070 		str	r7, [r8]
 4626              	.L538:
 123:../USER/main.c **** 	if(kinbwp>=256) kinbwp = 0;
 4627              		.loc 1 123 2 is_stmt 1 view .LVU1497
 123:../USER/main.c **** 	if(kinbwp>=256) kinbwp = 0;
 4628              		.loc 1 123 11 is_stmt 0 view .LVU1498
 4629 04a4 4FF04022 		mov	r2, #1073758208
 4630 04a8 5168     		ldr	r1, [r2, #4]
 123:../USER/main.c **** 	if(kinbwp>=256) kinbwp = 0;
 4631              		.loc 1 123 4 view .LVU1499
 4632 04aa 8E07     		lsls	r6, r1, #30
 4633 04ac 0AD5     		bpl	.L540
 123:../USER/main.c **** 	if(kinbwp>=256) kinbwp = 0;
 4634              		.loc 1 123 39 is_stmt 1 view .LVU1500
 123:../USER/main.c **** 	if(kinbwp>=256) kinbwp = 0;
 4635              		.loc 1 123 52 is_stmt 0 view .LVU1501
 4636 04ae 591C     		adds	r1, r3, #1
 124:../USER/main.c **** 	//
 4637              		.loc 1 124 25 view .LVU1502
 4638 04b0 B1F5807F 		cmp	r1, #256
 4639 04b4 14BF     		ite	ne
 4640 04b6 0846     		movne	r0, r1
 4641              	.LVL289:
 124:../USER/main.c **** 	//
 4642              		.loc 1 124 25 view .LVU1503
 4643 04b8 3846     		moveq	r0, r7
 123:../USER/main.c **** 	if(kinbwp>=256) kinbwp = 0;
 4644              		.loc 1 123 63 view .LVU1504
 4645 04ba 1268     		ldr	r2, [r2]
 124:../USER/main.c **** 	//
 4646              		.loc 1 124 25 view .LVU1505
 4647 04bc C8F80000 		str	r0, [r8]
 123:../USER/main.c **** 	if(kinbwp>=256) kinbwp = 0;
 4648              		.loc 1 123 56 view .LVU1506
 4649 04c0 09F80320 		strb	r2, [r9, r3]
 124:../USER/main.c **** 	//
 4650              		.loc 1 124 2 is_stmt 1 view .LVU1507
 4651              	.L540:
 124:../USER/main.c **** 	//
 4652              		.loc 1 124 2 is_stmt 0 view .LVU1508
 4653              	.LBE1046:
 4654              	.LBE1045:
 142:../USER/main.c **** 		}
 4655              		.loc 1 142 4 is_stmt 1 view .LVU1509
 142:../USER/main.c **** 		}
 4656              		.loc 1 142 13 is_stmt 0 view .LVU1510
 4657 04c4 2046     		mov	r0, r4
 4658 04c6 FFF7FEFF 		bl	GPIO_ReadBits
 4659              	.LVL290:
 142:../USER/main.c **** 		}
 4660              		.loc 1 142 11 view .LVU1511
 4661 04ca 1890     		str	r0, [sp, #96]
 140:../USER/main.c **** 			key_check();
 4662              		.loc 1 140 17 view .LVU1512
 4663 04cc 189B     		ldr	r3, [sp, #96]
 140:../USER/main.c **** 			key_check();
 4664              		.loc 1 140 8 view .LVU1513
 4665 04ce 5904     		lsls	r1, r3, #17
 4666 04d0 41F11F82 		bpl	.L541
 4667              	.L535:
 141:../USER/main.c **** 			gpiord = GPIO_ReadBits(GPIO0);
 4668              		.loc 1 141 4 is_stmt 1 view .LVU1514
 4669              	.LBB1048:
 4670              	.LBI1045:
 116:../USER/main.c **** 	char ch;
 4671              		.loc 1 116 6 view .LVU1515
 4672              	.LBB1047:
 117:../USER/main.c **** 	//
 4673              		.loc 1 117 2 view .LVU1516
 119:../USER/main.c **** 	if(ch!=0) kinbuf[kinbwp++] = ch;
 4674              		.loc 1 119 2 view .LVU1517
 119:../USER/main.c **** 	if(ch!=0) kinbuf[kinbwp++] = ch;
 4675              		.loc 1 119 7 is_stmt 0 view .LVU1518
 4676 04d4 FFF7FEFF 		bl	SPI_ReadData
 4677              	.LVL291:
 120:../USER/main.c **** 	if(kinbwp>=256) kinbwp = 0;
 4678              		.loc 1 120 12 is_stmt 1 view .LVU1519
 119:../USER/main.c **** 	if(ch!=0) kinbuf[kinbwp++] = ch;
 4679              		.loc 1 119 5 is_stmt 0 view .LVU1520
 4680 04d8 40B2     		sxtb	r0, r0
 4681              	.LVL292:
 120:../USER/main.c **** 	if(kinbwp>=256) kinbwp = 0;
 4682              		.loc 1 120 2 is_stmt 1 view .LVU1521
 120:../USER/main.c **** 	if(kinbwp>=256) kinbwp = 0;
 4683              		.loc 1 120 4 is_stmt 0 view .LVU1522
 4684 04da 0028     		cmp	r0, #0
 4685 04dc DBD0     		beq	.L1124
 120:../USER/main.c **** 	if(kinbwp>=256) kinbwp = 0;
 4686              		.loc 1 120 25 view .LVU1523
 4687 04de D8F80020 		ldr	r2, [r8]
 4688 04e2 531C     		adds	r3, r2, #1
 120:../USER/main.c **** 	if(kinbwp>=256) kinbwp = 0;
 4689              		.loc 1 120 29 view .LVU1524
 4690 04e4 09F80200 		strb	r0, [r9, r2]
 120:../USER/main.c **** 	if(kinbwp>=256) kinbwp = 0;
 4691              		.loc 1 120 25 view .LVU1525
 4692 04e8 C8F80030 		str	r3, [r8]
 4693 04ec D5E7     		b	.L537
 4694              	.LVL293:
 4695              	.L333:
 120:../USER/main.c **** 	if(kinbwp>=256) kinbwp = 0;
 4696              		.loc 1 120 25 view .LVU1526
 4697              	.LBE1047:
 4698              	.LBE1048:
 4699              	.LBE1044:
 4700              	.LBE1043:
 262:../USER/main.c **** 	        break;
 263:../USER/main.c **** 	      case 'M':
 264:../USER/main.c **** 	        mmd = 1;
 4701              		.loc 1 264 10 is_stmt 1 view .LVU1527
 265:../USER/main.c **** 	        if(*cbp=='W'){ mmd = 2; cbp++; }
 4702              		.loc 1 265 10 view .LVU1528
 4703              		.loc 1 265 13 is_stmt 0 view .LVU1529
 4704 04ee 9DF99930 		ldrsb	r3, [sp, #153]
 4705              	.LVL294:
 4706              		.loc 1 265 12 view .LVU1530
 4707 04f2 572B     		cmp	r3, #87
 4708 04f4 01F04D83 		beq	.L1125
 264:../USER/main.c **** 	        if(*cbp=='W'){ mmd = 2; cbp++; }
 4709              		.loc 1 264 14 view .LVU1531
 4710 04f8 0122     		movs	r2, #1
 4711              	.LBB1055:
 4712              	.LBB1056:
 180:../USER/main.c ****   while(**buf==' ') (*buf)++; /* spip sp*/
 4713              		.loc 1 180 5 view .LVU1532
 4714 04fa 0D2B     		cmp	r3, #13
 4715              	.LBE1056:
 4716              	.LBE1055:
 264:../USER/main.c **** 	        if(*cbp=='W'){ mmd = 2; cbp++; }
 4717              		.loc 1 264 14 view .LVU1533
 4718 04fc 0492     		str	r2, [sp, #16]
 4719              	.LVL295:
 266:../USER/main.c **** 	        adr = getsh(cbpp);
 4720              		.loc 1 266 10 is_stmt 1 view .LVU1534
 4721              	.LBB1059:
 4722              	.LBI1055:
 178:../USER/main.c ****   long num = 0; int hd;
 4723              		.loc 1 178 6 view .LVU1535
 4724              	.LBB1057:
 179:../USER/main.c ****   if(**buf==0x0d) return -1;
 4725              		.loc 1 179 3 view .LVU1536
 179:../USER/main.c ****   if(**buf==0x0d) return -1;
 4726              		.loc 1 179 17 view .LVU1537
 180:../USER/main.c ****   while(**buf==' ') (*buf)++; /* spip sp*/
 4727              		.loc 1 180 3 view .LVU1538
 180:../USER/main.c ****   while(**buf==' ') (*buf)++; /* spip sp*/
 4728              		.loc 1 180 5 is_stmt 0 view .LVU1539
 4729 04fe 01F05283 		beq	.L955
 4730              	.L1204:
 180:../USER/main.c ****   while(**buf==' ') (*buf)++; /* spip sp*/
 4731              		.loc 1 180 5 view .LVU1540
 4732 0502 0DA8     		add	r0, sp, #52
 4733              	.LVL296:
 180:../USER/main.c ****   while(**buf==' ') (*buf)++; /* spip sp*/
 4734              		.loc 1 180 5 view .LVU1541
 4735 0504 FFF7FEFF 		bl	getsh.part.0
 4736              	.LVL297:
 180:../USER/main.c ****   while(**buf==' ') (*buf)++; /* spip sp*/
 4737              		.loc 1 180 5 view .LVU1542
 4738 0508 8346     		mov	fp, r0
 4739              	.LVL298:
 4740              	.L1096:
 180:../USER/main.c ****   while(**buf==' ') (*buf)++; /* spip sp*/
 4741              		.loc 1 180 5 view .LVU1543
 4742 050a 4FEA2B43 		asr	r3, fp, #16
 4743 050e 0793     		str	r3, [sp, #28]
 4744 0510 1FFA8BF3 		uxth	r3, fp
 4745 0514 0993     		str	r3, [sp, #36]
 4746 0516 4FEA1B63 		lsr	r3, fp, #24
 4747 051a 0393     		str	r3, [sp, #12]
 4748 051c 4FEA2B53 		asr	r3, fp, #20
 4749 0520 0893     		str	r3, [sp, #32]
 4750 0522 4FEA2B13 		asr	r3, fp, #4
 4751 0526 0593     		str	r3, [sp, #20]
 4752 0528 0BF00F03 		and	r3, fp, #15
 4753 052c 0693     		str	r3, [sp, #24]
 4754              	.L589:
 4755              	.LVL299:
 180:../USER/main.c ****   while(**buf==' ') (*buf)++; /* spip sp*/
 4756              		.loc 1 180 5 view .LVU1544
 4757              	.LBE1057:
 4758              	.LBE1059:
 4759              	.LBB1060:
 4760              	.LBB1061:
 4761              	.LBB1062:
 156:../USER/main.c **** 		if(*buf==0) break;
 4762              		.loc 1 156 2 is_stmt 1 view .LVU1545
 157:../USER/main.c **** 		else        putch(*buf++);
 4763              		.loc 1 157 3 view .LVU1546
 157:../USER/main.c **** 		else        putch(*buf++);
 4764              		.loc 1 157 6 is_stmt 0 view .LVU1547
 4765 052e 0D24     		movs	r4, #13
 4766 0530 694E     		ldr	r6, .L1211+4
 4767              	.LVL300:
 4768              	.L590:
 158:../USER/main.c **** 	}
 4769              		.loc 1 158 15 is_stmt 1 view .LVU1548
 4770              	.LBB1063:
 4771              	.LBI1063:
 134:../USER/main.c **** 	volatile uint32_t gpiord;
 4772              		.loc 1 134 6 view .LVU1549
 4773              	.LBB1064:
 135:../USER/main.c **** 	if((mdgpio & 0x2000)==0)
 4774              		.loc 1 135 2 view .LVU1550
 136:../USER/main.c **** 		UART_SendChar(UART0,ch);
 4775              		.loc 1 136 2 view .LVU1551
 136:../USER/main.c **** 		UART_SendChar(UART0,ch);
 4776              		.loc 1 136 13 is_stmt 0 view .LVU1552
 4777 0532 DAF80030 		ldr	r3, [r10]
 136:../USER/main.c **** 		UART_SendChar(UART0,ch);
 4778              		.loc 1 136 4 view .LVU1553
 4779 0536 9804     		lsls	r0, r3, #18
 4780 0538 40F13382 		bpl	.L1126
 139:../USER/main.c **** 		while((gpiord & 0x4000)!=0) {
 4781              		.loc 1 139 3 is_stmt 1 view .LVU1554
 139:../USER/main.c **** 		while((gpiord & 0x4000)!=0) {
 4782              		.loc 1 139 10 is_stmt 0 view .LVU1555
 4783 053c 4FF48043 		mov	r3, #16384
 4784 0540 1B93     		str	r3, [sp, #108]
 140:../USER/main.c **** 			key_check();
 4785              		.loc 1 140 3 is_stmt 1 view .LVU1556
 140:../USER/main.c **** 			key_check();
 4786              		.loc 1 140 17 is_stmt 0 view .LVU1557
 4787 0542 1B9B     		ldr	r3, [sp, #108]
 140:../USER/main.c **** 			key_check();
 4788              		.loc 1 140 8 view .LVU1558
 4789 0544 5904     		lsls	r1, r3, #17
 4790 0546 40F1BE80 		bpl	.L600
 142:../USER/main.c **** 		}
 4791              		.loc 1 142 13 view .LVU1559
 4792 054a 624D     		ldr	r5, .L1211
 4793 054c 1EE0     		b	.L594
 4794              	.LVL301:
 4795              	.L1127:
 142:../USER/main.c **** 		}
 4796              		.loc 1 142 13 view .LVU1560
 4797 054e D8F80030 		ldr	r3, [r8]
 4798              	.L596:
 4799              	.LBB1065:
 4800              	.LBB1066:
 121:../USER/main.c **** 	//
 4801              		.loc 1 121 2 is_stmt 1 view .LVU1561
 121:../USER/main.c **** 	//
 4802              		.loc 1 121 18 view .LVU1562
 121:../USER/main.c **** 	//
 4803              		.loc 1 121 4 is_stmt 0 view .LVU1563
 4804 0552 FF2B     		cmp	r3, #255
 4805 0554 02DD     		ble	.L597
 121:../USER/main.c **** 	//
 4806              		.loc 1 121 25 view .LVU1564
 4807 0556 0023     		movs	r3, #0
 4808 0558 C8F80070 		str	r7, [r8]
 4809              	.L597:
 123:../USER/main.c **** 	if(kinbwp>=256) kinbwp = 0;
 4810              		.loc 1 123 39 is_stmt 1 view .LVU1565
 123:../USER/main.c **** 	if(kinbwp>=256) kinbwp = 0;
 4811              		.loc 1 123 2 view .LVU1566
 123:../USER/main.c **** 	if(kinbwp>=256) kinbwp = 0;
 4812              		.loc 1 123 11 is_stmt 0 view .LVU1567
 4813 055c 4FF04021 		mov	r1, #1073758208
 4814 0560 4868     		ldr	r0, [r1, #4]
 4815              	.LVL302:
 123:../USER/main.c **** 	if(kinbwp>=256) kinbwp = 0;
 4816              		.loc 1 123 52 view .LVU1568
 4817 0562 5A1C     		adds	r2, r3, #1
 123:../USER/main.c **** 	if(kinbwp>=256) kinbwp = 0;
 4818              		.loc 1 123 4 view .LVU1569
 4819 0564 8007     		lsls	r0, r0, #30
 4820 0566 09D5     		bpl	.L599
 124:../USER/main.c **** 	//
 4821              		.loc 1 124 25 view .LVU1570
 4822 0568 B2F5807F 		cmp	r2, #256
 123:../USER/main.c **** 	if(kinbwp>=256) kinbwp = 0;
 4823              		.loc 1 123 63 view .LVU1571
 4824 056c 0868     		ldr	r0, [r1]
 124:../USER/main.c **** 	//
 4825              		.loc 1 124 25 view .LVU1572
 4826 056e 14BF     		ite	ne
 4827 0570 1146     		movne	r1, r2
 4828 0572 3946     		moveq	r1, r7
 123:../USER/main.c **** 	if(kinbwp>=256) kinbwp = 0;
 4829              		.loc 1 123 56 view .LVU1573
 4830 0574 09F80300 		strb	r0, [r9, r3]
 124:../USER/main.c **** 	//
 4831              		.loc 1 124 2 is_stmt 1 view .LVU1574
 124:../USER/main.c **** 	//
 4832              		.loc 1 124 25 is_stmt 0 view .LVU1575
 4833 0578 C8F80010 		str	r1, [r8]
 4834              	.L599:
 124:../USER/main.c **** 	//
 4835              		.loc 1 124 25 view .LVU1576
 4836              	.LBE1066:
 4837              	.LBE1065:
 142:../USER/main.c **** 		}
 4838              		.loc 1 142 4 is_stmt 1 view .LVU1577
 142:../USER/main.c **** 		}
 4839              		.loc 1 142 13 is_stmt 0 view .LVU1578
 4840 057c 2846     		mov	r0, r5
 4841 057e FFF7FEFF 		bl	GPIO_ReadBits
 4842              	.LVL303:
 142:../USER/main.c **** 		}
 4843              		.loc 1 142 11 view .LVU1579
 4844 0582 1B90     		str	r0, [sp, #108]
 140:../USER/main.c **** 			key_check();
 4845              		.loc 1 140 17 view .LVU1580
 4846 0584 1B9B     		ldr	r3, [sp, #108]
 140:../USER/main.c **** 			key_check();
 4847              		.loc 1 140 8 view .LVU1581
 4848 0586 5A04     		lsls	r2, r3, #17
 4849 0588 40F19D80 		bpl	.L600
 4850              	.L594:
 141:../USER/main.c **** 			gpiord = GPIO_ReadBits(GPIO0);
 4851              		.loc 1 141 4 is_stmt 1 view .LVU1582
 4852              	.LBB1068:
 4853              	.LBI1065:
 116:../USER/main.c **** 	char ch;
 4854              		.loc 1 116 6 view .LVU1583
 4855              	.LBB1067:
 117:../USER/main.c **** 	//
 4856              		.loc 1 117 2 view .LVU1584
 119:../USER/main.c **** 	if(ch!=0) kinbuf[kinbwp++] = ch;
 4857              		.loc 1 119 2 view .LVU1585
 119:../USER/main.c **** 	if(ch!=0) kinbuf[kinbwp++] = ch;
 4858              		.loc 1 119 7 is_stmt 0 view .LVU1586
 4859 058c FFF7FEFF 		bl	SPI_ReadData
 4860              	.LVL304:
 120:../USER/main.c **** 	if(kinbwp>=256) kinbwp = 0;
 4861              		.loc 1 120 12 is_stmt 1 view .LVU1587
 119:../USER/main.c **** 	if(ch!=0) kinbuf[kinbwp++] = ch;
 4862              		.loc 1 119 5 is_stmt 0 view .LVU1588
 4863 0590 40B2     		sxtb	r0, r0
 4864              	.LVL305:
 120:../USER/main.c **** 	if(kinbwp>=256) kinbwp = 0;
 4865              		.loc 1 120 2 is_stmt 1 view .LVU1589
 120:../USER/main.c **** 	if(kinbwp>=256) kinbwp = 0;
 4866              		.loc 1 120 4 is_stmt 0 view .LVU1590
 4867 0592 0028     		cmp	r0, #0
 4868 0594 DBD0     		beq	.L1127
 120:../USER/main.c **** 	if(kinbwp>=256) kinbwp = 0;
 4869              		.loc 1 120 25 view .LVU1591
 4870 0596 D8F80020 		ldr	r2, [r8]
 4871 059a 531C     		adds	r3, r2, #1
 120:../USER/main.c **** 	if(kinbwp>=256) kinbwp = 0;
 4872              		.loc 1 120 29 view .LVU1592
 4873 059c 09F80200 		strb	r0, [r9, r2]
 120:../USER/main.c **** 	if(kinbwp>=256) kinbwp = 0;
 4874              		.loc 1 120 25 view .LVU1593
 4875 05a0 C8F80030 		str	r3, [r8]
 4876 05a4 D5E7     		b	.L596
 4877              	.LVL306:
 4878              	.L334:
 120:../USER/main.c **** 	if(kinbwp>=256) kinbwp = 0;
 4879              		.loc 1 120 25 view .LVU1594
 4880              	.LBE1067:
 4881              	.LBE1068:
 4882              	.LBE1064:
 4883              	.LBE1063:
 4884              	.LBE1062:
 4885              	.LBE1061:
 4886              	.LBE1060:
 208:../USER/main.c **** 	        if(adr==-1) adr = adro;
 4887              		.loc 1 208 10 is_stmt 1 view .LVU1595
 4888              	.LBB1293:
 4889              	.LBI1293:
 178:../USER/main.c ****   long num = 0; int hd;
 4890              		.loc 1 178 6 view .LVU1596
 4891              	.LBB1294:
 179:../USER/main.c ****   if(**buf==0x0d) return -1;
 4892              		.loc 1 179 3 view .LVU1597
 179:../USER/main.c ****   if(**buf==0x0d) return -1;
 4893              		.loc 1 179 17 view .LVU1598
 180:../USER/main.c ****   while(**buf==' ') (*buf)++; /* spip sp*/
 4894              		.loc 1 180 3 view .LVU1599
 180:../USER/main.c ****   while(**buf==' ') (*buf)++; /* spip sp*/
 4895              		.loc 1 180 5 is_stmt 0 view .LVU1600
 4896 05a6 9DF99930 		ldrsb	r3, [sp, #153]
 4897              	.LVL307:
 180:../USER/main.c ****   while(**buf==' ') (*buf)++; /* spip sp*/
 4898              		.loc 1 180 5 view .LVU1601
 4899 05aa 0D2B     		cmp	r3, #13
 4900 05ac 01F01385 		beq	.L919
 4901 05b0 0DA8     		add	r0, sp, #52
 4902              	.LVL308:
 180:../USER/main.c ****   while(**buf==' ') (*buf)++; /* spip sp*/
 4903              		.loc 1 180 5 view .LVU1602
 4904 05b2 FFF7FEFF 		bl	getsh.part.0
 4905              	.LVL309:
 180:../USER/main.c ****   while(**buf==' ') (*buf)++; /* spip sp*/
 4906              		.loc 1 180 5 view .LVU1603
 4907              	.LBE1294:
 4908              	.LBE1293:
 209:../USER/main.c **** 	        for(i=0; i<8; i++){
 4909              		.loc 1 209 10 is_stmt 1 view .LVU1604
 209:../USER/main.c **** 	        for(i=0; i<8; i++){
 4910              		.loc 1 209 26 is_stmt 0 view .LVU1605
 4911 05b6 0B9B     		ldr	r3, [sp, #44]
 4912 05b8 B0F1FF3F 		cmp	r0, #-1
 4913 05bc 08BF     		it	eq
 4914 05be 1846     		moveq	r0, r3
 4915              	.LVL310:
 4916              	.L354:
 209:../USER/main.c **** 	        for(i=0; i<8; i++){
 4917              		.loc 1 209 26 view .LVU1606
 4918 05c0 00F11003 		add	r3, r0, #16
 4919 05c4 0393     		str	r3, [sp, #12]
 4920 05c6 00F18003 		add	r3, r0, #128
 4921 05ca 0590     		str	r0, [sp, #20]
 4922 05cc 0693     		str	r3, [sp, #24]
 4923              	.LVL311:
 4924              	.L486:
 4925              	.LBB1295:
 4926              	.LBB1296:
 4927              	.LBB1297:
 156:../USER/main.c **** 		if(*buf==0) break;
 4928              		.loc 1 156 2 is_stmt 1 view .LVU1607
 157:../USER/main.c **** 		else        putch(*buf++);
 4929              		.loc 1 157 3 view .LVU1608
 157:../USER/main.c **** 		else        putch(*buf++);
 4930              		.loc 1 157 6 is_stmt 0 view .LVU1609
 4931 05ce 0D24     		movs	r4, #13
 4932 05d0 414E     		ldr	r6, .L1211+4
 4933              	.LVL312:
 4934              	.L355:
 158:../USER/main.c **** 	}
 4935              		.loc 1 158 15 is_stmt 1 view .LVU1610
 4936              	.LBB1298:
 4937              	.LBI1298:
 134:../USER/main.c **** 	volatile uint32_t gpiord;
 4938              		.loc 1 134 6 view .LVU1611
 4939              	.LBB1299:
 135:../USER/main.c **** 	if((mdgpio & 0x2000)==0)
 4940              		.loc 1 135 2 view .LVU1612
 136:../USER/main.c **** 		UART_SendChar(UART0,ch);
 4941              		.loc 1 136 2 view .LVU1613
 136:../USER/main.c **** 		UART_SendChar(UART0,ch);
 4942              		.loc 1 136 13 is_stmt 0 view .LVU1614
 4943 05d2 DAF80030 		ldr	r3, [r10]
 136:../USER/main.c **** 		UART_SendChar(UART0,ch);
 4944              		.loc 1 136 4 view .LVU1615
 4945 05d6 9904     		lsls	r1, r3, #18
 4946 05d8 40F1E981 		bpl	.L1128
 139:../USER/main.c **** 		while((gpiord & 0x4000)!=0) {
 4947              		.loc 1 139 3 is_stmt 1 view .LVU1616
 139:../USER/main.c **** 		while((gpiord & 0x4000)!=0) {
 4948              		.loc 1 139 10 is_stmt 0 view .LVU1617
 4949 05dc 4FF48043 		mov	r3, #16384
 4950 05e0 1193     		str	r3, [sp, #68]
 140:../USER/main.c **** 			key_check();
 4951              		.loc 1 140 3 is_stmt 1 view .LVU1618
 140:../USER/main.c **** 			key_check();
 4952              		.loc 1 140 17 is_stmt 0 view .LVU1619
 4953 05e2 119B     		ldr	r3, [sp, #68]
 140:../USER/main.c **** 			key_check();
 4954              		.loc 1 140 8 view .LVU1620
 4955 05e4 5A04     		lsls	r2, r3, #17
 4956 05e6 40F11B81 		bpl	.L365
 142:../USER/main.c **** 		}
 4957              		.loc 1 142 13 view .LVU1621
 4958 05ea 3A4D     		ldr	r5, .L1211
 4959 05ec 1EE0     		b	.L359
 4960              	.LVL313:
 4961              	.L1129:
 142:../USER/main.c **** 		}
 4962              		.loc 1 142 13 view .LVU1622
 4963 05ee D8F80030 		ldr	r3, [r8]
 4964              	.L361:
 4965              	.LBB1300:
 4966              	.LBB1301:
 121:../USER/main.c **** 	//
 4967              		.loc 1 121 2 is_stmt 1 view .LVU1623
 121:../USER/main.c **** 	//
 4968              		.loc 1 121 18 view .LVU1624
 121:../USER/main.c **** 	//
 4969              		.loc 1 121 4 is_stmt 0 view .LVU1625
 4970 05f2 FF2B     		cmp	r3, #255
 4971 05f4 02DD     		ble	.L362
 121:../USER/main.c **** 	//
 4972              		.loc 1 121 25 view .LVU1626
 4973 05f6 0023     		movs	r3, #0
 4974 05f8 C8F80070 		str	r7, [r8]
 4975              	.L362:
 123:../USER/main.c **** 	if(kinbwp>=256) kinbwp = 0;
 4976              		.loc 1 123 39 is_stmt 1 view .LVU1627
 123:../USER/main.c **** 	if(kinbwp>=256) kinbwp = 0;
 4977              		.loc 1 123 2 view .LVU1628
 123:../USER/main.c **** 	if(kinbwp>=256) kinbwp = 0;
 4978              		.loc 1 123 11 is_stmt 0 view .LVU1629
 4979 05fc 4FF04021 		mov	r1, #1073758208
 4980 0600 4868     		ldr	r0, [r1, #4]
 4981              	.LVL314:
 123:../USER/main.c **** 	if(kinbwp>=256) kinbwp = 0;
 4982              		.loc 1 123 52 view .LVU1630
 4983 0602 5A1C     		adds	r2, r3, #1
 123:../USER/main.c **** 	if(kinbwp>=256) kinbwp = 0;
 4984              		.loc 1 123 4 view .LVU1631
 4985 0604 8007     		lsls	r0, r0, #30
 4986 0606 09D5     		bpl	.L364
 124:../USER/main.c **** 	//
 4987              		.loc 1 124 25 view .LVU1632
 4988 0608 B2F5807F 		cmp	r2, #256
 123:../USER/main.c **** 	if(kinbwp>=256) kinbwp = 0;
 4989              		.loc 1 123 63 view .LVU1633
 4990 060c 0868     		ldr	r0, [r1]
 124:../USER/main.c **** 	//
 4991              		.loc 1 124 25 view .LVU1634
 4992 060e 14BF     		ite	ne
 4993 0610 1146     		movne	r1, r2
 4994 0612 3946     		moveq	r1, r7
 123:../USER/main.c **** 	if(kinbwp>=256) kinbwp = 0;
 4995              		.loc 1 123 56 view .LVU1635
 4996 0614 09F80300 		strb	r0, [r9, r3]
 124:../USER/main.c **** 	//
 4997              		.loc 1 124 2 is_stmt 1 view .LVU1636
 124:../USER/main.c **** 	//
 4998              		.loc 1 124 25 is_stmt 0 view .LVU1637
 4999 0618 C8F80010 		str	r1, [r8]
 5000              	.L364:
 124:../USER/main.c **** 	//
 5001              		.loc 1 124 25 view .LVU1638
 5002              	.LBE1301:
 5003              	.LBE1300:
 142:../USER/main.c **** 		}
 5004              		.loc 1 142 4 is_stmt 1 view .LVU1639
 142:../USER/main.c **** 		}
 5005              		.loc 1 142 13 is_stmt 0 view .LVU1640
 5006 061c 2846     		mov	r0, r5
 5007 061e FFF7FEFF 		bl	GPIO_ReadBits
 5008              	.LVL315:
 142:../USER/main.c **** 		}
 5009              		.loc 1 142 11 view .LVU1641
 5010 0622 1190     		str	r0, [sp, #68]
 140:../USER/main.c **** 			key_check();
 5011              		.loc 1 140 17 view .LVU1642
 5012 0624 119B     		ldr	r3, [sp, #68]
 140:../USER/main.c **** 			key_check();
 5013              		.loc 1 140 8 view .LVU1643
 5014 0626 5B04     		lsls	r3, r3, #17
 5015 0628 40F1FA80 		bpl	.L365
 5016              	.L359:
 141:../USER/main.c **** 			gpiord = GPIO_ReadBits(GPIO0);
 5017              		.loc 1 141 4 is_stmt 1 view .LVU1644
 5018              	.LBB1303:
 5019              	.LBI1300:
 116:../USER/main.c **** 	char ch;
 5020              		.loc 1 116 6 view .LVU1645
 5021              	.LBB1302:
 117:../USER/main.c **** 	//
 5022              		.loc 1 117 2 view .LVU1646
 119:../USER/main.c **** 	if(ch!=0) kinbuf[kinbwp++] = ch;
 5023              		.loc 1 119 2 view .LVU1647
 119:../USER/main.c **** 	if(ch!=0) kinbuf[kinbwp++] = ch;
 5024              		.loc 1 119 7 is_stmt 0 view .LVU1648
 5025 062c FFF7FEFF 		bl	SPI_ReadData
 5026              	.LVL316:
 120:../USER/main.c **** 	if(kinbwp>=256) kinbwp = 0;
 5027              		.loc 1 120 12 is_stmt 1 view .LVU1649
 119:../USER/main.c **** 	if(ch!=0) kinbuf[kinbwp++] = ch;
 5028              		.loc 1 119 5 is_stmt 0 view .LVU1650
 5029 0630 40B2     		sxtb	r0, r0
 5030              	.LVL317:
 120:../USER/main.c **** 	if(kinbwp>=256) kinbwp = 0;
 5031              		.loc 1 120 2 is_stmt 1 view .LVU1651
 120:../USER/main.c **** 	if(kinbwp>=256) kinbwp = 0;
 5032              		.loc 1 120 4 is_stmt 0 view .LVU1652
 5033 0632 0028     		cmp	r0, #0
 5034 0634 DBD0     		beq	.L1129
 120:../USER/main.c **** 	if(kinbwp>=256) kinbwp = 0;
 5035              		.loc 1 120 25 view .LVU1653
 5036 0636 D8F80020 		ldr	r2, [r8]
 5037 063a 531C     		adds	r3, r2, #1
 120:../USER/main.c **** 	if(kinbwp>=256) kinbwp = 0;
 5038              		.loc 1 120 29 view .LVU1654
 5039 063c 09F80200 		strb	r0, [r9, r2]
 120:../USER/main.c **** 	if(kinbwp>=256) kinbwp = 0;
 5040              		.loc 1 120 25 view .LVU1655
 5041 0640 C8F80030 		str	r3, [r8]
 5042 0644 D5E7     		b	.L361
 5043              	.LVL318:
 5044              	.L324:
 120:../USER/main.c **** 	if(kinbwp>=256) kinbwp = 0;
 5045              		.loc 1 120 25 view .LVU1656
 5046              	.LBE1302:
 5047              	.LBE1303:
 5048              	.LBE1299:
 5049              	.LBE1298:
 5050              	.LBE1297:
 5051              	.LBE1296:
 5052              	.LBE1295:
 203:../USER/main.c **** 		  switch(cmd){
 5053              		.loc 1 203 5 is_stmt 1 view .LVU1657
 203:../USER/main.c **** 		  switch(cmd){
 5054              		.loc 1 203 20 view .LVU1658
 203:../USER/main.c **** 		  switch(cmd){
 5055              		.loc 1 203 24 is_stmt 0 view .LVU1659
 5056 0646 0DF19903 		add	r3, sp, #153
 5057 064a 0D93     		str	r3, [sp, #52]
 204:../USER/main.c **** 		  case 'B': puts("\r\n>"); basic();
 5058              		.loc 1 204 5 is_stmt 1 view .LVU1660
 5059              	.LVL319:
 5060              	.L329:
 5061              	.LBB1376:
 5062              	.LBB1377:
 156:../USER/main.c **** 		if(*buf==0) break;
 5063              		.loc 1 156 2 view .LVU1661
 157:../USER/main.c **** 		else        putch(*buf++);
 5064              		.loc 1 157 3 view .LVU1662
 5065              	.LBB1378:
 5066              	.LBB1379:
 136:../USER/main.c **** 		UART_SendChar(UART0,ch);
 5067              		.loc 1 136 13 is_stmt 0 view .LVU1663
 5068 064c DAF80030 		ldr	r3, [r10]
 5069 0650 224D     		ldr	r5, .L1211+8
 5070              	.LVL320:
 136:../USER/main.c **** 		UART_SendChar(UART0,ch);
 5071              		.loc 1 136 13 view .LVU1664
 5072              	.LBE1379:
 5073              	.LBE1378:
 158:../USER/main.c **** 	}
 5074              		.loc 1 158 15 is_stmt 1 view .LVU1665
 5075              	.LBB1392:
 5076              	.LBB1388:
 136:../USER/main.c **** 		UART_SendChar(UART0,ch);
 5077              		.loc 1 136 4 is_stmt 0 view .LVU1666
 5078 0652 9904     		lsls	r1, r3, #18
 5079              	.LBE1388:
 5080              	.LBE1392:
 157:../USER/main.c **** 		else        putch(*buf++);
 5081              		.loc 1 157 6 view .LVU1667
 5082 0654 4FF03F04 		mov	r4, #63
 5083              	.LVL321:
 5084              	.LBB1393:
 5085              	.LBI1378:
 134:../USER/main.c **** 	volatile uint32_t gpiord;
 5086              		.loc 1 134 6 is_stmt 1 view .LVU1668
 5087              	.LBB1389:
 135:../USER/main.c **** 	if((mdgpio & 0x2000)==0)
 5088              		.loc 1 135 2 view .LVU1669
 136:../USER/main.c **** 		UART_SendChar(UART0,ch);
 5089              		.loc 1 136 2 view .LVU1670
 136:../USER/main.c **** 		UART_SendChar(UART0,ch);
 5090              		.loc 1 136 4 is_stmt 0 view .LVU1671
 5091 0658 40F12482 		bpl	.L1130
 5092              	.LVL322:
 5093              	.L805:
 139:../USER/main.c **** 		while((gpiord & 0x4000)!=0) {
 5094              		.loc 1 139 3 is_stmt 1 view .LVU1672
 139:../USER/main.c **** 		while((gpiord & 0x4000)!=0) {
 5095              		.loc 1 139 10 is_stmt 0 view .LVU1673
 5096 065c 4FF48043 		mov	r3, #16384
 5097 0660 2593     		str	r3, [sp, #148]
 140:../USER/main.c **** 			key_check();
 5098              		.loc 1 140 3 is_stmt 1 view .LVU1674
 140:../USER/main.c **** 			key_check();
 5099              		.loc 1 140 17 is_stmt 0 view .LVU1675
 5100 0662 259B     		ldr	r3, [sp, #148]
 140:../USER/main.c **** 			key_check();
 5101              		.loc 1 140 8 view .LVU1676
 5102 0664 5A04     		lsls	r2, r3, #17
 5103 0666 40F1E781 		bpl	.L813
 142:../USER/main.c **** 		}
 5104              		.loc 1 142 13 view .LVU1677
 5105 066a 1A4E     		ldr	r6, .L1211
 5106 066c 1EE0     		b	.L807
 5107              	.LVL323:
 5108              	.L1131:
 142:../USER/main.c **** 		}
 5109              		.loc 1 142 13 view .LVU1678
 5110 066e D8F80030 		ldr	r3, [r8]
 5111              	.L809:
 5112              	.LBB1380:
 5113              	.LBB1381:
 121:../USER/main.c **** 	//
 5114              		.loc 1 121 2 is_stmt 1 view .LVU1679
 121:../USER/main.c **** 	//
 5115              		.loc 1 121 18 view .LVU1680
 121:../USER/main.c **** 	//
 5116              		.loc 1 121 4 is_stmt 0 view .LVU1681
 5117 0672 FF2B     		cmp	r3, #255
 5118 0674 02DD     		ble	.L810
 121:../USER/main.c **** 	//
 5119              		.loc 1 121 25 view .LVU1682
 5120 0676 0023     		movs	r3, #0
 5121 0678 C8F80070 		str	r7, [r8]
 5122              	.L810:
 123:../USER/main.c **** 	if(kinbwp>=256) kinbwp = 0;
 5123              		.loc 1 123 39 is_stmt 1 view .LVU1683
 123:../USER/main.c **** 	if(kinbwp>=256) kinbwp = 0;
 5124              		.loc 1 123 2 view .LVU1684
 123:../USER/main.c **** 	if(kinbwp>=256) kinbwp = 0;
 5125              		.loc 1 123 11 is_stmt 0 view .LVU1685
 5126 067c 4FF04021 		mov	r1, #1073758208
 5127 0680 4868     		ldr	r0, [r1, #4]
 5128              	.LVL324:
 123:../USER/main.c **** 	if(kinbwp>=256) kinbwp = 0;
 5129              		.loc 1 123 52 view .LVU1686
 5130 0682 5A1C     		adds	r2, r3, #1
 123:../USER/main.c **** 	if(kinbwp>=256) kinbwp = 0;
 5131              		.loc 1 123 4 view .LVU1687
 5132 0684 8007     		lsls	r0, r0, #30
 5133 0686 09D5     		bpl	.L812
 124:../USER/main.c **** 	//
 5134              		.loc 1 124 25 view .LVU1688
 5135 0688 B2F5807F 		cmp	r2, #256
 123:../USER/main.c **** 	if(kinbwp>=256) kinbwp = 0;
 5136              		.loc 1 123 63 view .LVU1689
 5137 068c 0868     		ldr	r0, [r1]
 124:../USER/main.c **** 	//
 5138              		.loc 1 124 25 view .LVU1690
 5139 068e 14BF     		ite	ne
 5140 0690 1146     		movne	r1, r2
 5141 0692 3946     		moveq	r1, r7
 123:../USER/main.c **** 	if(kinbwp>=256) kinbwp = 0;
 5142              		.loc 1 123 56 view .LVU1691
 5143 0694 09F80300 		strb	r0, [r9, r3]
 124:../USER/main.c **** 	//
 5144              		.loc 1 124 2 is_stmt 1 view .LVU1692
 124:../USER/main.c **** 	//
 5145              		.loc 1 124 25 is_stmt 0 view .LVU1693
 5146 0698 C8F80010 		str	r1, [r8]
 5147              	.L812:
 124:../USER/main.c **** 	//
 5148              		.loc 1 124 25 view .LVU1694
 5149              	.LBE1381:
 5150              	.LBE1380:
 142:../USER/main.c **** 		}
 5151              		.loc 1 142 4 is_stmt 1 view .LVU1695
 142:../USER/main.c **** 		}
 5152              		.loc 1 142 13 is_stmt 0 view .LVU1696
 5153 069c 3046     		mov	r0, r6
 5154 069e FFF7FEFF 		bl	GPIO_ReadBits
 5155              	.LVL325:
 142:../USER/main.c **** 		}
 5156              		.loc 1 142 11 view .LVU1697
 5157 06a2 2590     		str	r0, [sp, #148]
 140:../USER/main.c **** 			key_check();
 5158              		.loc 1 140 17 view .LVU1698
 5159 06a4 259B     		ldr	r3, [sp, #148]
 140:../USER/main.c **** 			key_check();
 5160              		.loc 1 140 8 view .LVU1699
 5161 06a6 5B04     		lsls	r3, r3, #17
 5162 06a8 40F1C681 		bpl	.L813
 5163              	.L807:
 141:../USER/main.c **** 			gpiord = GPIO_ReadBits(GPIO0);
 5164              		.loc 1 141 4 is_stmt 1 view .LVU1700
 5165              	.LBB1383:
 5166              	.LBI1380:
 116:../USER/main.c **** 	char ch;
 5167              		.loc 1 116 6 view .LVU1701
 5168              	.LBB1382:
 117:../USER/main.c **** 	//
 5169              		.loc 1 117 2 view .LVU1702
 119:../USER/main.c **** 	if(ch!=0) kinbuf[kinbwp++] = ch;
 5170              		.loc 1 119 2 view .LVU1703
 119:../USER/main.c **** 	if(ch!=0) kinbuf[kinbwp++] = ch;
 5171              		.loc 1 119 7 is_stmt 0 view .LVU1704
 5172 06ac FFF7FEFF 		bl	SPI_ReadData
 5173              	.LVL326:
 120:../USER/main.c **** 	if(kinbwp>=256) kinbwp = 0;
 5174              		.loc 1 120 12 is_stmt 1 view .LVU1705
 119:../USER/main.c **** 	if(ch!=0) kinbuf[kinbwp++] = ch;
 5175              		.loc 1 119 5 is_stmt 0 view .LVU1706
 5176 06b0 40B2     		sxtb	r0, r0
 5177              	.LVL327:
 120:../USER/main.c **** 	if(kinbwp>=256) kinbwp = 0;
 5178              		.loc 1 120 2 is_stmt 1 view .LVU1707
 120:../USER/main.c **** 	if(kinbwp>=256) kinbwp = 0;
 5179              		.loc 1 120 4 is_stmt 0 view .LVU1708
 5180 06b2 0028     		cmp	r0, #0
 5181 06b4 DBD0     		beq	.L1131
 120:../USER/main.c **** 	if(kinbwp>=256) kinbwp = 0;
 5182              		.loc 1 120 25 view .LVU1709
 5183 06b6 D8F80020 		ldr	r2, [r8]
 5184 06ba 531C     		adds	r3, r2, #1
 120:../USER/main.c **** 	if(kinbwp>=256) kinbwp = 0;
 5185              		.loc 1 120 29 view .LVU1710
 5186 06bc 09F80200 		strb	r0, [r9, r2]
 120:../USER/main.c **** 	if(kinbwp>=256) kinbwp = 0;
 5187              		.loc 1 120 25 view .LVU1711
 5188 06c0 C8F80030 		str	r3, [r8]
 5189 06c4 D5E7     		b	.L809
 5190              	.LVL328:
 5191              	.L600:
 120:../USER/main.c **** 	if(kinbwp>=256) kinbwp = 0;
 5192              		.loc 1 120 25 view .LVU1712
 5193              	.LBE1382:
 5194              	.LBE1383:
 5195              	.LBE1389:
 5196              	.LBE1393:
 5197              	.LBE1377:
 5198              	.LBE1376:
 5199              	.LBB1397:
 5200              	.LBB1079:
 5201              	.LBB1077:
 5202              	.LBB1075:
 5203              	.LBB1073:
 144:../USER/main.c **** 	}
 5204              		.loc 1 144 3 is_stmt 1 view .LVU1713
 5205 06c6 E0B2     		uxtb	r0, r4
 5206 06c8 FFF7FEFF 		bl	SPI_WriteData
 5207              	.LVL329:
 5208              	.L593:
 5209              	.LBB1069:
 5210              	.LBB1070:
 123:../USER/main.c **** 	if(kinbwp>=256) kinbwp = 0;
 5211              		.loc 1 123 11 is_stmt 0 view .LVU1714
 5212 06cc 4FF04025 		mov	r5, #1073758208
 5213 06d0 1FE0     		b	.L606
 5214              	.L1212:
 5215 06d2 00BF     		.align	2
 5216              	.L1211:
 5217 06d4 00000140 		.word	1073807360
 5218 06d8 00000000 		.word	.LC0
 5219 06dc 10000000 		.word	.LC3
 5220              	.LVL330:
 5221              	.L1133:
 123:../USER/main.c **** 	if(kinbwp>=256) kinbwp = 0;
 5222              		.loc 1 123 11 view .LVU1715
 5223 06e0 D8F80030 		ldr	r3, [r8]
 5224              	.L602:
 121:../USER/main.c **** 	//
 5225              		.loc 1 121 2 is_stmt 1 view .LVU1716
 121:../USER/main.c **** 	//
 5226              		.loc 1 121 18 view .LVU1717
 121:../USER/main.c **** 	//
 5227              		.loc 1 121 4 is_stmt 0 view .LVU1718
 5228 06e4 FF2B     		cmp	r3, #255
 5229 06e6 02DD     		ble	.L603
 121:../USER/main.c **** 	//
 5230              		.loc 1 121 25 view .LVU1719
 5231 06e8 0023     		movs	r3, #0
 5232 06ea C8F80070 		str	r7, [r8]
 5233              	.L603:
 123:../USER/main.c **** 	if(kinbwp>=256) kinbwp = 0;
 5234              		.loc 1 123 39 is_stmt 1 view .LVU1720
 123:../USER/main.c **** 	if(kinbwp>=256) kinbwp = 0;
 5235              		.loc 1 123 2 view .LVU1721
 123:../USER/main.c **** 	if(kinbwp>=256) kinbwp = 0;
 5236              		.loc 1 123 11 is_stmt 0 view .LVU1722
 5237 06ee 6968     		ldr	r1, [r5, #4]
 123:../USER/main.c **** 	if(kinbwp>=256) kinbwp = 0;
 5238              		.loc 1 123 52 view .LVU1723
 5239 06f0 5A1C     		adds	r2, r3, #1
 123:../USER/main.c **** 	if(kinbwp>=256) kinbwp = 0;
 5240              		.loc 1 123 4 view .LVU1724
 5241 06f2 8807     		lsls	r0, r1, #30
 5242              	.LVL331:
 123:../USER/main.c **** 	if(kinbwp>=256) kinbwp = 0;
 5243              		.loc 1 123 4 view .LVU1725
 5244 06f4 09D5     		bpl	.L605
 124:../USER/main.c **** 	//
 5245              		.loc 1 124 25 view .LVU1726
 5246 06f6 B2F5807F 		cmp	r2, #256
 5247 06fa 14BF     		ite	ne
 5248 06fc 1146     		movne	r1, r2
 5249 06fe 3946     		moveq	r1, r7
 123:../USER/main.c **** 	if(kinbwp>=256) kinbwp = 0;
 5250              		.loc 1 123 63 view .LVU1727
 5251 0700 2868     		ldr	r0, [r5]
 124:../USER/main.c **** 	//
 5252              		.loc 1 124 25 view .LVU1728
 5253 0702 C8F80010 		str	r1, [r8]
 123:../USER/main.c **** 	if(kinbwp>=256) kinbwp = 0;
 5254              		.loc 1 123 56 view .LVU1729
 5255 0706 09F80300 		strb	r0, [r9, r3]
 124:../USER/main.c **** 	//
 5256              		.loc 1 124 2 is_stmt 1 view .LVU1730
 5257              	.L605:
 124:../USER/main.c **** 	//
 5258              		.loc 1 124 2 is_stmt 0 view .LVU1731
 5259              	.LBE1070:
 5260              	.LBE1069:
 147:../USER/main.c **** }
 5261              		.loc 1 147 27 is_stmt 1 view .LVU1732
 147:../USER/main.c **** }
 5262              		.loc 1 147 32 is_stmt 0 view .LVU1733
 5263 070a 2046     		mov	r0, r4
 5264 070c FFF7FEFF 		bl	disp_vram
 5265              	.LVL332:
 147:../USER/main.c **** }
 5266              		.loc 1 147 2 view .LVU1734
 5267 0710 60B1     		cbz	r0, .L1132
 5268              	.LVL333:
 5269              	.L606:
 147:../USER/main.c **** }
 5270              		.loc 1 147 2 is_stmt 1 view .LVU1735
 147:../USER/main.c **** }
 5271              		.loc 1 147 10 view .LVU1736
 147:../USER/main.c **** }
 5272              		.loc 1 147 14 view .LVU1737
 5273              	.LBB1072:
 5274              	.LBI1069:
 116:../USER/main.c **** 	char ch;
 5275              		.loc 1 116 6 view .LVU1738
 5276              	.LBB1071:
 117:../USER/main.c **** 	//
 5277              		.loc 1 117 2 view .LVU1739
 119:../USER/main.c **** 	if(ch!=0) kinbuf[kinbwp++] = ch;
 5278              		.loc 1 119 2 view .LVU1740
 119:../USER/main.c **** 	if(ch!=0) kinbuf[kinbwp++] = ch;
 5279              		.loc 1 119 7 is_stmt 0 view .LVU1741
 5280 0712 FFF7FEFF 		bl	SPI_ReadData
 5281              	.LVL334:
 120:../USER/main.c **** 	if(kinbwp>=256) kinbwp = 0;
 5282              		.loc 1 120 12 is_stmt 1 view .LVU1742
 119:../USER/main.c **** 	if(ch!=0) kinbuf[kinbwp++] = ch;
 5283              		.loc 1 119 5 is_stmt 0 view .LVU1743
 5284 0716 40B2     		sxtb	r0, r0
 5285              	.LVL335:
 120:../USER/main.c **** 	if(kinbwp>=256) kinbwp = 0;
 5286              		.loc 1 120 2 is_stmt 1 view .LVU1744
 120:../USER/main.c **** 	if(kinbwp>=256) kinbwp = 0;
 5287              		.loc 1 120 4 is_stmt 0 view .LVU1745
 5288 0718 0028     		cmp	r0, #0
 5289 071a E1D0     		beq	.L1133
 120:../USER/main.c **** 	if(kinbwp>=256) kinbwp = 0;
 5290              		.loc 1 120 25 view .LVU1746
 5291 071c D8F80020 		ldr	r2, [r8]
 5292 0720 531C     		adds	r3, r2, #1
 120:../USER/main.c **** 	if(kinbwp>=256) kinbwp = 0;
 5293              		.loc 1 120 29 view .LVU1747
 5294 0722 09F80200 		strb	r0, [r9, r2]
 120:../USER/main.c **** 	if(kinbwp>=256) kinbwp = 0;
 5295              		.loc 1 120 25 view .LVU1748
 5296 0726 C8F80030 		str	r3, [r8]
 5297 072a DBE7     		b	.L602
 5298              	.LVL336:
 5299              	.L1132:
 120:../USER/main.c **** 	if(kinbwp>=256) kinbwp = 0;
 5300              		.loc 1 120 25 view .LVU1749
 5301              	.LBE1071:
 5302              	.LBE1072:
 5303              	.LBE1073:
 5304              	.LBE1075:
 156:../USER/main.c **** 		if(*buf==0) break;
 5305              		.loc 1 156 2 is_stmt 1 view .LVU1750
 157:../USER/main.c **** 		else        putch(*buf++);
 5306              		.loc 1 157 3 view .LVU1751
 157:../USER/main.c **** 		else        putch(*buf++);
 5307              		.loc 1 157 6 is_stmt 0 view .LVU1752
 5308 072c 16F9014F 		ldrsb	r4, [r6, #1]!
 5309              	.LVL337:
 157:../USER/main.c **** 		else        putch(*buf++);
 5310              		.loc 1 157 5 view .LVU1753
 5311 0730 002C     		cmp	r4, #0
 5312 0732 7FF4FEAE 		bne	.L590
 5313              	.LVL338:
 157:../USER/main.c **** 		else        putch(*buf++);
 5314              		.loc 1 157 5 view .LVU1754
 5315              	.LBE1077:
 5316              	.LBE1079:
 5317              	.LBE1397:
 176:../USER/main.c **** 
 5318              		.loc 1 176 44 is_stmt 1 view .LVU1755
 5319              	.LBB1398:
 5320              	.LBB1080:
 5321              	.LBI1080:
 154:../USER/main.c **** void putsuart(char *buf){
 5322              		.loc 1 154 6 view .LVU1756
 5323              	.LBB1081:
 154:../USER/main.c **** void putsuart(char *buf){
 5324              		.loc 1 154 26 view .LVU1757
 154:../USER/main.c **** void putsuart(char *buf){
 5325              		.loc 1 154 37 view .LVU1758
 154:../USER/main.c **** void putsuart(char *buf){
 5326              		.loc 1 154 52 view .LVU1759
 154:../USER/main.c **** void putsuart(char *buf){
 5327              		.loc 1 154 70 view .LVU1760
 5328              	.LBB1082:
 5329              	.LBI1082:
 152:../USER/main.c **** void puth6(dt) long dt;{ int dh,dl; dh = dt >> 16; dl = dt & 0xffff; puth2(dh); puth4(dl); }
 5330              		.loc 1 152 6 view .LVU1761
 5331              	.LBE1082:
 5332              	.LBE1081:
 5333              	.LBE1080:
 5334              	.LBE1398:
 152:../USER/main.c **** void puth6(dt) long dt;{ int dh,dl; dh = dt >> 16; dl = dt & 0xffff; puth2(dh); puth4(dl); }
 5335              		.loc 1 152 25 view .LVU1762
 5336              	.LBB1399:
 5337              	.LBB1274:
 5338              	.LBB1268:
 5339              	.LBB1125:
 5340              	.LBB1083:
 5341              	.LBI1083:
 151:../USER/main.c **** void puth4(dt) int dt;{ puth2((dt >> 8) & 0xff); puth2(dt & 0xff); }
 5342              		.loc 1 151 6 view .LVU1763
 5343              	.LBB1084:
 151:../USER/main.c **** void puth4(dt) int dt;{ puth2((dt >> 8) & 0xff); puth2(dt & 0xff); }
 5344              		.loc 1 151 25 view .LVU1764
 151:../USER/main.c **** void puth4(dt) int dt;{ puth2((dt >> 8) & 0xff); puth2(dt & 0xff); }
 5345              		.loc 1 151 34 is_stmt 0 view .LVU1765
 5346 0736 039B     		ldr	r3, [sp, #12]
 5347 0738 1B11     		asrs	r3, r3, #4
 5348              	.LVL339:
 5349              	.LBB1085:
 5350              	.LBI1085:
 150:../USER/main.c **** void puth2(dt) int dt;{ puth((dt >> 4) & 0xf); puth(dt & 0xf); }
 5351              		.loc 1 150 6 is_stmt 1 view .LVU1766
 5352              	.LBB1086:
 150:../USER/main.c **** void puth2(dt) int dt;{ puth((dt >> 4) & 0xf); puth(dt & 0xf); }
 5353              		.loc 1 150 24 view .LVU1767
 150:../USER/main.c **** void puth2(dt) int dt;{ puth((dt >> 4) & 0xf); puth(dt & 0xf); }
 5354              		.loc 1 150 34 view .LVU1768
 150:../USER/main.c **** void puth2(dt) int dt;{ puth((dt >> 4) & 0xf); puth(dt & 0xf); }
 5355              		.loc 1 150 55 view .LVU1769
 5356 073a D8B2     		uxtb	r0, r3
 5357              	.LVL340:
 150:../USER/main.c **** void puth2(dt) int dt;{ puth((dt >> 4) & 0xf); puth(dt & 0xf); }
 5358              		.loc 1 150 26 is_stmt 0 view .LVU1770
 5359 073c 092B     		cmp	r3, #9
 150:../USER/main.c **** void puth2(dt) int dt;{ puth((dt >> 4) & 0xf); puth(dt & 0xf); }
 5360              		.loc 1 150 34 view .LVU1771
 5361 073e D4BF     		ite	le
 5362 0740 3030     		addle	r0, r0, #48
 150:../USER/main.c **** void puth2(dt) int dt;{ puth((dt >> 4) & 0xf); puth(dt & 0xf); }
 5363              		.loc 1 150 55 view .LVU1772
 5364 0742 3730     		addgt	r0, r0, #55
 5365 0744 FFF7FEFF 		bl	putch_uart
 5366              	.LVL341:
 150:../USER/main.c **** void puth2(dt) int dt;{ puth((dt >> 4) & 0xf); puth(dt & 0xf); }
 5367              		.loc 1 150 55 view .LVU1773
 5368              	.LBE1086:
 5369              	.LBE1085:
 151:../USER/main.c **** void puth4(dt) int dt;{ puth2((dt >> 8) & 0xff); puth2(dt & 0xff); }
 5370              		.loc 1 151 48 is_stmt 1 view .LVU1774
 5371 0748 039B     		ldr	r3, [sp, #12]
 5372 074a 03F00F03 		and	r3, r3, #15
 5373              	.LVL342:
 5374              	.LBB1087:
 5375              	.LBI1087:
 150:../USER/main.c **** void puth2(dt) int dt;{ puth((dt >> 4) & 0xf); puth(dt & 0xf); }
 5376              		.loc 1 150 6 view .LVU1775
 5377              	.LBB1088:
 150:../USER/main.c **** void puth2(dt) int dt;{ puth((dt >> 4) & 0xf); puth(dt & 0xf); }
 5378              		.loc 1 150 24 view .LVU1776
 150:../USER/main.c **** void puth2(dt) int dt;{ puth((dt >> 4) & 0xf); puth(dt & 0xf); }
 5379              		.loc 1 150 34 view .LVU1777
 150:../USER/main.c **** void puth2(dt) int dt;{ puth((dt >> 4) & 0xf); puth(dt & 0xf); }
 5380              		.loc 1 150 55 view .LVU1778
 5381 074e D8B2     		uxtb	r0, r3
 150:../USER/main.c **** void puth2(dt) int dt;{ puth((dt >> 4) & 0xf); puth(dt & 0xf); }
 5382              		.loc 1 150 26 is_stmt 0 view .LVU1779
 5383 0750 092B     		cmp	r3, #9
 150:../USER/main.c **** void puth2(dt) int dt;{ puth((dt >> 4) & 0xf); puth(dt & 0xf); }
 5384              		.loc 1 150 34 view .LVU1780
 5385 0752 D4BF     		ite	le
 5386 0754 3030     		addle	r0, r0, #48
 150:../USER/main.c **** void puth2(dt) int dt;{ puth((dt >> 4) & 0xf); puth(dt & 0xf); }
 5387              		.loc 1 150 55 view .LVU1781
 5388 0756 3730     		addgt	r0, r0, #55
 5389 0758 FFF7FEFF 		bl	putch_uart
 5390              	.LVL343:
 150:../USER/main.c **** void puth2(dt) int dt;{ puth((dt >> 4) & 0xf); puth(dt & 0xf); }
 5391              		.loc 1 150 55 view .LVU1782
 5392              	.LBE1088:
 5393              	.LBE1087:
 5394              	.LBE1084:
 5395              	.LBE1083:
 5396              	.LBE1125:
 5397              	.LBE1268:
 5398              	.LBE1274:
 5399              	.LBE1399:
 152:../USER/main.c **** void puth6(dt) long dt;{ int dh,dl; dh = dt >> 16; dl = dt & 0xffff; puth2(dh); puth4(dl); }
 5400              		.loc 1 152 50 is_stmt 1 view .LVU1783
 5401              	.LBB1400:
 5402              	.LBB1275:
 5403              	.LBB1269:
 5404              	.LBB1126:
 5405              	.LBB1089:
 5406              	.LBI1089:
 151:../USER/main.c **** void puth4(dt) int dt;{ puth2((dt >> 8) & 0xff); puth2(dt & 0xff); }
 5407              		.loc 1 151 6 view .LVU1784
 5408              	.LBB1090:
 151:../USER/main.c **** void puth4(dt) int dt;{ puth2((dt >> 8) & 0xff); puth2(dt & 0xff); }
 5409              		.loc 1 151 25 view .LVU1785
 151:../USER/main.c **** void puth4(dt) int dt;{ puth2((dt >> 8) & 0xff); puth2(dt & 0xff); }
 5410              		.loc 1 151 34 is_stmt 0 view .LVU1786
 5411 075c 089B     		ldr	r3, [sp, #32]
 5412 075e 03F00F03 		and	r3, r3, #15
 5413              	.LVL344:
 5414              	.LBB1091:
 5415              	.LBI1091:
 150:../USER/main.c **** void puth2(dt) int dt;{ puth((dt >> 4) & 0xf); puth(dt & 0xf); }
 5416              		.loc 1 150 6 is_stmt 1 view .LVU1787
 5417              	.LBB1092:
 150:../USER/main.c **** void puth2(dt) int dt;{ puth((dt >> 4) & 0xf); puth(dt & 0xf); }
 5418              		.loc 1 150 24 view .LVU1788
 150:../USER/main.c **** void puth2(dt) int dt;{ puth((dt >> 4) & 0xf); puth(dt & 0xf); }
 5419              		.loc 1 150 34 view .LVU1789
 150:../USER/main.c **** void puth2(dt) int dt;{ puth((dt >> 4) & 0xf); puth(dt & 0xf); }
 5420              		.loc 1 150 55 view .LVU1790
 5421 0762 D8B2     		uxtb	r0, r3
 150:../USER/main.c **** void puth2(dt) int dt;{ puth((dt >> 4) & 0xf); puth(dt & 0xf); }
 5422              		.loc 1 150 26 is_stmt 0 view .LVU1791
 5423 0764 092B     		cmp	r3, #9
 150:../USER/main.c **** void puth2(dt) int dt;{ puth((dt >> 4) & 0xf); puth(dt & 0xf); }
 5424              		.loc 1 150 34 view .LVU1792
 5425 0766 D4BF     		ite	le
 5426 0768 3030     		addle	r0, r0, #48
 150:../USER/main.c **** void puth2(dt) int dt;{ puth((dt >> 4) & 0xf); puth(dt & 0xf); }
 5427              		.loc 1 150 55 view .LVU1793
 5428 076a 3730     		addgt	r0, r0, #55
 5429 076c FFF7FEFF 		bl	putch_uart
 5430              	.LVL345:
 150:../USER/main.c **** void puth2(dt) int dt;{ puth((dt >> 4) & 0xf); puth(dt & 0xf); }
 5431              		.loc 1 150 55 view .LVU1794
 5432              	.LBE1092:
 5433              	.LBE1091:
 151:../USER/main.c **** void puth4(dt) int dt;{ puth2((dt >> 8) & 0xff); puth2(dt & 0xff); }
 5434              		.loc 1 151 48 is_stmt 1 view .LVU1795
 5435 0770 079B     		ldr	r3, [sp, #28]
 5436 0772 03F00F03 		and	r3, r3, #15
 5437              	.LVL346:
 5438              	.LBB1093:
 5439              	.LBI1093:
 150:../USER/main.c **** void puth2(dt) int dt;{ puth((dt >> 4) & 0xf); puth(dt & 0xf); }
 5440              		.loc 1 150 6 view .LVU1796
 5441              	.LBB1094:
 150:../USER/main.c **** void puth2(dt) int dt;{ puth((dt >> 4) & 0xf); puth(dt & 0xf); }
 5442              		.loc 1 150 24 view .LVU1797
 150:../USER/main.c **** void puth2(dt) int dt;{ puth((dt >> 4) & 0xf); puth(dt & 0xf); }
 5443              		.loc 1 150 26 is_stmt 0 view .LVU1798
 5444 0776 092B     		cmp	r3, #9
 5445 0778 D8B2     		uxtb	r0, r3
 5446 077a 00F30F84 		bgt	.L614
 150:../USER/main.c **** void puth2(dt) int dt;{ puth((dt >> 4) & 0xf); puth(dt & 0xf); }
 5447              		.loc 1 150 34 is_stmt 1 view .LVU1799
 5448 077e 3030     		adds	r0, r0, #48
 5449 0780 FFF7FEFF 		bl	putch_uart
 5450              	.LVL347:
 5451              	.L615:
 150:../USER/main.c **** void puth2(dt) int dt;{ puth((dt >> 4) & 0xf); puth(dt & 0xf); }
 5452              		.loc 1 150 34 is_stmt 0 view .LVU1800
 5453              	.LBE1094:
 5454              	.LBE1093:
 5455              	.LBE1090:
 5456              	.LBE1089:
 5457              	.LBE1126:
 154:../USER/main.c **** void putsuart(char *buf){
 5458              		.loc 1 154 81 is_stmt 1 view .LVU1801
 5459              	.LBB1127:
 5460              	.LBI1127:
 152:../USER/main.c **** void puth6(dt) long dt;{ int dh,dl; dh = dt >> 16; dl = dt & 0xffff; puth2(dh); puth4(dl); }
 5461              		.loc 1 152 6 view .LVU1802
 5462              	.LBB1128:
 152:../USER/main.c **** void puth6(dt) long dt;{ int dh,dl; dh = dt >> 16; dl = dt & 0xffff; puth2(dh); puth4(dl); }
 5463              		.loc 1 152 25 view .LVU1803
 5464              	.LBB1129:
 5465              	.LBB1130:
 151:../USER/main.c **** void puth4(dt) int dt;{ puth2((dt >> 8) & 0xff); puth2(dt & 0xff); }
 5466              		.loc 1 151 34 is_stmt 0 view .LVU1804
 5467 0784 099A     		ldr	r2, [sp, #36]
 5468 0786 1313     		asrs	r3, r2, #12
 5469              	.LBB1131:
 5470              	.LBB1132:
 150:../USER/main.c **** void puth2(dt) int dt;{ puth((dt >> 4) & 0xf); puth(dt & 0xf); }
 5471              		.loc 1 150 26 view .LVU1805
 5472 0788 092B     		cmp	r3, #9
 5473 078a D8B2     		uxtb	r0, r3
 5474              	.LBE1132:
 5475              	.LBE1131:
 5476              	.LBE1130:
 5477              	.LBE1129:
 152:../USER/main.c **** void puth6(dt) long dt;{ int dh,dl; dh = dt >> 16; dl = dt & 0xffff; puth2(dh); puth4(dl); }
 5478              		.loc 1 152 35 view .LVU1806
 5479 078c 4FEA2225 		asr	r5, r2, #8
 5480              	.LVL348:
 5481              	.LBB1192:
 5482              	.LBI1129:
 151:../USER/main.c **** void puth4(dt) int dt;{ puth2((dt >> 8) & 0xff); puth2(dt & 0xff); }
 5483              		.loc 1 151 6 is_stmt 1 view .LVU1807
 5484              	.LBB1185:
 151:../USER/main.c **** void puth4(dt) int dt;{ puth2((dt >> 8) & 0xff); puth2(dt & 0xff); }
 5485              		.loc 1 151 25 view .LVU1808
 5486              	.LBB1155:
 5487              	.LBI1131:
 150:../USER/main.c **** void puth2(dt) int dt;{ puth((dt >> 4) & 0xf); puth(dt & 0xf); }
 5488              		.loc 1 150 6 view .LVU1809
 5489              	.LBB1151:
 150:../USER/main.c **** void puth2(dt) int dt;{ puth((dt >> 4) & 0xf); puth(dt & 0xf); }
 5490              		.loc 1 150 24 view .LVU1810
 150:../USER/main.c **** void puth2(dt) int dt;{ puth((dt >> 4) & 0xf); puth(dt & 0xf); }
 5491              		.loc 1 150 26 is_stmt 0 view .LVU1811
 5492 0790 00F32D87 		bgt	.L631
 150:../USER/main.c **** void puth2(dt) int dt;{ puth((dt >> 4) & 0xf); puth(dt & 0xf); }
 5493              		.loc 1 150 34 is_stmt 1 view .LVU1812
 5494 0794 3030     		adds	r0, r0, #48
 5495 0796 FFF7FEFF 		bl	putch_uart
 5496              	.LVL349:
 5497              	.L632:
 150:../USER/main.c **** void puth2(dt) int dt;{ puth((dt >> 4) & 0xf); puth(dt & 0xf); }
 5498              		.loc 1 150 34 is_stmt 0 view .LVU1813
 5499              	.LBE1151:
 5500              	.LBE1155:
 151:../USER/main.c **** void puth4(dt) int dt;{ puth2((dt >> 8) & 0xff); puth2(dt & 0xff); }
 5501              		.loc 1 151 48 is_stmt 1 view .LVU1814
 5502 079a 05F00F05 		and	r5, r5, #15
 5503              	.LVL350:
 5504              	.LBB1156:
 5505              	.LBI1156:
 150:../USER/main.c **** void puth2(dt) int dt;{ puth((dt >> 4) & 0xf); puth(dt & 0xf); }
 5506              		.loc 1 150 6 view .LVU1815
 5507              	.LBB1157:
 150:../USER/main.c **** void puth2(dt) int dt;{ puth((dt >> 4) & 0xf); puth(dt & 0xf); }
 5508              		.loc 1 150 24 view .LVU1816
 150:../USER/main.c **** void puth2(dt) int dt;{ puth((dt >> 4) & 0xf); puth(dt & 0xf); }
 5509              		.loc 1 150 26 is_stmt 0 view .LVU1817
 5510 079e 092D     		cmp	r5, #9
 5511 07a0 E8B2     		uxtb	r0, r5
 5512 07a2 00F33884 		bgt	.L648
 150:../USER/main.c **** void puth2(dt) int dt;{ puth((dt >> 4) & 0xf); puth(dt & 0xf); }
 5513              		.loc 1 150 34 is_stmt 1 view .LVU1818
 5514              	.LBB1158:
 5515              	.LBB1159:
 136:../USER/main.c **** 		UART_SendChar(UART0,ch);
 5516              		.loc 1 136 13 is_stmt 0 view .LVU1819
 5517 07a6 DAF80030 		ldr	r3, [r10]
 5518              	.LBE1159:
 5519              	.LBE1158:
 150:../USER/main.c **** void puth2(dt) int dt;{ puth((dt >> 4) & 0xf); puth(dt & 0xf); }
 5520              		.loc 1 150 44 view .LVU1820
 5521 07aa 00F13005 		add	r5, r0, #48
 5522              	.LVL351:
 5523              	.LBB1172:
 5524              	.LBB1168:
 136:../USER/main.c **** 		UART_SendChar(UART0,ch);
 5525              		.loc 1 136 4 view .LVU1821
 5526 07ae 9E04     		lsls	r6, r3, #18
 5527              	.LBE1168:
 5528              	.LBE1172:
 150:../USER/main.c **** void puth2(dt) int dt;{ puth((dt >> 4) & 0xf); puth(dt & 0xf); }
 5529              		.loc 1 150 34 view .LVU1822
 5530 07b0 6CB2     		sxtb	r4, r5
 5531              	.LVL352:
 5532              	.LBB1173:
 5533              	.LBI1158:
 134:../USER/main.c **** 	volatile uint32_t gpiord;
 5534              		.loc 1 134 6 is_stmt 1 view .LVU1823
 5535              	.LBB1169:
 135:../USER/main.c **** 	if((mdgpio & 0x2000)==0)
 5536              		.loc 1 135 2 view .LVU1824
 136:../USER/main.c **** 		UART_SendChar(UART0,ch);
 5537              		.loc 1 136 2 view .LVU1825
 136:../USER/main.c **** 		UART_SendChar(UART0,ch);
 5538              		.loc 1 136 4 is_stmt 0 view .LVU1826
 5539 07b2 41F19380 		bpl	.L1134
 139:../USER/main.c **** 		while((gpiord & 0x4000)!=0) {
 5540              		.loc 1 139 3 is_stmt 1 view .LVU1827
 139:../USER/main.c **** 		while((gpiord & 0x4000)!=0) {
 5541              		.loc 1 139 10 is_stmt 0 view .LVU1828
 5542 07b6 4FF48043 		mov	r3, #16384
 5543 07ba 1F93     		str	r3, [sp, #124]
 140:../USER/main.c **** 			key_check();
 5544              		.loc 1 140 3 is_stmt 1 view .LVU1829
 140:../USER/main.c **** 			key_check();
 5545              		.loc 1 140 17 is_stmt 0 view .LVU1830
 5546 07bc 1F9B     		ldr	r3, [sp, #124]
 140:../USER/main.c **** 			key_check();
 5547              		.loc 1 140 8 view .LVU1831
 5548 07be 5804     		lsls	r0, r3, #17
 5549 07c0 40F1BC87 		bpl	.L657
 142:../USER/main.c **** 		}
 5550              		.loc 1 142 13 view .LVU1832
 5551 07c4 BD4E     		ldr	r6, .L1213
 5552 07c6 1EE0     		b	.L651
 5553              	.LVL353:
 5554              	.L1135:
 142:../USER/main.c **** 		}
 5555              		.loc 1 142 13 view .LVU1833
 5556 07c8 D8F80030 		ldr	r3, [r8]
 5557              	.L653:
 5558              	.LBB1160:
 5559              	.LBB1161:
 121:../USER/main.c **** 	//
 5560              		.loc 1 121 2 is_stmt 1 view .LVU1834
 121:../USER/main.c **** 	//
 5561              		.loc 1 121 18 view .LVU1835
 121:../USER/main.c **** 	//
 5562              		.loc 1 121 4 is_stmt 0 view .LVU1836
 5563 07cc FF2B     		cmp	r3, #255
 5564 07ce 02DD     		ble	.L654
 121:../USER/main.c **** 	//
 5565              		.loc 1 121 25 view .LVU1837
 5566 07d0 0023     		movs	r3, #0
 5567 07d2 C8F80070 		str	r7, [r8]
 5568              	.L654:
 123:../USER/main.c **** 	if(kinbwp>=256) kinbwp = 0;
 5569              		.loc 1 123 39 is_stmt 1 view .LVU1838
 123:../USER/main.c **** 	if(kinbwp>=256) kinbwp = 0;
 5570              		.loc 1 123 2 view .LVU1839
 123:../USER/main.c **** 	if(kinbwp>=256) kinbwp = 0;
 5571              		.loc 1 123 11 is_stmt 0 view .LVU1840
 5572 07d6 4FF04022 		mov	r2, #1073758208
 5573 07da 5068     		ldr	r0, [r2, #4]
 5574              	.LVL354:
 123:../USER/main.c **** 	if(kinbwp>=256) kinbwp = 0;
 5575              		.loc 1 123 52 view .LVU1841
 5576 07dc 591C     		adds	r1, r3, #1
 123:../USER/main.c **** 	if(kinbwp>=256) kinbwp = 0;
 5577              		.loc 1 123 4 view .LVU1842
 5578 07de 8007     		lsls	r0, r0, #30
 5579 07e0 09D5     		bpl	.L656
 124:../USER/main.c **** 	//
 5580              		.loc 1 124 25 view .LVU1843
 5581 07e2 B1F5807F 		cmp	r1, #256
 123:../USER/main.c **** 	if(kinbwp>=256) kinbwp = 0;
 5582              		.loc 1 123 63 view .LVU1844
 5583 07e6 1068     		ldr	r0, [r2]
 124:../USER/main.c **** 	//
 5584              		.loc 1 124 25 view .LVU1845
 5585 07e8 14BF     		ite	ne
 5586 07ea 0A46     		movne	r2, r1
 5587 07ec 3A46     		moveq	r2, r7
 123:../USER/main.c **** 	if(kinbwp>=256) kinbwp = 0;
 5588              		.loc 1 123 56 view .LVU1846
 5589 07ee 09F80300 		strb	r0, [r9, r3]
 124:../USER/main.c **** 	//
 5590              		.loc 1 124 2 is_stmt 1 view .LVU1847
 124:../USER/main.c **** 	//
 5591              		.loc 1 124 25 is_stmt 0 view .LVU1848
 5592 07f2 C8F80020 		str	r2, [r8]
 5593              	.L656:
 124:../USER/main.c **** 	//
 5594              		.loc 1 124 25 view .LVU1849
 5595              	.LBE1161:
 5596              	.LBE1160:
 142:../USER/main.c **** 		}
 5597              		.loc 1 142 4 is_stmt 1 view .LVU1850
 142:../USER/main.c **** 		}
 5598              		.loc 1 142 13 is_stmt 0 view .LVU1851
 5599 07f6 3046     		mov	r0, r6
 5600 07f8 FFF7FEFF 		bl	GPIO_ReadBits
 5601              	.LVL355:
 142:../USER/main.c **** 		}
 5602              		.loc 1 142 11 view .LVU1852
 5603 07fc 1F90     		str	r0, [sp, #124]
 140:../USER/main.c **** 			key_check();
 5604              		.loc 1 140 17 view .LVU1853
 5605 07fe 1F9B     		ldr	r3, [sp, #124]
 140:../USER/main.c **** 			key_check();
 5606              		.loc 1 140 8 view .LVU1854
 5607 0800 5904     		lsls	r1, r3, #17
 5608 0802 40F19B87 		bpl	.L657
 5609              	.L651:
 141:../USER/main.c **** 			gpiord = GPIO_ReadBits(GPIO0);
 5610              		.loc 1 141 4 is_stmt 1 view .LVU1855
 5611              	.LBB1163:
 5612              	.LBI1160:
 116:../USER/main.c **** 	char ch;
 5613              		.loc 1 116 6 view .LVU1856
 5614              	.LBB1162:
 117:../USER/main.c **** 	//
 5615              		.loc 1 117 2 view .LVU1857
 119:../USER/main.c **** 	if(ch!=0) kinbuf[kinbwp++] = ch;
 5616              		.loc 1 119 2 view .LVU1858
 119:../USER/main.c **** 	if(ch!=0) kinbuf[kinbwp++] = ch;
 5617              		.loc 1 119 7 is_stmt 0 view .LVU1859
 5618 0806 FFF7FEFF 		bl	SPI_ReadData
 5619              	.LVL356:
 120:../USER/main.c **** 	if(kinbwp>=256) kinbwp = 0;
 5620              		.loc 1 120 12 is_stmt 1 view .LVU1860
 119:../USER/main.c **** 	if(ch!=0) kinbuf[kinbwp++] = ch;
 5621              		.loc 1 119 5 is_stmt 0 view .LVU1861
 5622 080a 40B2     		sxtb	r0, r0
 5623              	.LVL357:
 120:../USER/main.c **** 	if(kinbwp>=256) kinbwp = 0;
 5624              		.loc 1 120 2 is_stmt 1 view .LVU1862
 120:../USER/main.c **** 	if(kinbwp>=256) kinbwp = 0;
 5625              		.loc 1 120 4 is_stmt 0 view .LVU1863
 5626 080c 0028     		cmp	r0, #0
 5627 080e DBD0     		beq	.L1135
 120:../USER/main.c **** 	if(kinbwp>=256) kinbwp = 0;
 5628              		.loc 1 120 25 view .LVU1864
 5629 0810 D8F80020 		ldr	r2, [r8]
 5630 0814 531C     		adds	r3, r2, #1
 120:../USER/main.c **** 	if(kinbwp>=256) kinbwp = 0;
 5631              		.loc 1 120 29 view .LVU1865
 5632 0816 09F80200 		strb	r0, [r9, r2]
 120:../USER/main.c **** 	if(kinbwp>=256) kinbwp = 0;
 5633              		.loc 1 120 25 view .LVU1866
 5634 081a C8F80030 		str	r3, [r8]
 5635 081e D5E7     		b	.L653
 5636              	.LVL358:
 5637              	.L365:
 120:../USER/main.c **** 	if(kinbwp>=256) kinbwp = 0;
 5638              		.loc 1 120 25 view .LVU1867
 5639              	.LBE1162:
 5640              	.LBE1163:
 5641              	.LBE1169:
 5642              	.LBE1173:
 5643              	.LBE1157:
 5644              	.LBE1156:
 5645              	.LBE1185:
 5646              	.LBE1192:
 5647              	.LBE1128:
 5648              	.LBE1127:
 5649              	.LBE1269:
 5650              	.LBE1275:
 5651              	.LBE1400:
 5652              	.LBB1401:
 5653              	.LBB1314:
 5654              	.LBB1312:
 5655              	.LBB1310:
 5656              	.LBB1308:
 144:../USER/main.c **** 	}
 5657              		.loc 1 144 3 is_stmt 1 view .LVU1868
 5658 0820 E0B2     		uxtb	r0, r4
 5659 0822 FFF7FEFF 		bl	SPI_WriteData
 5660              	.LVL359:
 5661              	.L358:
 5662              	.LBB1304:
 5663              	.LBB1305:
 123:../USER/main.c **** 	if(kinbwp>=256) kinbwp = 0;
 5664              		.loc 1 123 11 is_stmt 0 view .LVU1869
 5665 0826 4FF04025 		mov	r5, #1073758208
 5666 082a 18E0     		b	.L371
 5667              	.LVL360:
 5668              	.L1137:
 123:../USER/main.c **** 	if(kinbwp>=256) kinbwp = 0;
 5669              		.loc 1 123 11 view .LVU1870
 5670 082c D8F80030 		ldr	r3, [r8]
 5671              	.L367:
 121:../USER/main.c **** 	//
 5672              		.loc 1 121 2 is_stmt 1 view .LVU1871
 121:../USER/main.c **** 	//
 5673              		.loc 1 121 18 view .LVU1872
 121:../USER/main.c **** 	//
 5674              		.loc 1 121 4 is_stmt 0 view .LVU1873
 5675 0830 FF2B     		cmp	r3, #255
 5676 0832 02DD     		ble	.L368
 121:../USER/main.c **** 	//
 5677              		.loc 1 121 25 view .LVU1874
 5678 0834 0023     		movs	r3, #0
 5679 0836 C8F80070 		str	r7, [r8]
 5680              	.L368:
 123:../USER/main.c **** 	if(kinbwp>=256) kinbwp = 0;
 5681              		.loc 1 123 39 is_stmt 1 view .LVU1875
 123:../USER/main.c **** 	if(kinbwp>=256) kinbwp = 0;
 5682              		.loc 1 123 2 view .LVU1876
 123:../USER/main.c **** 	if(kinbwp>=256) kinbwp = 0;
 5683              		.loc 1 123 11 is_stmt 0 view .LVU1877
 5684 083a 6968     		ldr	r1, [r5, #4]
 123:../USER/main.c **** 	if(kinbwp>=256) kinbwp = 0;
 5685              		.loc 1 123 52 view .LVU1878
 5686 083c 5A1C     		adds	r2, r3, #1
 123:../USER/main.c **** 	if(kinbwp>=256) kinbwp = 0;
 5687              		.loc 1 123 4 view .LVU1879
 5688 083e 8807     		lsls	r0, r1, #30
 5689              	.LVL361:
 123:../USER/main.c **** 	if(kinbwp>=256) kinbwp = 0;
 5690              		.loc 1 123 4 view .LVU1880
 5691 0840 09D5     		bpl	.L370
 124:../USER/main.c **** 	//
 5692              		.loc 1 124 25 view .LVU1881
 5693 0842 B2F5807F 		cmp	r2, #256
 5694 0846 14BF     		ite	ne
 5695 0848 1146     		movne	r1, r2
 5696 084a 3946     		moveq	r1, r7
 123:../USER/main.c **** 	if(kinbwp>=256) kinbwp = 0;
 5697              		.loc 1 123 63 view .LVU1882
 5698 084c 2868     		ldr	r0, [r5]
 124:../USER/main.c **** 	//
 5699              		.loc 1 124 25 view .LVU1883
 5700 084e C8F80010 		str	r1, [r8]
 123:../USER/main.c **** 	if(kinbwp>=256) kinbwp = 0;
 5701              		.loc 1 123 56 view .LVU1884
 5702 0852 09F80300 		strb	r0, [r9, r3]
 124:../USER/main.c **** 	//
 5703              		.loc 1 124 2 is_stmt 1 view .LVU1885
 5704              	.L370:
 124:../USER/main.c **** 	//
 5705              		.loc 1 124 2 is_stmt 0 view .LVU1886
 5706              	.LBE1305:
 5707              	.LBE1304:
 147:../USER/main.c **** }
 5708              		.loc 1 147 27 is_stmt 1 view .LVU1887
 147:../USER/main.c **** }
 5709              		.loc 1 147 32 is_stmt 0 view .LVU1888
 5710 0856 2046     		mov	r0, r4
 5711 0858 FFF7FEFF 		bl	disp_vram
 5712              	.LVL362:
 147:../USER/main.c **** }
 5713              		.loc 1 147 2 view .LVU1889
 5714 085c 60B1     		cbz	r0, .L1136
 5715              	.LVL363:
 5716              	.L371:
 147:../USER/main.c **** }
 5717              		.loc 1 147 2 is_stmt 1 view .LVU1890
 147:../USER/main.c **** }
 5718              		.loc 1 147 10 view .LVU1891
 147:../USER/main.c **** }
 5719              		.loc 1 147 14 view .LVU1892
 5720              	.LBB1307:
 5721              	.LBI1304:
 116:../USER/main.c **** 	char ch;
 5722              		.loc 1 116 6 view .LVU1893
 5723              	.LBB1306:
 117:../USER/main.c **** 	//
 5724              		.loc 1 117 2 view .LVU1894
 119:../USER/main.c **** 	if(ch!=0) kinbuf[kinbwp++] = ch;
 5725              		.loc 1 119 2 view .LVU1895
 119:../USER/main.c **** 	if(ch!=0) kinbuf[kinbwp++] = ch;
 5726              		.loc 1 119 7 is_stmt 0 view .LVU1896
 5727 085e FFF7FEFF 		bl	SPI_ReadData
 5728              	.LVL364:
 120:../USER/main.c **** 	if(kinbwp>=256) kinbwp = 0;
 5729              		.loc 1 120 12 is_stmt 1 view .LVU1897
 119:../USER/main.c **** 	if(ch!=0) kinbuf[kinbwp++] = ch;
 5730              		.loc 1 119 5 is_stmt 0 view .LVU1898
 5731 0862 40B2     		sxtb	r0, r0
 5732              	.LVL365:
 120:../USER/main.c **** 	if(kinbwp>=256) kinbwp = 0;
 5733              		.loc 1 120 2 is_stmt 1 view .LVU1899
 120:../USER/main.c **** 	if(kinbwp>=256) kinbwp = 0;
 5734              		.loc 1 120 4 is_stmt 0 view .LVU1900
 5735 0864 0028     		cmp	r0, #0
 5736 0866 E1D0     		beq	.L1137
 120:../USER/main.c **** 	if(kinbwp>=256) kinbwp = 0;
 5737              		.loc 1 120 25 view .LVU1901
 5738 0868 D8F80020 		ldr	r2, [r8]
 5739 086c 531C     		adds	r3, r2, #1
 120:../USER/main.c **** 	if(kinbwp>=256) kinbwp = 0;
 5740              		.loc 1 120 29 view .LVU1902
 5741 086e 09F80200 		strb	r0, [r9, r2]
 120:../USER/main.c **** 	if(kinbwp>=256) kinbwp = 0;
 5742              		.loc 1 120 25 view .LVU1903
 5743 0872 C8F80030 		str	r3, [r8]
 5744 0876 DBE7     		b	.L367
 5745              	.LVL366:
 5746              	.L1136:
 120:../USER/main.c **** 	if(kinbwp>=256) kinbwp = 0;
 5747              		.loc 1 120 25 view .LVU1904
 5748              	.LBE1306:
 5749              	.LBE1307:
 5750              	.LBE1308:
 5751              	.LBE1310:
 156:../USER/main.c **** 		if(*buf==0) break;
 5752              		.loc 1 156 2 is_stmt 1 view .LVU1905
 157:../USER/main.c **** 		else        putch(*buf++);
 5753              		.loc 1 157 3 view .LVU1906
 157:../USER/main.c **** 		else        putch(*buf++);
 5754              		.loc 1 157 6 is_stmt 0 view .LVU1907
 5755 0878 16F9014F 		ldrsb	r4, [r6, #1]!
 5756              	.LVL367:
 157:../USER/main.c **** 		else        putch(*buf++);
 5757              		.loc 1 157 5 view .LVU1908
 5758 087c 002C     		cmp	r4, #0
 5759 087e 7FF4A8AE 		bne	.L355
 5760              	.LVL368:
 157:../USER/main.c **** 		else        putch(*buf++);
 5761              		.loc 1 157 5 view .LVU1909
 5762              	.LBE1312:
 5763              	.LBE1314:
 5764              	.LBE1401:
 176:../USER/main.c **** 
 5765              		.loc 1 176 44 is_stmt 1 view .LVU1910
 5766              	.LBB1402:
 5767              	.LBB1315:
 5768              	.LBI1315:
 154:../USER/main.c **** void putsuart(char *buf){
 5769              		.loc 1 154 6 view .LVU1911
 5770              	.LBB1316:
 154:../USER/main.c **** void putsuart(char *buf){
 5771              		.loc 1 154 26 view .LVU1912
 154:../USER/main.c **** void putsuart(char *buf){
 5772              		.loc 1 154 37 view .LVU1913
 5773 0882 059A     		ldr	r2, [sp, #20]
 5774 0884 160E     		lsrs	r6, r2, #24
 5775              	.LBB1317:
 5776              	.LBB1318:
 5777              	.LBB1319:
 151:../USER/main.c **** void puth4(dt) int dt;{ puth2((dt >> 8) & 0xff); puth2(dt & 0xff); }
 5778              		.loc 1 151 34 is_stmt 0 view .LVU1914
 5779 0886 3311     		asrs	r3, r6, #4
 5780 0888 D8B2     		uxtb	r0, r3
 5781              	.LVL369:
 5782              	.LBB1320:
 5783              	.LBB1321:
 150:../USER/main.c **** void puth2(dt) int dt;{ puth((dt >> 4) & 0xf); puth(dt & 0xf); }
 5784              		.loc 1 150 26 view .LVU1915
 5785 088a 092B     		cmp	r3, #9
 150:../USER/main.c **** void puth2(dt) int dt;{ puth((dt >> 4) & 0xf); puth(dt & 0xf); }
 5786              		.loc 1 150 34 view .LVU1916
 5787 088c D4BF     		ite	le
 5788 088e 3030     		addle	r0, r0, #48
 150:../USER/main.c **** void puth2(dt) int dt;{ puth((dt >> 4) & 0xf); puth(dt & 0xf); }
 5789              		.loc 1 150 55 view .LVU1917
 5790 0890 3730     		addgt	r0, r0, #55
 5791              	.LBE1321:
 5792              	.LBE1320:
 151:../USER/main.c **** void puth4(dt) int dt;{ puth2((dt >> 8) & 0xff); puth2(dt & 0xff); }
 5793              		.loc 1 151 48 view .LVU1918
 5794 0892 06F00F06 		and	r6, r6, #15
 5795              	.LBE1319:
 5796              	.LBE1318:
 5797              	.LBE1317:
 154:../USER/main.c **** void putsuart(char *buf){
 5798              		.loc 1 154 55 view .LVU1919
 5799 0896 94B2     		uxth	r4, r2
 154:../USER/main.c **** void putsuart(char *buf){
 5800              		.loc 1 154 40 view .LVU1920
 5801 0898 1514     		asrs	r5, r2, #16
 5802              	.LVL370:
 154:../USER/main.c **** void putsuart(char *buf){
 5803              		.loc 1 154 52 is_stmt 1 view .LVU1921
 154:../USER/main.c **** void putsuart(char *buf){
 5804              		.loc 1 154 70 view .LVU1922
 5805              	.LBB1334:
 5806              	.LBI1317:
 152:../USER/main.c **** void puth6(dt) long dt;{ int dh,dl; dh = dt >> 16; dl = dt & 0xffff; puth2(dh); puth4(dl); }
 5807              		.loc 1 152 6 view .LVU1923
 5808              	.LBE1334:
 5809              	.LBE1316:
 5810              	.LBE1315:
 5811              	.LBE1402:
 152:../USER/main.c **** void puth6(dt) long dt;{ int dh,dl; dh = dt >> 16; dl = dt & 0xffff; puth2(dh); puth4(dl); }
 5812              		.loc 1 152 25 view .LVU1924
 5813              	.LBB1403:
 5814              	.LBB1359:
 5815              	.LBB1357:
 5816              	.LBB1335:
 5817              	.LBB1327:
 5818              	.LBI1318:
 151:../USER/main.c **** void puth4(dt) int dt;{ puth2((dt >> 8) & 0xff); puth2(dt & 0xff); }
 5819              		.loc 1 151 6 view .LVU1925
 5820              	.LBB1326:
 151:../USER/main.c **** void puth4(dt) int dt;{ puth2((dt >> 8) & 0xff); puth2(dt & 0xff); }
 5821              		.loc 1 151 25 view .LVU1926
 5822              	.LBB1323:
 5823              	.LBI1320:
 150:../USER/main.c **** void puth2(dt) int dt;{ puth((dt >> 4) & 0xf); puth(dt & 0xf); }
 5824              		.loc 1 150 6 view .LVU1927
 5825              	.LBB1322:
 150:../USER/main.c **** void puth2(dt) int dt;{ puth((dt >> 4) & 0xf); puth(dt & 0xf); }
 5826              		.loc 1 150 24 view .LVU1928
 150:../USER/main.c **** void puth2(dt) int dt;{ puth((dt >> 4) & 0xf); puth(dt & 0xf); }
 5827              		.loc 1 150 34 view .LVU1929
 150:../USER/main.c **** void puth2(dt) int dt;{ puth((dt >> 4) & 0xf); puth(dt & 0xf); }
 5828              		.loc 1 150 55 view .LVU1930
 5829 089a 9346     		mov	fp, r2
 5830 089c FFF7FEFF 		bl	putch_uart
 5831              	.LVL371:
 150:../USER/main.c **** void puth2(dt) int dt;{ puth((dt >> 4) & 0xf); puth(dt & 0xf); }
 5832              		.loc 1 150 55 is_stmt 0 view .LVU1931
 5833              	.LBE1322:
 5834              	.LBE1323:
 151:../USER/main.c **** void puth4(dt) int dt;{ puth2((dt >> 8) & 0xff); puth2(dt & 0xff); }
 5835              		.loc 1 151 48 is_stmt 1 view .LVU1932
 5836              	.LBB1324:
 5837              	.LBI1324:
 150:../USER/main.c **** void puth2(dt) int dt;{ puth((dt >> 4) & 0xf); puth(dt & 0xf); }
 5838              		.loc 1 150 6 view .LVU1933
 5839              	.LBB1325:
 150:../USER/main.c **** void puth2(dt) int dt;{ puth((dt >> 4) & 0xf); puth(dt & 0xf); }
 5840              		.loc 1 150 24 view .LVU1934
 150:../USER/main.c **** void puth2(dt) int dt;{ puth((dt >> 4) & 0xf); puth(dt & 0xf); }
 5841              		.loc 1 150 34 view .LVU1935
 150:../USER/main.c **** void puth2(dt) int dt;{ puth((dt >> 4) & 0xf); puth(dt & 0xf); }
 5842              		.loc 1 150 55 view .LVU1936
 5843 08a0 F0B2     		uxtb	r0, r6
 150:../USER/main.c **** void puth2(dt) int dt;{ puth((dt >> 4) & 0xf); puth(dt & 0xf); }
 5844              		.loc 1 150 26 is_stmt 0 view .LVU1937
 5845 08a2 092E     		cmp	r6, #9
 150:../USER/main.c **** void puth2(dt) int dt;{ puth((dt >> 4) & 0xf); puth(dt & 0xf); }
 5846              		.loc 1 150 34 view .LVU1938
 5847 08a4 D4BF     		ite	le
 5848 08a6 3030     		addle	r0, r0, #48
 150:../USER/main.c **** void puth2(dt) int dt;{ puth((dt >> 4) & 0xf); puth(dt & 0xf); }
 5849              		.loc 1 150 55 view .LVU1939
 5850 08a8 3730     		addgt	r0, r0, #55
 5851 08aa FFF7FEFF 		bl	putch_uart
 5852              	.LVL372:
 150:../USER/main.c **** void puth2(dt) int dt;{ puth((dt >> 4) & 0xf); puth(dt & 0xf); }
 5853              		.loc 1 150 55 view .LVU1940
 5854              	.LBE1325:
 5855              	.LBE1324:
 5856              	.LBE1326:
 5857              	.LBE1327:
 5858              	.LBE1335:
 5859              	.LBE1357:
 5860              	.LBE1359:
 5861              	.LBE1403:
 152:../USER/main.c **** void puth6(dt) long dt;{ int dh,dl; dh = dt >> 16; dl = dt & 0xffff; puth2(dh); puth4(dl); }
 5862              		.loc 1 152 50 is_stmt 1 view .LVU1941
 5863              	.LBB1404:
 5864              	.LBB1360:
 5865              	.LBB1358:
 5866              	.LBB1336:
 5867              	.LBB1328:
 5868              	.LBI1328:
 151:../USER/main.c **** void puth4(dt) int dt;{ puth2((dt >> 8) & 0xff); puth2(dt & 0xff); }
 5869              		.loc 1 151 6 view .LVU1942
 5870              	.LBB1329:
 151:../USER/main.c **** void puth4(dt) int dt;{ puth2((dt >> 8) & 0xff); puth2(dt & 0xff); }
 5871              		.loc 1 151 25 view .LVU1943
 151:../USER/main.c **** void puth4(dt) int dt;{ puth2((dt >> 8) & 0xff); puth2(dt & 0xff); }
 5872              		.loc 1 151 34 is_stmt 0 view .LVU1944
 5873 08ae 059B     		ldr	r3, [sp, #20]
 151:../USER/main.c **** void puth4(dt) int dt;{ puth2((dt >> 8) & 0xff); puth2(dt & 0xff); }
 5874              		.loc 1 151 48 view .LVU1945
 5875 08b0 05F00F05 		and	r5, r5, #15
 5876              	.LVL373:
 151:../USER/main.c **** void puth4(dt) int dt;{ puth2((dt >> 8) & 0xff); puth2(dt & 0xff); }
 5877              		.loc 1 151 34 view .LVU1946
 5878 08b4 C3F30353 		ubfx	r3, r3, #20, #4
 5879              	.LVL374:
 5880              	.LBB1330:
 5881              	.LBI1330:
 150:../USER/main.c **** void puth2(dt) int dt;{ puth((dt >> 4) & 0xf); puth(dt & 0xf); }
 5882              		.loc 1 150 6 is_stmt 1 view .LVU1947
 5883              	.LBB1331:
 150:../USER/main.c **** void puth2(dt) int dt;{ puth((dt >> 4) & 0xf); puth(dt & 0xf); }
 5884              		.loc 1 150 24 view .LVU1948
 150:../USER/main.c **** void puth2(dt) int dt;{ puth((dt >> 4) & 0xf); puth(dt & 0xf); }
 5885              		.loc 1 150 34 view .LVU1949
 150:../USER/main.c **** void puth2(dt) int dt;{ puth((dt >> 4) & 0xf); puth(dt & 0xf); }
 5886              		.loc 1 150 55 view .LVU1950
 5887 08b8 D8B2     		uxtb	r0, r3
 150:../USER/main.c **** void puth2(dt) int dt;{ puth((dt >> 4) & 0xf); puth(dt & 0xf); }
 5888              		.loc 1 150 26 is_stmt 0 view .LVU1951
 5889 08ba 092B     		cmp	r3, #9
 150:../USER/main.c **** void puth2(dt) int dt;{ puth((dt >> 4) & 0xf); puth(dt & 0xf); }
 5890              		.loc 1 150 34 view .LVU1952
 5891 08bc D4BF     		ite	le
 5892 08be 3030     		addle	r0, r0, #48
 150:../USER/main.c **** void puth2(dt) int dt;{ puth((dt >> 4) & 0xf); puth(dt & 0xf); }
 5893              		.loc 1 150 55 view .LVU1953
 5894 08c0 3730     		addgt	r0, r0, #55
 5895 08c2 FFF7FEFF 		bl	putch_uart
 5896              	.LVL375:
 150:../USER/main.c **** void puth2(dt) int dt;{ puth((dt >> 4) & 0xf); puth(dt & 0xf); }
 5897              		.loc 1 150 55 view .LVU1954
 5898              	.LBE1331:
 5899              	.LBE1330:
 151:../USER/main.c **** void puth4(dt) int dt;{ puth2((dt >> 8) & 0xff); puth2(dt & 0xff); }
 5900              		.loc 1 151 48 is_stmt 1 view .LVU1955
 5901              	.LBB1332:
 5902              	.LBI1332:
 150:../USER/main.c **** void puth2(dt) int dt;{ puth((dt >> 4) & 0xf); puth(dt & 0xf); }
 5903              		.loc 1 150 6 view .LVU1956
 5904              	.LBB1333:
 150:../USER/main.c **** void puth2(dt) int dt;{ puth((dt >> 4) & 0xf); puth(dt & 0xf); }
 5905              		.loc 1 150 24 view .LVU1957
 150:../USER/main.c **** void puth2(dt) int dt;{ puth((dt >> 4) & 0xf); puth(dt & 0xf); }
 5906              		.loc 1 150 34 view .LVU1958
 150:../USER/main.c **** void puth2(dt) int dt;{ puth((dt >> 4) & 0xf); puth(dt & 0xf); }
 5907              		.loc 1 150 55 view .LVU1959
 5908 08c6 E8B2     		uxtb	r0, r5
 150:../USER/main.c **** void puth2(dt) int dt;{ puth((dt >> 4) & 0xf); puth(dt & 0xf); }
 5909              		.loc 1 150 26 is_stmt 0 view .LVU1960
 5910 08c8 092D     		cmp	r5, #9
 150:../USER/main.c **** void puth2(dt) int dt;{ puth((dt >> 4) & 0xf); puth(dt & 0xf); }
 5911              		.loc 1 150 34 view .LVU1961
 5912 08ca D4BF     		ite	le
 5913 08cc 3030     		addle	r0, r0, #48
 150:../USER/main.c **** void puth2(dt) int dt;{ puth((dt >> 4) & 0xf); puth(dt & 0xf); }
 5914              		.loc 1 150 55 view .LVU1962
 5915 08ce 3730     		addgt	r0, r0, #55
 5916 08d0 FFF7FEFF 		bl	putch_uart
 5917              	.LVL376:
 150:../USER/main.c **** void puth2(dt) int dt;{ puth((dt >> 4) & 0xf); puth(dt & 0xf); }
 5918              		.loc 1 150 55 view .LVU1963
 5919              	.LBE1333:
 5920              	.LBE1332:
 5921              	.LBE1329:
 5922              	.LBE1328:
 5923              	.LBE1336:
 154:../USER/main.c **** void putsuart(char *buf){
 5924              		.loc 1 154 81 is_stmt 1 view .LVU1964
 5925              	.LBB1337:
 5926              	.LBI1337:
 152:../USER/main.c **** void puth6(dt) long dt;{ int dh,dl; dh = dt >> 16; dl = dt & 0xffff; puth2(dh); puth4(dl); }
 5927              		.loc 1 152 6 view .LVU1965
 5928              	.LBB1338:
 152:../USER/main.c **** void puth6(dt) long dt;{ int dh,dl; dh = dt >> 16; dl = dt & 0xffff; puth2(dh); puth4(dl); }
 5929              		.loc 1 152 25 view .LVU1966
 5930              	.LBB1339:
 5931              	.LBB1340:
 151:../USER/main.c **** void puth4(dt) int dt;{ puth2((dt >> 8) & 0xff); puth2(dt & 0xff); }
 5932              		.loc 1 151 34 is_stmt 0 view .LVU1967
 5933 08d4 2313     		asrs	r3, r4, #12
 5934 08d6 D8B2     		uxtb	r0, r3
 5935              	.LBB1341:
 5936              	.LBB1342:
 150:../USER/main.c **** void puth2(dt) int dt;{ puth((dt >> 4) & 0xf); puth(dt & 0xf); }
 5937              		.loc 1 150 26 view .LVU1968
 5938 08d8 092B     		cmp	r3, #9
 5939              	.LBE1342:
 5940              	.LBE1341:
 5941              	.LBE1340:
 5942              	.LBE1339:
 152:../USER/main.c **** void puth6(dt) long dt;{ int dh,dl; dh = dt >> 16; dl = dt & 0xffff; puth2(dh); puth4(dl); }
 5943              		.loc 1 152 35 view .LVU1969
 5944 08da 4FEA2424 		asr	r4, r4, #8
 5945              	.LVL377:
 5946              	.LBB1350:
 5947              	.LBI1339:
 151:../USER/main.c **** void puth4(dt) int dt;{ puth2((dt >> 8) & 0xff); puth2(dt & 0xff); }
 5948              		.loc 1 151 6 is_stmt 1 view .LVU1970
 5949              	.LBB1349:
 151:../USER/main.c **** void puth4(dt) int dt;{ puth2((dt >> 8) & 0xff); puth2(dt & 0xff); }
 5950              		.loc 1 151 25 view .LVU1971
 5951              	.LBB1345:
 5952              	.LBI1341:
 150:../USER/main.c **** void puth2(dt) int dt;{ puth((dt >> 4) & 0xf); puth(dt & 0xf); }
 5953              		.loc 1 150 6 view .LVU1972
 5954              	.LBB1343:
 150:../USER/main.c **** void puth2(dt) int dt;{ puth((dt >> 4) & 0xf); puth(dt & 0xf); }
 5955              		.loc 1 150 24 view .LVU1973
 150:../USER/main.c **** void puth2(dt) int dt;{ puth((dt >> 4) & 0xf); puth(dt & 0xf); }
 5956              		.loc 1 150 34 view .LVU1974
 150:../USER/main.c **** void puth2(dt) int dt;{ puth((dt >> 4) & 0xf); puth(dt & 0xf); }
 5957              		.loc 1 150 55 view .LVU1975
 150:../USER/main.c **** void puth2(dt) int dt;{ puth((dt >> 4) & 0xf); puth(dt & 0xf); }
 5958              		.loc 1 150 34 is_stmt 0 view .LVU1976
 5959 08de D4BF     		ite	le
 5960 08e0 3030     		addle	r0, r0, #48
 150:../USER/main.c **** void puth2(dt) int dt;{ puth((dt >> 4) & 0xf); puth(dt & 0xf); }
 5961              		.loc 1 150 55 view .LVU1977
 5962 08e2 3730     		addgt	r0, r0, #55
 5963              	.LBE1343:
 5964              	.LBE1345:
 151:../USER/main.c **** void puth4(dt) int dt;{ puth2((dt >> 8) & 0xff); puth2(dt & 0xff); }
 5965              		.loc 1 151 48 view .LVU1978
 5966 08e4 04F00F04 		and	r4, r4, #15
 5967              	.LVL378:
 5968              	.LBB1346:
 5969              	.LBB1344:
 150:../USER/main.c **** void puth2(dt) int dt;{ puth((dt >> 4) & 0xf); puth(dt & 0xf); }
 5970              		.loc 1 150 55 view .LVU1979
 5971 08e8 FFF7FEFF 		bl	putch_uart
 5972              	.LVL379:
 150:../USER/main.c **** void puth2(dt) int dt;{ puth((dt >> 4) & 0xf); puth(dt & 0xf); }
 5973              		.loc 1 150 55 view .LVU1980
 5974              	.LBE1344:
 5975              	.LBE1346:
 151:../USER/main.c **** void puth4(dt) int dt;{ puth2((dt >> 8) & 0xff); puth2(dt & 0xff); }
 5976              		.loc 1 151 48 is_stmt 1 view .LVU1981
 5977              	.LBB1347:
 5978              	.LBI1347:
 150:../USER/main.c **** void puth2(dt) int dt;{ puth((dt >> 4) & 0xf); puth(dt & 0xf); }
 5979              		.loc 1 150 6 view .LVU1982
 5980              	.LBB1348:
 150:../USER/main.c **** void puth2(dt) int dt;{ puth((dt >> 4) & 0xf); puth(dt & 0xf); }
 5981              		.loc 1 150 24 view .LVU1983
 150:../USER/main.c **** void puth2(dt) int dt;{ puth((dt >> 4) & 0xf); puth(dt & 0xf); }
 5982              		.loc 1 150 34 view .LVU1984
 150:../USER/main.c **** void puth2(dt) int dt;{ puth((dt >> 4) & 0xf); puth(dt & 0xf); }
 5983              		.loc 1 150 55 view .LVU1985
 5984 08ec E0B2     		uxtb	r0, r4
 150:../USER/main.c **** void puth2(dt) int dt;{ puth((dt >> 4) & 0xf); puth(dt & 0xf); }
 5985              		.loc 1 150 26 is_stmt 0 view .LVU1986
 5986 08ee 092C     		cmp	r4, #9
 150:../USER/main.c **** void puth2(dt) int dt;{ puth((dt >> 4) & 0xf); puth(dt & 0xf); }
 5987              		.loc 1 150 34 view .LVU1987
 5988 08f0 D4BF     		ite	le
 5989 08f2 3030     		addle	r0, r0, #48
 150:../USER/main.c **** void puth2(dt) int dt;{ puth((dt >> 4) & 0xf); puth(dt & 0xf); }
 5990              		.loc 1 150 55 view .LVU1988
 5991 08f4 3730     		addgt	r0, r0, #55
 5992 08f6 FFF7FEFF 		bl	putch_uart
 5993              	.LVL380:
 150:../USER/main.c **** void puth2(dt) int dt;{ puth((dt >> 4) & 0xf); puth(dt & 0xf); }
 5994              		.loc 1 150 55 view .LVU1989
 5995              	.LBE1348:
 5996              	.LBE1347:
 5997              	.LBE1349:
 5998              	.LBE1350:
 152:../USER/main.c **** void puth6(dt) long dt;{ int dh,dl; dh = dt >> 16; dl = dt & 0xffff; puth2(dh); puth4(dl); }
 5999              		.loc 1 152 50 is_stmt 1 view .LVU1990
 6000              	.LBB1351:
 6001              	.LBI1351:
 151:../USER/main.c **** void puth4(dt) int dt;{ puth2((dt >> 8) & 0xff); puth2(dt & 0xff); }
 6002              		.loc 1 151 6 view .LVU1991
 6003              	.LBB1352:
 151:../USER/main.c **** void puth4(dt) int dt;{ puth2((dt >> 8) & 0xff); puth2(dt & 0xff); }
 6004              		.loc 1 151 25 view .LVU1992
 151:../USER/main.c **** void puth4(dt) int dt;{ puth2((dt >> 8) & 0xff); puth2(dt & 0xff); }
 6005              		.loc 1 151 34 is_stmt 0 view .LVU1993
 6006 08fa 059B     		ldr	r3, [sp, #20]
 6007 08fc C3F30313 		ubfx	r3, r3, #4, #4
 6008              	.LVL381:
 6009              	.LBB1353:
 6010              	.LBI1353:
 150:../USER/main.c **** void puth2(dt) int dt;{ puth((dt >> 4) & 0xf); puth(dt & 0xf); }
 6011              		.loc 1 150 6 is_stmt 1 view .LVU1994
 6012              	.LBB1354:
 150:../USER/main.c **** void puth2(dt) int dt;{ puth((dt >> 4) & 0xf); puth(dt & 0xf); }
 6013              		.loc 1 150 24 view .LVU1995
 150:../USER/main.c **** void puth2(dt) int dt;{ puth((dt >> 4) & 0xf); puth(dt & 0xf); }
 6014              		.loc 1 150 34 view .LVU1996
 150:../USER/main.c **** void puth2(dt) int dt;{ puth((dt >> 4) & 0xf); puth(dt & 0xf); }
 6015              		.loc 1 150 55 view .LVU1997
 6016 0900 D8B2     		uxtb	r0, r3
 150:../USER/main.c **** void puth2(dt) int dt;{ puth((dt >> 4) & 0xf); puth(dt & 0xf); }
 6017              		.loc 1 150 26 is_stmt 0 view .LVU1998
 6018 0902 092B     		cmp	r3, #9
 150:../USER/main.c **** void puth2(dt) int dt;{ puth((dt >> 4) & 0xf); puth(dt & 0xf); }
 6019              		.loc 1 150 34 view .LVU1999
 6020 0904 D4BF     		ite	le
 6021 0906 3030     		addle	r0, r0, #48
 150:../USER/main.c **** void puth2(dt) int dt;{ puth((dt >> 4) & 0xf); puth(dt & 0xf); }
 6022              		.loc 1 150 55 view .LVU2000
 6023 0908 3730     		addgt	r0, r0, #55
 6024 090a FFF7FEFF 		bl	putch_uart
 6025              	.LVL382:
 150:../USER/main.c **** void puth2(dt) int dt;{ puth((dt >> 4) & 0xf); puth(dt & 0xf); }
 6026              		.loc 1 150 55 view .LVU2001
 6027              	.LBE1354:
 6028              	.LBE1353:
 151:../USER/main.c **** void puth4(dt) int dt;{ puth2((dt >> 8) & 0xff); puth2(dt & 0xff); }
 6029              		.loc 1 151 48 is_stmt 1 view .LVU2002
 6030 090e 059B     		ldr	r3, [sp, #20]
 6031 0910 03F00F03 		and	r3, r3, #15
 6032              	.LVL383:
 6033              	.LBB1355:
 6034              	.LBI1355:
 150:../USER/main.c **** void puth2(dt) int dt;{ puth((dt >> 4) & 0xf); puth(dt & 0xf); }
 6035              		.loc 1 150 6 view .LVU2003
 6036              	.LBB1356:
 150:../USER/main.c **** void puth2(dt) int dt;{ puth((dt >> 4) & 0xf); puth(dt & 0xf); }
 6037              		.loc 1 150 24 view .LVU2004
 150:../USER/main.c **** void puth2(dt) int dt;{ puth((dt >> 4) & 0xf); puth(dt & 0xf); }
 6038              		.loc 1 150 34 view .LVU2005
 150:../USER/main.c **** void puth2(dt) int dt;{ puth((dt >> 4) & 0xf); puth(dt & 0xf); }
 6039              		.loc 1 150 55 view .LVU2006
 6040 0914 D8B2     		uxtb	r0, r3
 150:../USER/main.c **** void puth2(dt) int dt;{ puth((dt >> 4) & 0xf); puth(dt & 0xf); }
 6041              		.loc 1 150 26 is_stmt 0 view .LVU2007
 6042 0916 092B     		cmp	r3, #9
 150:../USER/main.c **** void puth2(dt) int dt;{ puth((dt >> 4) & 0xf); puth(dt & 0xf); }
 6043              		.loc 1 150 34 view .LVU2008
 6044 0918 D4BF     		ite	le
 6045 091a 3030     		addle	r0, r0, #48
 150:../USER/main.c **** void puth2(dt) int dt;{ puth((dt >> 4) & 0xf); puth(dt & 0xf); }
 6046              		.loc 1 150 55 view .LVU2009
 6047 091c 3730     		addgt	r0, r0, #55
 6048 091e FFF7FEFF 		bl	putch_uart
 6049              	.LVL384:
 150:../USER/main.c **** void puth2(dt) int dt;{ puth((dt >> 4) & 0xf); puth(dt & 0xf); }
 6050              		.loc 1 150 55 view .LVU2010
 6051              	.LBE1356:
 6052              	.LBE1355:
 6053              	.LBE1352:
 6054              	.LBE1351:
 6055              	.LBE1338:
 6056              	.LBE1337:
 6057              	.LBE1358:
 6058              	.LBE1360:
 6059              	.LBE1404:
 176:../USER/main.c **** 
 6060              		.loc 1 176 56 is_stmt 1 view .LVU2011
 6061              	.LBB1405:
 6062              	.LBB1361:
 6063              	.LBI1361:
 134:../USER/main.c **** 	volatile uint32_t gpiord;
 6064              		.loc 1 134 6 view .LVU2012
 6065              	.LBB1362:
 135:../USER/main.c **** 	if((mdgpio & 0x2000)==0)
 6066              		.loc 1 135 2 view .LVU2013
 136:../USER/main.c **** 		UART_SendChar(UART0,ch);
 6067              		.loc 1 136 2 view .LVU2014
 136:../USER/main.c **** 		UART_SendChar(UART0,ch);
 6068              		.loc 1 136 13 is_stmt 0 view .LVU2015
 6069 0922 DAF80030 		ldr	r3, [r10]
 136:../USER/main.c **** 		UART_SendChar(UART0,ch);
 6070              		.loc 1 136 4 view .LVU2016
 6071 0926 9804     		lsls	r0, r3, #18
 6072 0928 40F1AB87 		bpl	.L1138
 139:../USER/main.c **** 		while((gpiord & 0x4000)!=0) {
 6073              		.loc 1 139 3 is_stmt 1 view .LVU2017
 139:../USER/main.c **** 		while((gpiord & 0x4000)!=0) {
 6074              		.loc 1 139 10 is_stmt 0 view .LVU2018
 6075 092c 4FF48043 		mov	r3, #16384
 6076 0930 1293     		str	r3, [sp, #72]
 140:../USER/main.c **** 			key_check();
 6077              		.loc 1 140 3 is_stmt 1 view .LVU2019
 140:../USER/main.c **** 			key_check();
 6078              		.loc 1 140 17 is_stmt 0 view .LVU2020
 6079 0932 129B     		ldr	r3, [sp, #72]
 140:../USER/main.c **** 			key_check();
 6080              		.loc 1 140 8 view .LVU2021
 6081 0934 5904     		lsls	r1, r3, #17
 6082 0936 40F1BB80 		bpl	.L397
 142:../USER/main.c **** 		}
 6083              		.loc 1 142 13 view .LVU2022
 6084 093a 604C     		ldr	r4, .L1213
 6085 093c 1EE0     		b	.L391
 6086              	.LVL385:
 6087              	.L1139:
 142:../USER/main.c **** 		}
 6088              		.loc 1 142 13 view .LVU2023
 6089 093e D8F80030 		ldr	r3, [r8]
 6090              	.L393:
 6091              	.LBB1363:
 6092              	.LBB1364:
 121:../USER/main.c **** 	//
 6093              		.loc 1 121 2 is_stmt 1 view .LVU2024
 121:../USER/main.c **** 	//
 6094              		.loc 1 121 18 view .LVU2025
 121:../USER/main.c **** 	//
 6095              		.loc 1 121 4 is_stmt 0 view .LVU2026
 6096 0942 FF2B     		cmp	r3, #255
 6097 0944 02DD     		ble	.L394
 121:../USER/main.c **** 	//
 6098              		.loc 1 121 25 view .LVU2027
 6099 0946 0023     		movs	r3, #0
 6100 0948 C8F80070 		str	r7, [r8]
 6101              	.L394:
 123:../USER/main.c **** 	if(kinbwp>=256) kinbwp = 0;
 6102              		.loc 1 123 39 is_stmt 1 view .LVU2028
 123:../USER/main.c **** 	if(kinbwp>=256) kinbwp = 0;
 6103              		.loc 1 123 2 view .LVU2029
 123:../USER/main.c **** 	if(kinbwp>=256) kinbwp = 0;
 6104              		.loc 1 123 11 is_stmt 0 view .LVU2030
 6105 094c 4FF04021 		mov	r1, #1073758208
 6106 0950 4868     		ldr	r0, [r1, #4]
 6107              	.LVL386:
 123:../USER/main.c **** 	if(kinbwp>=256) kinbwp = 0;
 6108              		.loc 1 123 52 view .LVU2031
 6109 0952 5A1C     		adds	r2, r3, #1
 123:../USER/main.c **** 	if(kinbwp>=256) kinbwp = 0;
 6110              		.loc 1 123 4 view .LVU2032
 6111 0954 8507     		lsls	r5, r0, #30
 6112 0956 09D5     		bpl	.L396
 124:../USER/main.c **** 	//
 6113              		.loc 1 124 25 view .LVU2033
 6114 0958 B2F5807F 		cmp	r2, #256
 123:../USER/main.c **** 	if(kinbwp>=256) kinbwp = 0;
 6115              		.loc 1 123 63 view .LVU2034
 6116 095c 0868     		ldr	r0, [r1]
 124:../USER/main.c **** 	//
 6117              		.loc 1 124 25 view .LVU2035
 6118 095e 14BF     		ite	ne
 6119 0960 1146     		movne	r1, r2
 6120 0962 3946     		moveq	r1, r7
 123:../USER/main.c **** 	if(kinbwp>=256) kinbwp = 0;
 6121              		.loc 1 123 56 view .LVU2036
 6122 0964 09F80300 		strb	r0, [r9, r3]
 124:../USER/main.c **** 	//
 6123              		.loc 1 124 2 is_stmt 1 view .LVU2037
 124:../USER/main.c **** 	//
 6124              		.loc 1 124 25 is_stmt 0 view .LVU2038
 6125 0968 C8F80010 		str	r1, [r8]
 6126              	.L396:
 124:../USER/main.c **** 	//
 6127              		.loc 1 124 25 view .LVU2039
 6128              	.LBE1364:
 6129              	.LBE1363:
 142:../USER/main.c **** 		}
 6130              		.loc 1 142 4 is_stmt 1 view .LVU2040
 142:../USER/main.c **** 		}
 6131              		.loc 1 142 13 is_stmt 0 view .LVU2041
 6132 096c 2046     		mov	r0, r4
 6133 096e FFF7FEFF 		bl	GPIO_ReadBits
 6134              	.LVL387:
 142:../USER/main.c **** 		}
 6135              		.loc 1 142 11 view .LVU2042
 6136 0972 1290     		str	r0, [sp, #72]
 140:../USER/main.c **** 			key_check();
 6137              		.loc 1 140 17 view .LVU2043
 6138 0974 129B     		ldr	r3, [sp, #72]
 140:../USER/main.c **** 			key_check();
 6139              		.loc 1 140 8 view .LVU2044
 6140 0976 5A04     		lsls	r2, r3, #17
 6141 0978 40F19A80 		bpl	.L397
 6142              	.L391:
 141:../USER/main.c **** 			gpiord = GPIO_ReadBits(GPIO0);
 6143              		.loc 1 141 4 is_stmt 1 view .LVU2045
 6144              	.LBB1366:
 6145              	.LBI1363:
 116:../USER/main.c **** 	char ch;
 6146              		.loc 1 116 6 view .LVU2046
 6147              	.LBB1365:
 117:../USER/main.c **** 	//
 6148              		.loc 1 117 2 view .LVU2047
 119:../USER/main.c **** 	if(ch!=0) kinbuf[kinbwp++] = ch;
 6149              		.loc 1 119 2 view .LVU2048
 119:../USER/main.c **** 	if(ch!=0) kinbuf[kinbwp++] = ch;
 6150              		.loc 1 119 7 is_stmt 0 view .LVU2049
 6151 097c FFF7FEFF 		bl	SPI_ReadData
 6152              	.LVL388:
 120:../USER/main.c **** 	if(kinbwp>=256) kinbwp = 0;
 6153              		.loc 1 120 12 is_stmt 1 view .LVU2050
 119:../USER/main.c **** 	if(ch!=0) kinbuf[kinbwp++] = ch;
 6154              		.loc 1 119 5 is_stmt 0 view .LVU2051
 6155 0980 40B2     		sxtb	r0, r0
 6156              	.LVL389:
 120:../USER/main.c **** 	if(kinbwp>=256) kinbwp = 0;
 6157              		.loc 1 120 2 is_stmt 1 view .LVU2052
 120:../USER/main.c **** 	if(kinbwp>=256) kinbwp = 0;
 6158              		.loc 1 120 4 is_stmt 0 view .LVU2053
 6159 0982 0028     		cmp	r0, #0
 6160 0984 DBD0     		beq	.L1139
 120:../USER/main.c **** 	if(kinbwp>=256) kinbwp = 0;
 6161              		.loc 1 120 25 view .LVU2054
 6162 0986 D8F80020 		ldr	r2, [r8]
 6163 098a 531C     		adds	r3, r2, #1
 120:../USER/main.c **** 	if(kinbwp>=256) kinbwp = 0;
 6164              		.loc 1 120 29 view .LVU2055
 6165 098c 09F80200 		strb	r0, [r9, r2]
 120:../USER/main.c **** 	if(kinbwp>=256) kinbwp = 0;
 6166              		.loc 1 120 25 view .LVU2056
 6167 0990 C8F80030 		str	r3, [r8]
 6168 0994 D5E7     		b	.L393
 6169              	.LVL390:
 6170              	.L325:
 120:../USER/main.c **** 	if(kinbwp>=256) kinbwp = 0;
 6171              		.loc 1 120 25 view .LVU2057
 6172              	.LBE1365:
 6173              	.LBE1366:
 6174              	.LBE1362:
 6175              	.LBE1361:
 6176              	.LBE1405:
 6177              	.LBB1406:
 6178              	.LBB994:
 6179              	.LBB993:
 109:../USER/main.c ****    if( *buf>='a' && *buf<='z') *buf = *buf - 0x20;
 6180              		.loc 1 109 9 view .LVU2058
 6181 0996 12F9013F 		ldrsb	r3, [r2, #1]!
 6182              	.LVL391:
 109:../USER/main.c ****    if( *buf>='a' && *buf<='z') *buf = *buf - 0x20;
 6183              		.loc 1 109 8 view .LVU2059
 6184 099a 0D2B     		cmp	r3, #13
 6185 099c 7FF46FAC 		bne	.L328
 6186 09a0 79E4     		b	.L327
 6187              	.LVL392:
 6188              	.L1126:
 109:../USER/main.c ****    if( *buf>='a' && *buf<='z') *buf = *buf - 0x20;
 6189              		.loc 1 109 8 view .LVU2060
 6190              	.LBE993:
 6191              	.LBE994:
 6192              	.LBE1406:
 6193              	.LBB1407:
 6194              	.LBB1276:
 6195              	.LBB1078:
 6196              	.LBB1076:
 6197              	.LBB1074:
 137:../USER/main.c **** 	else {
 6198              		.loc 1 137 3 is_stmt 1 view .LVU2061
 6199 09a2 2146     		mov	r1, r4
 6200 09a4 4FF04020 		mov	r0, #1073758208
 6201 09a8 FFF7FEFF 		bl	UART_SendChar
 6202              	.LVL393:
 6203 09ac 8EE6     		b	.L593
 6204              	.LVL394:
 6205              	.L1128:
 137:../USER/main.c **** 	else {
 6206              		.loc 1 137 3 is_stmt 0 view .LVU2062
 6207              	.LBE1074:
 6208              	.LBE1076:
 6209              	.LBE1078:
 6210              	.LBE1276:
 6211              	.LBE1407:
 6212              	.LBB1408:
 6213              	.LBB1373:
 6214              	.LBB1313:
 6215              	.LBB1311:
 6216              	.LBB1309:
 137:../USER/main.c **** 	else {
 6217              		.loc 1 137 3 is_stmt 1 view .LVU2063
 6218 09ae 2146     		mov	r1, r4
 6219 09b0 4FF04020 		mov	r0, #1073758208
 6220 09b4 FFF7FEFF 		bl	UART_SendChar
 6221              	.LVL395:
 6222 09b8 35E7     		b	.L358
 6223              	.LVL396:
 6224              	.L1104:
 137:../USER/main.c **** 	else {
 6225              		.loc 1 137 3 is_stmt 0 view .LVU2064
 6226              	.LBE1309:
 6227              	.LBE1311:
 6228              	.LBE1313:
 6229              	.LBE1373:
 6230              	.LBE1408:
 6231              	.LBB1409:
 6232              	.LBB995:
 6233              	.LBB990:
 6234              	.LBB989:
 6235              	.LBB984:
 137:../USER/main.c **** 	else {
 6236              		.loc 1 137 3 is_stmt 1 view .LVU2065
 6237 09ba 2146     		mov	r1, r4
 6238 09bc 4FF04020 		mov	r0, #1073758208
 6239 09c0 FFF7FEFF 		bl	UART_SendChar
 6240              	.LVL397:
 6241 09c4 27E4     		b	.L310
 6242              	.LVL398:
 6243              	.L1098:
 137:../USER/main.c **** 	else {
 6244              		.loc 1 137 3 is_stmt 0 view .LVU2066
 6245              	.LBE984:
 6246              	.LBE989:
 6247              	.LBE990:
 6248              	.LBE995:
 6249              	.LBE1409:
 6250              	.LBB1410:
 6251              	.LBB956:
 6252              	.LBB953:
 6253              	.LBB951:
 137:../USER/main.c **** 	else {
 6254              		.loc 1 137 3 is_stmt 1 view .LVU2067
 6255 09c6 2146     		mov	r1, r4
 6256 09c8 4FF04020 		mov	r0, #1073758208
 6257 09cc FFF7FEFF 		bl	UART_SendChar
 6258              	.LVL399:
 6259 09d0 FFF774BB 		b	.L284
 6260              	.LVL400:
 6261              	.L345:
 137:../USER/main.c **** 	else {
 6262              		.loc 1 137 3 is_stmt 0 view .LVU2068
 6263              	.LBE951:
 6264              	.LBE953:
 6265              	.LBE956:
 6266              	.LBE1410:
 6267              	.LBB1411:
 6268              	.LBB1012:
 6269              	.LBB1010:
 6270              	.LBB1008:
 144:../USER/main.c **** 	}
 6271              		.loc 1 144 3 is_stmt 1 view .LVU2069
 6272 09d4 E0B2     		uxtb	r0, r4
 6273 09d6 FFF7FEFF 		bl	SPI_WriteData
 6274              	.LVL401:
 6275              	.L338:
 6276              	.LBB1004:
 6277              	.LBB1005:
 123:../USER/main.c **** 	if(kinbwp>=256) kinbwp = 0;
 6278              		.loc 1 123 11 is_stmt 0 view .LVU2070
 6279 09da 4FF04025 		mov	r5, #1073758208
 6280 09de 1AE0     		b	.L351
 6281              	.LVL402:
 6282              	.L1141:
 123:../USER/main.c **** 	if(kinbwp>=256) kinbwp = 0;
 6283              		.loc 1 123 11 view .LVU2071
 6284 09e0 D8F80030 		ldr	r3, [r8]
 6285              	.L347:
 121:../USER/main.c **** 	//
 6286              		.loc 1 121 2 is_stmt 1 view .LVU2072
 121:../USER/main.c **** 	//
 6287              		.loc 1 121 18 view .LVU2073
 121:../USER/main.c **** 	//
 6288              		.loc 1 121 4 is_stmt 0 view .LVU2074
 6289 09e4 FF2B     		cmp	r3, #255
 6290 09e6 02DD     		ble	.L348
 121:../USER/main.c **** 	//
 6291              		.loc 1 121 25 view .LVU2075
 6292 09e8 0023     		movs	r3, #0
 6293 09ea C8F80070 		str	r7, [r8]
 6294              	.L348:
 123:../USER/main.c **** 	if(kinbwp>=256) kinbwp = 0;
 6295              		.loc 1 123 39 is_stmt 1 view .LVU2076
 123:../USER/main.c **** 	if(kinbwp>=256) kinbwp = 0;
 6296              		.loc 1 123 2 view .LVU2077
 123:../USER/main.c **** 	if(kinbwp>=256) kinbwp = 0;
 6297              		.loc 1 123 11 is_stmt 0 view .LVU2078
 6298 09ee 6968     		ldr	r1, [r5, #4]
 123:../USER/main.c **** 	if(kinbwp>=256) kinbwp = 0;
 6299              		.loc 1 123 52 view .LVU2079
 6300 09f0 5A1C     		adds	r2, r3, #1
 123:../USER/main.c **** 	if(kinbwp>=256) kinbwp = 0;
 6301              		.loc 1 123 4 view .LVU2080
 6302 09f2 8E07     		lsls	r6, r1, #30
 6303 09f4 09D5     		bpl	.L350
 124:../USER/main.c **** 	//
 6304              		.loc 1 124 25 view .LVU2081
 6305 09f6 B2F5807F 		cmp	r2, #256
 6306 09fa 14BF     		ite	ne
 6307 09fc 1146     		movne	r1, r2
 6308 09fe 3946     		moveq	r1, r7
 123:../USER/main.c **** 	if(kinbwp>=256) kinbwp = 0;
 6309              		.loc 1 123 63 view .LVU2082
 6310 0a00 2868     		ldr	r0, [r5]
 6311              	.LVL403:
 124:../USER/main.c **** 	//
 6312              		.loc 1 124 25 view .LVU2083
 6313 0a02 C8F80010 		str	r1, [r8]
 123:../USER/main.c **** 	if(kinbwp>=256) kinbwp = 0;
 6314              		.loc 1 123 56 view .LVU2084
 6315 0a06 09F80300 		strb	r0, [r9, r3]
 124:../USER/main.c **** 	//
 6316              		.loc 1 124 2 is_stmt 1 view .LVU2085
 6317              	.L350:
 124:../USER/main.c **** 	//
 6318              		.loc 1 124 2 is_stmt 0 view .LVU2086
 6319              	.LBE1005:
 6320              	.LBE1004:
 147:../USER/main.c **** }
 6321              		.loc 1 147 27 is_stmt 1 view .LVU2087
 147:../USER/main.c **** }
 6322              		.loc 1 147 32 is_stmt 0 view .LVU2088
 6323 0a0a 2046     		mov	r0, r4
 6324 0a0c FFF7FEFF 		bl	disp_vram
 6325              	.LVL404:
 147:../USER/main.c **** }
 6326              		.loc 1 147 2 view .LVU2089
 6327 0a10 0028     		cmp	r0, #0
 6328 0a12 3FF461AC 		beq	.L1140
 6329              	.LVL405:
 6330              	.L351:
 147:../USER/main.c **** }
 6331              		.loc 1 147 2 is_stmt 1 view .LVU2090
 147:../USER/main.c **** }
 6332              		.loc 1 147 10 view .LVU2091
 147:../USER/main.c **** }
 6333              		.loc 1 147 14 view .LVU2092
 6334              	.LBB1007:
 6335              	.LBI1004:
 116:../USER/main.c **** 	char ch;
 6336              		.loc 1 116 6 view .LVU2093
 6337              	.LBB1006:
 117:../USER/main.c **** 	//
 6338              		.loc 1 117 2 view .LVU2094
 119:../USER/main.c **** 	if(ch!=0) kinbuf[kinbwp++] = ch;
 6339              		.loc 1 119 2 view .LVU2095
 119:../USER/main.c **** 	if(ch!=0) kinbuf[kinbwp++] = ch;
 6340              		.loc 1 119 7 is_stmt 0 view .LVU2096
 6341 0a16 FFF7FEFF 		bl	SPI_ReadData
 6342              	.LVL406:
 120:../USER/main.c **** 	if(kinbwp>=256) kinbwp = 0;
 6343              		.loc 1 120 12 is_stmt 1 view .LVU2097
 119:../USER/main.c **** 	if(ch!=0) kinbuf[kinbwp++] = ch;
 6344              		.loc 1 119 5 is_stmt 0 view .LVU2098
 6345 0a1a 40B2     		sxtb	r0, r0
 6346              	.LVL407:
 120:../USER/main.c **** 	if(kinbwp>=256) kinbwp = 0;
 6347              		.loc 1 120 2 is_stmt 1 view .LVU2099
 120:../USER/main.c **** 	if(kinbwp>=256) kinbwp = 0;
 6348              		.loc 1 120 4 is_stmt 0 view .LVU2100
 6349 0a1c 0028     		cmp	r0, #0
 6350 0a1e DFD0     		beq	.L1141
 120:../USER/main.c **** 	if(kinbwp>=256) kinbwp = 0;
 6351              		.loc 1 120 25 view .LVU2101
 6352 0a20 D8F80020 		ldr	r2, [r8]
 6353 0a24 531C     		adds	r3, r2, #1
 120:../USER/main.c **** 	if(kinbwp>=256) kinbwp = 0;
 6354              		.loc 1 120 29 view .LVU2102
 6355 0a26 09F80200 		strb	r0, [r9, r2]
 120:../USER/main.c **** 	if(kinbwp>=256) kinbwp = 0;
 6356              		.loc 1 120 25 view .LVU2103
 6357 0a2a C8F80030 		str	r3, [r8]
 6358 0a2e D9E7     		b	.L347
 6359              	.LVL408:
 6360              	.L336:
 120:../USER/main.c **** 	if(kinbwp>=256) kinbwp = 0;
 6361              		.loc 1 120 25 view .LVU2104
 6362              	.LBE1006:
 6363              	.LBE1007:
 6364              	.LBE1008:
 6365              	.LBE1010:
 6366              	.LBE1012:
 6367              	.LBE1411:
 205:../USER/main.c **** 			  break;
 6368              		.loc 1 205 30 is_stmt 1 view .LVU2105
 6369 0a30 FFF7FEFF 		bl	basic
 6370              	.LVL409:
 206:../USER/main.c **** 		  case 'D':
 6371              		.loc 1 206 6 view .LVU2106
 6372 0a34 FFF703BB 		b	.L279
 6373              	.LVL410:
 6374              	.L813:
 6375              	.LBB1412:
 6376              	.LBB1396:
 6377              	.LBB1394:
 6378              	.LBB1390:
 144:../USER/main.c **** 	}
 6379              		.loc 1 144 3 view .LVU2107
 6380 0a38 E0B2     		uxtb	r0, r4
 6381 0a3a FFF7FEFF 		bl	SPI_WriteData
 6382              	.LVL411:
 6383              	.L806:
 6384              	.LBB1384:
 6385              	.LBB1385:
 123:../USER/main.c **** 	if(kinbwp>=256) kinbwp = 0;
 6386              		.loc 1 123 11 is_stmt 0 view .LVU2108
 6387 0a3e 4FF04026 		mov	r6, #1073758208
 6388 0a42 18E0     		b	.L819
 6389              	.LVL412:
 6390              	.L1143:
 123:../USER/main.c **** 	if(kinbwp>=256) kinbwp = 0;
 6391              		.loc 1 123 11 view .LVU2109
 6392 0a44 D8F80030 		ldr	r3, [r8]
 6393              	.L815:
 121:../USER/main.c **** 	//
 6394              		.loc 1 121 2 is_stmt 1 view .LVU2110
 121:../USER/main.c **** 	//
 6395              		.loc 1 121 18 view .LVU2111
 121:../USER/main.c **** 	//
 6396              		.loc 1 121 4 is_stmt 0 view .LVU2112
 6397 0a48 FF2B     		cmp	r3, #255
 6398 0a4a 02DD     		ble	.L816
 121:../USER/main.c **** 	//
 6399              		.loc 1 121 25 view .LVU2113
 6400 0a4c 0023     		movs	r3, #0
 6401 0a4e C8F80070 		str	r7, [r8]
 6402              	.L816:
 123:../USER/main.c **** 	if(kinbwp>=256) kinbwp = 0;
 6403              		.loc 1 123 39 is_stmt 1 view .LVU2114
 123:../USER/main.c **** 	if(kinbwp>=256) kinbwp = 0;
 6404              		.loc 1 123 2 view .LVU2115
 123:../USER/main.c **** 	if(kinbwp>=256) kinbwp = 0;
 6405              		.loc 1 123 11 is_stmt 0 view .LVU2116
 6406 0a52 7168     		ldr	r1, [r6, #4]
 123:../USER/main.c **** 	if(kinbwp>=256) kinbwp = 0;
 6407              		.loc 1 123 52 view .LVU2117
 6408 0a54 5A1C     		adds	r2, r3, #1
 123:../USER/main.c **** 	if(kinbwp>=256) kinbwp = 0;
 6409              		.loc 1 123 4 view .LVU2118
 6410 0a56 8807     		lsls	r0, r1, #30
 6411              	.LVL413:
 123:../USER/main.c **** 	if(kinbwp>=256) kinbwp = 0;
 6412              		.loc 1 123 4 view .LVU2119
 6413 0a58 09D5     		bpl	.L818
 124:../USER/main.c **** 	//
 6414              		.loc 1 124 25 view .LVU2120
 6415 0a5a B2F5807F 		cmp	r2, #256
 6416 0a5e 14BF     		ite	ne
 6417 0a60 1146     		movne	r1, r2
 6418 0a62 3946     		moveq	r1, r7
 123:../USER/main.c **** 	if(kinbwp>=256) kinbwp = 0;
 6419              		.loc 1 123 63 view .LVU2121
 6420 0a64 3068     		ldr	r0, [r6]
 124:../USER/main.c **** 	//
 6421              		.loc 1 124 25 view .LVU2122
 6422 0a66 C8F80010 		str	r1, [r8]
 123:../USER/main.c **** 	if(kinbwp>=256) kinbwp = 0;
 6423              		.loc 1 123 56 view .LVU2123
 6424 0a6a 09F80300 		strb	r0, [r9, r3]
 124:../USER/main.c **** 	//
 6425              		.loc 1 124 2 is_stmt 1 view .LVU2124
 6426              	.L818:
 124:../USER/main.c **** 	//
 6427              		.loc 1 124 2 is_stmt 0 view .LVU2125
 6428              	.LBE1385:
 6429              	.LBE1384:
 147:../USER/main.c **** }
 6430              		.loc 1 147 27 is_stmt 1 view .LVU2126
 147:../USER/main.c **** }
 6431              		.loc 1 147 32 is_stmt 0 view .LVU2127
 6432 0a6e 2046     		mov	r0, r4
 6433 0a70 FFF7FEFF 		bl	disp_vram
 6434              	.LVL414:
 147:../USER/main.c **** }
 6435              		.loc 1 147 2 view .LVU2128
 6436 0a74 60B1     		cbz	r0, .L1142
 6437              	.LVL415:
 6438              	.L819:
 147:../USER/main.c **** }
 6439              		.loc 1 147 2 is_stmt 1 view .LVU2129
 147:../USER/main.c **** }
 6440              		.loc 1 147 10 view .LVU2130
 147:../USER/main.c **** }
 6441              		.loc 1 147 14 view .LVU2131
 6442              	.LBB1387:
 6443              	.LBI1384:
 116:../USER/main.c **** 	char ch;
 6444              		.loc 1 116 6 view .LVU2132
 6445              	.LBB1386:
 117:../USER/main.c **** 	//
 6446              		.loc 1 117 2 view .LVU2133
 119:../USER/main.c **** 	if(ch!=0) kinbuf[kinbwp++] = ch;
 6447              		.loc 1 119 2 view .LVU2134
 119:../USER/main.c **** 	if(ch!=0) kinbuf[kinbwp++] = ch;
 6448              		.loc 1 119 7 is_stmt 0 view .LVU2135
 6449 0a76 FFF7FEFF 		bl	SPI_ReadData
 6450              	.LVL416:
 120:../USER/main.c **** 	if(kinbwp>=256) kinbwp = 0;
 6451              		.loc 1 120 12 is_stmt 1 view .LVU2136
 119:../USER/main.c **** 	if(ch!=0) kinbuf[kinbwp++] = ch;
 6452              		.loc 1 119 5 is_stmt 0 view .LVU2137
 6453 0a7a 40B2     		sxtb	r0, r0
 6454              	.LVL417:
 120:../USER/main.c **** 	if(kinbwp>=256) kinbwp = 0;
 6455              		.loc 1 120 2 is_stmt 1 view .LVU2138
 120:../USER/main.c **** 	if(kinbwp>=256) kinbwp = 0;
 6456              		.loc 1 120 4 is_stmt 0 view .LVU2139
 6457 0a7c 0028     		cmp	r0, #0
 6458 0a7e E1D0     		beq	.L1143
 120:../USER/main.c **** 	if(kinbwp>=256) kinbwp = 0;
 6459              		.loc 1 120 25 view .LVU2140
 6460 0a80 D8F80020 		ldr	r2, [r8]
 6461 0a84 531C     		adds	r3, r2, #1
 120:../USER/main.c **** 	if(kinbwp>=256) kinbwp = 0;
 6462              		.loc 1 120 29 view .LVU2141
 6463 0a86 09F80200 		strb	r0, [r9, r2]
 120:../USER/main.c **** 	if(kinbwp>=256) kinbwp = 0;
 6464              		.loc 1 120 25 view .LVU2142
 6465 0a8a C8F80030 		str	r3, [r8]
 6466 0a8e DBE7     		b	.L815
 6467              	.LVL418:
 6468              	.L1142:
 120:../USER/main.c **** 	if(kinbwp>=256) kinbwp = 0;
 6469              		.loc 1 120 25 view .LVU2143
 6470              	.LBE1386:
 6471              	.LBE1387:
 6472              	.LBE1390:
 6473              	.LBE1394:
 156:../USER/main.c **** 		if(*buf==0) break;
 6474              		.loc 1 156 2 is_stmt 1 view .LVU2144
 157:../USER/main.c **** 		else        putch(*buf++);
 6475              		.loc 1 157 3 view .LVU2145
 157:../USER/main.c **** 		else        putch(*buf++);
 6476              		.loc 1 157 6 is_stmt 0 view .LVU2146
 6477 0a90 15F9014F 		ldrsb	r4, [r5, #1]!
 6478              	.LVL419:
 157:../USER/main.c **** 		else        putch(*buf++);
 6479              		.loc 1 157 5 view .LVU2147
 6480 0a94 002C     		cmp	r4, #0
 6481 0a96 3FF4D2AA 		beq	.L279
 6482              	.LVL420:
 158:../USER/main.c **** 	}
 6483              		.loc 1 158 15 is_stmt 1 view .LVU2148
 6484              	.LBB1395:
 134:../USER/main.c **** 	volatile uint32_t gpiord;
 6485              		.loc 1 134 6 view .LVU2149
 6486              	.LBB1391:
 135:../USER/main.c **** 	if((mdgpio & 0x2000)==0)
 6487              		.loc 1 135 2 view .LVU2150
 136:../USER/main.c **** 		UART_SendChar(UART0,ch);
 6488              		.loc 1 136 2 view .LVU2151
 136:../USER/main.c **** 		UART_SendChar(UART0,ch);
 6489              		.loc 1 136 13 is_stmt 0 view .LVU2152
 6490 0a9a DAF80030 		ldr	r3, [r10]
 136:../USER/main.c **** 		UART_SendChar(UART0,ch);
 6491              		.loc 1 136 4 view .LVU2153
 6492 0a9e 9904     		lsls	r1, r3, #18
 6493 0aa0 3FF5DCAD 		bmi	.L805
 6494              	.LVL421:
 6495              	.L1130:
 137:../USER/main.c **** 	else {
 6496              		.loc 1 137 3 is_stmt 1 view .LVU2154
 6497 0aa4 2146     		mov	r1, r4
 6498 0aa6 4FF04020 		mov	r0, #1073758208
 6499 0aaa FFF7FEFF 		bl	UART_SendChar
 6500              	.LVL422:
 6501 0aae C6E7     		b	.L806
 6502              	.LVL423:
 6503              	.L397:
 137:../USER/main.c **** 	else {
 6504              		.loc 1 137 3 is_stmt 0 view .LVU2155
 6505              	.LBE1391:
 6506              	.LBE1395:
 6507              	.LBE1396:
 6508              	.LBE1412:
 6509              	.LBB1413:
 6510              	.LBB1374:
 6511              	.LBB1371:
 144:../USER/main.c **** 	}
 6512              		.loc 1 144 3 is_stmt 1 view .LVU2156
 6513 0ab0 3A20     		movs	r0, #58
 6514 0ab2 FFF7FEFF 		bl	SPI_WriteData
 6515              	.LVL424:
 6516              	.L390:
 6517              	.LBB1367:
 6518              	.LBB1368:
 123:../USER/main.c **** 	if(kinbwp>=256) kinbwp = 0;
 6519              		.loc 1 123 11 is_stmt 0 view .LVU2157
 6520 0ab6 4FF04024 		mov	r4, #1073758208
 6521 0aba 1AE0     		b	.L403
 6522              	.L1214:
 6523              		.align	2
 6524              	.L1213:
 6525 0abc 00000140 		.word	1073807360
 6526              	.LVL425:
 6527              	.L1144:
 123:../USER/main.c **** 	if(kinbwp>=256) kinbwp = 0;
 6528              		.loc 1 123 11 view .LVU2158
 6529 0ac0 D8F80030 		ldr	r3, [r8]
 6530              	.L399:
 121:../USER/main.c **** 	//
 6531              		.loc 1 121 2 is_stmt 1 view .LVU2159
 121:../USER/main.c **** 	//
 6532              		.loc 1 121 18 view .LVU2160
 121:../USER/main.c **** 	//
 6533              		.loc 1 121 4 is_stmt 0 view .LVU2161
 6534 0ac4 FF2B     		cmp	r3, #255
 6535 0ac6 02DD     		ble	.L400
 121:../USER/main.c **** 	//
 6536              		.loc 1 121 25 view .LVU2162
 6537 0ac8 0023     		movs	r3, #0
 6538 0aca C8F80070 		str	r7, [r8]
 6539              	.L400:
 123:../USER/main.c **** 	if(kinbwp>=256) kinbwp = 0;
 6540              		.loc 1 123 39 is_stmt 1 view .LVU2163
 123:../USER/main.c **** 	if(kinbwp>=256) kinbwp = 0;
 6541              		.loc 1 123 2 view .LVU2164
 123:../USER/main.c **** 	if(kinbwp>=256) kinbwp = 0;
 6542              		.loc 1 123 11 is_stmt 0 view .LVU2165
 6543 0ace 6168     		ldr	r1, [r4, #4]
 123:../USER/main.c **** 	if(kinbwp>=256) kinbwp = 0;
 6544              		.loc 1 123 52 view .LVU2166
 6545 0ad0 5A1C     		adds	r2, r3, #1
 123:../USER/main.c **** 	if(kinbwp>=256) kinbwp = 0;
 6546              		.loc 1 123 4 view .LVU2167
 6547 0ad2 8E07     		lsls	r6, r1, #30
 6548 0ad4 09D5     		bpl	.L402
 124:../USER/main.c **** 	//
 6549              		.loc 1 124 25 view .LVU2168
 6550 0ad6 B2F5807F 		cmp	r2, #256
 6551 0ada 14BF     		ite	ne
 6552 0adc 1146     		movne	r1, r2
 6553 0ade 3946     		moveq	r1, r7
 123:../USER/main.c **** 	if(kinbwp>=256) kinbwp = 0;
 6554              		.loc 1 123 63 view .LVU2169
 6555 0ae0 2068     		ldr	r0, [r4]
 6556              	.LVL426:
 124:../USER/main.c **** 	//
 6557              		.loc 1 124 25 view .LVU2170
 6558 0ae2 C8F80010 		str	r1, [r8]
 123:../USER/main.c **** 	if(kinbwp>=256) kinbwp = 0;
 6559              		.loc 1 123 56 view .LVU2171
 6560 0ae6 09F80300 		strb	r0, [r9, r3]
 124:../USER/main.c **** 	//
 6561              		.loc 1 124 2 is_stmt 1 view .LVU2172
 6562              	.L402:
 124:../USER/main.c **** 	//
 6563              		.loc 1 124 2 is_stmt 0 view .LVU2173
 6564              	.LBE1368:
 6565              	.LBE1367:
 147:../USER/main.c **** }
 6566              		.loc 1 147 27 is_stmt 1 view .LVU2174
 147:../USER/main.c **** }
 6567              		.loc 1 147 32 is_stmt 0 view .LVU2175
 6568 0aea 3A20     		movs	r0, #58
 6569 0aec FFF7FEFF 		bl	disp_vram
 6570              	.LVL427:
 147:../USER/main.c **** }
 6571              		.loc 1 147 2 view .LVU2176
 6572 0af0 90B1     		cbz	r0, .L468
 6573              	.LVL428:
 6574              	.L403:
 147:../USER/main.c **** }
 6575              		.loc 1 147 2 is_stmt 1 view .LVU2177
 147:../USER/main.c **** }
 6576              		.loc 1 147 10 view .LVU2178
 147:../USER/main.c **** }
 6577              		.loc 1 147 14 view .LVU2179
 6578              	.LBB1370:
 6579              	.LBI1367:
 116:../USER/main.c **** 	char ch;
 6580              		.loc 1 116 6 view .LVU2180
 6581              	.LBB1369:
 117:../USER/main.c **** 	//
 6582              		.loc 1 117 2 view .LVU2181
 119:../USER/main.c **** 	if(ch!=0) kinbuf[kinbwp++] = ch;
 6583              		.loc 1 119 2 view .LVU2182
 119:../USER/main.c **** 	if(ch!=0) kinbuf[kinbwp++] = ch;
 6584              		.loc 1 119 7 is_stmt 0 view .LVU2183
 6585 0af2 FFF7FEFF 		bl	SPI_ReadData
 6586              	.LVL429:
 120:../USER/main.c **** 	if(kinbwp>=256) kinbwp = 0;
 6587              		.loc 1 120 12 is_stmt 1 view .LVU2184
 119:../USER/main.c **** 	if(ch!=0) kinbuf[kinbwp++] = ch;
 6588              		.loc 1 119 5 is_stmt 0 view .LVU2185
 6589 0af6 40B2     		sxtb	r0, r0
 6590              	.LVL430:
 120:../USER/main.c **** 	if(kinbwp>=256) kinbwp = 0;
 6591              		.loc 1 120 2 is_stmt 1 view .LVU2186
 120:../USER/main.c **** 	if(kinbwp>=256) kinbwp = 0;
 6592              		.loc 1 120 4 is_stmt 0 view .LVU2187
 6593 0af8 0028     		cmp	r0, #0
 6594 0afa E1D0     		beq	.L1144
 120:../USER/main.c **** 	if(kinbwp>=256) kinbwp = 0;
 6595              		.loc 1 120 25 view .LVU2188
 6596 0afc D8F80020 		ldr	r2, [r8]
 6597 0b00 531C     		adds	r3, r2, #1
 120:../USER/main.c **** 	if(kinbwp>=256) kinbwp = 0;
 6598              		.loc 1 120 29 view .LVU2189
 6599 0b02 09F80200 		strb	r0, [r9, r2]
 120:../USER/main.c **** 	if(kinbwp>=256) kinbwp = 0;
 6600              		.loc 1 120 25 view .LVU2190
 6601 0b06 C8F80030 		str	r3, [r8]
 6602 0b0a DBE7     		b	.L399
 6603              	.LVL431:
 6604              	.L485:
 120:../USER/main.c **** 	if(kinbwp>=256) kinbwp = 0;
 6605              		.loc 1 120 25 view .LVU2191
 6606              	.LBE1369:
 6607              	.LBE1370:
 6608              	.LBE1371:
 6609              	.LBE1374:
 6610              	.LBE1413:
 212:../USER/main.c **** 	        }
 6611              		.loc 1 212 12 view .LVU2192
 6612 0b0c 039B     		ldr	r3, [sp, #12]
 6613 0b0e 0BF1010B 		add	fp, fp, #1
 6614              	.LVL432:
 212:../USER/main.c **** 	        }
 6615              		.loc 1 212 12 view .LVU2193
 6616 0b12 5B45     		cmp	r3, fp
 6617 0b14 00F0BB81 		beq	.L1145
 6618              	.LVL433:
 6619              	.L468:
 212:../USER/main.c **** 	        }
 6620              		.loc 1 212 34 is_stmt 1 view .LVU2194
 6621              	.LBB1414:
 6622              	.LBI1414:
 134:../USER/main.c **** 	volatile uint32_t gpiord;
 6623              		.loc 1 134 6 view .LVU2195
 6624              	.LBB1415:
 135:../USER/main.c **** 	if((mdgpio & 0x2000)==0)
 6625              		.loc 1 135 2 view .LVU2196
 136:../USER/main.c **** 		UART_SendChar(UART0,ch);
 6626              		.loc 1 136 2 view .LVU2197
 136:../USER/main.c **** 		UART_SendChar(UART0,ch);
 6627              		.loc 1 136 13 is_stmt 0 view .LVU2198
 6628 0b18 DAF80030 		ldr	r3, [r10]
 136:../USER/main.c **** 		UART_SendChar(UART0,ch);
 6629              		.loc 1 136 4 view .LVU2199
 6630 0b1c 9B04     		lsls	r3, r3, #18
 6631 0b1e 40F11F82 		bpl	.L1146
 139:../USER/main.c **** 		while((gpiord & 0x4000)!=0) {
 6632              		.loc 1 139 3 is_stmt 1 view .LVU2200
 139:../USER/main.c **** 		while((gpiord & 0x4000)!=0) {
 6633              		.loc 1 139 10 is_stmt 0 view .LVU2201
 6634 0b22 4FF48043 		mov	r3, #16384
 6635 0b26 1393     		str	r3, [sp, #76]
 140:../USER/main.c **** 			key_check();
 6636              		.loc 1 140 3 is_stmt 1 view .LVU2202
 140:../USER/main.c **** 			key_check();
 6637              		.loc 1 140 17 is_stmt 0 view .LVU2203
 6638 0b28 139B     		ldr	r3, [sp, #76]
 140:../USER/main.c **** 			key_check();
 6639              		.loc 1 140 8 view .LVU2204
 6640 0b2a 5E04     		lsls	r6, r3, #17
 6641 0b2c 2CD5     		bpl	.L412
 142:../USER/main.c **** 		}
 6642              		.loc 1 142 13 view .LVU2205
 6643 0b2e AA4C     		ldr	r4, .L1215
 6644 0b30 1DE0     		b	.L406
 6645              	.LVL434:
 6646              	.L1147:
 142:../USER/main.c **** 		}
 6647              		.loc 1 142 13 view .LVU2206
 6648 0b32 D8F80030 		ldr	r3, [r8]
 6649              	.L408:
 6650              	.LBB1416:
 6651              	.LBB1417:
 121:../USER/main.c **** 	//
 6652              		.loc 1 121 2 is_stmt 1 view .LVU2207
 121:../USER/main.c **** 	//
 6653              		.loc 1 121 18 view .LVU2208
 121:../USER/main.c **** 	//
 6654              		.loc 1 121 4 is_stmt 0 view .LVU2209
 6655 0b36 FF2B     		cmp	r3, #255
 6656 0b38 02DD     		ble	.L409
 121:../USER/main.c **** 	//
 6657              		.loc 1 121 25 view .LVU2210
 6658 0b3a 0023     		movs	r3, #0
 6659 0b3c C8F80070 		str	r7, [r8]
 6660              	.L409:
 123:../USER/main.c **** 	if(kinbwp>=256) kinbwp = 0;
 6661              		.loc 1 123 39 is_stmt 1 view .LVU2211
 123:../USER/main.c **** 	if(kinbwp>=256) kinbwp = 0;
 6662              		.loc 1 123 2 view .LVU2212
 123:../USER/main.c **** 	if(kinbwp>=256) kinbwp = 0;
 6663              		.loc 1 123 11 is_stmt 0 view .LVU2213
 6664 0b40 4FF04021 		mov	r1, #1073758208
 6665 0b44 4868     		ldr	r0, [r1, #4]
 6666              	.LVL435:
 123:../USER/main.c **** 	if(kinbwp>=256) kinbwp = 0;
 6667              		.loc 1 123 52 view .LVU2214
 6668 0b46 5A1C     		adds	r2, r3, #1
 123:../USER/main.c **** 	if(kinbwp>=256) kinbwp = 0;
 6669              		.loc 1 123 4 view .LVU2215
 6670 0b48 8007     		lsls	r0, r0, #30
 6671 0b4a 09D5     		bpl	.L411
 124:../USER/main.c **** 	//
 6672              		.loc 1 124 25 view .LVU2216
 6673 0b4c B2F5807F 		cmp	r2, #256
 123:../USER/main.c **** 	if(kinbwp>=256) kinbwp = 0;
 6674              		.loc 1 123 63 view .LVU2217
 6675 0b50 0868     		ldr	r0, [r1]
 124:../USER/main.c **** 	//
 6676              		.loc 1 124 25 view .LVU2218
 6677 0b52 14BF     		ite	ne
 6678 0b54 1146     		movne	r1, r2
 6679 0b56 3946     		moveq	r1, r7
 123:../USER/main.c **** 	if(kinbwp>=256) kinbwp = 0;
 6680              		.loc 1 123 56 view .LVU2219
 6681 0b58 09F80300 		strb	r0, [r9, r3]
 124:../USER/main.c **** 	//
 6682              		.loc 1 124 2 is_stmt 1 view .LVU2220
 124:../USER/main.c **** 	//
 6683              		.loc 1 124 25 is_stmt 0 view .LVU2221
 6684 0b5c C8F80010 		str	r1, [r8]
 6685              	.L411:
 124:../USER/main.c **** 	//
 6686              		.loc 1 124 25 view .LVU2222
 6687              	.LBE1417:
 6688              	.LBE1416:
 142:../USER/main.c **** 		}
 6689              		.loc 1 142 4 is_stmt 1 view .LVU2223
 142:../USER/main.c **** 		}
 6690              		.loc 1 142 13 is_stmt 0 view .LVU2224
 6691 0b60 2046     		mov	r0, r4
 6692 0b62 FFF7FEFF 		bl	GPIO_ReadBits
 6693              	.LVL436:
 142:../USER/main.c **** 		}
 6694              		.loc 1 142 11 view .LVU2225
 6695 0b66 1390     		str	r0, [sp, #76]
 140:../USER/main.c **** 			key_check();
 6696              		.loc 1 140 17 view .LVU2226
 6697 0b68 139B     		ldr	r3, [sp, #76]
 140:../USER/main.c **** 			key_check();
 6698              		.loc 1 140 8 view .LVU2227
 6699 0b6a 5D04     		lsls	r5, r3, #17
 6700 0b6c 0CD5     		bpl	.L412
 6701              	.L406:
 141:../USER/main.c **** 			gpiord = GPIO_ReadBits(GPIO0);
 6702              		.loc 1 141 4 is_stmt 1 view .LVU2228
 6703              	.LBB1419:
 6704              	.LBI1416:
 116:../USER/main.c **** 	char ch;
 6705              		.loc 1 116 6 view .LVU2229
 6706              	.LBB1418:
 117:../USER/main.c **** 	//
 6707              		.loc 1 117 2 view .LVU2230
 119:../USER/main.c **** 	if(ch!=0) kinbuf[kinbwp++] = ch;
 6708              		.loc 1 119 2 view .LVU2231
 119:../USER/main.c **** 	if(ch!=0) kinbuf[kinbwp++] = ch;
 6709              		.loc 1 119 7 is_stmt 0 view .LVU2232
 6710 0b6e FFF7FEFF 		bl	SPI_ReadData
 6711              	.LVL437:
 120:../USER/main.c **** 	if(kinbwp>=256) kinbwp = 0;
 6712              		.loc 1 120 12 is_stmt 1 view .LVU2233
 119:../USER/main.c **** 	if(ch!=0) kinbuf[kinbwp++] = ch;
 6713              		.loc 1 119 5 is_stmt 0 view .LVU2234
 6714 0b72 40B2     		sxtb	r0, r0
 6715              	.LVL438:
 120:../USER/main.c **** 	if(kinbwp>=256) kinbwp = 0;
 6716              		.loc 1 120 2 is_stmt 1 view .LVU2235
 120:../USER/main.c **** 	if(kinbwp>=256) kinbwp = 0;
 6717              		.loc 1 120 4 is_stmt 0 view .LVU2236
 6718 0b74 0028     		cmp	r0, #0
 6719 0b76 DCD0     		beq	.L1147
 120:../USER/main.c **** 	if(kinbwp>=256) kinbwp = 0;
 6720              		.loc 1 120 25 view .LVU2237
 6721 0b78 D8F80020 		ldr	r2, [r8]
 6722 0b7c 531C     		adds	r3, r2, #1
 120:../USER/main.c **** 	if(kinbwp>=256) kinbwp = 0;
 6723              		.loc 1 120 29 view .LVU2238
 6724 0b7e 09F80200 		strb	r0, [r9, r2]
 120:../USER/main.c **** 	if(kinbwp>=256) kinbwp = 0;
 6725              		.loc 1 120 25 view .LVU2239
 6726 0b82 C8F80030 		str	r3, [r8]
 6727 0b86 D6E7     		b	.L408
 6728              	.LVL439:
 6729              	.L412:
 120:../USER/main.c **** 	if(kinbwp>=256) kinbwp = 0;
 6730              		.loc 1 120 25 view .LVU2240
 6731              	.LBE1418:
 6732              	.LBE1419:
 144:../USER/main.c **** 	}
 6733              		.loc 1 144 3 is_stmt 1 view .LVU2241
 6734 0b88 2020     		movs	r0, #32
 6735 0b8a FFF7FEFF 		bl	SPI_WriteData
 6736              	.LVL440:
 6737              	.L405:
 6738              	.LBB1420:
 6739              	.LBB1421:
 123:../USER/main.c **** 	if(kinbwp>=256) kinbwp = 0;
 6740              		.loc 1 123 11 is_stmt 0 view .LVU2242
 6741 0b8e 4FF04024 		mov	r4, #1073758208
 6742 0b92 18E0     		b	.L418
 6743              	.LVL441:
 6744              	.L1149:
 123:../USER/main.c **** 	if(kinbwp>=256) kinbwp = 0;
 6745              		.loc 1 123 11 view .LVU2243
 6746 0b94 D8F80030 		ldr	r3, [r8]
 6747              	.L414:
 121:../USER/main.c **** 	//
 6748              		.loc 1 121 2 is_stmt 1 view .LVU2244
 121:../USER/main.c **** 	//
 6749              		.loc 1 121 18 view .LVU2245
 121:../USER/main.c **** 	//
 6750              		.loc 1 121 4 is_stmt 0 view .LVU2246
 6751 0b98 FF2B     		cmp	r3, #255
 6752 0b9a 02DD     		ble	.L415
 121:../USER/main.c **** 	//
 6753              		.loc 1 121 25 view .LVU2247
 6754 0b9c 0023     		movs	r3, #0
 6755 0b9e C8F80070 		str	r7, [r8]
 6756              	.L415:
 123:../USER/main.c **** 	if(kinbwp>=256) kinbwp = 0;
 6757              		.loc 1 123 39 is_stmt 1 view .LVU2248
 123:../USER/main.c **** 	if(kinbwp>=256) kinbwp = 0;
 6758              		.loc 1 123 2 view .LVU2249
 123:../USER/main.c **** 	if(kinbwp>=256) kinbwp = 0;
 6759              		.loc 1 123 11 is_stmt 0 view .LVU2250
 6760 0ba2 6168     		ldr	r1, [r4, #4]
 123:../USER/main.c **** 	if(kinbwp>=256) kinbwp = 0;
 6761              		.loc 1 123 52 view .LVU2251
 6762 0ba4 5A1C     		adds	r2, r3, #1
 123:../USER/main.c **** 	if(kinbwp>=256) kinbwp = 0;
 6763              		.loc 1 123 4 view .LVU2252
 6764 0ba6 8D07     		lsls	r5, r1, #30
 6765 0ba8 09D5     		bpl	.L417
 124:../USER/main.c **** 	//
 6766              		.loc 1 124 25 view .LVU2253
 6767 0baa B2F5807F 		cmp	r2, #256
 6768 0bae 14BF     		ite	ne
 6769 0bb0 1146     		movne	r1, r2
 6770 0bb2 3946     		moveq	r1, r7
 123:../USER/main.c **** 	if(kinbwp>=256) kinbwp = 0;
 6771              		.loc 1 123 63 view .LVU2254
 6772 0bb4 2068     		ldr	r0, [r4]
 6773              	.LVL442:
 124:../USER/main.c **** 	//
 6774              		.loc 1 124 25 view .LVU2255
 6775 0bb6 C8F80010 		str	r1, [r8]
 123:../USER/main.c **** 	if(kinbwp>=256) kinbwp = 0;
 6776              		.loc 1 123 56 view .LVU2256
 6777 0bba 09F80300 		strb	r0, [r9, r3]
 124:../USER/main.c **** 	//
 6778              		.loc 1 124 2 is_stmt 1 view .LVU2257
 6779              	.L417:
 124:../USER/main.c **** 	//
 6780              		.loc 1 124 2 is_stmt 0 view .LVU2258
 6781              	.LBE1421:
 6782              	.LBE1420:
 147:../USER/main.c **** }
 6783              		.loc 1 147 27 is_stmt 1 view .LVU2259
 147:../USER/main.c **** }
 6784              		.loc 1 147 32 is_stmt 0 view .LVU2260
 6785 0bbe 2020     		movs	r0, #32
 6786 0bc0 FFF7FEFF 		bl	disp_vram
 6787              	.LVL443:
 147:../USER/main.c **** }
 6788              		.loc 1 147 2 view .LVU2261
 6789 0bc4 60B1     		cbz	r0, .L1148
 6790              	.LVL444:
 6791              	.L418:
 147:../USER/main.c **** }
 6792              		.loc 1 147 2 is_stmt 1 view .LVU2262
 147:../USER/main.c **** }
 6793              		.loc 1 147 10 view .LVU2263
 147:../USER/main.c **** }
 6794              		.loc 1 147 14 view .LVU2264
 6795              	.LBB1423:
 6796              	.LBI1420:
 116:../USER/main.c **** 	char ch;
 6797              		.loc 1 116 6 view .LVU2265
 6798              	.LBB1422:
 117:../USER/main.c **** 	//
 6799              		.loc 1 117 2 view .LVU2266
 119:../USER/main.c **** 	if(ch!=0) kinbuf[kinbwp++] = ch;
 6800              		.loc 1 119 2 view .LVU2267
 119:../USER/main.c **** 	if(ch!=0) kinbuf[kinbwp++] = ch;
 6801              		.loc 1 119 7 is_stmt 0 view .LVU2268
 6802 0bc6 FFF7FEFF 		bl	SPI_ReadData
 6803              	.LVL445:
 120:../USER/main.c **** 	if(kinbwp>=256) kinbwp = 0;
 6804              		.loc 1 120 12 is_stmt 1 view .LVU2269
 119:../USER/main.c **** 	if(ch!=0) kinbuf[kinbwp++] = ch;
 6805              		.loc 1 119 5 is_stmt 0 view .LVU2270
 6806 0bca 40B2     		sxtb	r0, r0
 6807              	.LVL446:
 120:../USER/main.c **** 	if(kinbwp>=256) kinbwp = 0;
 6808              		.loc 1 120 2 is_stmt 1 view .LVU2271
 120:../USER/main.c **** 	if(kinbwp>=256) kinbwp = 0;
 6809              		.loc 1 120 4 is_stmt 0 view .LVU2272
 6810 0bcc 0028     		cmp	r0, #0
 6811 0bce E1D0     		beq	.L1149
 120:../USER/main.c **** 	if(kinbwp>=256) kinbwp = 0;
 6812              		.loc 1 120 25 view .LVU2273
 6813 0bd0 D8F80020 		ldr	r2, [r8]
 6814 0bd4 531C     		adds	r3, r2, #1
 120:../USER/main.c **** 	if(kinbwp>=256) kinbwp = 0;
 6815              		.loc 1 120 29 view .LVU2274
 6816 0bd6 09F80200 		strb	r0, [r9, r2]
 120:../USER/main.c **** 	if(kinbwp>=256) kinbwp = 0;
 6817              		.loc 1 120 25 view .LVU2275
 6818 0bda C8F80030 		str	r3, [r8]
 6819 0bde DBE7     		b	.L414
 6820              	.LVL447:
 6821              	.L1148:
 120:../USER/main.c **** 	if(kinbwp>=256) kinbwp = 0;
 6822              		.loc 1 120 25 view .LVU2276
 6823              	.LBE1422:
 6824              	.LBE1423:
 6825              	.LBE1415:
 6826              	.LBE1414:
 212:../USER/main.c **** 	        }
 6827              		.loc 1 212 46 is_stmt 1 discriminator 3 view .LVU2277
 212:../USER/main.c **** 	        }
 6828              		.loc 1 212 57 is_stmt 0 discriminator 3 view .LVU2278
 6829 0be0 9BF80040 		ldrb	r4, [fp]	@ zero_extendqisi2
 6830              	.LVL448:
 6831              	.LBB1425:
 6832              	.LBI1425:
 151:../USER/main.c **** void puth4(dt) int dt;{ puth2((dt >> 8) & 0xff); puth2(dt & 0xff); }
 6833              		.loc 1 151 6 is_stmt 1 discriminator 3 view .LVU2279
 6834              	.LBB1426:
 151:../USER/main.c **** void puth4(dt) int dt;{ puth2((dt >> 8) & 0xff); puth2(dt & 0xff); }
 6835              		.loc 1 151 25 discriminator 3 view .LVU2280
 6836 0be4 DAF80030 		ldr	r3, [r10]
 151:../USER/main.c **** void puth4(dt) int dt;{ puth2((dt >> 8) & 0xff); puth2(dt & 0xff); }
 6837              		.loc 1 151 34 is_stmt 0 discriminator 3 view .LVU2281
 6838 0be8 2211     		asrs	r2, r4, #4
 6839              	.LVL449:
 6840              	.LBB1427:
 6841              	.LBI1427:
 150:../USER/main.c **** void puth2(dt) int dt;{ puth((dt >> 4) & 0xf); puth(dt & 0xf); }
 6842              		.loc 1 150 6 is_stmt 1 discriminator 3 view .LVU2282
 6843              	.LBB1428:
 150:../USER/main.c **** void puth2(dt) int dt;{ puth((dt >> 4) & 0xf); puth(dt & 0xf); }
 6844              		.loc 1 150 24 discriminator 3 view .LVU2283
 150:../USER/main.c **** void puth2(dt) int dt;{ puth((dt >> 4) & 0xf); puth(dt & 0xf); }
 6845              		.loc 1 150 26 is_stmt 0 discriminator 3 view .LVU2284
 6846 0bea 092A     		cmp	r2, #9
 6847 0bec D5B2     		uxtb	r5, r2
 6848 0bee 03F40053 		and	r3, r3, #8192
 6849 0bf2 3BDC     		bgt	.L419
 150:../USER/main.c **** void puth2(dt) int dt;{ puth((dt >> 4) & 0xf); puth(dt & 0xf); }
 6850              		.loc 1 150 34 is_stmt 1 view .LVU2285
 150:../USER/main.c **** void puth2(dt) int dt;{ puth((dt >> 4) & 0xf); puth(dt & 0xf); }
 6851              		.loc 1 150 44 is_stmt 0 view .LVU2286
 6852 0bf4 05F13002 		add	r2, r5, #48
 6853              	.LVL450:
 150:../USER/main.c **** void puth2(dt) int dt;{ puth((dt >> 4) & 0xf); puth(dt & 0xf); }
 6854              		.loc 1 150 44 view .LVU2287
 6855 0bf8 0492     		str	r2, [sp, #16]
 150:../USER/main.c **** void puth2(dt) int dt;{ puth((dt >> 4) & 0xf); puth(dt & 0xf); }
 6856              		.loc 1 150 34 view .LVU2288
 6857 0bfa 56B2     		sxtb	r6, r2
 6858              	.LVL451:
 6859              	.LBB1429:
 6860              	.LBI1429:
 134:../USER/main.c **** 	volatile uint32_t gpiord;
 6861              		.loc 1 134 6 is_stmt 1 view .LVU2289
 6862              	.LBB1430:
 135:../USER/main.c **** 	if((mdgpio & 0x2000)==0)
 6863              		.loc 1 135 2 view .LVU2290
 136:../USER/main.c **** 		UART_SendChar(UART0,ch);
 6864              		.loc 1 136 2 view .LVU2291
 136:../USER/main.c **** 		UART_SendChar(UART0,ch);
 6865              		.loc 1 136 4 is_stmt 0 view .LVU2292
 6866 0bfc 002B     		cmp	r3, #0
 6867 0bfe 00F0BB81 		beq	.L1150
 139:../USER/main.c **** 		while((gpiord & 0x4000)!=0) {
 6868              		.loc 1 139 3 is_stmt 1 view .LVU2293
 139:../USER/main.c **** 		while((gpiord & 0x4000)!=0) {
 6869              		.loc 1 139 10 is_stmt 0 view .LVU2294
 6870 0c02 4FF48043 		mov	r3, #16384
 6871 0c06 1493     		str	r3, [sp, #80]
 140:../USER/main.c **** 			key_check();
 6872              		.loc 1 140 3 is_stmt 1 view .LVU2295
 140:../USER/main.c **** 			key_check();
 6873              		.loc 1 140 17 is_stmt 0 view .LVU2296
 6874 0c08 149B     		ldr	r3, [sp, #80]
 140:../USER/main.c **** 			key_check();
 6875              		.loc 1 140 8 view .LVU2297
 6876 0c0a 5804     		lsls	r0, r3, #17
 6877 0c0c 40F17A81 		bpl	.L428
 142:../USER/main.c **** 		}
 6878              		.loc 1 142 13 view .LVU2298
 6879 0c10 714D     		ldr	r5, .L1215
 6880 0c12 1EE0     		b	.L422
 6881              	.LVL452:
 6882              	.L1151:
 142:../USER/main.c **** 		}
 6883              		.loc 1 142 13 view .LVU2299
 6884 0c14 D8F80030 		ldr	r3, [r8]
 6885              	.L424:
 6886              	.LBB1431:
 6887              	.LBB1432:
 121:../USER/main.c **** 	//
 6888              		.loc 1 121 2 is_stmt 1 view .LVU2300
 121:../USER/main.c **** 	//
 6889              		.loc 1 121 18 view .LVU2301
 121:../USER/main.c **** 	//
 6890              		.loc 1 121 4 is_stmt 0 view .LVU2302
 6891 0c18 FF2B     		cmp	r3, #255
 6892 0c1a 02DD     		ble	.L425
 121:../USER/main.c **** 	//
 6893              		.loc 1 121 25 view .LVU2303
 6894 0c1c 0023     		movs	r3, #0
 6895 0c1e C8F80070 		str	r7, [r8]
 6896              	.L425:
 123:../USER/main.c **** 	if(kinbwp>=256) kinbwp = 0;
 6897              		.loc 1 123 39 is_stmt 1 view .LVU2304
 123:../USER/main.c **** 	if(kinbwp>=256) kinbwp = 0;
 6898              		.loc 1 123 2 view .LVU2305
 123:../USER/main.c **** 	if(kinbwp>=256) kinbwp = 0;
 6899              		.loc 1 123 11 is_stmt 0 view .LVU2306
 6900 0c22 4FF04021 		mov	r1, #1073758208
 6901 0c26 4868     		ldr	r0, [r1, #4]
 6902              	.LVL453:
 123:../USER/main.c **** 	if(kinbwp>=256) kinbwp = 0;
 6903              		.loc 1 123 52 view .LVU2307
 6904 0c28 5A1C     		adds	r2, r3, #1
 123:../USER/main.c **** 	if(kinbwp>=256) kinbwp = 0;
 6905              		.loc 1 123 4 view .LVU2308
 6906 0c2a 8007     		lsls	r0, r0, #30
 6907 0c2c 09D5     		bpl	.L427
 124:../USER/main.c **** 	//
 6908              		.loc 1 124 25 view .LVU2309
 6909 0c2e B2F5807F 		cmp	r2, #256
 123:../USER/main.c **** 	if(kinbwp>=256) kinbwp = 0;
 6910              		.loc 1 123 63 view .LVU2310
 6911 0c32 0868     		ldr	r0, [r1]
 124:../USER/main.c **** 	//
 6912              		.loc 1 124 25 view .LVU2311
 6913 0c34 14BF     		ite	ne
 6914 0c36 1146     		movne	r1, r2
 6915 0c38 3946     		moveq	r1, r7
 123:../USER/main.c **** 	if(kinbwp>=256) kinbwp = 0;
 6916              		.loc 1 123 56 view .LVU2312
 6917 0c3a 09F80300 		strb	r0, [r9, r3]
 124:../USER/main.c **** 	//
 6918              		.loc 1 124 2 is_stmt 1 view .LVU2313
 124:../USER/main.c **** 	//
 6919              		.loc 1 124 25 is_stmt 0 view .LVU2314
 6920 0c3e C8F80010 		str	r1, [r8]
 6921              	.L427:
 124:../USER/main.c **** 	//
 6922              		.loc 1 124 25 view .LVU2315
 6923              	.LBE1432:
 6924              	.LBE1431:
 142:../USER/main.c **** 		}
 6925              		.loc 1 142 4 is_stmt 1 view .LVU2316
 142:../USER/main.c **** 		}
 6926              		.loc 1 142 13 is_stmt 0 view .LVU2317
 6927 0c42 2846     		mov	r0, r5
 6928 0c44 FFF7FEFF 		bl	GPIO_ReadBits
 6929              	.LVL454:
 142:../USER/main.c **** 		}
 6930              		.loc 1 142 11 view .LVU2318
 6931 0c48 1490     		str	r0, [sp, #80]
 140:../USER/main.c **** 			key_check();
 6932              		.loc 1 140 17 view .LVU2319
 6933 0c4a 149B     		ldr	r3, [sp, #80]
 140:../USER/main.c **** 			key_check();
 6934              		.loc 1 140 8 view .LVU2320
 6935 0c4c 5904     		lsls	r1, r3, #17
 6936 0c4e 40F15981 		bpl	.L428
 6937              	.L422:
 141:../USER/main.c **** 			gpiord = GPIO_ReadBits(GPIO0);
 6938              		.loc 1 141 4 is_stmt 1 view .LVU2321
 6939              	.LBB1434:
 6940              	.LBI1431:
 116:../USER/main.c **** 	char ch;
 6941              		.loc 1 116 6 view .LVU2322
 6942              	.LBB1433:
 117:../USER/main.c **** 	//
 6943              		.loc 1 117 2 view .LVU2323
 119:../USER/main.c **** 	if(ch!=0) kinbuf[kinbwp++] = ch;
 6944              		.loc 1 119 2 view .LVU2324
 119:../USER/main.c **** 	if(ch!=0) kinbuf[kinbwp++] = ch;
 6945              		.loc 1 119 7 is_stmt 0 view .LVU2325
 6946 0c52 FFF7FEFF 		bl	SPI_ReadData
 6947              	.LVL455:
 120:../USER/main.c **** 	if(kinbwp>=256) kinbwp = 0;
 6948              		.loc 1 120 12 is_stmt 1 view .LVU2326
 119:../USER/main.c **** 	if(ch!=0) kinbuf[kinbwp++] = ch;
 6949              		.loc 1 119 5 is_stmt 0 view .LVU2327
 6950 0c56 40B2     		sxtb	r0, r0
 6951              	.LVL456:
 120:../USER/main.c **** 	if(kinbwp>=256) kinbwp = 0;
 6952              		.loc 1 120 2 is_stmt 1 view .LVU2328
 120:../USER/main.c **** 	if(kinbwp>=256) kinbwp = 0;
 6953              		.loc 1 120 4 is_stmt 0 view .LVU2329
 6954 0c58 0028     		cmp	r0, #0
 6955 0c5a DBD0     		beq	.L1151
 120:../USER/main.c **** 	if(kinbwp>=256) kinbwp = 0;
 6956              		.loc 1 120 25 view .LVU2330
 6957 0c5c D8F80020 		ldr	r2, [r8]
 6958 0c60 531C     		adds	r3, r2, #1
 120:../USER/main.c **** 	if(kinbwp>=256) kinbwp = 0;
 6959              		.loc 1 120 29 view .LVU2331
 6960 0c62 09F80200 		strb	r0, [r9, r2]
 120:../USER/main.c **** 	if(kinbwp>=256) kinbwp = 0;
 6961              		.loc 1 120 25 view .LVU2332
 6962 0c66 C8F80030 		str	r3, [r8]
 6963 0c6a D5E7     		b	.L424
 6964              	.LVL457:
 6965              	.L419:
 120:../USER/main.c **** 	if(kinbwp>=256) kinbwp = 0;
 6966              		.loc 1 120 25 view .LVU2333
 6967              	.LBE1433:
 6968              	.LBE1434:
 6969              	.LBE1430:
 6970              	.LBE1429:
 150:../USER/main.c **** void puth2(dt) int dt;{ puth((dt >> 4) & 0xf); puth(dt & 0xf); }
 6971              		.loc 1 150 55 is_stmt 1 view .LVU2334
 150:../USER/main.c **** void puth2(dt) int dt;{ puth((dt >> 4) & 0xf); puth(dt & 0xf); }
 6972              		.loc 1 150 65 is_stmt 0 view .LVU2335
 6973 0c6c 05F13702 		add	r2, r5, #55
 6974              	.LVL458:
 150:../USER/main.c **** void puth2(dt) int dt;{ puth((dt >> 4) & 0xf); puth(dt & 0xf); }
 6975              		.loc 1 150 65 view .LVU2336
 6976 0c70 0492     		str	r2, [sp, #16]
 150:../USER/main.c **** void puth2(dt) int dt;{ puth((dt >> 4) & 0xf); puth(dt & 0xf); }
 6977              		.loc 1 150 55 view .LVU2337
 6978 0c72 56B2     		sxtb	r6, r2
 6979              	.LVL459:
 6980              	.LBB1441:
 6981              	.LBI1441:
 134:../USER/main.c **** 	volatile uint32_t gpiord;
 6982              		.loc 1 134 6 is_stmt 1 view .LVU2338
 6983              	.LBB1442:
 135:../USER/main.c **** 	if((mdgpio & 0x2000)==0)
 6984              		.loc 1 135 2 view .LVU2339
 136:../USER/main.c **** 		UART_SendChar(UART0,ch);
 6985              		.loc 1 136 2 view .LVU2340
 136:../USER/main.c **** 		UART_SendChar(UART0,ch);
 6986              		.loc 1 136 4 is_stmt 0 view .LVU2341
 6987 0c74 002B     		cmp	r3, #0
 6988 0c76 00F08B81 		beq	.L1152
 139:../USER/main.c **** 		while((gpiord & 0x4000)!=0) {
 6989              		.loc 1 139 3 is_stmt 1 view .LVU2342
 139:../USER/main.c **** 		while((gpiord & 0x4000)!=0) {
 6990              		.loc 1 139 10 is_stmt 0 view .LVU2343
 6991 0c7a 4FF48043 		mov	r3, #16384
 6992 0c7e 1593     		str	r3, [sp, #84]
 140:../USER/main.c **** 			key_check();
 6993              		.loc 1 140 3 is_stmt 1 view .LVU2344
 140:../USER/main.c **** 			key_check();
 6994              		.loc 1 140 17 is_stmt 0 view .LVU2345
 6995 0c80 159B     		ldr	r3, [sp, #84]
 140:../USER/main.c **** 			key_check();
 6996              		.loc 1 140 8 view .LVU2346
 6997 0c82 5A04     		lsls	r2, r3, #17
 6998 0c84 2CD5     		bpl	.L445
 142:../USER/main.c **** 		}
 6999              		.loc 1 142 13 view .LVU2347
 7000 0c86 544D     		ldr	r5, .L1215
 7001 0c88 1DE0     		b	.L439
 7002              	.LVL460:
 7003              	.L1153:
 142:../USER/main.c **** 		}
 7004              		.loc 1 142 13 view .LVU2348
 7005 0c8a D8F80030 		ldr	r3, [r8]
 7006              	.L441:
 7007              	.LBB1443:
 7008              	.LBB1444:
 121:../USER/main.c **** 	//
 7009              		.loc 1 121 2 is_stmt 1 view .LVU2349
 121:../USER/main.c **** 	//
 7010              		.loc 1 121 18 view .LVU2350
 121:../USER/main.c **** 	//
 7011              		.loc 1 121 4 is_stmt 0 view .LVU2351
 7012 0c8e FF2B     		cmp	r3, #255
 7013 0c90 02DD     		ble	.L442
 121:../USER/main.c **** 	//
 7014              		.loc 1 121 25 view .LVU2352
 7015 0c92 0023     		movs	r3, #0
 7016 0c94 C8F80070 		str	r7, [r8]
 7017              	.L442:
 123:../USER/main.c **** 	if(kinbwp>=256) kinbwp = 0;
 7018              		.loc 1 123 39 is_stmt 1 view .LVU2353
 123:../USER/main.c **** 	if(kinbwp>=256) kinbwp = 0;
 7019              		.loc 1 123 2 view .LVU2354
 123:../USER/main.c **** 	if(kinbwp>=256) kinbwp = 0;
 7020              		.loc 1 123 11 is_stmt 0 view .LVU2355
 7021 0c98 4FF04021 		mov	r1, #1073758208
 7022 0c9c 4868     		ldr	r0, [r1, #4]
 7023              	.LVL461:
 123:../USER/main.c **** 	if(kinbwp>=256) kinbwp = 0;
 7024              		.loc 1 123 52 view .LVU2356
 7025 0c9e 5A1C     		adds	r2, r3, #1
 123:../USER/main.c **** 	if(kinbwp>=256) kinbwp = 0;
 7026              		.loc 1 123 4 view .LVU2357
 7027 0ca0 8007     		lsls	r0, r0, #30
 7028 0ca2 09D5     		bpl	.L444
 124:../USER/main.c **** 	//
 7029              		.loc 1 124 25 view .LVU2358
 7030 0ca4 B2F5807F 		cmp	r2, #256
 123:../USER/main.c **** 	if(kinbwp>=256) kinbwp = 0;
 7031              		.loc 1 123 63 view .LVU2359
 7032 0ca8 0868     		ldr	r0, [r1]
 124:../USER/main.c **** 	//
 7033              		.loc 1 124 25 view .LVU2360
 7034 0caa 14BF     		ite	ne
 7035 0cac 1146     		movne	r1, r2
 7036 0cae 3946     		moveq	r1, r7
 123:../USER/main.c **** 	if(kinbwp>=256) kinbwp = 0;
 7037              		.loc 1 123 56 view .LVU2361
 7038 0cb0 09F80300 		strb	r0, [r9, r3]
 124:../USER/main.c **** 	//
 7039              		.loc 1 124 2 is_stmt 1 view .LVU2362
 124:../USER/main.c **** 	//
 7040              		.loc 1 124 25 is_stmt 0 view .LVU2363
 7041 0cb4 C8F80010 		str	r1, [r8]
 7042              	.L444:
 124:../USER/main.c **** 	//
 7043              		.loc 1 124 25 view .LVU2364
 7044              	.LBE1444:
 7045              	.LBE1443:
 142:../USER/main.c **** 		}
 7046              		.loc 1 142 4 is_stmt 1 view .LVU2365
 142:../USER/main.c **** 		}
 7047              		.loc 1 142 13 is_stmt 0 view .LVU2366
 7048 0cb8 2846     		mov	r0, r5
 7049 0cba FFF7FEFF 		bl	GPIO_ReadBits
 7050              	.LVL462:
 142:../USER/main.c **** 		}
 7051              		.loc 1 142 11 view .LVU2367
 7052 0cbe 1590     		str	r0, [sp, #84]
 140:../USER/main.c **** 			key_check();
 7053              		.loc 1 140 17 view .LVU2368
 7054 0cc0 159B     		ldr	r3, [sp, #84]
 140:../USER/main.c **** 			key_check();
 7055              		.loc 1 140 8 view .LVU2369
 7056 0cc2 5B04     		lsls	r3, r3, #17
 7057 0cc4 0CD5     		bpl	.L445
 7058              	.L439:
 141:../USER/main.c **** 			gpiord = GPIO_ReadBits(GPIO0);
 7059              		.loc 1 141 4 is_stmt 1 view .LVU2370
 7060              	.LBB1446:
 7061              	.LBI1443:
 116:../USER/main.c **** 	char ch;
 7062              		.loc 1 116 6 view .LVU2371
 7063              	.LBB1445:
 117:../USER/main.c **** 	//
 7064              		.loc 1 117 2 view .LVU2372
 119:../USER/main.c **** 	if(ch!=0) kinbuf[kinbwp++] = ch;
 7065              		.loc 1 119 2 view .LVU2373
 119:../USER/main.c **** 	if(ch!=0) kinbuf[kinbwp++] = ch;
 7066              		.loc 1 119 7 is_stmt 0 view .LVU2374
 7067 0cc6 FFF7FEFF 		bl	SPI_ReadData
 7068              	.LVL463:
 120:../USER/main.c **** 	if(kinbwp>=256) kinbwp = 0;
 7069              		.loc 1 120 12 is_stmt 1 view .LVU2375
 119:../USER/main.c **** 	if(ch!=0) kinbuf[kinbwp++] = ch;
 7070              		.loc 1 119 5 is_stmt 0 view .LVU2376
 7071 0cca 40B2     		sxtb	r0, r0
 7072              	.LVL464:
 120:../USER/main.c **** 	if(kinbwp>=256) kinbwp = 0;
 7073              		.loc 1 120 2 is_stmt 1 view .LVU2377
 120:../USER/main.c **** 	if(kinbwp>=256) kinbwp = 0;
 7074              		.loc 1 120 4 is_stmt 0 view .LVU2378
 7075 0ccc 0028     		cmp	r0, #0
 7076 0cce DCD0     		beq	.L1153
 120:../USER/main.c **** 	if(kinbwp>=256) kinbwp = 0;
 7077              		.loc 1 120 25 view .LVU2379
 7078 0cd0 D8F80020 		ldr	r2, [r8]
 7079 0cd4 531C     		adds	r3, r2, #1
 120:../USER/main.c **** 	if(kinbwp>=256) kinbwp = 0;
 7080              		.loc 1 120 29 view .LVU2380
 7081 0cd6 09F80200 		strb	r0, [r9, r2]
 120:../USER/main.c **** 	if(kinbwp>=256) kinbwp = 0;
 7082              		.loc 1 120 25 view .LVU2381
 7083 0cda C8F80030 		str	r3, [r8]
 7084 0cde D6E7     		b	.L441
 7085              	.LVL465:
 7086              	.L445:
 120:../USER/main.c **** 	if(kinbwp>=256) kinbwp = 0;
 7087              		.loc 1 120 25 view .LVU2382
 7088              	.LBE1445:
 7089              	.LBE1446:
 144:../USER/main.c **** 	}
 7090              		.loc 1 144 3 is_stmt 1 view .LVU2383
 7091 0ce0 0498     		ldr	r0, [sp, #16]
 7092 0ce2 FFF7FEFF 		bl	SPI_WriteData
 7093              	.LVL466:
 7094              	.L438:
 7095              	.LBB1447:
 7096              	.LBB1448:
 123:../USER/main.c **** 	if(kinbwp>=256) kinbwp = 0;
 7097              		.loc 1 123 11 is_stmt 0 view .LVU2384
 7098 0ce6 4FF04025 		mov	r5, #1073758208
 7099 0cea 18E0     		b	.L451
 7100              	.LVL467:
 7101              	.L1154:
 123:../USER/main.c **** 	if(kinbwp>=256) kinbwp = 0;
 7102              		.loc 1 123 11 view .LVU2385
 7103 0cec D8F80030 		ldr	r3, [r8]
 7104              	.L447:
 121:../USER/main.c **** 	//
 7105              		.loc 1 121 2 is_stmt 1 view .LVU2386
 121:../USER/main.c **** 	//
 7106              		.loc 1 121 18 view .LVU2387
 121:../USER/main.c **** 	//
 7107              		.loc 1 121 4 is_stmt 0 view .LVU2388
 7108 0cf0 FF2B     		cmp	r3, #255
 7109 0cf2 02DD     		ble	.L448
 121:../USER/main.c **** 	//
 7110              		.loc 1 121 25 view .LVU2389
 7111 0cf4 0023     		movs	r3, #0
 7112 0cf6 C8F80070 		str	r7, [r8]
 7113              	.L448:
 123:../USER/main.c **** 	if(kinbwp>=256) kinbwp = 0;
 7114              		.loc 1 123 39 is_stmt 1 view .LVU2390
 123:../USER/main.c **** 	if(kinbwp>=256) kinbwp = 0;
 7115              		.loc 1 123 2 view .LVU2391
 123:../USER/main.c **** 	if(kinbwp>=256) kinbwp = 0;
 7116              		.loc 1 123 11 is_stmt 0 view .LVU2392
 7117 0cfa 6968     		ldr	r1, [r5, #4]
 123:../USER/main.c **** 	if(kinbwp>=256) kinbwp = 0;
 7118              		.loc 1 123 52 view .LVU2393
 7119 0cfc 5A1C     		adds	r2, r3, #1
 123:../USER/main.c **** 	if(kinbwp>=256) kinbwp = 0;
 7120              		.loc 1 123 4 view .LVU2394
 7121 0cfe 8807     		lsls	r0, r1, #30
 7122              	.LVL468:
 123:../USER/main.c **** 	if(kinbwp>=256) kinbwp = 0;
 7123              		.loc 1 123 4 view .LVU2395
 7124 0d00 09D5     		bpl	.L450
 124:../USER/main.c **** 	//
 7125              		.loc 1 124 25 view .LVU2396
 7126 0d02 B2F5807F 		cmp	r2, #256
 7127 0d06 14BF     		ite	ne
 7128 0d08 1146     		movne	r1, r2
 7129 0d0a 3946     		moveq	r1, r7
 123:../USER/main.c **** 	if(kinbwp>=256) kinbwp = 0;
 7130              		.loc 1 123 63 view .LVU2397
 7131 0d0c 2868     		ldr	r0, [r5]
 124:../USER/main.c **** 	//
 7132              		.loc 1 124 25 view .LVU2398
 7133 0d0e C8F80010 		str	r1, [r8]
 123:../USER/main.c **** 	if(kinbwp>=256) kinbwp = 0;
 7134              		.loc 1 123 56 view .LVU2399
 7135 0d12 09F80300 		strb	r0, [r9, r3]
 124:../USER/main.c **** 	//
 7136              		.loc 1 124 2 is_stmt 1 view .LVU2400
 7137              	.L450:
 124:../USER/main.c **** 	//
 7138              		.loc 1 124 2 is_stmt 0 view .LVU2401
 7139              	.LBE1448:
 7140              	.LBE1447:
 147:../USER/main.c **** }
 7141              		.loc 1 147 27 is_stmt 1 view .LVU2402
 147:../USER/main.c **** }
 7142              		.loc 1 147 32 is_stmt 0 view .LVU2403
 7143 0d16 3046     		mov	r0, r6
 7144 0d18 FFF7FEFF 		bl	disp_vram
 7145              	.LVL469:
 147:../USER/main.c **** }
 7146              		.loc 1 147 2 view .LVU2404
 7147 0d1c 60B1     		cbz	r0, .L452
 7148              	.LVL470:
 7149              	.L451:
 147:../USER/main.c **** }
 7150              		.loc 1 147 2 is_stmt 1 view .LVU2405
 147:../USER/main.c **** }
 7151              		.loc 1 147 10 view .LVU2406
 147:../USER/main.c **** }
 7152              		.loc 1 147 14 view .LVU2407
 7153              	.LBB1450:
 7154              	.LBI1447:
 116:../USER/main.c **** 	char ch;
 7155              		.loc 1 116 6 view .LVU2408
 7156              	.LBB1449:
 117:../USER/main.c **** 	//
 7157              		.loc 1 117 2 view .LVU2409
 119:../USER/main.c **** 	if(ch!=0) kinbuf[kinbwp++] = ch;
 7158              		.loc 1 119 2 view .LVU2410
 119:../USER/main.c **** 	if(ch!=0) kinbuf[kinbwp++] = ch;
 7159              		.loc 1 119 7 is_stmt 0 view .LVU2411
 7160 0d1e FFF7FEFF 		bl	SPI_ReadData
 7161              	.LVL471:
 120:../USER/main.c **** 	if(kinbwp>=256) kinbwp = 0;
 7162              		.loc 1 120 12 is_stmt 1 view .LVU2412
 119:../USER/main.c **** 	if(ch!=0) kinbuf[kinbwp++] = ch;
 7163              		.loc 1 119 5 is_stmt 0 view .LVU2413
 7164 0d22 40B2     		sxtb	r0, r0
 7165              	.LVL472:
 120:../USER/main.c **** 	if(kinbwp>=256) kinbwp = 0;
 7166              		.loc 1 120 2 is_stmt 1 view .LVU2414
 120:../USER/main.c **** 	if(kinbwp>=256) kinbwp = 0;
 7167              		.loc 1 120 4 is_stmt 0 view .LVU2415
 7168 0d24 0028     		cmp	r0, #0
 7169 0d26 E1D0     		beq	.L1154
 120:../USER/main.c **** 	if(kinbwp>=256) kinbwp = 0;
 7170              		.loc 1 120 25 view .LVU2416
 7171 0d28 D8F80020 		ldr	r2, [r8]
 7172 0d2c 531C     		adds	r3, r2, #1
 120:../USER/main.c **** 	if(kinbwp>=256) kinbwp = 0;
 7173              		.loc 1 120 29 view .LVU2417
 7174 0d2e 09F80200 		strb	r0, [r9, r2]
 120:../USER/main.c **** 	if(kinbwp>=256) kinbwp = 0;
 7175              		.loc 1 120 25 view .LVU2418
 7176 0d32 C8F80030 		str	r3, [r8]
 7177 0d36 DBE7     		b	.L447
 7178              	.LVL473:
 7179              	.L452:
 120:../USER/main.c **** 	if(kinbwp>=256) kinbwp = 0;
 7180              		.loc 1 120 25 view .LVU2419
 7181              	.LBE1449:
 7182              	.LBE1450:
 7183              	.LBE1442:
 7184              	.LBE1441:
 7185              	.LBE1428:
 7186              	.LBE1427:
 151:../USER/main.c **** void puth4(dt) int dt;{ puth2((dt >> 8) & 0xff); puth2(dt & 0xff); }
 7187              		.loc 1 151 48 is_stmt 1 view .LVU2420
 7188 0d38 DAF80030 		ldr	r3, [r10]
 7189 0d3c 04F00F04 		and	r4, r4, #15
 7190              	.LVL474:
 7191              	.LBB1458:
 7192              	.LBI1458:
 150:../USER/main.c **** void puth2(dt) int dt;{ puth((dt >> 4) & 0xf); puth(dt & 0xf); }
 7193              		.loc 1 150 6 view .LVU2421
 7194              	.LBB1459:
 150:../USER/main.c **** void puth2(dt) int dt;{ puth((dt >> 4) & 0xf); puth(dt & 0xf); }
 7195              		.loc 1 150 24 view .LVU2422
 150:../USER/main.c **** void puth2(dt) int dt;{ puth((dt >> 4) & 0xf); puth(dt & 0xf); }
 7196              		.loc 1 150 26 is_stmt 0 view .LVU2423
 7197 0d40 092C     		cmp	r4, #9
 7198 0d42 03F40053 		and	r3, r3, #8192
 7199 0d46 39D8     		bhi	.L1155
 150:../USER/main.c **** void puth2(dt) int dt;{ puth((dt >> 4) & 0xf); puth(dt & 0xf); }
 7200              		.loc 1 150 34 is_stmt 1 view .LVU2424
 150:../USER/main.c **** void puth2(dt) int dt;{ puth((dt >> 4) & 0xf); puth(dt & 0xf); }
 7201              		.loc 1 150 44 is_stmt 0 view .LVU2425
 7202 0d48 3034     		adds	r4, r4, #48
 7203              	.LVL475:
 150:../USER/main.c **** void puth2(dt) int dt;{ puth((dt >> 4) & 0xf); puth(dt & 0xf); }
 7204              		.loc 1 150 34 view .LVU2426
 7205 0d4a 65B2     		sxtb	r5, r4
 7206              	.LVL476:
 7207              	.LBB1460:
 7208              	.LBI1460:
 134:../USER/main.c **** 	volatile uint32_t gpiord;
 7209              		.loc 1 134 6 is_stmt 1 view .LVU2427
 7210              	.LBB1461:
 135:../USER/main.c **** 	if((mdgpio & 0x2000)==0)
 7211              		.loc 1 135 2 view .LVU2428
 136:../USER/main.c **** 		UART_SendChar(UART0,ch);
 7212              		.loc 1 136 2 view .LVU2429
 136:../USER/main.c **** 		UART_SendChar(UART0,ch);
 7213              		.loc 1 136 4 is_stmt 0 view .LVU2430
 7214 0d4c 002B     		cmp	r3, #0
 7215 0d4e 00F00D81 		beq	.L1156
 139:../USER/main.c **** 		while((gpiord & 0x4000)!=0) {
 7216              		.loc 1 139 3 is_stmt 1 view .LVU2431
 139:../USER/main.c **** 		while((gpiord & 0x4000)!=0) {
 7217              		.loc 1 139 10 is_stmt 0 view .LVU2432
 7218 0d52 4FF48043 		mov	r3, #16384
 7219 0d56 1693     		str	r3, [sp, #88]
 140:../USER/main.c **** 			key_check();
 7220              		.loc 1 140 3 is_stmt 1 view .LVU2433
 140:../USER/main.c **** 			key_check();
 7221              		.loc 1 140 17 is_stmt 0 view .LVU2434
 7222 0d58 169B     		ldr	r3, [sp, #88]
 140:../USER/main.c **** 			key_check();
 7223              		.loc 1 140 8 view .LVU2435
 7224 0d5a 5804     		lsls	r0, r3, #17
 7225 0d5c 40F1A480 		bpl	.L461
 142:../USER/main.c **** 		}
 7226              		.loc 1 142 13 view .LVU2436
 7227 0d60 1D4E     		ldr	r6, .L1215
 7228 0d62 1EE0     		b	.L455
 7229              	.LVL477:
 7230              	.L1157:
 142:../USER/main.c **** 		}
 7231              		.loc 1 142 13 view .LVU2437
 7232 0d64 D8F80030 		ldr	r3, [r8]
 7233              	.L457:
 7234              	.LBB1462:
 7235              	.LBB1463:
 121:../USER/main.c **** 	//
 7236              		.loc 1 121 2 is_stmt 1 view .LVU2438
 121:../USER/main.c **** 	//
 7237              		.loc 1 121 18 view .LVU2439
 121:../USER/main.c **** 	//
 7238              		.loc 1 121 4 is_stmt 0 view .LVU2440
 7239 0d68 FF2B     		cmp	r3, #255
 7240 0d6a 02DD     		ble	.L458
 121:../USER/main.c **** 	//
 7241              		.loc 1 121 25 view .LVU2441
 7242 0d6c 0023     		movs	r3, #0
 7243 0d6e C8F80070 		str	r7, [r8]
 7244              	.L458:
 123:../USER/main.c **** 	if(kinbwp>=256) kinbwp = 0;
 7245              		.loc 1 123 39 is_stmt 1 view .LVU2442
 123:../USER/main.c **** 	if(kinbwp>=256) kinbwp = 0;
 7246              		.loc 1 123 2 view .LVU2443
 123:../USER/main.c **** 	if(kinbwp>=256) kinbwp = 0;
 7247              		.loc 1 123 11 is_stmt 0 view .LVU2444
 7248 0d72 4FF04021 		mov	r1, #1073758208
 7249 0d76 4868     		ldr	r0, [r1, #4]
 7250              	.LVL478:
 123:../USER/main.c **** 	if(kinbwp>=256) kinbwp = 0;
 7251              		.loc 1 123 52 view .LVU2445
 7252 0d78 5A1C     		adds	r2, r3, #1
 123:../USER/main.c **** 	if(kinbwp>=256) kinbwp = 0;
 7253              		.loc 1 123 4 view .LVU2446
 7254 0d7a 8007     		lsls	r0, r0, #30
 7255 0d7c 09D5     		bpl	.L460
 124:../USER/main.c **** 	//
 7256              		.loc 1 124 25 view .LVU2447
 7257 0d7e B2F5807F 		cmp	r2, #256
 123:../USER/main.c **** 	if(kinbwp>=256) kinbwp = 0;
 7258              		.loc 1 123 63 view .LVU2448
 7259 0d82 0868     		ldr	r0, [r1]
 124:../USER/main.c **** 	//
 7260              		.loc 1 124 25 view .LVU2449
 7261 0d84 14BF     		ite	ne
 7262 0d86 1146     		movne	r1, r2
 7263 0d88 3946     		moveq	r1, r7
 123:../USER/main.c **** 	if(kinbwp>=256) kinbwp = 0;
 7264              		.loc 1 123 56 view .LVU2450
 7265 0d8a 09F80300 		strb	r0, [r9, r3]
 124:../USER/main.c **** 	//
 7266              		.loc 1 124 2 is_stmt 1 view .LVU2451
 124:../USER/main.c **** 	//
 7267              		.loc 1 124 25 is_stmt 0 view .LVU2452
 7268 0d8e C8F80010 		str	r1, [r8]
 7269              	.L460:
 124:../USER/main.c **** 	//
 7270              		.loc 1 124 25 view .LVU2453
 7271              	.LBE1463:
 7272              	.LBE1462:
 142:../USER/main.c **** 		}
 7273              		.loc 1 142 4 is_stmt 1 view .LVU2454
 142:../USER/main.c **** 		}
 7274              		.loc 1 142 13 is_stmt 0 view .LVU2455
 7275 0d92 3046     		mov	r0, r6
 7276 0d94 FFF7FEFF 		bl	GPIO_ReadBits
 7277              	.LVL479:
 142:../USER/main.c **** 		}
 7278              		.loc 1 142 11 view .LVU2456
 7279 0d98 1690     		str	r0, [sp, #88]
 140:../USER/main.c **** 			key_check();
 7280              		.loc 1 140 17 view .LVU2457
 7281 0d9a 169B     		ldr	r3, [sp, #88]
 140:../USER/main.c **** 			key_check();
 7282              		.loc 1 140 8 view .LVU2458
 7283 0d9c 5904     		lsls	r1, r3, #17
 7284 0d9e 40F18380 		bpl	.L461
 7285              	.L455:
 141:../USER/main.c **** 			gpiord = GPIO_ReadBits(GPIO0);
 7286              		.loc 1 141 4 is_stmt 1 view .LVU2459
 7287              	.LBB1465:
 7288              	.LBI1462:
 116:../USER/main.c **** 	char ch;
 7289              		.loc 1 116 6 view .LVU2460
 7290              	.LBB1464:
 117:../USER/main.c **** 	//
 7291              		.loc 1 117 2 view .LVU2461
 119:../USER/main.c **** 	if(ch!=0) kinbuf[kinbwp++] = ch;
 7292              		.loc 1 119 2 view .LVU2462
 119:../USER/main.c **** 	if(ch!=0) kinbuf[kinbwp++] = ch;
 7293              		.loc 1 119 7 is_stmt 0 view .LVU2463
 7294 0da2 FFF7FEFF 		bl	SPI_ReadData
 7295              	.LVL480:
 120:../USER/main.c **** 	if(kinbwp>=256) kinbwp = 0;
 7296              		.loc 1 120 12 is_stmt 1 view .LVU2464
 119:../USER/main.c **** 	if(ch!=0) kinbuf[kinbwp++] = ch;
 7297              		.loc 1 119 5 is_stmt 0 view .LVU2465
 7298 0da6 40B2     		sxtb	r0, r0
 7299              	.LVL481:
 120:../USER/main.c **** 	if(kinbwp>=256) kinbwp = 0;
 7300              		.loc 1 120 2 is_stmt 1 view .LVU2466
 120:../USER/main.c **** 	if(kinbwp>=256) kinbwp = 0;
 7301              		.loc 1 120 4 is_stmt 0 view .LVU2467
 7302 0da8 0028     		cmp	r0, #0
 7303 0daa DBD0     		beq	.L1157
 120:../USER/main.c **** 	if(kinbwp>=256) kinbwp = 0;
 7304              		.loc 1 120 25 view .LVU2468
 7305 0dac D8F80020 		ldr	r2, [r8]
 7306 0db0 531C     		adds	r3, r2, #1
 120:../USER/main.c **** 	if(kinbwp>=256) kinbwp = 0;
 7307              		.loc 1 120 29 view .LVU2469
 7308 0db2 09F80200 		strb	r0, [r9, r2]
 120:../USER/main.c **** 	if(kinbwp>=256) kinbwp = 0;
 7309              		.loc 1 120 25 view .LVU2470
 7310 0db6 C8F80030 		str	r3, [r8]
 7311 0dba D5E7     		b	.L457
 7312              	.LVL482:
 7313              	.L1155:
 120:../USER/main.c **** 	if(kinbwp>=256) kinbwp = 0;
 7314              		.loc 1 120 25 view .LVU2471
 7315              	.LBE1464:
 7316              	.LBE1465:
 7317              	.LBE1461:
 7318              	.LBE1460:
 150:../USER/main.c **** void puth2(dt) int dt;{ puth((dt >> 4) & 0xf); puth(dt & 0xf); }
 7319              		.loc 1 150 55 is_stmt 1 view .LVU2472
 150:../USER/main.c **** void puth2(dt) int dt;{ puth((dt >> 4) & 0xf); puth(dt & 0xf); }
 7320              		.loc 1 150 65 is_stmt 0 view .LVU2473
 7321 0dbc 3734     		adds	r4, r4, #55
 7322              	.LVL483:
 150:../USER/main.c **** void puth2(dt) int dt;{ puth((dt >> 4) & 0xf); puth(dt & 0xf); }
 7323              		.loc 1 150 55 view .LVU2474
 7324 0dbe 65B2     		sxtb	r5, r4
 7325              	.LVL484:
 7326              	.LBB1472:
 7327              	.LBI1472:
 134:../USER/main.c **** 	volatile uint32_t gpiord;
 7328              		.loc 1 134 6 is_stmt 1 view .LVU2475
 7329              	.LBB1473:
 135:../USER/main.c **** 	if((mdgpio & 0x2000)==0)
 7330              		.loc 1 135 2 view .LVU2476
 136:../USER/main.c **** 		UART_SendChar(UART0,ch);
 7331              		.loc 1 136 2 view .LVU2477
 136:../USER/main.c **** 		UART_SendChar(UART0,ch);
 7332              		.loc 1 136 4 is_stmt 0 view .LVU2478
 7333 0dc0 002B     		cmp	r3, #0
 7334 0dc2 00F0DF80 		beq	.L1158
 139:../USER/main.c **** 		while((gpiord & 0x4000)!=0) {
 7335              		.loc 1 139 3 is_stmt 1 view .LVU2479
 139:../USER/main.c **** 		while((gpiord & 0x4000)!=0) {
 7336              		.loc 1 139 10 is_stmt 0 view .LVU2480
 7337 0dc6 4FF48043 		mov	r3, #16384
 7338 0dca 1793     		str	r3, [sp, #92]
 140:../USER/main.c **** 			key_check();
 7339              		.loc 1 140 3 is_stmt 1 view .LVU2481
 140:../USER/main.c **** 			key_check();
 7340              		.loc 1 140 17 is_stmt 0 view .LVU2482
 7341 0dcc 179B     		ldr	r3, [sp, #92]
 140:../USER/main.c **** 			key_check();
 7342              		.loc 1 140 8 view .LVU2483
 7343 0dce 5A04     		lsls	r2, r3, #17
 7344 0dd0 2FD5     		bpl	.L478
 142:../USER/main.c **** 		}
 7345              		.loc 1 142 13 view .LVU2484
 7346 0dd2 014E     		ldr	r6, .L1215
 7347 0dd4 20E0     		b	.L472
 7348              	.L1216:
 7349 0dd6 00BF     		.align	2
 7350              	.L1215:
 7351 0dd8 00000140 		.word	1073807360
 7352              	.LVL485:
 7353              	.L1159:
 142:../USER/main.c **** 		}
 7354              		.loc 1 142 13 view .LVU2485
 7355 0ddc D8F80030 		ldr	r3, [r8]
 7356              	.L474:
 7357              	.LBB1474:
 7358              	.LBB1475:
 121:../USER/main.c **** 	//
 7359              		.loc 1 121 2 is_stmt 1 view .LVU2486
 121:../USER/main.c **** 	//
 7360              		.loc 1 121 18 view .LVU2487
 121:../USER/main.c **** 	//
 7361              		.loc 1 121 4 is_stmt 0 view .LVU2488
 7362 0de0 FF2B     		cmp	r3, #255
 7363 0de2 02DD     		ble	.L475
 121:../USER/main.c **** 	//
 7364              		.loc 1 121 25 view .LVU2489
 7365 0de4 0023     		movs	r3, #0
 7366 0de6 C8F80070 		str	r7, [r8]
 7367              	.L475:
 123:../USER/main.c **** 	if(kinbwp>=256) kinbwp = 0;
 7368              		.loc 1 123 39 is_stmt 1 view .LVU2490
 123:../USER/main.c **** 	if(kinbwp>=256) kinbwp = 0;
 7369              		.loc 1 123 2 view .LVU2491
 123:../USER/main.c **** 	if(kinbwp>=256) kinbwp = 0;
 7370              		.loc 1 123 11 is_stmt 0 view .LVU2492
 7371 0dea 4FF04021 		mov	r1, #1073758208
 7372 0dee 4868     		ldr	r0, [r1, #4]
 7373              	.LVL486:
 123:../USER/main.c **** 	if(kinbwp>=256) kinbwp = 0;
 7374              		.loc 1 123 52 view .LVU2493
 7375 0df0 5A1C     		adds	r2, r3, #1
 123:../USER/main.c **** 	if(kinbwp>=256) kinbwp = 0;
 7376              		.loc 1 123 4 view .LVU2494
 7377 0df2 8007     		lsls	r0, r0, #30
 7378 0df4 09D5     		bpl	.L477
 124:../USER/main.c **** 	//
 7379              		.loc 1 124 25 view .LVU2495
 7380 0df6 B2F5807F 		cmp	r2, #256
 123:../USER/main.c **** 	if(kinbwp>=256) kinbwp = 0;
 7381              		.loc 1 123 63 view .LVU2496
 7382 0dfa 0868     		ldr	r0, [r1]
 124:../USER/main.c **** 	//
 7383              		.loc 1 124 25 view .LVU2497
 7384 0dfc 14BF     		ite	ne
 7385 0dfe 1146     		movne	r1, r2
 7386 0e00 3946     		moveq	r1, r7
 123:../USER/main.c **** 	if(kinbwp>=256) kinbwp = 0;
 7387              		.loc 1 123 56 view .LVU2498
 7388 0e02 09F80300 		strb	r0, [r9, r3]
 124:../USER/main.c **** 	//
 7389              		.loc 1 124 2 is_stmt 1 view .LVU2499
 124:../USER/main.c **** 	//
 7390              		.loc 1 124 25 is_stmt 0 view .LVU2500
 7391 0e06 C8F80010 		str	r1, [r8]
 7392              	.L477:
 124:../USER/main.c **** 	//
 7393              		.loc 1 124 25 view .LVU2501
 7394              	.LBE1475:
 7395              	.LBE1474:
 142:../USER/main.c **** 		}
 7396              		.loc 1 142 4 is_stmt 1 view .LVU2502
 142:../USER/main.c **** 		}
 7397              		.loc 1 142 13 is_stmt 0 view .LVU2503
 7398 0e0a 3046     		mov	r0, r6
 7399 0e0c FFF7FEFF 		bl	GPIO_ReadBits
 7400              	.LVL487:
 142:../USER/main.c **** 		}
 7401              		.loc 1 142 11 view .LVU2504
 7402 0e10 1790     		str	r0, [sp, #92]
 140:../USER/main.c **** 			key_check();
 7403              		.loc 1 140 17 view .LVU2505
 7404 0e12 179B     		ldr	r3, [sp, #92]
 140:../USER/main.c **** 			key_check();
 7405              		.loc 1 140 8 view .LVU2506
 7406 0e14 5B04     		lsls	r3, r3, #17
 7407 0e16 0CD5     		bpl	.L478
 7408              	.L472:
 141:../USER/main.c **** 			gpiord = GPIO_ReadBits(GPIO0);
 7409              		.loc 1 141 4 is_stmt 1 view .LVU2507
 7410              	.LBB1477:
 7411              	.LBI1474:
 116:../USER/main.c **** 	char ch;
 7412              		.loc 1 116 6 view .LVU2508
 7413              	.LBB1476:
 117:../USER/main.c **** 	//
 7414              		.loc 1 117 2 view .LVU2509
 119:../USER/main.c **** 	if(ch!=0) kinbuf[kinbwp++] = ch;
 7415              		.loc 1 119 2 view .LVU2510
 119:../USER/main.c **** 	if(ch!=0) kinbuf[kinbwp++] = ch;
 7416              		.loc 1 119 7 is_stmt 0 view .LVU2511
 7417 0e18 FFF7FEFF 		bl	SPI_ReadData
 7418              	.LVL488:
 120:../USER/main.c **** 	if(kinbwp>=256) kinbwp = 0;
 7419              		.loc 1 120 12 is_stmt 1 view .LVU2512
 119:../USER/main.c **** 	if(ch!=0) kinbuf[kinbwp++] = ch;
 7420              		.loc 1 119 5 is_stmt 0 view .LVU2513
 7421 0e1c 40B2     		sxtb	r0, r0
 7422              	.LVL489:
 120:../USER/main.c **** 	if(kinbwp>=256) kinbwp = 0;
 7423              		.loc 1 120 2 is_stmt 1 view .LVU2514
 120:../USER/main.c **** 	if(kinbwp>=256) kinbwp = 0;
 7424              		.loc 1 120 4 is_stmt 0 view .LVU2515
 7425 0e1e 0028     		cmp	r0, #0
 7426 0e20 DCD0     		beq	.L1159
 120:../USER/main.c **** 	if(kinbwp>=256) kinbwp = 0;
 7427              		.loc 1 120 25 view .LVU2516
 7428 0e22 D8F80020 		ldr	r2, [r8]
 7429 0e26 531C     		adds	r3, r2, #1
 120:../USER/main.c **** 	if(kinbwp>=256) kinbwp = 0;
 7430              		.loc 1 120 29 view .LVU2517
 7431 0e28 09F80200 		strb	r0, [r9, r2]
 120:../USER/main.c **** 	if(kinbwp>=256) kinbwp = 0;
 7432              		.loc 1 120 25 view .LVU2518
 7433 0e2c C8F80030 		str	r3, [r8]
 7434 0e30 D6E7     		b	.L474
 7435              	.LVL490:
 7436              	.L478:
 120:../USER/main.c **** 	if(kinbwp>=256) kinbwp = 0;
 7437              		.loc 1 120 25 view .LVU2519
 7438              	.LBE1476:
 7439              	.LBE1477:
 144:../USER/main.c **** 	}
 7440              		.loc 1 144 3 is_stmt 1 view .LVU2520
 7441 0e32 2046     		mov	r0, r4
 7442 0e34 FFF7FEFF 		bl	SPI_WriteData
 7443              	.LVL491:
 7444              	.L471:
 7445              	.LBB1478:
 7446              	.LBB1479:
 123:../USER/main.c **** 	if(kinbwp>=256) kinbwp = 0;
 7447              		.loc 1 123 11 is_stmt 0 view .LVU2521
 7448 0e38 4FF04024 		mov	r4, #1073758208
 7449              	.LVL492:
 123:../USER/main.c **** 	if(kinbwp>=256) kinbwp = 0;
 7450              		.loc 1 123 11 view .LVU2522
 7451 0e3c 1AE0     		b	.L484
 7452              	.LVL493:
 7453              	.L1160:
 123:../USER/main.c **** 	if(kinbwp>=256) kinbwp = 0;
 7454              		.loc 1 123 11 view .LVU2523
 7455 0e3e D8F80030 		ldr	r3, [r8]
 7456              	.L480:
 121:../USER/main.c **** 	//
 7457              		.loc 1 121 2 is_stmt 1 view .LVU2524
 121:../USER/main.c **** 	//
 7458              		.loc 1 121 18 view .LVU2525
 121:../USER/main.c **** 	//
 7459              		.loc 1 121 4 is_stmt 0 view .LVU2526
 7460 0e42 FF2B     		cmp	r3, #255
 7461 0e44 02DD     		ble	.L481
 121:../USER/main.c **** 	//
 7462              		.loc 1 121 25 view .LVU2527
 7463 0e46 0023     		movs	r3, #0
 7464 0e48 C8F80070 		str	r7, [r8]
 7465              	.L481:
 123:../USER/main.c **** 	if(kinbwp>=256) kinbwp = 0;
 7466              		.loc 1 123 39 is_stmt 1 view .LVU2528
 123:../USER/main.c **** 	if(kinbwp>=256) kinbwp = 0;
 7467              		.loc 1 123 2 view .LVU2529
 123:../USER/main.c **** 	if(kinbwp>=256) kinbwp = 0;
 7468              		.loc 1 123 11 is_stmt 0 view .LVU2530
 7469 0e4c 6168     		ldr	r1, [r4, #4]
 123:../USER/main.c **** 	if(kinbwp>=256) kinbwp = 0;
 7470              		.loc 1 123 52 view .LVU2531
 7471 0e4e 5A1C     		adds	r2, r3, #1
 123:../USER/main.c **** 	if(kinbwp>=256) kinbwp = 0;
 7472              		.loc 1 123 4 view .LVU2532
 7473 0e50 8E07     		lsls	r6, r1, #30
 7474 0e52 09D5     		bpl	.L483
 124:../USER/main.c **** 	//
 7475              		.loc 1 124 25 view .LVU2533
 7476 0e54 B2F5807F 		cmp	r2, #256
 7477 0e58 14BF     		ite	ne
 7478 0e5a 1146     		movne	r1, r2
 7479 0e5c 3946     		moveq	r1, r7
 123:../USER/main.c **** 	if(kinbwp>=256) kinbwp = 0;
 7480              		.loc 1 123 63 view .LVU2534
 7481 0e5e 2068     		ldr	r0, [r4]
 7482              	.LVL494:
 124:../USER/main.c **** 	//
 7483              		.loc 1 124 25 view .LVU2535
 7484 0e60 C8F80010 		str	r1, [r8]
 123:../USER/main.c **** 	if(kinbwp>=256) kinbwp = 0;
 7485              		.loc 1 123 56 view .LVU2536
 7486 0e64 09F80300 		strb	r0, [r9, r3]
 124:../USER/main.c **** 	//
 7487              		.loc 1 124 2 is_stmt 1 view .LVU2537
 7488              	.L483:
 124:../USER/main.c **** 	//
 7489              		.loc 1 124 2 is_stmt 0 view .LVU2538
 7490              	.LBE1479:
 7491              	.LBE1478:
 147:../USER/main.c **** }
 7492              		.loc 1 147 27 is_stmt 1 view .LVU2539
 147:../USER/main.c **** }
 7493              		.loc 1 147 32 is_stmt 0 view .LVU2540
 7494 0e68 2846     		mov	r0, r5
 7495 0e6a FFF7FEFF 		bl	disp_vram
 7496              	.LVL495:
 147:../USER/main.c **** }
 7497              		.loc 1 147 2 view .LVU2541
 7498 0e6e 0028     		cmp	r0, #0
 7499 0e70 3FF44CAE 		beq	.L485
 7500              	.LVL496:
 7501              	.L484:
 147:../USER/main.c **** }
 7502              		.loc 1 147 2 is_stmt 1 view .LVU2542
 147:../USER/main.c **** }
 7503              		.loc 1 147 10 view .LVU2543
 147:../USER/main.c **** }
 7504              		.loc 1 147 14 view .LVU2544
 7505              	.LBB1481:
 7506              	.LBI1478:
 116:../USER/main.c **** 	char ch;
 7507              		.loc 1 116 6 view .LVU2545
 7508              	.LBB1480:
 117:../USER/main.c **** 	//
 7509              		.loc 1 117 2 view .LVU2546
 119:../USER/main.c **** 	if(ch!=0) kinbuf[kinbwp++] = ch;
 7510              		.loc 1 119 2 view .LVU2547
 119:../USER/main.c **** 	if(ch!=0) kinbuf[kinbwp++] = ch;
 7511              		.loc 1 119 7 is_stmt 0 view .LVU2548
 7512 0e74 FFF7FEFF 		bl	SPI_ReadData
 7513              	.LVL497:
 120:../USER/main.c **** 	if(kinbwp>=256) kinbwp = 0;
 7514              		.loc 1 120 12 is_stmt 1 view .LVU2549
 119:../USER/main.c **** 	if(ch!=0) kinbuf[kinbwp++] = ch;
 7515              		.loc 1 119 5 is_stmt 0 view .LVU2550
 7516 0e78 40B2     		sxtb	r0, r0
 7517              	.LVL498:
 120:../USER/main.c **** 	if(kinbwp>=256) kinbwp = 0;
 7518              		.loc 1 120 2 is_stmt 1 view .LVU2551
 120:../USER/main.c **** 	if(kinbwp>=256) kinbwp = 0;
 7519              		.loc 1 120 4 is_stmt 0 view .LVU2552
 7520 0e7a 0028     		cmp	r0, #0
 7521 0e7c DFD0     		beq	.L1160
 120:../USER/main.c **** 	if(kinbwp>=256) kinbwp = 0;
 7522              		.loc 1 120 25 view .LVU2553
 7523 0e7e D8F80020 		ldr	r2, [r8]
 7524 0e82 531C     		adds	r3, r2, #1
 120:../USER/main.c **** 	if(kinbwp>=256) kinbwp = 0;
 7525              		.loc 1 120 29 view .LVU2554
 7526 0e84 09F80200 		strb	r0, [r9, r2]
 120:../USER/main.c **** 	if(kinbwp>=256) kinbwp = 0;
 7527              		.loc 1 120 25 view .LVU2555
 7528 0e88 C8F80030 		str	r3, [r8]
 7529 0e8c D9E7     		b	.L480
 7530              	.LVL499:
 7531              	.L1145:
 120:../USER/main.c **** 	if(kinbwp>=256) kinbwp = 0;
 7532              		.loc 1 120 25 view .LVU2556
 7533 0e8e 1A46     		mov	r2, r3
 7534 0e90 059B     		ldr	r3, [sp, #20]
 7535 0e92 1032     		adds	r2, r2, #16
 7536 0e94 0392     		str	r2, [sp, #12]
 7537              	.LBE1480:
 7538              	.LBE1481:
 7539              	.LBE1473:
 7540              	.LBE1472:
 7541              	.LBE1459:
 7542              	.LBE1458:
 7543              	.LBE1426:
 7544              	.LBE1425:
 210:../USER/main.c **** 	          putadrhd(adr);
 7545              		.loc 1 210 10 discriminator 2 view .LVU2557
 7546 0e96 069A     		ldr	r2, [sp, #24]
 7547 0e98 1033     		adds	r3, r3, #16
 7548 0e9a 9342     		cmp	r3, r2
 7549 0e9c 0593     		str	r3, [sp, #20]
 7550              	.LVL500:
 210:../USER/main.c **** 	          putadrhd(adr);
 7551              		.loc 1 210 10 discriminator 2 view .LVU2558
 7552 0e9e 7FF496AB 		bne	.L486
 7553 0ea2 0B93     		str	r3, [sp, #44]
 7554              	.LVL501:
 210:../USER/main.c **** 	          putadrhd(adr);
 7555              		.loc 1 210 10 discriminator 2 view .LVU2559
 7556 0ea4 FFF7CBB8 		b	.L279
 7557              	.LVL502:
 7558              	.L461:
 7559              	.LBB1497:
 7560              	.LBB1495:
 7561              	.LBB1489:
 7562              	.LBB1486:
 7563              	.LBB1483:
 7564              	.LBB1470:
 144:../USER/main.c **** 	}
 7565              		.loc 1 144 3 is_stmt 1 view .LVU2560
 7566 0ea8 2046     		mov	r0, r4
 7567 0eaa FFF7FEFF 		bl	SPI_WriteData
 7568              	.LVL503:
 7569              	.L454:
 7570              	.LBB1466:
 7571              	.LBB1467:
 123:../USER/main.c **** 	if(kinbwp>=256) kinbwp = 0;
 7572              		.loc 1 123 11 is_stmt 0 view .LVU2561
 7573 0eae 4FF04024 		mov	r4, #1073758208
 7574              	.LVL504:
 123:../USER/main.c **** 	if(kinbwp>=256) kinbwp = 0;
 7575              		.loc 1 123 11 view .LVU2562
 7576 0eb2 1AE0     		b	.L467
 7577              	.LVL505:
 7578              	.L1161:
 123:../USER/main.c **** 	if(kinbwp>=256) kinbwp = 0;
 7579              		.loc 1 123 11 view .LVU2563
 7580 0eb4 D8F80030 		ldr	r3, [r8]
 7581              	.L463:
 121:../USER/main.c **** 	//
 7582              		.loc 1 121 2 is_stmt 1 view .LVU2564
 121:../USER/main.c **** 	//
 7583              		.loc 1 121 18 view .LVU2565
 121:../USER/main.c **** 	//
 7584              		.loc 1 121 4 is_stmt 0 view .LVU2566
 7585 0eb8 FF2B     		cmp	r3, #255
 7586 0eba 02DD     		ble	.L464
 121:../USER/main.c **** 	//
 7587              		.loc 1 121 25 view .LVU2567
 7588 0ebc 0023     		movs	r3, #0
 7589 0ebe C8F80070 		str	r7, [r8]
 7590              	.L464:
 123:../USER/main.c **** 	if(kinbwp>=256) kinbwp = 0;
 7591              		.loc 1 123 39 is_stmt 1 view .LVU2568
 123:../USER/main.c **** 	if(kinbwp>=256) kinbwp = 0;
 7592              		.loc 1 123 2 view .LVU2569
 123:../USER/main.c **** 	if(kinbwp>=256) kinbwp = 0;
 7593              		.loc 1 123 11 is_stmt 0 view .LVU2570
 7594 0ec2 6168     		ldr	r1, [r4, #4]
 123:../USER/main.c **** 	if(kinbwp>=256) kinbwp = 0;
 7595              		.loc 1 123 52 view .LVU2571
 7596 0ec4 5A1C     		adds	r2, r3, #1
 123:../USER/main.c **** 	if(kinbwp>=256) kinbwp = 0;
 7597              		.loc 1 123 4 view .LVU2572
 7598 0ec6 8E07     		lsls	r6, r1, #30
 7599 0ec8 09D5     		bpl	.L466
 124:../USER/main.c **** 	//
 7600              		.loc 1 124 25 view .LVU2573
 7601 0eca B2F5807F 		cmp	r2, #256
 7602 0ece 14BF     		ite	ne
 7603 0ed0 1146     		movne	r1, r2
 7604 0ed2 3946     		moveq	r1, r7
 123:../USER/main.c **** 	if(kinbwp>=256) kinbwp = 0;
 7605              		.loc 1 123 63 view .LVU2574
 7606 0ed4 2068     		ldr	r0, [r4]
 7607              	.LVL506:
 124:../USER/main.c **** 	//
 7608              		.loc 1 124 25 view .LVU2575
 7609 0ed6 C8F80010 		str	r1, [r8]
 123:../USER/main.c **** 	if(kinbwp>=256) kinbwp = 0;
 7610              		.loc 1 123 56 view .LVU2576
 7611 0eda 09F80300 		strb	r0, [r9, r3]
 124:../USER/main.c **** 	//
 7612              		.loc 1 124 2 is_stmt 1 view .LVU2577
 7613              	.L466:
 124:../USER/main.c **** 	//
 7614              		.loc 1 124 2 is_stmt 0 view .LVU2578
 7615              	.LBE1467:
 7616              	.LBE1466:
 147:../USER/main.c **** }
 7617              		.loc 1 147 27 is_stmt 1 view .LVU2579
 147:../USER/main.c **** }
 7618              		.loc 1 147 32 is_stmt 0 view .LVU2580
 7619 0ede 2846     		mov	r0, r5
 7620 0ee0 FFF7FEFF 		bl	disp_vram
 7621              	.LVL507:
 147:../USER/main.c **** }
 7622              		.loc 1 147 2 view .LVU2581
 7623 0ee4 0028     		cmp	r0, #0
 7624 0ee6 3FF411AE 		beq	.L485
 7625              	.LVL508:
 7626              	.L467:
 147:../USER/main.c **** }
 7627              		.loc 1 147 2 is_stmt 1 view .LVU2582
 147:../USER/main.c **** }
 7628              		.loc 1 147 10 view .LVU2583
 147:../USER/main.c **** }
 7629              		.loc 1 147 14 view .LVU2584
 7630              	.LBB1469:
 7631              	.LBI1466:
 116:../USER/main.c **** 	char ch;
 7632              		.loc 1 116 6 view .LVU2585
 7633              	.LBB1468:
 117:../USER/main.c **** 	//
 7634              		.loc 1 117 2 view .LVU2586
 119:../USER/main.c **** 	if(ch!=0) kinbuf[kinbwp++] = ch;
 7635              		.loc 1 119 2 view .LVU2587
 119:../USER/main.c **** 	if(ch!=0) kinbuf[kinbwp++] = ch;
 7636              		.loc 1 119 7 is_stmt 0 view .LVU2588
 7637 0eea FFF7FEFF 		bl	SPI_ReadData
 7638              	.LVL509:
 120:../USER/main.c **** 	if(kinbwp>=256) kinbwp = 0;
 7639              		.loc 1 120 12 is_stmt 1 view .LVU2589
 119:../USER/main.c **** 	if(ch!=0) kinbuf[kinbwp++] = ch;
 7640              		.loc 1 119 5 is_stmt 0 view .LVU2590
 7641 0eee 40B2     		sxtb	r0, r0
 7642              	.LVL510:
 120:../USER/main.c **** 	if(kinbwp>=256) kinbwp = 0;
 7643              		.loc 1 120 2 is_stmt 1 view .LVU2591
 120:../USER/main.c **** 	if(kinbwp>=256) kinbwp = 0;
 7644              		.loc 1 120 4 is_stmt 0 view .LVU2592
 7645 0ef0 0028     		cmp	r0, #0
 7646 0ef2 DFD0     		beq	.L1161
 120:../USER/main.c **** 	if(kinbwp>=256) kinbwp = 0;
 7647              		.loc 1 120 25 view .LVU2593
 7648 0ef4 D8F80020 		ldr	r2, [r8]
 7649 0ef8 531C     		adds	r3, r2, #1
 120:../USER/main.c **** 	if(kinbwp>=256) kinbwp = 0;
 7650              		.loc 1 120 29 view .LVU2594
 7651 0efa 09F80200 		strb	r0, [r9, r2]
 120:../USER/main.c **** 	if(kinbwp>=256) kinbwp = 0;
 7652              		.loc 1 120 25 view .LVU2595
 7653 0efe C8F80030 		str	r3, [r8]
 7654 0f02 D9E7     		b	.L463
 7655              	.LVL511:
 7656              	.L428:
 120:../USER/main.c **** 	if(kinbwp>=256) kinbwp = 0;
 7657              		.loc 1 120 25 view .LVU2596
 7658              	.LBE1468:
 7659              	.LBE1469:
 7660              	.LBE1470:
 7661              	.LBE1483:
 7662              	.LBE1486:
 7663              	.LBE1489:
 7664              	.LBB1490:
 7665              	.LBB1455:
 7666              	.LBB1452:
 7667              	.LBB1439:
 144:../USER/main.c **** 	}
 7668              		.loc 1 144 3 is_stmt 1 view .LVU2597
 7669 0f04 0498     		ldr	r0, [sp, #16]
 7670 0f06 FFF7FEFF 		bl	SPI_WriteData
 7671              	.LVL512:
 7672              	.L421:
 7673              	.LBB1435:
 7674              	.LBB1436:
 123:../USER/main.c **** 	if(kinbwp>=256) kinbwp = 0;
 7675              		.loc 1 123 11 is_stmt 0 view .LVU2598
 7676 0f0a 4FF04025 		mov	r5, #1073758208
 7677 0f0e 1AE0     		b	.L434
 7678              	.LVL513:
 7679              	.L1162:
 123:../USER/main.c **** 	if(kinbwp>=256) kinbwp = 0;
 7680              		.loc 1 123 11 view .LVU2599
 7681 0f10 D8F80030 		ldr	r3, [r8]
 7682              	.L430:
 121:../USER/main.c **** 	//
 7683              		.loc 1 121 2 is_stmt 1 view .LVU2600
 121:../USER/main.c **** 	//
 7684              		.loc 1 121 18 view .LVU2601
 121:../USER/main.c **** 	//
 7685              		.loc 1 121 4 is_stmt 0 view .LVU2602
 7686 0f14 FF2B     		cmp	r3, #255
 7687 0f16 02DD     		ble	.L431
 121:../USER/main.c **** 	//
 7688              		.loc 1 121 25 view .LVU2603
 7689 0f18 0023     		movs	r3, #0
 7690 0f1a C8F80070 		str	r7, [r8]
 7691              	.L431:
 123:../USER/main.c **** 	if(kinbwp>=256) kinbwp = 0;
 7692              		.loc 1 123 39 is_stmt 1 view .LVU2604
 123:../USER/main.c **** 	if(kinbwp>=256) kinbwp = 0;
 7693              		.loc 1 123 2 view .LVU2605
 123:../USER/main.c **** 	if(kinbwp>=256) kinbwp = 0;
 7694              		.loc 1 123 11 is_stmt 0 view .LVU2606
 7695 0f1e 6968     		ldr	r1, [r5, #4]
 123:../USER/main.c **** 	if(kinbwp>=256) kinbwp = 0;
 7696              		.loc 1 123 52 view .LVU2607
 7697 0f20 5A1C     		adds	r2, r3, #1
 123:../USER/main.c **** 	if(kinbwp>=256) kinbwp = 0;
 7698              		.loc 1 123 4 view .LVU2608
 7699 0f22 8807     		lsls	r0, r1, #30
 7700              	.LVL514:
 123:../USER/main.c **** 	if(kinbwp>=256) kinbwp = 0;
 7701              		.loc 1 123 4 view .LVU2609
 7702 0f24 09D5     		bpl	.L433
 124:../USER/main.c **** 	//
 7703              		.loc 1 124 25 view .LVU2610
 7704 0f26 B2F5807F 		cmp	r2, #256
 7705 0f2a 14BF     		ite	ne
 7706 0f2c 1146     		movne	r1, r2
 7707 0f2e 3946     		moveq	r1, r7
 123:../USER/main.c **** 	if(kinbwp>=256) kinbwp = 0;
 7708              		.loc 1 123 63 view .LVU2611
 7709 0f30 2868     		ldr	r0, [r5]
 124:../USER/main.c **** 	//
 7710              		.loc 1 124 25 view .LVU2612
 7711 0f32 C8F80010 		str	r1, [r8]
 123:../USER/main.c **** 	if(kinbwp>=256) kinbwp = 0;
 7712              		.loc 1 123 56 view .LVU2613
 7713 0f36 09F80300 		strb	r0, [r9, r3]
 124:../USER/main.c **** 	//
 7714              		.loc 1 124 2 is_stmt 1 view .LVU2614
 7715              	.L433:
 124:../USER/main.c **** 	//
 7716              		.loc 1 124 2 is_stmt 0 view .LVU2615
 7717              	.LBE1436:
 7718              	.LBE1435:
 147:../USER/main.c **** }
 7719              		.loc 1 147 27 is_stmt 1 view .LVU2616
 147:../USER/main.c **** }
 7720              		.loc 1 147 32 is_stmt 0 view .LVU2617
 7721 0f3a 3046     		mov	r0, r6
 7722 0f3c FFF7FEFF 		bl	disp_vram
 7723              	.LVL515:
 147:../USER/main.c **** }
 7724              		.loc 1 147 2 view .LVU2618
 7725 0f40 0028     		cmp	r0, #0
 7726 0f42 3FF4F9AE 		beq	.L452
 7727              	.LVL516:
 7728              	.L434:
 147:../USER/main.c **** }
 7729              		.loc 1 147 2 is_stmt 1 view .LVU2619
 147:../USER/main.c **** }
 7730              		.loc 1 147 10 view .LVU2620
 147:../USER/main.c **** }
 7731              		.loc 1 147 14 view .LVU2621
 7732              	.LBB1438:
 7733              	.LBI1435:
 116:../USER/main.c **** 	char ch;
 7734              		.loc 1 116 6 view .LVU2622
 7735              	.LBB1437:
 117:../USER/main.c **** 	//
 7736              		.loc 1 117 2 view .LVU2623
 119:../USER/main.c **** 	if(ch!=0) kinbuf[kinbwp++] = ch;
 7737              		.loc 1 119 2 view .LVU2624
 119:../USER/main.c **** 	if(ch!=0) kinbuf[kinbwp++] = ch;
 7738              		.loc 1 119 7 is_stmt 0 view .LVU2625
 7739 0f46 FFF7FEFF 		bl	SPI_ReadData
 7740              	.LVL517:
 120:../USER/main.c **** 	if(kinbwp>=256) kinbwp = 0;
 7741              		.loc 1 120 12 is_stmt 1 view .LVU2626
 119:../USER/main.c **** 	if(ch!=0) kinbuf[kinbwp++] = ch;
 7742              		.loc 1 119 5 is_stmt 0 view .LVU2627
 7743 0f4a 40B2     		sxtb	r0, r0
 7744              	.LVL518:
 120:../USER/main.c **** 	if(kinbwp>=256) kinbwp = 0;
 7745              		.loc 1 120 2 is_stmt 1 view .LVU2628
 120:../USER/main.c **** 	if(kinbwp>=256) kinbwp = 0;
 7746              		.loc 1 120 4 is_stmt 0 view .LVU2629
 7747 0f4c 0028     		cmp	r0, #0
 7748 0f4e DFD0     		beq	.L1162
 120:../USER/main.c **** 	if(kinbwp>=256) kinbwp = 0;
 7749              		.loc 1 120 25 view .LVU2630
 7750 0f50 D8F80020 		ldr	r2, [r8]
 7751 0f54 531C     		adds	r3, r2, #1
 120:../USER/main.c **** 	if(kinbwp>=256) kinbwp = 0;
 7752              		.loc 1 120 29 view .LVU2631
 7753 0f56 09F80200 		strb	r0, [r9, r2]
 120:../USER/main.c **** 	if(kinbwp>=256) kinbwp = 0;
 7754              		.loc 1 120 25 view .LVU2632
 7755 0f5a C8F80030 		str	r3, [r8]
 7756 0f5e D9E7     		b	.L430
 7757              	.LVL519:
 7758              	.L1146:
 120:../USER/main.c **** 	if(kinbwp>=256) kinbwp = 0;
 7759              		.loc 1 120 25 view .LVU2633
 7760              	.LBE1437:
 7761              	.LBE1438:
 7762              	.LBE1439:
 7763              	.LBE1452:
 7764              	.LBE1455:
 7765              	.LBE1490:
 7766              	.LBE1495:
 7767              	.LBE1497:
 7768              	.LBB1498:
 7769              	.LBB1424:
 137:../USER/main.c **** 	else {
 7770              		.loc 1 137 3 is_stmt 1 view .LVU2634
 7771 0f60 2021     		movs	r1, #32
 7772 0f62 4FF04020 		mov	r0, #1073758208
 7773 0f66 FFF7FEFF 		bl	UART_SendChar
 7774              	.LVL520:
 7775 0f6a 10E6     		b	.L405
 7776              	.LVL521:
 7777              	.L1156:
 137:../USER/main.c **** 	else {
 7778              		.loc 1 137 3 is_stmt 0 view .LVU2635
 7779              	.LBE1424:
 7780              	.LBE1498:
 7781              	.LBB1499:
 7782              	.LBB1496:
 7783              	.LBB1491:
 7784              	.LBB1487:
 7785              	.LBB1484:
 7786              	.LBB1471:
 137:../USER/main.c **** 	else {
 7787              		.loc 1 137 3 is_stmt 1 view .LVU2636
 7788 0f6c 2946     		mov	r1, r5
 7789 0f6e 4FF04020 		mov	r0, #1073758208
 7790 0f72 FFF7FEFF 		bl	UART_SendChar
 7791              	.LVL522:
 7792 0f76 9AE7     		b	.L454
 7793              	.LVL523:
 7794              	.L1150:
 137:../USER/main.c **** 	else {
 7795              		.loc 1 137 3 is_stmt 0 view .LVU2637
 7796              	.LBE1471:
 7797              	.LBE1484:
 7798              	.LBE1487:
 7799              	.LBE1491:
 7800              	.LBB1492:
 7801              	.LBB1456:
 7802              	.LBB1453:
 7803              	.LBB1440:
 137:../USER/main.c **** 	else {
 7804              		.loc 1 137 3 is_stmt 1 view .LVU2638
 7805 0f78 3146     		mov	r1, r6
 7806 0f7a 4FF04020 		mov	r0, #1073758208
 7807 0f7e FFF7FEFF 		bl	UART_SendChar
 7808              	.LVL524:
 7809 0f82 C2E7     		b	.L421
 7810              	.LVL525:
 7811              	.L1158:
 137:../USER/main.c **** 	else {
 7812              		.loc 1 137 3 is_stmt 0 view .LVU2639
 7813              	.LBE1440:
 7814              	.LBE1453:
 7815              	.LBE1456:
 7816              	.LBE1492:
 7817              	.LBB1493:
 7818              	.LBB1488:
 7819              	.LBB1485:
 7820              	.LBB1482:
 137:../USER/main.c **** 	else {
 7821              		.loc 1 137 3 is_stmt 1 view .LVU2640
 7822 0f84 2946     		mov	r1, r5
 7823 0f86 4FF04020 		mov	r0, #1073758208
 7824 0f8a FFF7FEFF 		bl	UART_SendChar
 7825              	.LVL526:
 7826 0f8e 53E7     		b	.L471
 7827              	.LVL527:
 7828              	.L1152:
 137:../USER/main.c **** 	else {
 7829              		.loc 1 137 3 is_stmt 0 view .LVU2641
 7830              	.LBE1482:
 7831              	.LBE1485:
 7832              	.LBE1488:
 7833              	.LBE1493:
 7834              	.LBB1494:
 7835              	.LBB1457:
 7836              	.LBB1454:
 7837              	.LBB1451:
 137:../USER/main.c **** 	else {
 7838              		.loc 1 137 3 is_stmt 1 view .LVU2642
 7839 0f90 3146     		mov	r1, r6
 7840 0f92 4FF04020 		mov	r0, #1073758208
 7841 0f96 FFF7FEFF 		bl	UART_SendChar
 7842              	.LVL528:
 7843 0f9a A4E6     		b	.L438
 7844              	.LVL529:
 7845              	.L614:
 137:../USER/main.c **** 	else {
 7846              		.loc 1 137 3 is_stmt 0 view .LVU2643
 7847              	.LBE1451:
 7848              	.LBE1454:
 7849              	.LBE1457:
 7850              	.LBE1494:
 7851              	.LBE1496:
 7852              	.LBE1499:
 7853              	.LBB1500:
 7854              	.LBB1277:
 7855              	.LBB1270:
 7856              	.LBB1260:
 7857              	.LBB1122:
 7858              	.LBB1119:
 7859              	.LBB1116:
 7860              	.LBB1113:
 150:../USER/main.c **** void puth2(dt) int dt;{ puth((dt >> 4) & 0xf); puth(dt & 0xf); }
 7861              		.loc 1 150 55 is_stmt 1 view .LVU2644
 7862              	.LBB1095:
 7863              	.LBB1096:
 136:../USER/main.c **** 		UART_SendChar(UART0,ch);
 7864              		.loc 1 136 13 is_stmt 0 view .LVU2645
 7865 0f9c DAF80030 		ldr	r3, [r10]
 7866              	.LVL530:
 136:../USER/main.c **** 		UART_SendChar(UART0,ch);
 7867              		.loc 1 136 13 view .LVU2646
 7868              	.LBE1096:
 7869              	.LBE1095:
 150:../USER/main.c **** void puth2(dt) int dt;{ puth((dt >> 4) & 0xf); puth(dt & 0xf); }
 7870              		.loc 1 150 65 view .LVU2647
 7871 0fa0 00F13705 		add	r5, r0, #55
 7872              	.LBB1109:
 7873              	.LBB1105:
 136:../USER/main.c **** 		UART_SendChar(UART0,ch);
 7874              		.loc 1 136 4 view .LVU2648
 7875 0fa4 9B04     		lsls	r3, r3, #18
 7876              	.LBE1105:
 7877              	.LBE1109:
 150:../USER/main.c **** void puth2(dt) int dt;{ puth((dt >> 4) & 0xf); puth(dt & 0xf); }
 7878              		.loc 1 150 55 view .LVU2649
 7879 0fa6 6CB2     		sxtb	r4, r5
 7880              	.LVL531:
 7881              	.LBB1110:
 7882              	.LBI1095:
 134:../USER/main.c **** 	volatile uint32_t gpiord;
 7883              		.loc 1 134 6 is_stmt 1 view .LVU2650
 7884              	.LBB1106:
 135:../USER/main.c **** 	if((mdgpio & 0x2000)==0)
 7885              		.loc 1 135 2 view .LVU2651
 136:../USER/main.c **** 		UART_SendChar(UART0,ch);
 7886              		.loc 1 136 2 view .LVU2652
 136:../USER/main.c **** 		UART_SendChar(UART0,ch);
 7887              		.loc 1 136 4 is_stmt 0 view .LVU2653
 7888 0fa8 40F1AB84 		bpl	.L1163
 139:../USER/main.c **** 		while((gpiord & 0x4000)!=0) {
 7889              		.loc 1 139 3 is_stmt 1 view .LVU2654
 139:../USER/main.c **** 		while((gpiord & 0x4000)!=0) {
 7890              		.loc 1 139 10 is_stmt 0 view .LVU2655
 7891 0fac 4FF48043 		mov	r3, #16384
 7892 0fb0 1D93     		str	r3, [sp, #116]
 140:../USER/main.c **** 			key_check();
 7893              		.loc 1 140 3 is_stmt 1 view .LVU2656
 140:../USER/main.c **** 			key_check();
 7894              		.loc 1 140 17 is_stmt 0 view .LVU2657
 7895 0fb2 1D9B     		ldr	r3, [sp, #116]
 140:../USER/main.c **** 			key_check();
 7896              		.loc 1 140 8 view .LVU2658
 7897 0fb4 5E04     		lsls	r6, r3, #17
 7898 0fb6 40F19383 		bpl	.L624
 142:../USER/main.c **** 		}
 7899              		.loc 1 142 13 view .LVU2659
 7900 0fba BA4E     		ldr	r6, .L1217
 7901 0fbc 1EE0     		b	.L618
 7902              	.LVL532:
 7903              	.L1164:
 142:../USER/main.c **** 		}
 7904              		.loc 1 142 13 view .LVU2660
 7905 0fbe D8F80030 		ldr	r3, [r8]
 7906              	.L620:
 7907              	.LBB1097:
 7908              	.LBB1098:
 121:../USER/main.c **** 	//
 7909              		.loc 1 121 2 is_stmt 1 view .LVU2661
 121:../USER/main.c **** 	//
 7910              		.loc 1 121 18 view .LVU2662
 121:../USER/main.c **** 	//
 7911              		.loc 1 121 4 is_stmt 0 view .LVU2663
 7912 0fc2 FF2B     		cmp	r3, #255
 7913 0fc4 02DD     		ble	.L621
 121:../USER/main.c **** 	//
 7914              		.loc 1 121 25 view .LVU2664
 7915 0fc6 0023     		movs	r3, #0
 7916 0fc8 C8F80070 		str	r7, [r8]
 7917              	.L621:
 123:../USER/main.c **** 	if(kinbwp>=256) kinbwp = 0;
 7918              		.loc 1 123 39 is_stmt 1 view .LVU2665
 123:../USER/main.c **** 	if(kinbwp>=256) kinbwp = 0;
 7919              		.loc 1 123 2 view .LVU2666
 123:../USER/main.c **** 	if(kinbwp>=256) kinbwp = 0;
 7920              		.loc 1 123 11 is_stmt 0 view .LVU2667
 7921 0fcc 4FF04022 		mov	r2, #1073758208
 7922 0fd0 5068     		ldr	r0, [r2, #4]
 7923              	.LVL533:
 123:../USER/main.c **** 	if(kinbwp>=256) kinbwp = 0;
 7924              		.loc 1 123 52 view .LVU2668
 7925 0fd2 591C     		adds	r1, r3, #1
 123:../USER/main.c **** 	if(kinbwp>=256) kinbwp = 0;
 7926              		.loc 1 123 4 view .LVU2669
 7927 0fd4 8007     		lsls	r0, r0, #30
 7928 0fd6 09D5     		bpl	.L623
 124:../USER/main.c **** 	//
 7929              		.loc 1 124 25 view .LVU2670
 7930 0fd8 B1F5807F 		cmp	r1, #256
 123:../USER/main.c **** 	if(kinbwp>=256) kinbwp = 0;
 7931              		.loc 1 123 63 view .LVU2671
 7932 0fdc 1068     		ldr	r0, [r2]
 124:../USER/main.c **** 	//
 7933              		.loc 1 124 25 view .LVU2672
 7934 0fde 14BF     		ite	ne
 7935 0fe0 0A46     		movne	r2, r1
 7936 0fe2 3A46     		moveq	r2, r7
 123:../USER/main.c **** 	if(kinbwp>=256) kinbwp = 0;
 7937              		.loc 1 123 56 view .LVU2673
 7938 0fe4 09F80300 		strb	r0, [r9, r3]
 124:../USER/main.c **** 	//
 7939              		.loc 1 124 2 is_stmt 1 view .LVU2674
 124:../USER/main.c **** 	//
 7940              		.loc 1 124 25 is_stmt 0 view .LVU2675
 7941 0fe8 C8F80020 		str	r2, [r8]
 7942              	.L623:
 124:../USER/main.c **** 	//
 7943              		.loc 1 124 25 view .LVU2676
 7944              	.LBE1098:
 7945              	.LBE1097:
 142:../USER/main.c **** 		}
 7946              		.loc 1 142 4 is_stmt 1 view .LVU2677
 142:../USER/main.c **** 		}
 7947              		.loc 1 142 13 is_stmt 0 view .LVU2678
 7948 0fec 3046     		mov	r0, r6
 7949 0fee FFF7FEFF 		bl	GPIO_ReadBits
 7950              	.LVL534:
 142:../USER/main.c **** 		}
 7951              		.loc 1 142 11 view .LVU2679
 7952 0ff2 1D90     		str	r0, [sp, #116]
 140:../USER/main.c **** 			key_check();
 7953              		.loc 1 140 17 view .LVU2680
 7954 0ff4 1D9B     		ldr	r3, [sp, #116]
 140:../USER/main.c **** 			key_check();
 7955              		.loc 1 140 8 view .LVU2681
 7956 0ff6 5804     		lsls	r0, r3, #17
 7957 0ff8 40F17283 		bpl	.L624
 7958              	.L618:
 141:../USER/main.c **** 			gpiord = GPIO_ReadBits(GPIO0);
 7959              		.loc 1 141 4 is_stmt 1 view .LVU2682
 7960              	.LBB1100:
 7961              	.LBI1097:
 116:../USER/main.c **** 	char ch;
 7962              		.loc 1 116 6 view .LVU2683
 7963              	.LBB1099:
 117:../USER/main.c **** 	//
 7964              		.loc 1 117 2 view .LVU2684
 119:../USER/main.c **** 	if(ch!=0) kinbuf[kinbwp++] = ch;
 7965              		.loc 1 119 2 view .LVU2685
 119:../USER/main.c **** 	if(ch!=0) kinbuf[kinbwp++] = ch;
 7966              		.loc 1 119 7 is_stmt 0 view .LVU2686
 7967 0ffc FFF7FEFF 		bl	SPI_ReadData
 7968              	.LVL535:
 120:../USER/main.c **** 	if(kinbwp>=256) kinbwp = 0;
 7969              		.loc 1 120 12 is_stmt 1 view .LVU2687
 119:../USER/main.c **** 	if(ch!=0) kinbuf[kinbwp++] = ch;
 7970              		.loc 1 119 5 is_stmt 0 view .LVU2688
 7971 1000 40B2     		sxtb	r0, r0
 7972              	.LVL536:
 120:../USER/main.c **** 	if(kinbwp>=256) kinbwp = 0;
 7973              		.loc 1 120 2 is_stmt 1 view .LVU2689
 120:../USER/main.c **** 	if(kinbwp>=256) kinbwp = 0;
 7974              		.loc 1 120 4 is_stmt 0 view .LVU2690
 7975 1002 0028     		cmp	r0, #0
 7976 1004 DBD0     		beq	.L1164
 120:../USER/main.c **** 	if(kinbwp>=256) kinbwp = 0;
 7977              		.loc 1 120 25 view .LVU2691
 7978 1006 D8F80020 		ldr	r2, [r8]
 7979 100a 531C     		adds	r3, r2, #1
 120:../USER/main.c **** 	if(kinbwp>=256) kinbwp = 0;
 7980              		.loc 1 120 29 view .LVU2692
 7981 100c 09F80200 		strb	r0, [r9, r2]
 120:../USER/main.c **** 	if(kinbwp>=256) kinbwp = 0;
 7982              		.loc 1 120 25 view .LVU2693
 7983 1010 C8F80030 		str	r3, [r8]
 7984 1014 D5E7     		b	.L620
 7985              	.LVL537:
 7986              	.L648:
 120:../USER/main.c **** 	if(kinbwp>=256) kinbwp = 0;
 7987              		.loc 1 120 25 view .LVU2694
 7988              	.LBE1099:
 7989              	.LBE1100:
 7990              	.LBE1106:
 7991              	.LBE1110:
 7992              	.LBE1113:
 7993              	.LBE1116:
 7994              	.LBE1119:
 7995              	.LBE1122:
 7996              	.LBE1260:
 7997              	.LBB1261:
 7998              	.LBB1255:
 7999              	.LBB1193:
 8000              	.LBB1186:
 8001              	.LBB1179:
 8002              	.LBB1176:
 150:../USER/main.c **** void puth2(dt) int dt;{ puth((dt >> 4) & 0xf); puth(dt & 0xf); }
 8003              		.loc 1 150 55 is_stmt 1 view .LVU2695
 8004 1016 3730     		adds	r0, r0, #55
 8005 1018 FFF7FEFF 		bl	putch_uart
 8006              	.LVL538:
 8007              	.L664:
 150:../USER/main.c **** void puth2(dt) int dt;{ puth((dt >> 4) & 0xf); puth(dt & 0xf); }
 8008              		.loc 1 150 55 is_stmt 0 view .LVU2696
 8009              	.LBE1176:
 8010              	.LBE1179:
 8011              	.LBE1186:
 8012              	.LBE1193:
 152:../USER/main.c **** void puth6(dt) long dt;{ int dh,dl; dh = dt >> 16; dl = dt & 0xffff; puth2(dh); puth4(dl); }
 8013              		.loc 1 152 50 is_stmt 1 view .LVU2697
 8014              	.LBB1194:
 8015              	.LBI1194:
 151:../USER/main.c **** void puth4(dt) int dt;{ puth2((dt >> 8) & 0xff); puth2(dt & 0xff); }
 8016              		.loc 1 151 6 view .LVU2698
 8017              	.LBB1195:
 151:../USER/main.c **** void puth4(dt) int dt;{ puth2((dt >> 8) & 0xff); puth2(dt & 0xff); }
 8018              		.loc 1 151 25 view .LVU2699
 151:../USER/main.c **** void puth4(dt) int dt;{ puth2((dt >> 8) & 0xff); puth2(dt & 0xff); }
 8019              		.loc 1 151 34 is_stmt 0 view .LVU2700
 8020 101c 059B     		ldr	r3, [sp, #20]
 8021 101e DAF80020 		ldr	r2, [r10]
 8022 1022 03F00F03 		and	r3, r3, #15
 8023              	.LBB1196:
 8024              	.LBI1196:
 150:../USER/main.c **** void puth2(dt) int dt;{ puth((dt >> 4) & 0xf); puth(dt & 0xf); }
 8025              		.loc 1 150 6 is_stmt 1 view .LVU2701
 8026              	.LBB1197:
 150:../USER/main.c **** void puth2(dt) int dt;{ puth((dt >> 4) & 0xf); puth(dt & 0xf); }
 8027              		.loc 1 150 24 view .LVU2702
 150:../USER/main.c **** void puth2(dt) int dt;{ puth((dt >> 4) & 0xf); puth(dt & 0xf); }
 8028              		.loc 1 150 26 is_stmt 0 view .LVU2703
 8029 1026 092B     		cmp	r3, #9
 8030 1028 02F40052 		and	r2, r2, #8192
 8031 102c DDB2     		uxtb	r5, r3
 8032 102e 39DC     		bgt	.L665
 150:../USER/main.c **** void puth2(dt) int dt;{ puth((dt >> 4) & 0xf); puth(dt & 0xf); }
 8033              		.loc 1 150 34 is_stmt 1 view .LVU2704
 150:../USER/main.c **** void puth2(dt) int dt;{ puth((dt >> 4) & 0xf); puth(dt & 0xf); }
 8034              		.loc 1 150 44 is_stmt 0 view .LVU2705
 8035 1030 3035     		adds	r5, r5, #48
 150:../USER/main.c **** void puth2(dt) int dt;{ puth((dt >> 4) & 0xf); puth(dt & 0xf); }
 8036              		.loc 1 150 34 view .LVU2706
 8037 1032 6CB2     		sxtb	r4, r5
 8038              	.LVL539:
 8039              	.LBB1198:
 8040              	.LBI1198:
 134:../USER/main.c **** 	volatile uint32_t gpiord;
 8041              		.loc 1 134 6 is_stmt 1 view .LVU2707
 8042              	.LBB1199:
 135:../USER/main.c **** 	if((mdgpio & 0x2000)==0)
 8043              		.loc 1 135 2 view .LVU2708
 136:../USER/main.c **** 		UART_SendChar(UART0,ch);
 8044              		.loc 1 136 2 view .LVU2709
 136:../USER/main.c **** 		UART_SendChar(UART0,ch);
 8045              		.loc 1 136 4 is_stmt 0 view .LVU2710
 8046 1034 002A     		cmp	r2, #0
 8047 1036 00F05784 		beq	.L1165
 139:../USER/main.c **** 		while((gpiord & 0x4000)!=0) {
 8048              		.loc 1 139 3 is_stmt 1 view .LVU2711
 139:../USER/main.c **** 		while((gpiord & 0x4000)!=0) {
 8049              		.loc 1 139 10 is_stmt 0 view .LVU2712
 8050 103a 4FF48043 		mov	r3, #16384
 8051 103e 2093     		str	r3, [sp, #128]
 140:../USER/main.c **** 			key_check();
 8052              		.loc 1 140 3 is_stmt 1 view .LVU2713
 140:../USER/main.c **** 			key_check();
 8053              		.loc 1 140 17 is_stmt 0 view .LVU2714
 8054 1040 209B     		ldr	r3, [sp, #128]
 140:../USER/main.c **** 			key_check();
 8055              		.loc 1 140 8 view .LVU2715
 8056 1042 5A04     		lsls	r2, r3, #17
 8057 1044 40F1A883 		bpl	.L674
 142:../USER/main.c **** 		}
 8058              		.loc 1 142 13 view .LVU2716
 8059 1048 964E     		ldr	r6, .L1217
 8060 104a 1EE0     		b	.L668
 8061              	.LVL540:
 8062              	.L1166:
 142:../USER/main.c **** 		}
 8063              		.loc 1 142 13 view .LVU2717
 8064 104c D8F80030 		ldr	r3, [r8]
 8065              	.L670:
 8066              	.LBB1200:
 8067              	.LBB1201:
 121:../USER/main.c **** 	//
 8068              		.loc 1 121 2 is_stmt 1 view .LVU2718
 121:../USER/main.c **** 	//
 8069              		.loc 1 121 18 view .LVU2719
 121:../USER/main.c **** 	//
 8070              		.loc 1 121 4 is_stmt 0 view .LVU2720
 8071 1050 FF2B     		cmp	r3, #255
 8072 1052 02DD     		ble	.L671
 121:../USER/main.c **** 	//
 8073              		.loc 1 121 25 view .LVU2721
 8074 1054 0023     		movs	r3, #0
 8075 1056 C8F80070 		str	r7, [r8]
 8076              	.L671:
 123:../USER/main.c **** 	if(kinbwp>=256) kinbwp = 0;
 8077              		.loc 1 123 39 is_stmt 1 view .LVU2722
 123:../USER/main.c **** 	if(kinbwp>=256) kinbwp = 0;
 8078              		.loc 1 123 2 view .LVU2723
 123:../USER/main.c **** 	if(kinbwp>=256) kinbwp = 0;
 8079              		.loc 1 123 11 is_stmt 0 view .LVU2724
 8080 105a 4FF04022 		mov	r2, #1073758208
 8081 105e 5068     		ldr	r0, [r2, #4]
 8082              	.LVL541:
 123:../USER/main.c **** 	if(kinbwp>=256) kinbwp = 0;
 8083              		.loc 1 123 52 view .LVU2725
 8084 1060 591C     		adds	r1, r3, #1
 123:../USER/main.c **** 	if(kinbwp>=256) kinbwp = 0;
 8085              		.loc 1 123 4 view .LVU2726
 8086 1062 8007     		lsls	r0, r0, #30
 8087 1064 09D5     		bpl	.L673
 124:../USER/main.c **** 	//
 8088              		.loc 1 124 25 view .LVU2727
 8089 1066 B1F5807F 		cmp	r1, #256
 123:../USER/main.c **** 	if(kinbwp>=256) kinbwp = 0;
 8090              		.loc 1 123 63 view .LVU2728
 8091 106a 1068     		ldr	r0, [r2]
 124:../USER/main.c **** 	//
 8092              		.loc 1 124 25 view .LVU2729
 8093 106c 14BF     		ite	ne
 8094 106e 0A46     		movne	r2, r1
 8095 1070 3A46     		moveq	r2, r7
 123:../USER/main.c **** 	if(kinbwp>=256) kinbwp = 0;
 8096              		.loc 1 123 56 view .LVU2730
 8097 1072 09F80300 		strb	r0, [r9, r3]
 124:../USER/main.c **** 	//
 8098              		.loc 1 124 2 is_stmt 1 view .LVU2731
 124:../USER/main.c **** 	//
 8099              		.loc 1 124 25 is_stmt 0 view .LVU2732
 8100 1076 C8F80020 		str	r2, [r8]
 8101              	.L673:
 124:../USER/main.c **** 	//
 8102              		.loc 1 124 25 view .LVU2733
 8103              	.LBE1201:
 8104              	.LBE1200:
 142:../USER/main.c **** 		}
 8105              		.loc 1 142 4 is_stmt 1 view .LVU2734
 142:../USER/main.c **** 		}
 8106              		.loc 1 142 13 is_stmt 0 view .LVU2735
 8107 107a 3046     		mov	r0, r6
 8108 107c FFF7FEFF 		bl	GPIO_ReadBits
 8109              	.LVL542:
 142:../USER/main.c **** 		}
 8110              		.loc 1 142 11 view .LVU2736
 8111 1080 2090     		str	r0, [sp, #128]
 140:../USER/main.c **** 			key_check();
 8112              		.loc 1 140 17 view .LVU2737
 8113 1082 209B     		ldr	r3, [sp, #128]
 140:../USER/main.c **** 			key_check();
 8114              		.loc 1 140 8 view .LVU2738
 8115 1084 5B04     		lsls	r3, r3, #17
 8116 1086 40F18783 		bpl	.L674
 8117              	.L668:
 141:../USER/main.c **** 			gpiord = GPIO_ReadBits(GPIO0);
 8118              		.loc 1 141 4 is_stmt 1 view .LVU2739
 8119              	.LBB1203:
 8120              	.LBI1200:
 116:../USER/main.c **** 	char ch;
 8121              		.loc 1 116 6 view .LVU2740
 8122              	.LBB1202:
 117:../USER/main.c **** 	//
 8123              		.loc 1 117 2 view .LVU2741
 119:../USER/main.c **** 	if(ch!=0) kinbuf[kinbwp++] = ch;
 8124              		.loc 1 119 2 view .LVU2742
 119:../USER/main.c **** 	if(ch!=0) kinbuf[kinbwp++] = ch;
 8125              		.loc 1 119 7 is_stmt 0 view .LVU2743
 8126 108a FFF7FEFF 		bl	SPI_ReadData
 8127              	.LVL543:
 120:../USER/main.c **** 	if(kinbwp>=256) kinbwp = 0;
 8128              		.loc 1 120 12 is_stmt 1 view .LVU2744
 119:../USER/main.c **** 	if(ch!=0) kinbuf[kinbwp++] = ch;
 8129              		.loc 1 119 5 is_stmt 0 view .LVU2745
 8130 108e 40B2     		sxtb	r0, r0
 8131              	.LVL544:
 120:../USER/main.c **** 	if(kinbwp>=256) kinbwp = 0;
 8132              		.loc 1 120 2 is_stmt 1 view .LVU2746
 120:../USER/main.c **** 	if(kinbwp>=256) kinbwp = 0;
 8133              		.loc 1 120 4 is_stmt 0 view .LVU2747
 8134 1090 0028     		cmp	r0, #0
 8135 1092 DBD0     		beq	.L1166
 120:../USER/main.c **** 	if(kinbwp>=256) kinbwp = 0;
 8136              		.loc 1 120 25 view .LVU2748
 8137 1094 D8F80020 		ldr	r2, [r8]
 8138 1098 531C     		adds	r3, r2, #1
 120:../USER/main.c **** 	if(kinbwp>=256) kinbwp = 0;
 8139              		.loc 1 120 29 view .LVU2749
 8140 109a 09F80200 		strb	r0, [r9, r2]
 120:../USER/main.c **** 	if(kinbwp>=256) kinbwp = 0;
 8141              		.loc 1 120 25 view .LVU2750
 8142 109e C8F80030 		str	r3, [r8]
 8143 10a2 D5E7     		b	.L670
 8144              	.LVL545:
 8145              	.L665:
 120:../USER/main.c **** 	if(kinbwp>=256) kinbwp = 0;
 8146              		.loc 1 120 25 view .LVU2751
 8147              	.LBE1202:
 8148              	.LBE1203:
 8149              	.LBE1199:
 8150              	.LBE1198:
 150:../USER/main.c **** void puth2(dt) int dt;{ puth((dt >> 4) & 0xf); puth(dt & 0xf); }
 8151              		.loc 1 150 55 is_stmt 1 view .LVU2752
 150:../USER/main.c **** void puth2(dt) int dt;{ puth((dt >> 4) & 0xf); puth(dt & 0xf); }
 8152              		.loc 1 150 65 is_stmt 0 view .LVU2753
 8153 10a4 3735     		adds	r5, r5, #55
 150:../USER/main.c **** void puth2(dt) int dt;{ puth((dt >> 4) & 0xf); puth(dt & 0xf); }
 8154              		.loc 1 150 55 view .LVU2754
 8155 10a6 6CB2     		sxtb	r4, r5
 8156              	.LVL546:
 8157              	.LBB1210:
 8158              	.LBI1210:
 134:../USER/main.c **** 	volatile uint32_t gpiord;
 8159              		.loc 1 134 6 is_stmt 1 view .LVU2755
 8160              	.LBB1211:
 135:../USER/main.c **** 	if((mdgpio & 0x2000)==0)
 8161              		.loc 1 135 2 view .LVU2756
 136:../USER/main.c **** 		UART_SendChar(UART0,ch);
 8162              		.loc 1 136 2 view .LVU2757
 136:../USER/main.c **** 		UART_SendChar(UART0,ch);
 8163              		.loc 1 136 4 is_stmt 0 view .LVU2758
 8164 10a8 002A     		cmp	r2, #0
 8165 10aa 00F02384 		beq	.L1167
 139:../USER/main.c **** 		while((gpiord & 0x4000)!=0) {
 8166              		.loc 1 139 3 is_stmt 1 view .LVU2759
 139:../USER/main.c **** 		while((gpiord & 0x4000)!=0) {
 8167              		.loc 1 139 10 is_stmt 0 view .LVU2760
 8168 10ae 4FF48043 		mov	r3, #16384
 8169 10b2 2193     		str	r3, [sp, #132]
 140:../USER/main.c **** 			key_check();
 8170              		.loc 1 140 3 is_stmt 1 view .LVU2761
 140:../USER/main.c **** 			key_check();
 8171              		.loc 1 140 17 is_stmt 0 view .LVU2762
 8172 10b4 219B     		ldr	r3, [sp, #132]
 140:../USER/main.c **** 			key_check();
 8173              		.loc 1 140 8 view .LVU2763
 8174 10b6 5E04     		lsls	r6, r3, #17
 8175 10b8 09D5     		bpl	.L686
 142:../USER/main.c **** 		}
 8176              		.loc 1 142 13 view .LVU2764
 8177 10ba 7A4E     		ldr	r6, .L1217
 8178              	.L685:
 141:../USER/main.c **** 			gpiord = GPIO_ReadBits(GPIO0);
 8179              		.loc 1 141 4 is_stmt 1 view .LVU2765
 8180 10bc FFF7FEFF 		bl	key_check
 8181              	.LVL547:
 142:../USER/main.c **** 		}
 8182              		.loc 1 142 4 view .LVU2766
 142:../USER/main.c **** 		}
 8183              		.loc 1 142 13 is_stmt 0 view .LVU2767
 8184 10c0 3046     		mov	r0, r6
 8185 10c2 FFF7FEFF 		bl	GPIO_ReadBits
 8186              	.LVL548:
 142:../USER/main.c **** 		}
 8187              		.loc 1 142 11 view .LVU2768
 8188 10c6 2190     		str	r0, [sp, #132]
 140:../USER/main.c **** 			key_check();
 8189              		.loc 1 140 17 view .LVU2769
 8190 10c8 219B     		ldr	r3, [sp, #132]
 140:../USER/main.c **** 			key_check();
 8191              		.loc 1 140 8 view .LVU2770
 8192 10ca 5804     		lsls	r0, r3, #17
 8193 10cc F6D4     		bmi	.L685
 8194              	.L686:
 144:../USER/main.c **** 	}
 8195              		.loc 1 144 3 is_stmt 1 view .LVU2771
 8196 10ce 2846     		mov	r0, r5
 8197 10d0 FFF7FEFF 		bl	SPI_WriteData
 8198              	.LVL549:
 8199              	.L687:
 147:../USER/main.c **** }
 8200              		.loc 1 147 2 view .LVU2772
 147:../USER/main.c **** }
 8201              		.loc 1 147 10 view .LVU2773
 147:../USER/main.c **** }
 8202              		.loc 1 147 14 view .LVU2774
 8203 10d4 FFF7FEFF 		bl	key_check
 8204              	.LVL550:
 147:../USER/main.c **** }
 8205              		.loc 1 147 27 view .LVU2775
 147:../USER/main.c **** }
 8206              		.loc 1 147 32 is_stmt 0 view .LVU2776
 8207 10d8 2046     		mov	r0, r4
 8208 10da FFF7FEFF 		bl	disp_vram
 8209              	.LVL551:
 147:../USER/main.c **** }
 8210              		.loc 1 147 2 view .LVU2777
 8211 10de 0028     		cmp	r0, #0
 8212 10e0 F8D1     		bne	.L687
 8213              	.LVL552:
 8214              	.L688:
 147:../USER/main.c **** }
 8215              		.loc 1 147 2 view .LVU2778
 8216              	.LBE1211:
 8217              	.LBE1210:
 8218              	.LBE1197:
 8219              	.LBE1196:
 151:../USER/main.c **** void puth4(dt) int dt;{ puth2((dt >> 8) & 0xff); puth2(dt & 0xff); }
 8220              		.loc 1 151 48 is_stmt 1 view .LVU2779
 8221              	.LBB1218:
 8222              	.LBI1218:
 150:../USER/main.c **** void puth2(dt) int dt;{ puth((dt >> 4) & 0xf); puth(dt & 0xf); }
 8223              		.loc 1 150 6 view .LVU2780
 8224              	.LBB1219:
 150:../USER/main.c **** void puth2(dt) int dt;{ puth((dt >> 4) & 0xf); puth(dt & 0xf); }
 8225              		.loc 1 150 24 view .LVU2781
 8226 10e2 069B     		ldr	r3, [sp, #24]
 150:../USER/main.c **** void puth2(dt) int dt;{ puth((dt >> 4) & 0xf); puth(dt & 0xf); }
 8227              		.loc 1 150 26 is_stmt 0 view .LVU2782
 8228 10e4 092B     		cmp	r3, #9
 8229 10e6 D8B2     		uxtb	r0, r3
 8230 10e8 3CDC     		bgt	.L1168
 150:../USER/main.c **** void puth2(dt) int dt;{ puth((dt >> 4) & 0xf); puth(dt & 0xf); }
 8231              		.loc 1 150 34 is_stmt 1 view .LVU2783
 8232              	.LBB1220:
 8233              	.LBB1221:
 136:../USER/main.c **** 		UART_SendChar(UART0,ch);
 8234              		.loc 1 136 13 is_stmt 0 view .LVU2784
 8235 10ea DAF80030 		ldr	r3, [r10]
 8236              	.LBE1221:
 8237              	.LBE1220:
 150:../USER/main.c **** void puth2(dt) int dt;{ puth((dt >> 4) & 0xf); puth(dt & 0xf); }
 8238              		.loc 1 150 44 view .LVU2785
 8239 10ee 00F13005 		add	r5, r0, #48
 8240              	.LBB1234:
 8241              	.LBB1230:
 136:../USER/main.c **** 		UART_SendChar(UART0,ch);
 8242              		.loc 1 136 4 view .LVU2786
 8243 10f2 9904     		lsls	r1, r3, #18
 8244              	.LBE1230:
 8245              	.LBE1234:
 150:../USER/main.c **** void puth2(dt) int dt;{ puth((dt >> 4) & 0xf); puth(dt & 0xf); }
 8246              		.loc 1 150 34 view .LVU2787
 8247 10f4 6CB2     		sxtb	r4, r5
 8248              	.LVL553:
 8249              	.LBB1235:
 8250              	.LBI1220:
 134:../USER/main.c **** 	volatile uint32_t gpiord;
 8251              		.loc 1 134 6 is_stmt 1 view .LVU2788
 8252              	.LBB1231:
 135:../USER/main.c **** 	if((mdgpio & 0x2000)==0)
 8253              		.loc 1 135 2 view .LVU2789
 136:../USER/main.c **** 		UART_SendChar(UART0,ch);
 8254              		.loc 1 136 2 view .LVU2790
 136:../USER/main.c **** 		UART_SendChar(UART0,ch);
 8255              		.loc 1 136 4 is_stmt 0 view .LVU2791
 8256 10f6 40F1EB83 		bpl	.L1169
 139:../USER/main.c **** 		while((gpiord & 0x4000)!=0) {
 8257              		.loc 1 139 3 is_stmt 1 view .LVU2792
 139:../USER/main.c **** 		while((gpiord & 0x4000)!=0) {
 8258              		.loc 1 139 10 is_stmt 0 view .LVU2793
 8259 10fa 4FF48043 		mov	r3, #16384
 8260 10fe 2293     		str	r3, [sp, #136]
 140:../USER/main.c **** 			key_check();
 8261              		.loc 1 140 3 is_stmt 1 view .LVU2794
 140:../USER/main.c **** 			key_check();
 8262              		.loc 1 140 17 is_stmt 0 view .LVU2795
 8263 1100 229B     		ldr	r3, [sp, #136]
 140:../USER/main.c **** 			key_check();
 8264              		.loc 1 140 8 view .LVU2796
 8265 1102 5A04     		lsls	r2, r3, #17
 8266 1104 40F17683 		bpl	.L697
 142:../USER/main.c **** 		}
 8267              		.loc 1 142 13 view .LVU2797
 8268 1108 664E     		ldr	r6, .L1217
 8269 110a 1EE0     		b	.L691
 8270              	.LVL554:
 8271              	.L1170:
 142:../USER/main.c **** 		}
 8272              		.loc 1 142 13 view .LVU2798
 8273 110c D8F80030 		ldr	r3, [r8]
 8274              	.L693:
 8275              	.LBB1222:
 8276              	.LBB1223:
 121:../USER/main.c **** 	//
 8277              		.loc 1 121 2 is_stmt 1 view .LVU2799
 121:../USER/main.c **** 	//
 8278              		.loc 1 121 18 view .LVU2800
 121:../USER/main.c **** 	//
 8279              		.loc 1 121 4 is_stmt 0 view .LVU2801
 8280 1110 FF2B     		cmp	r3, #255
 8281 1112 02DD     		ble	.L694
 121:../USER/main.c **** 	//
 8282              		.loc 1 121 25 view .LVU2802
 8283 1114 0023     		movs	r3, #0
 8284 1116 C8F80070 		str	r7, [r8]
 8285              	.L694:
 123:../USER/main.c **** 	if(kinbwp>=256) kinbwp = 0;
 8286              		.loc 1 123 39 is_stmt 1 view .LVU2803
 123:../USER/main.c **** 	if(kinbwp>=256) kinbwp = 0;
 8287              		.loc 1 123 2 view .LVU2804
 123:../USER/main.c **** 	if(kinbwp>=256) kinbwp = 0;
 8288              		.loc 1 123 11 is_stmt 0 view .LVU2805
 8289 111a 4FF04022 		mov	r2, #1073758208
 8290 111e 5068     		ldr	r0, [r2, #4]
 8291              	.LVL555:
 123:../USER/main.c **** 	if(kinbwp>=256) kinbwp = 0;
 8292              		.loc 1 123 52 view .LVU2806
 8293 1120 591C     		adds	r1, r3, #1
 123:../USER/main.c **** 	if(kinbwp>=256) kinbwp = 0;
 8294              		.loc 1 123 4 view .LVU2807
 8295 1122 8007     		lsls	r0, r0, #30
 8296 1124 09D5     		bpl	.L696
 124:../USER/main.c **** 	//
 8297              		.loc 1 124 25 view .LVU2808
 8298 1126 B1F5807F 		cmp	r1, #256
 123:../USER/main.c **** 	if(kinbwp>=256) kinbwp = 0;
 8299              		.loc 1 123 63 view .LVU2809
 8300 112a 1068     		ldr	r0, [r2]
 124:../USER/main.c **** 	//
 8301              		.loc 1 124 25 view .LVU2810
 8302 112c 14BF     		ite	ne
 8303 112e 0A46     		movne	r2, r1
 8304 1130 3A46     		moveq	r2, r7
 123:../USER/main.c **** 	if(kinbwp>=256) kinbwp = 0;
 8305              		.loc 1 123 56 view .LVU2811
 8306 1132 09F80300 		strb	r0, [r9, r3]
 124:../USER/main.c **** 	//
 8307              		.loc 1 124 2 is_stmt 1 view .LVU2812
 124:../USER/main.c **** 	//
 8308              		.loc 1 124 25 is_stmt 0 view .LVU2813
 8309 1136 C8F80020 		str	r2, [r8]
 8310              	.L696:
 124:../USER/main.c **** 	//
 8311              		.loc 1 124 25 view .LVU2814
 8312              	.LBE1223:
 8313              	.LBE1222:
 142:../USER/main.c **** 		}
 8314              		.loc 1 142 4 is_stmt 1 view .LVU2815
 142:../USER/main.c **** 		}
 8315              		.loc 1 142 13 is_stmt 0 view .LVU2816
 8316 113a 3046     		mov	r0, r6
 8317 113c FFF7FEFF 		bl	GPIO_ReadBits
 8318              	.LVL556:
 142:../USER/main.c **** 		}
 8319              		.loc 1 142 11 view .LVU2817
 8320 1140 2290     		str	r0, [sp, #136]
 140:../USER/main.c **** 			key_check();
 8321              		.loc 1 140 17 view .LVU2818
 8322 1142 229B     		ldr	r3, [sp, #136]
 140:../USER/main.c **** 			key_check();
 8323              		.loc 1 140 8 view .LVU2819
 8324 1144 5B04     		lsls	r3, r3, #17
 8325 1146 40F15583 		bpl	.L697
 8326              	.L691:
 141:../USER/main.c **** 			gpiord = GPIO_ReadBits(GPIO0);
 8327              		.loc 1 141 4 is_stmt 1 view .LVU2820
 8328              	.LBB1225:
 8329              	.LBI1222:
 116:../USER/main.c **** 	char ch;
 8330              		.loc 1 116 6 view .LVU2821
 8331              	.LBB1224:
 117:../USER/main.c **** 	//
 8332              		.loc 1 117 2 view .LVU2822
 119:../USER/main.c **** 	if(ch!=0) kinbuf[kinbwp++] = ch;
 8333              		.loc 1 119 2 view .LVU2823
 119:../USER/main.c **** 	if(ch!=0) kinbuf[kinbwp++] = ch;
 8334              		.loc 1 119 7 is_stmt 0 view .LVU2824
 8335 114a FFF7FEFF 		bl	SPI_ReadData
 8336              	.LVL557:
 120:../USER/main.c **** 	if(kinbwp>=256) kinbwp = 0;
 8337              		.loc 1 120 12 is_stmt 1 view .LVU2825
 119:../USER/main.c **** 	if(ch!=0) kinbuf[kinbwp++] = ch;
 8338              		.loc 1 119 5 is_stmt 0 view .LVU2826
 8339 114e 40B2     		sxtb	r0, r0
 8340              	.LVL558:
 120:../USER/main.c **** 	if(kinbwp>=256) kinbwp = 0;
 8341              		.loc 1 120 2 is_stmt 1 view .LVU2827
 120:../USER/main.c **** 	if(kinbwp>=256) kinbwp = 0;
 8342              		.loc 1 120 4 is_stmt 0 view .LVU2828
 8343 1150 0028     		cmp	r0, #0
 8344 1152 DBD0     		beq	.L1170
 120:../USER/main.c **** 	if(kinbwp>=256) kinbwp = 0;
 8345              		.loc 1 120 25 view .LVU2829
 8346 1154 D8F80020 		ldr	r2, [r8]
 8347 1158 531C     		adds	r3, r2, #1
 120:../USER/main.c **** 	if(kinbwp>=256) kinbwp = 0;
 8348              		.loc 1 120 29 view .LVU2830
 8349 115a 09F80200 		strb	r0, [r9, r2]
 120:../USER/main.c **** 	if(kinbwp>=256) kinbwp = 0;
 8350              		.loc 1 120 25 view .LVU2831
 8351 115e C8F80030 		str	r3, [r8]
 8352 1162 D5E7     		b	.L693
 8353              	.LVL559:
 8354              	.L1168:
 120:../USER/main.c **** 	if(kinbwp>=256) kinbwp = 0;
 8355              		.loc 1 120 25 view .LVU2832
 8356              	.LBE1224:
 8357              	.LBE1225:
 8358              	.LBE1231:
 8359              	.LBE1235:
 150:../USER/main.c **** void puth2(dt) int dt;{ puth((dt >> 4) & 0xf); puth(dt & 0xf); }
 8360              		.loc 1 150 55 is_stmt 1 view .LVU2833
 8361 1164 3730     		adds	r0, r0, #55
 8362 1166 FFF7FEFF 		bl	putch_uart
 8363              	.LVL560:
 8364              	.L704:
 150:../USER/main.c **** void puth2(dt) int dt;{ puth((dt >> 4) & 0xf); puth(dt & 0xf); }
 8365              		.loc 1 150 55 is_stmt 0 view .LVU2834
 8366              	.LBE1219:
 8367              	.LBE1218:
 8368              	.LBE1195:
 8369              	.LBE1194:
 8370              	.LBE1255:
 8371              	.LBE1261:
 8372              	.LBE1270:
 8373              	.LBE1277:
 8374              	.LBE1500:
 176:../USER/main.c **** 
 8375              		.loc 1 176 56 is_stmt 1 view .LVU2835
 8376              	.LBB1501:
 8377              	.LBB1278:
 8378              	.LBI1278:
 134:../USER/main.c **** 	volatile uint32_t gpiord;
 8379              		.loc 1 134 6 view .LVU2836
 8380              	.LBB1279:
 135:../USER/main.c **** 	if((mdgpio & 0x2000)==0)
 8381              		.loc 1 135 2 view .LVU2837
 136:../USER/main.c **** 		UART_SendChar(UART0,ch);
 8382              		.loc 1 136 2 view .LVU2838
 136:../USER/main.c **** 		UART_SendChar(UART0,ch);
 8383              		.loc 1 136 13 is_stmt 0 view .LVU2839
 8384 116a DAF80030 		ldr	r3, [r10]
 136:../USER/main.c **** 		UART_SendChar(UART0,ch);
 8385              		.loc 1 136 4 view .LVU2840
 8386 116e 9C04     		lsls	r4, r3, #18
 8387 1170 40F17A83 		bpl	.L1171
 139:../USER/main.c **** 		while((gpiord & 0x4000)!=0) {
 8388              		.loc 1 139 3 is_stmt 1 view .LVU2841
 139:../USER/main.c **** 		while((gpiord & 0x4000)!=0) {
 8389              		.loc 1 139 10 is_stmt 0 view .LVU2842
 8390 1174 4FF48043 		mov	r3, #16384
 8391 1178 1C93     		str	r3, [sp, #112]
 140:../USER/main.c **** 			key_check();
 8392              		.loc 1 140 3 is_stmt 1 view .LVU2843
 140:../USER/main.c **** 			key_check();
 8393              		.loc 1 140 17 is_stmt 0 view .LVU2844
 8394 117a 1C9B     		ldr	r3, [sp, #112]
 140:../USER/main.c **** 			key_check();
 8395              		.loc 1 140 8 view .LVU2845
 8396 117c 5804     		lsls	r0, r3, #17
 8397 117e 2CD5     		bpl	.L713
 142:../USER/main.c **** 		}
 8398              		.loc 1 142 13 view .LVU2846
 8399 1180 484C     		ldr	r4, .L1217
 8400 1182 1DE0     		b	.L707
 8401              	.LVL561:
 8402              	.L1172:
 142:../USER/main.c **** 		}
 8403              		.loc 1 142 13 view .LVU2847
 8404 1184 D8F80030 		ldr	r3, [r8]
 8405              	.L709:
 8406              	.LBB1280:
 8407              	.LBB1281:
 121:../USER/main.c **** 	//
 8408              		.loc 1 121 2 is_stmt 1 view .LVU2848
 121:../USER/main.c **** 	//
 8409              		.loc 1 121 18 view .LVU2849
 121:../USER/main.c **** 	//
 8410              		.loc 1 121 4 is_stmt 0 view .LVU2850
 8411 1188 FF2B     		cmp	r3, #255
 8412 118a 02DD     		ble	.L710
 121:../USER/main.c **** 	//
 8413              		.loc 1 121 25 view .LVU2851
 8414 118c 0023     		movs	r3, #0
 8415 118e C8F80070 		str	r7, [r8]
 8416              	.L710:
 123:../USER/main.c **** 	if(kinbwp>=256) kinbwp = 0;
 8417              		.loc 1 123 39 is_stmt 1 view .LVU2852
 123:../USER/main.c **** 	if(kinbwp>=256) kinbwp = 0;
 8418              		.loc 1 123 2 view .LVU2853
 123:../USER/main.c **** 	if(kinbwp>=256) kinbwp = 0;
 8419              		.loc 1 123 11 is_stmt 0 view .LVU2854
 8420 1192 4FF04021 		mov	r1, #1073758208
 8421 1196 4868     		ldr	r0, [r1, #4]
 8422              	.LVL562:
 123:../USER/main.c **** 	if(kinbwp>=256) kinbwp = 0;
 8423              		.loc 1 123 52 view .LVU2855
 8424 1198 5A1C     		adds	r2, r3, #1
 123:../USER/main.c **** 	if(kinbwp>=256) kinbwp = 0;
 8425              		.loc 1 123 4 view .LVU2856
 8426 119a 8007     		lsls	r0, r0, #30
 8427 119c 09D5     		bpl	.L712
 124:../USER/main.c **** 	//
 8428              		.loc 1 124 25 view .LVU2857
 8429 119e B2F5807F 		cmp	r2, #256
 123:../USER/main.c **** 	if(kinbwp>=256) kinbwp = 0;
 8430              		.loc 1 123 63 view .LVU2858
 8431 11a2 0868     		ldr	r0, [r1]
 124:../USER/main.c **** 	//
 8432              		.loc 1 124 25 view .LVU2859
 8433 11a4 14BF     		ite	ne
 8434 11a6 1146     		movne	r1, r2
 8435 11a8 3946     		moveq	r1, r7
 123:../USER/main.c **** 	if(kinbwp>=256) kinbwp = 0;
 8436              		.loc 1 123 56 view .LVU2860
 8437 11aa 09F80300 		strb	r0, [r9, r3]
 124:../USER/main.c **** 	//
 8438              		.loc 1 124 2 is_stmt 1 view .LVU2861
 124:../USER/main.c **** 	//
 8439              		.loc 1 124 25 is_stmt 0 view .LVU2862
 8440 11ae C8F80010 		str	r1, [r8]
 8441              	.L712:
 124:../USER/main.c **** 	//
 8442              		.loc 1 124 25 view .LVU2863
 8443              	.LBE1281:
 8444              	.LBE1280:
 142:../USER/main.c **** 		}
 8445              		.loc 1 142 4 is_stmt 1 view .LVU2864
 142:../USER/main.c **** 		}
 8446              		.loc 1 142 13 is_stmt 0 view .LVU2865
 8447 11b2 2046     		mov	r0, r4
 8448 11b4 FFF7FEFF 		bl	GPIO_ReadBits
 8449              	.LVL563:
 142:../USER/main.c **** 		}
 8450              		.loc 1 142 11 view .LVU2866
 8451 11b8 1C90     		str	r0, [sp, #112]
 140:../USER/main.c **** 			key_check();
 8452              		.loc 1 140 17 view .LVU2867
 8453 11ba 1C9B     		ldr	r3, [sp, #112]
 140:../USER/main.c **** 			key_check();
 8454              		.loc 1 140 8 view .LVU2868
 8455 11bc 5904     		lsls	r1, r3, #17
 8456 11be 0CD5     		bpl	.L713
 8457              	.L707:
 141:../USER/main.c **** 			gpiord = GPIO_ReadBits(GPIO0);
 8458              		.loc 1 141 4 is_stmt 1 view .LVU2869
 8459              	.LBB1283:
 8460              	.LBI1280:
 116:../USER/main.c **** 	char ch;
 8461              		.loc 1 116 6 view .LVU2870
 8462              	.LBB1282:
 117:../USER/main.c **** 	//
 8463              		.loc 1 117 2 view .LVU2871
 119:../USER/main.c **** 	if(ch!=0) kinbuf[kinbwp++] = ch;
 8464              		.loc 1 119 2 view .LVU2872
 119:../USER/main.c **** 	if(ch!=0) kinbuf[kinbwp++] = ch;
 8465              		.loc 1 119 7 is_stmt 0 view .LVU2873
 8466 11c0 FFF7FEFF 		bl	SPI_ReadData
 8467              	.LVL564:
 120:../USER/main.c **** 	if(kinbwp>=256) kinbwp = 0;
 8468              		.loc 1 120 12 is_stmt 1 view .LVU2874
 119:../USER/main.c **** 	if(ch!=0) kinbuf[kinbwp++] = ch;
 8469              		.loc 1 119 5 is_stmt 0 view .LVU2875
 8470 11c4 40B2     		sxtb	r0, r0
 8471              	.LVL565:
 120:../USER/main.c **** 	if(kinbwp>=256) kinbwp = 0;
 8472              		.loc 1 120 2 is_stmt 1 view .LVU2876
 120:../USER/main.c **** 	if(kinbwp>=256) kinbwp = 0;
 8473              		.loc 1 120 4 is_stmt 0 view .LVU2877
 8474 11c6 0028     		cmp	r0, #0
 8475 11c8 DCD0     		beq	.L1172
 120:../USER/main.c **** 	if(kinbwp>=256) kinbwp = 0;
 8476              		.loc 1 120 25 view .LVU2878
 8477 11ca D8F80020 		ldr	r2, [r8]
 8478 11ce 531C     		adds	r3, r2, #1
 120:../USER/main.c **** 	if(kinbwp>=256) kinbwp = 0;
 8479              		.loc 1 120 29 view .LVU2879
 8480 11d0 09F80200 		strb	r0, [r9, r2]
 120:../USER/main.c **** 	if(kinbwp>=256) kinbwp = 0;
 8481              		.loc 1 120 25 view .LVU2880
 8482 11d4 C8F80030 		str	r3, [r8]
 8483 11d8 D6E7     		b	.L709
 8484              	.LVL566:
 8485              	.L713:
 120:../USER/main.c **** 	if(kinbwp>=256) kinbwp = 0;
 8486              		.loc 1 120 25 view .LVU2881
 8487              	.LBE1282:
 8488              	.LBE1283:
 144:../USER/main.c **** 	}
 8489              		.loc 1 144 3 is_stmt 1 view .LVU2882
 8490 11da 3A20     		movs	r0, #58
 8491 11dc FFF7FEFF 		bl	SPI_WriteData
 8492              	.LVL567:
 8493              	.L706:
 8494              	.LBB1284:
 8495              	.LBB1285:
 123:../USER/main.c **** 	if(kinbwp>=256) kinbwp = 0;
 8496              		.loc 1 123 11 is_stmt 0 view .LVU2883
 8497 11e0 4FF04024 		mov	r4, #1073758208
 8498 11e4 18E0     		b	.L719
 8499              	.LVL568:
 8500              	.L1174:
 123:../USER/main.c **** 	if(kinbwp>=256) kinbwp = 0;
 8501              		.loc 1 123 11 view .LVU2884
 8502 11e6 D8F80030 		ldr	r3, [r8]
 8503              	.L715:
 121:../USER/main.c **** 	//
 8504              		.loc 1 121 2 is_stmt 1 view .LVU2885
 121:../USER/main.c **** 	//
 8505              		.loc 1 121 18 view .LVU2886
 121:../USER/main.c **** 	//
 8506              		.loc 1 121 4 is_stmt 0 view .LVU2887
 8507 11ea FF2B     		cmp	r3, #255
 8508 11ec 02DD     		ble	.L716
 121:../USER/main.c **** 	//
 8509              		.loc 1 121 25 view .LVU2888
 8510 11ee 0023     		movs	r3, #0
 8511 11f0 C8F80070 		str	r7, [r8]
 8512              	.L716:
 123:../USER/main.c **** 	if(kinbwp>=256) kinbwp = 0;
 8513              		.loc 1 123 39 is_stmt 1 view .LVU2889
 123:../USER/main.c **** 	if(kinbwp>=256) kinbwp = 0;
 8514              		.loc 1 123 2 view .LVU2890
 123:../USER/main.c **** 	if(kinbwp>=256) kinbwp = 0;
 8515              		.loc 1 123 11 is_stmt 0 view .LVU2891
 8516 11f4 6168     		ldr	r1, [r4, #4]
 123:../USER/main.c **** 	if(kinbwp>=256) kinbwp = 0;
 8517              		.loc 1 123 52 view .LVU2892
 8518 11f6 5A1C     		adds	r2, r3, #1
 123:../USER/main.c **** 	if(kinbwp>=256) kinbwp = 0;
 8519              		.loc 1 123 4 view .LVU2893
 8520 11f8 8D07     		lsls	r5, r1, #30
 8521 11fa 09D5     		bpl	.L718
 124:../USER/main.c **** 	//
 8522              		.loc 1 124 25 view .LVU2894
 8523 11fc B2F5807F 		cmp	r2, #256
 8524 1200 14BF     		ite	ne
 8525 1202 1146     		movne	r1, r2
 8526 1204 3946     		moveq	r1, r7
 123:../USER/main.c **** 	if(kinbwp>=256) kinbwp = 0;
 8527              		.loc 1 123 63 view .LVU2895
 8528 1206 2068     		ldr	r0, [r4]
 8529              	.LVL569:
 124:../USER/main.c **** 	//
 8530              		.loc 1 124 25 view .LVU2896
 8531 1208 C8F80010 		str	r1, [r8]
 123:../USER/main.c **** 	if(kinbwp>=256) kinbwp = 0;
 8532              		.loc 1 123 56 view .LVU2897
 8533 120c 09F80300 		strb	r0, [r9, r3]
 124:../USER/main.c **** 	//
 8534              		.loc 1 124 2 is_stmt 1 view .LVU2898
 8535              	.L718:
 124:../USER/main.c **** 	//
 8536              		.loc 1 124 2 is_stmt 0 view .LVU2899
 8537              	.LBE1285:
 8538              	.LBE1284:
 147:../USER/main.c **** }
 8539              		.loc 1 147 27 is_stmt 1 view .LVU2900
 147:../USER/main.c **** }
 8540              		.loc 1 147 32 is_stmt 0 view .LVU2901
 8541 1210 3A20     		movs	r0, #58
 8542 1212 FFF7FEFF 		bl	disp_vram
 8543              	.LVL570:
 147:../USER/main.c **** }
 8544              		.loc 1 147 2 view .LVU2902
 8545 1216 60B1     		cbz	r0, .L1173
 8546              	.LVL571:
 8547              	.L719:
 147:../USER/main.c **** }
 8548              		.loc 1 147 2 is_stmt 1 view .LVU2903
 147:../USER/main.c **** }
 8549              		.loc 1 147 10 view .LVU2904
 147:../USER/main.c **** }
 8550              		.loc 1 147 14 view .LVU2905
 8551              	.LBB1287:
 8552              	.LBI1284:
 116:../USER/main.c **** 	char ch;
 8553              		.loc 1 116 6 view .LVU2906
 8554              	.LBB1286:
 117:../USER/main.c **** 	//
 8555              		.loc 1 117 2 view .LVU2907
 119:../USER/main.c **** 	if(ch!=0) kinbuf[kinbwp++] = ch;
 8556              		.loc 1 119 2 view .LVU2908
 119:../USER/main.c **** 	if(ch!=0) kinbuf[kinbwp++] = ch;
 8557              		.loc 1 119 7 is_stmt 0 view .LVU2909
 8558 1218 FFF7FEFF 		bl	SPI_ReadData
 8559              	.LVL572:
 120:../USER/main.c **** 	if(kinbwp>=256) kinbwp = 0;
 8560              		.loc 1 120 12 is_stmt 1 view .LVU2910
 119:../USER/main.c **** 	if(ch!=0) kinbuf[kinbwp++] = ch;
 8561              		.loc 1 119 5 is_stmt 0 view .LVU2911
 8562 121c 40B2     		sxtb	r0, r0
 8563              	.LVL573:
 120:../USER/main.c **** 	if(kinbwp>=256) kinbwp = 0;
 8564              		.loc 1 120 2 is_stmt 1 view .LVU2912
 120:../USER/main.c **** 	if(kinbwp>=256) kinbwp = 0;
 8565              		.loc 1 120 4 is_stmt 0 view .LVU2913
 8566 121e 0028     		cmp	r0, #0
 8567 1220 E1D0     		beq	.L1174
 120:../USER/main.c **** 	if(kinbwp>=256) kinbwp = 0;
 8568              		.loc 1 120 25 view .LVU2914
 8569 1222 D8F80020 		ldr	r2, [r8]
 8570 1226 531C     		adds	r3, r2, #1
 120:../USER/main.c **** 	if(kinbwp>=256) kinbwp = 0;
 8571              		.loc 1 120 29 view .LVU2915
 8572 1228 09F80200 		strb	r0, [r9, r2]
 120:../USER/main.c **** 	if(kinbwp>=256) kinbwp = 0;
 8573              		.loc 1 120 25 view .LVU2916
 8574 122c C8F80030 		str	r3, [r8]
 8575 1230 DBE7     		b	.L715
 8576              	.LVL574:
 8577              	.L1173:
 120:../USER/main.c **** 	if(kinbwp>=256) kinbwp = 0;
 8578              		.loc 1 120 25 view .LVU2917
 8579              	.LBE1286:
 8580              	.LBE1287:
 8581              	.LBE1279:
 8582              	.LBE1278:
 8583              	.LBE1501:
 267:../USER/main.c **** 	        while(cmd!='.'){
 268:../USER/main.c **** 	          putadrhd(adr);
 269:../USER/main.c **** 	          putch(' '); puth2(mbase[adr]); if(mmd==2) puth2(mbase[adr+1]);
 8584              		.loc 1 269 12 is_stmt 1 view .LVU2918
 8585              	.LBB1502:
 8586              	.LBI1502:
 134:../USER/main.c **** 	volatile uint32_t gpiord;
 8587              		.loc 1 134 6 view .LVU2919
 8588              	.LBB1503:
 135:../USER/main.c **** 	if((mdgpio & 0x2000)==0)
 8589              		.loc 1 135 2 view .LVU2920
 136:../USER/main.c **** 		UART_SendChar(UART0,ch);
 8590              		.loc 1 136 2 view .LVU2921
 136:../USER/main.c **** 		UART_SendChar(UART0,ch);
 8591              		.loc 1 136 13 is_stmt 0 view .LVU2922
 8592 1232 DAF80030 		ldr	r3, [r10]
 136:../USER/main.c **** 		UART_SendChar(UART0,ch);
 8593              		.loc 1 136 4 view .LVU2923
 8594 1236 9A04     		lsls	r2, r3, #18
 8595 1238 40F11083 		bpl	.L1175
 139:../USER/main.c **** 		while((gpiord & 0x4000)!=0) {
 8596              		.loc 1 139 3 is_stmt 1 view .LVU2924
 139:../USER/main.c **** 		while((gpiord & 0x4000)!=0) {
 8597              		.loc 1 139 10 is_stmt 0 view .LVU2925
 8598 123c 4FF48043 		mov	r3, #16384
 8599 1240 1A93     		str	r3, [sp, #104]
 140:../USER/main.c **** 			key_check();
 8600              		.loc 1 140 3 is_stmt 1 view .LVU2926
 140:../USER/main.c **** 			key_check();
 8601              		.loc 1 140 17 is_stmt 0 view .LVU2927
 8602 1242 1A9B     		ldr	r3, [sp, #104]
 140:../USER/main.c **** 			key_check();
 8603              		.loc 1 140 8 view .LVU2928
 8604 1244 5B04     		lsls	r3, r3, #17
 8605 1246 2FD5     		bpl	.L728
 142:../USER/main.c **** 		}
 8606              		.loc 1 142 13 view .LVU2929
 8607 1248 164C     		ldr	r4, .L1217
 8608 124a 1DE0     		b	.L722
 8609              	.LVL575:
 8610              	.L1176:
 142:../USER/main.c **** 		}
 8611              		.loc 1 142 13 view .LVU2930
 8612 124c D8F80030 		ldr	r3, [r8]
 8613              	.L724:
 8614              	.LBB1504:
 8615              	.LBB1505:
 121:../USER/main.c **** 	//
 8616              		.loc 1 121 2 is_stmt 1 view .LVU2931
 121:../USER/main.c **** 	//
 8617              		.loc 1 121 18 view .LVU2932
 121:../USER/main.c **** 	//
 8618              		.loc 1 121 4 is_stmt 0 view .LVU2933
 8619 1250 FF2B     		cmp	r3, #255
 8620 1252 02DD     		ble	.L725
 121:../USER/main.c **** 	//
 8621              		.loc 1 121 25 view .LVU2934
 8622 1254 0023     		movs	r3, #0
 8623 1256 C8F80070 		str	r7, [r8]
 8624              	.L725:
 123:../USER/main.c **** 	if(kinbwp>=256) kinbwp = 0;
 8625              		.loc 1 123 39 is_stmt 1 view .LVU2935
 123:../USER/main.c **** 	if(kinbwp>=256) kinbwp = 0;
 8626              		.loc 1 123 2 view .LVU2936
 123:../USER/main.c **** 	if(kinbwp>=256) kinbwp = 0;
 8627              		.loc 1 123 11 is_stmt 0 view .LVU2937
 8628 125a 4FF04021 		mov	r1, #1073758208
 8629 125e 4868     		ldr	r0, [r1, #4]
 8630              	.LVL576:
 123:../USER/main.c **** 	if(kinbwp>=256) kinbwp = 0;
 8631              		.loc 1 123 52 view .LVU2938
 8632 1260 5A1C     		adds	r2, r3, #1
 123:../USER/main.c **** 	if(kinbwp>=256) kinbwp = 0;
 8633              		.loc 1 123 4 view .LVU2939
 8634 1262 8607     		lsls	r6, r0, #30
 8635 1264 09D5     		bpl	.L727
 124:../USER/main.c **** 	//
 8636              		.loc 1 124 25 view .LVU2940
 8637 1266 B2F5807F 		cmp	r2, #256
 123:../USER/main.c **** 	if(kinbwp>=256) kinbwp = 0;
 8638              		.loc 1 123 63 view .LVU2941
 8639 126a 0868     		ldr	r0, [r1]
 124:../USER/main.c **** 	//
 8640              		.loc 1 124 25 view .LVU2942
 8641 126c 14BF     		ite	ne
 8642 126e 1146     		movne	r1, r2
 8643 1270 3946     		moveq	r1, r7
 123:../USER/main.c **** 	if(kinbwp>=256) kinbwp = 0;
 8644              		.loc 1 123 56 view .LVU2943
 8645 1272 09F80300 		strb	r0, [r9, r3]
 124:../USER/main.c **** 	//
 8646              		.loc 1 124 2 is_stmt 1 view .LVU2944
 124:../USER/main.c **** 	//
 8647              		.loc 1 124 25 is_stmt 0 view .LVU2945
 8648 1276 C8F80010 		str	r1, [r8]
 8649              	.L727:
 124:../USER/main.c **** 	//
 8650              		.loc 1 124 25 view .LVU2946
 8651              	.LBE1505:
 8652              	.LBE1504:
 142:../USER/main.c **** 		}
 8653              		.loc 1 142 4 is_stmt 1 view .LVU2947
 142:../USER/main.c **** 		}
 8654              		.loc 1 142 13 is_stmt 0 view .LVU2948
 8655 127a 2046     		mov	r0, r4
 8656 127c FFF7FEFF 		bl	GPIO_ReadBits
 8657              	.LVL577:
 142:../USER/main.c **** 		}
 8658              		.loc 1 142 11 view .LVU2949
 8659 1280 1A90     		str	r0, [sp, #104]
 140:../USER/main.c **** 			key_check();
 8660              		.loc 1 140 17 view .LVU2950
 8661 1282 1A9B     		ldr	r3, [sp, #104]
 140:../USER/main.c **** 			key_check();
 8662              		.loc 1 140 8 view .LVU2951
 8663 1284 5E04     		lsls	r6, r3, #17
 8664 1286 0FD5     		bpl	.L728
 8665              	.L722:
 141:../USER/main.c **** 			gpiord = GPIO_ReadBits(GPIO0);
 8666              		.loc 1 141 4 is_stmt 1 view .LVU2952
 8667              	.LBB1507:
 8668              	.LBI1504:
 116:../USER/main.c **** 	char ch;
 8669              		.loc 1 116 6 view .LVU2953
 8670              	.LBB1506:
 117:../USER/main.c **** 	//
 8671              		.loc 1 117 2 view .LVU2954
 119:../USER/main.c **** 	if(ch!=0) kinbuf[kinbwp++] = ch;
 8672              		.loc 1 119 2 view .LVU2955
 119:../USER/main.c **** 	if(ch!=0) kinbuf[kinbwp++] = ch;
 8673              		.loc 1 119 7 is_stmt 0 view .LVU2956
 8674 1288 FFF7FEFF 		bl	SPI_ReadData
 8675              	.LVL578:
 120:../USER/main.c **** 	if(kinbwp>=256) kinbwp = 0;
 8676              		.loc 1 120 12 is_stmt 1 view .LVU2957
 119:../USER/main.c **** 	if(ch!=0) kinbuf[kinbwp++] = ch;
 8677              		.loc 1 119 5 is_stmt 0 view .LVU2958
 8678 128c 40B2     		sxtb	r0, r0
 8679              	.LVL579:
 120:../USER/main.c **** 	if(kinbwp>=256) kinbwp = 0;
 8680              		.loc 1 120 2 is_stmt 1 view .LVU2959
 120:../USER/main.c **** 	if(kinbwp>=256) kinbwp = 0;
 8681              		.loc 1 120 4 is_stmt 0 view .LVU2960
 8682 128e 0028     		cmp	r0, #0
 8683 1290 DCD0     		beq	.L1176
 120:../USER/main.c **** 	if(kinbwp>=256) kinbwp = 0;
 8684              		.loc 1 120 25 view .LVU2961
 8685 1292 D8F80020 		ldr	r2, [r8]
 8686 1296 531C     		adds	r3, r2, #1
 120:../USER/main.c **** 	if(kinbwp>=256) kinbwp = 0;
 8687              		.loc 1 120 29 view .LVU2962
 8688 1298 09F80200 		strb	r0, [r9, r2]
 120:../USER/main.c **** 	if(kinbwp>=256) kinbwp = 0;
 8689              		.loc 1 120 25 view .LVU2963
 8690 129c C8F80030 		str	r3, [r8]
 8691 12a0 D6E7     		b	.L724
 8692              	.L1218:
 8693 12a2 00BF     		.align	2
 8694              	.L1217:
 8695 12a4 00000140 		.word	1073807360
 8696              	.LVL580:
 8697              	.L728:
 120:../USER/main.c **** 	if(kinbwp>=256) kinbwp = 0;
 8698              		.loc 1 120 25 view .LVU2964
 8699              	.LBE1506:
 8700              	.LBE1507:
 144:../USER/main.c **** 	}
 8701              		.loc 1 144 3 is_stmt 1 view .LVU2965
 8702 12a8 2020     		movs	r0, #32
 8703 12aa FFF7FEFF 		bl	SPI_WriteData
 8704              	.LVL581:
 8705              	.L721:
 8706              	.LBB1508:
 8707              	.LBB1509:
 123:../USER/main.c **** 	if(kinbwp>=256) kinbwp = 0;
 8708              		.loc 1 123 11 is_stmt 0 view .LVU2966
 8709 12ae 4FF04024 		mov	r4, #1073758208
 8710 12b2 18E0     		b	.L734
 8711              	.LVL582:
 8712              	.L1178:
 123:../USER/main.c **** 	if(kinbwp>=256) kinbwp = 0;
 8713              		.loc 1 123 11 view .LVU2967
 8714 12b4 D8F80030 		ldr	r3, [r8]
 8715              	.L730:
 121:../USER/main.c **** 	//
 8716              		.loc 1 121 2 is_stmt 1 view .LVU2968
 121:../USER/main.c **** 	//
 8717              		.loc 1 121 18 view .LVU2969
 121:../USER/main.c **** 	//
 8718              		.loc 1 121 4 is_stmt 0 view .LVU2970
 8719 12b8 FF2B     		cmp	r3, #255
 8720 12ba 02DD     		ble	.L731
 121:../USER/main.c **** 	//
 8721              		.loc 1 121 25 view .LVU2971
 8722 12bc 0023     		movs	r3, #0
 8723 12be C8F80070 		str	r7, [r8]
 8724              	.L731:
 123:../USER/main.c **** 	if(kinbwp>=256) kinbwp = 0;
 8725              		.loc 1 123 39 is_stmt 1 view .LVU2972
 123:../USER/main.c **** 	if(kinbwp>=256) kinbwp = 0;
 8726              		.loc 1 123 2 view .LVU2973
 123:../USER/main.c **** 	if(kinbwp>=256) kinbwp = 0;
 8727              		.loc 1 123 11 is_stmt 0 view .LVU2974
 8728 12c2 6168     		ldr	r1, [r4, #4]
 123:../USER/main.c **** 	if(kinbwp>=256) kinbwp = 0;
 8729              		.loc 1 123 52 view .LVU2975
 8730 12c4 5A1C     		adds	r2, r3, #1
 123:../USER/main.c **** 	if(kinbwp>=256) kinbwp = 0;
 8731              		.loc 1 123 4 view .LVU2976
 8732 12c6 8807     		lsls	r0, r1, #30
 8733              	.LVL583:
 123:../USER/main.c **** 	if(kinbwp>=256) kinbwp = 0;
 8734              		.loc 1 123 4 view .LVU2977
 8735 12c8 09D5     		bpl	.L733
 124:../USER/main.c **** 	//
 8736              		.loc 1 124 25 view .LVU2978
 8737 12ca B2F5807F 		cmp	r2, #256
 8738 12ce 14BF     		ite	ne
 8739 12d0 1146     		movne	r1, r2
 8740 12d2 3946     		moveq	r1, r7
 123:../USER/main.c **** 	if(kinbwp>=256) kinbwp = 0;
 8741              		.loc 1 123 63 view .LVU2979
 8742 12d4 2068     		ldr	r0, [r4]
 124:../USER/main.c **** 	//
 8743              		.loc 1 124 25 view .LVU2980
 8744 12d6 C8F80010 		str	r1, [r8]
 123:../USER/main.c **** 	if(kinbwp>=256) kinbwp = 0;
 8745              		.loc 1 123 56 view .LVU2981
 8746 12da 09F80300 		strb	r0, [r9, r3]
 124:../USER/main.c **** 	//
 8747              		.loc 1 124 2 is_stmt 1 view .LVU2982
 8748              	.L733:
 124:../USER/main.c **** 	//
 8749              		.loc 1 124 2 is_stmt 0 view .LVU2983
 8750              	.LBE1509:
 8751              	.LBE1508:
 147:../USER/main.c **** }
 8752              		.loc 1 147 27 is_stmt 1 view .LVU2984
 147:../USER/main.c **** }
 8753              		.loc 1 147 32 is_stmt 0 view .LVU2985
 8754 12de 2020     		movs	r0, #32
 8755 12e0 FFF7FEFF 		bl	disp_vram
 8756              	.LVL584:
 147:../USER/main.c **** }
 8757              		.loc 1 147 2 view .LVU2986
 8758 12e4 60B1     		cbz	r0, .L1177
 8759              	.LVL585:
 8760              	.L734:
 147:../USER/main.c **** }
 8761              		.loc 1 147 2 is_stmt 1 view .LVU2987
 147:../USER/main.c **** }
 8762              		.loc 1 147 10 view .LVU2988
 147:../USER/main.c **** }
 8763              		.loc 1 147 14 view .LVU2989
 8764              	.LBB1511:
 8765              	.LBI1508:
 116:../USER/main.c **** 	char ch;
 8766              		.loc 1 116 6 view .LVU2990
 8767              	.LBB1510:
 117:../USER/main.c **** 	//
 8768              		.loc 1 117 2 view .LVU2991
 119:../USER/main.c **** 	if(ch!=0) kinbuf[kinbwp++] = ch;
 8769              		.loc 1 119 2 view .LVU2992
 119:../USER/main.c **** 	if(ch!=0) kinbuf[kinbwp++] = ch;
 8770              		.loc 1 119 7 is_stmt 0 view .LVU2993
 8771 12e6 FFF7FEFF 		bl	SPI_ReadData
 8772              	.LVL586:
 120:../USER/main.c **** 	if(kinbwp>=256) kinbwp = 0;
 8773              		.loc 1 120 12 is_stmt 1 view .LVU2994
 119:../USER/main.c **** 	if(ch!=0) kinbuf[kinbwp++] = ch;
 8774              		.loc 1 119 5 is_stmt 0 view .LVU2995
 8775 12ea 40B2     		sxtb	r0, r0
 8776              	.LVL587:
 120:../USER/main.c **** 	if(kinbwp>=256) kinbwp = 0;
 8777              		.loc 1 120 2 is_stmt 1 view .LVU2996
 120:../USER/main.c **** 	if(kinbwp>=256) kinbwp = 0;
 8778              		.loc 1 120 4 is_stmt 0 view .LVU2997
 8779 12ec 0028     		cmp	r0, #0
 8780 12ee E1D0     		beq	.L1178
 120:../USER/main.c **** 	if(kinbwp>=256) kinbwp = 0;
 8781              		.loc 1 120 25 view .LVU2998
 8782 12f0 D8F80020 		ldr	r2, [r8]
 8783 12f4 531C     		adds	r3, r2, #1
 120:../USER/main.c **** 	if(kinbwp>=256) kinbwp = 0;
 8784              		.loc 1 120 29 view .LVU2999
 8785 12f6 09F80200 		strb	r0, [r9, r2]
 120:../USER/main.c **** 	if(kinbwp>=256) kinbwp = 0;
 8786              		.loc 1 120 25 view .LVU3000
 8787 12fa C8F80030 		str	r3, [r8]
 8788 12fe DBE7     		b	.L730
 8789              	.LVL588:
 8790              	.L1177:
 120:../USER/main.c **** 	if(kinbwp>=256) kinbwp = 0;
 8791              		.loc 1 120 25 view .LVU3001
 8792              	.LBE1510:
 8793              	.LBE1511:
 8794              	.LBE1503:
 8795              	.LBE1502:
 8796              		.loc 1 269 24 is_stmt 1 view .LVU3002
 8797              		.loc 1 269 35 is_stmt 0 view .LVU3003
 8798 1300 9BF80040 		ldrb	r4, [fp]	@ zero_extendqisi2
 8799              	.LVL589:
 8800              	.LBB1513:
 8801              	.LBI1513:
 151:../USER/main.c **** void puth4(dt) int dt;{ puth2((dt >> 8) & 0xff); puth2(dt & 0xff); }
 8802              		.loc 1 151 6 is_stmt 1 view .LVU3004
 8803              	.LBB1514:
 151:../USER/main.c **** void puth4(dt) int dt;{ puth2((dt >> 8) & 0xff); puth2(dt & 0xff); }
 8804              		.loc 1 151 25 view .LVU3005
 151:../USER/main.c **** void puth4(dt) int dt;{ puth2((dt >> 8) & 0xff); puth2(dt & 0xff); }
 8805              		.loc 1 151 34 is_stmt 0 view .LVU3006
 8806 1304 2311     		asrs	r3, r4, #4
 8807              	.LVL590:
 8808              	.LBB1515:
 8809              	.LBI1515:
 150:../USER/main.c **** void puth2(dt) int dt;{ puth((dt >> 4) & 0xf); puth(dt & 0xf); }
 8810              		.loc 1 150 6 is_stmt 1 view .LVU3007
 8811              	.LBB1516:
 150:../USER/main.c **** void puth2(dt) int dt;{ puth((dt >> 4) & 0xf); puth(dt & 0xf); }
 8812              		.loc 1 150 24 view .LVU3008
 150:../USER/main.c **** void puth2(dt) int dt;{ puth((dt >> 4) & 0xf); puth(dt & 0xf); }
 8813              		.loc 1 150 34 view .LVU3009
 150:../USER/main.c **** void puth2(dt) int dt;{ puth((dt >> 4) & 0xf); puth(dt & 0xf); }
 8814              		.loc 1 150 55 view .LVU3010
 8815 1306 D8B2     		uxtb	r0, r3
 150:../USER/main.c **** void puth2(dt) int dt;{ puth((dt >> 4) & 0xf); puth(dt & 0xf); }
 8816              		.loc 1 150 26 is_stmt 0 view .LVU3011
 8817 1308 092B     		cmp	r3, #9
 150:../USER/main.c **** void puth2(dt) int dt;{ puth((dt >> 4) & 0xf); puth(dt & 0xf); }
 8818              		.loc 1 150 34 view .LVU3012
 8819 130a D4BF     		ite	le
 8820 130c 3030     		addle	r0, r0, #48
 150:../USER/main.c **** void puth2(dt) int dt;{ puth((dt >> 4) & 0xf); puth(dt & 0xf); }
 8821              		.loc 1 150 55 view .LVU3013
 8822 130e 3730     		addgt	r0, r0, #55
 8823 1310 04F00F04 		and	r4, r4, #15
 8824              	.LVL591:
 150:../USER/main.c **** void puth2(dt) int dt;{ puth((dt >> 4) & 0xf); puth(dt & 0xf); }
 8825              		.loc 1 150 55 view .LVU3014
 8826 1314 FFF7FEFF 		bl	putch_uart
 8827              	.LVL592:
 150:../USER/main.c **** void puth2(dt) int dt;{ puth((dt >> 4) & 0xf); puth(dt & 0xf); }
 8828              		.loc 1 150 55 view .LVU3015
 8829              	.LBE1516:
 8830              	.LBE1515:
 151:../USER/main.c **** void puth4(dt) int dt;{ puth2((dt >> 8) & 0xff); puth2(dt & 0xff); }
 8831              		.loc 1 151 48 is_stmt 1 view .LVU3016
 8832              	.LBB1517:
 8833              	.LBI1517:
 150:../USER/main.c **** void puth2(dt) int dt;{ puth((dt >> 4) & 0xf); puth(dt & 0xf); }
 8834              		.loc 1 150 6 view .LVU3017
 8835              	.LBB1518:
 150:../USER/main.c **** void puth2(dt) int dt;{ puth((dt >> 4) & 0xf); puth(dt & 0xf); }
 8836              		.loc 1 150 24 view .LVU3018
 150:../USER/main.c **** void puth2(dt) int dt;{ puth((dt >> 4) & 0xf); puth(dt & 0xf); }
 8837              		.loc 1 150 34 view .LVU3019
 150:../USER/main.c **** void puth2(dt) int dt;{ puth((dt >> 4) & 0xf); puth(dt & 0xf); }
 8838              		.loc 1 150 55 view .LVU3020
 150:../USER/main.c **** void puth2(dt) int dt;{ puth((dt >> 4) & 0xf); puth(dt & 0xf); }
 8839              		.loc 1 150 26 is_stmt 0 view .LVU3021
 8840 1318 092C     		cmp	r4, #9
 150:../USER/main.c **** void puth2(dt) int dt;{ puth((dt >> 4) & 0xf); puth(dt & 0xf); }
 8841              		.loc 1 150 34 view .LVU3022
 8842 131a 94BF     		ite	ls
 8843 131c 04F13000 		addls	r0, r4, #48
 150:../USER/main.c **** void puth2(dt) int dt;{ puth((dt >> 4) & 0xf); puth(dt & 0xf); }
 8844              		.loc 1 150 55 view .LVU3023
 8845 1320 04F13700 		addhi	r0, r4, #55
 8846 1324 FFF7FEFF 		bl	putch_uart
 8847              	.LVL593:
 150:../USER/main.c **** void puth2(dt) int dt;{ puth((dt >> 4) & 0xf); puth(dt & 0xf); }
 8848              		.loc 1 150 55 view .LVU3024
 8849              	.LBE1518:
 8850              	.LBE1517:
 8851              	.LBE1514:
 8852              	.LBE1513:
 8853              		.loc 1 269 43 is_stmt 1 view .LVU3025
 8854              		.loc 1 269 45 is_stmt 0 view .LVU3026
 8855 1328 049B     		ldr	r3, [sp, #16]
 8856 132a 022B     		cmp	r3, #2
 8857 132c 00F0B782 		beq	.L1179
 8858              	.L739:
 270:../USER/main.c **** 	          putch(' ');
 8859              		.loc 1 270 12 is_stmt 1 view .LVU3027
 8860              	.LBB1519:
 8861              	.LBI1519:
 134:../USER/main.c **** 	volatile uint32_t gpiord;
 8862              		.loc 1 134 6 view .LVU3028
 8863              	.LVL594:
 8864              	.LBB1520:
 135:../USER/main.c **** 	if((mdgpio & 0x2000)==0)
 8865              		.loc 1 135 2 view .LVU3029
 136:../USER/main.c **** 		UART_SendChar(UART0,ch);
 8866              		.loc 1 136 2 view .LVU3030
 136:../USER/main.c **** 		UART_SendChar(UART0,ch);
 8867              		.loc 1 136 13 is_stmt 0 view .LVU3031
 8868 1330 DAF80030 		ldr	r3, [r10]
 136:../USER/main.c **** 		UART_SendChar(UART0,ch);
 8869              		.loc 1 136 4 view .LVU3032
 8870 1334 9D04     		lsls	r5, r3, #18
 8871 1336 40F18B82 		bpl	.L1180
 139:../USER/main.c **** 		while((gpiord & 0x4000)!=0) {
 8872              		.loc 1 139 3 is_stmt 1 view .LVU3033
 139:../USER/main.c **** 		while((gpiord & 0x4000)!=0) {
 8873              		.loc 1 139 10 is_stmt 0 view .LVU3034
 8874 133a 4FF48043 		mov	r3, #16384
 8875 133e 2393     		str	r3, [sp, #140]
 140:../USER/main.c **** 			key_check();
 8876              		.loc 1 140 3 is_stmt 1 view .LVU3035
 140:../USER/main.c **** 			key_check();
 8877              		.loc 1 140 17 is_stmt 0 view .LVU3036
 8878 1340 239B     		ldr	r3, [sp, #140]
 140:../USER/main.c **** 			key_check();
 8879              		.loc 1 140 8 view .LVU3037
 8880 1342 5C04     		lsls	r4, r3, #17
 8881 1344 2CD5     		bpl	.L751
 142:../USER/main.c **** 		}
 8882              		.loc 1 142 13 view .LVU3038
 8883 1346 B24C     		ldr	r4, .L1219
 8884 1348 1DE0     		b	.L745
 8885              	.LVL595:
 8886              	.L1181:
 142:../USER/main.c **** 		}
 8887              		.loc 1 142 13 view .LVU3039
 8888 134a D8F80030 		ldr	r3, [r8]
 8889              	.L747:
 8890              	.LBB1521:
 8891              	.LBB1522:
 121:../USER/main.c **** 	//
 8892              		.loc 1 121 2 is_stmt 1 view .LVU3040
 121:../USER/main.c **** 	//
 8893              		.loc 1 121 18 view .LVU3041
 121:../USER/main.c **** 	//
 8894              		.loc 1 121 4 is_stmt 0 view .LVU3042
 8895 134e FF2B     		cmp	r3, #255
 8896 1350 02DD     		ble	.L748
 121:../USER/main.c **** 	//
 8897              		.loc 1 121 25 view .LVU3043
 8898 1352 0023     		movs	r3, #0
 8899 1354 C8F80070 		str	r7, [r8]
 8900              	.L748:
 123:../USER/main.c **** 	if(kinbwp>=256) kinbwp = 0;
 8901              		.loc 1 123 39 is_stmt 1 view .LVU3044
 123:../USER/main.c **** 	if(kinbwp>=256) kinbwp = 0;
 8902              		.loc 1 123 2 view .LVU3045
 123:../USER/main.c **** 	if(kinbwp>=256) kinbwp = 0;
 8903              		.loc 1 123 11 is_stmt 0 view .LVU3046
 8904 1358 4FF04021 		mov	r1, #1073758208
 8905 135c 4868     		ldr	r0, [r1, #4]
 8906              	.LVL596:
 123:../USER/main.c **** 	if(kinbwp>=256) kinbwp = 0;
 8907              		.loc 1 123 52 view .LVU3047
 8908 135e 5A1C     		adds	r2, r3, #1
 123:../USER/main.c **** 	if(kinbwp>=256) kinbwp = 0;
 8909              		.loc 1 123 4 view .LVU3048
 8910 1360 8507     		lsls	r5, r0, #30
 8911 1362 09D5     		bpl	.L750
 124:../USER/main.c **** 	//
 8912              		.loc 1 124 25 view .LVU3049
 8913 1364 B2F5807F 		cmp	r2, #256
 123:../USER/main.c **** 	if(kinbwp>=256) kinbwp = 0;
 8914              		.loc 1 123 63 view .LVU3050
 8915 1368 0868     		ldr	r0, [r1]
 124:../USER/main.c **** 	//
 8916              		.loc 1 124 25 view .LVU3051
 8917 136a 14BF     		ite	ne
 8918 136c 1146     		movne	r1, r2
 8919 136e 3946     		moveq	r1, r7
 123:../USER/main.c **** 	if(kinbwp>=256) kinbwp = 0;
 8920              		.loc 1 123 56 view .LVU3052
 8921 1370 09F80300 		strb	r0, [r9, r3]
 124:../USER/main.c **** 	//
 8922              		.loc 1 124 2 is_stmt 1 view .LVU3053
 124:../USER/main.c **** 	//
 8923              		.loc 1 124 25 is_stmt 0 view .LVU3054
 8924 1374 C8F80010 		str	r1, [r8]
 8925              	.L750:
 124:../USER/main.c **** 	//
 8926              		.loc 1 124 25 view .LVU3055
 8927              	.LBE1522:
 8928              	.LBE1521:
 142:../USER/main.c **** 		}
 8929              		.loc 1 142 4 is_stmt 1 view .LVU3056
 142:../USER/main.c **** 		}
 8930              		.loc 1 142 13 is_stmt 0 view .LVU3057
 8931 1378 2046     		mov	r0, r4
 8932 137a FFF7FEFF 		bl	GPIO_ReadBits
 8933              	.LVL597:
 142:../USER/main.c **** 		}
 8934              		.loc 1 142 11 view .LVU3058
 8935 137e 2390     		str	r0, [sp, #140]
 140:../USER/main.c **** 			key_check();
 8936              		.loc 1 140 17 view .LVU3059
 8937 1380 239B     		ldr	r3, [sp, #140]
 140:../USER/main.c **** 			key_check();
 8938              		.loc 1 140 8 view .LVU3060
 8939 1382 5804     		lsls	r0, r3, #17
 8940 1384 0CD5     		bpl	.L751
 8941              	.L745:
 141:../USER/main.c **** 			gpiord = GPIO_ReadBits(GPIO0);
 8942              		.loc 1 141 4 is_stmt 1 view .LVU3061
 8943              	.LBB1524:
 8944              	.LBI1521:
 116:../USER/main.c **** 	char ch;
 8945              		.loc 1 116 6 view .LVU3062
 8946              	.LBB1523:
 117:../USER/main.c **** 	//
 8947              		.loc 1 117 2 view .LVU3063
 119:../USER/main.c **** 	if(ch!=0) kinbuf[kinbwp++] = ch;
 8948              		.loc 1 119 2 view .LVU3064
 119:../USER/main.c **** 	if(ch!=0) kinbuf[kinbwp++] = ch;
 8949              		.loc 1 119 7 is_stmt 0 view .LVU3065
 8950 1386 FFF7FEFF 		bl	SPI_ReadData
 8951              	.LVL598:
 120:../USER/main.c **** 	if(kinbwp>=256) kinbwp = 0;
 8952              		.loc 1 120 12 is_stmt 1 view .LVU3066
 119:../USER/main.c **** 	if(ch!=0) kinbuf[kinbwp++] = ch;
 8953              		.loc 1 119 5 is_stmt 0 view .LVU3067
 8954 138a 40B2     		sxtb	r0, r0
 8955              	.LVL599:
 120:../USER/main.c **** 	if(kinbwp>=256) kinbwp = 0;
 8956              		.loc 1 120 2 is_stmt 1 view .LVU3068
 120:../USER/main.c **** 	if(kinbwp>=256) kinbwp = 0;
 8957              		.loc 1 120 4 is_stmt 0 view .LVU3069
 8958 138c 0028     		cmp	r0, #0
 8959 138e DCD0     		beq	.L1181
 120:../USER/main.c **** 	if(kinbwp>=256) kinbwp = 0;
 8960              		.loc 1 120 25 view .LVU3070
 8961 1390 D8F80020 		ldr	r2, [r8]
 8962 1394 531C     		adds	r3, r2, #1
 120:../USER/main.c **** 	if(kinbwp>=256) kinbwp = 0;
 8963              		.loc 1 120 29 view .LVU3071
 8964 1396 09F80200 		strb	r0, [r9, r2]
 120:../USER/main.c **** 	if(kinbwp>=256) kinbwp = 0;
 8965              		.loc 1 120 25 view .LVU3072
 8966 139a C8F80030 		str	r3, [r8]
 8967 139e D6E7     		b	.L747
 8968              	.LVL600:
 8969              	.L751:
 120:../USER/main.c **** 	if(kinbwp>=256) kinbwp = 0;
 8970              		.loc 1 120 25 view .LVU3073
 8971              	.LBE1523:
 8972              	.LBE1524:
 144:../USER/main.c **** 	}
 8973              		.loc 1 144 3 is_stmt 1 view .LVU3074
 8974 13a0 2020     		movs	r0, #32
 8975 13a2 FFF7FEFF 		bl	SPI_WriteData
 8976              	.LVL601:
 8977              	.L744:
 8978              	.LBB1525:
 8979              	.LBB1526:
 123:../USER/main.c **** 	if(kinbwp>=256) kinbwp = 0;
 8980              		.loc 1 123 11 is_stmt 0 view .LVU3075
 8981 13a6 4FF04024 		mov	r4, #1073758208
 8982 13aa 18E0     		b	.L757
 8983              	.LVL602:
 8984              	.L1183:
 123:../USER/main.c **** 	if(kinbwp>=256) kinbwp = 0;
 8985              		.loc 1 123 11 view .LVU3076
 8986 13ac D8F80030 		ldr	r3, [r8]
 8987              	.L753:
 121:../USER/main.c **** 	//
 8988              		.loc 1 121 2 is_stmt 1 view .LVU3077
 121:../USER/main.c **** 	//
 8989              		.loc 1 121 18 view .LVU3078
 121:../USER/main.c **** 	//
 8990              		.loc 1 121 4 is_stmt 0 view .LVU3079
 8991 13b0 FF2B     		cmp	r3, #255
 8992 13b2 02DD     		ble	.L754
 121:../USER/main.c **** 	//
 8993              		.loc 1 121 25 view .LVU3080
 8994 13b4 0023     		movs	r3, #0
 8995 13b6 C8F80070 		str	r7, [r8]
 8996              	.L754:
 123:../USER/main.c **** 	if(kinbwp>=256) kinbwp = 0;
 8997              		.loc 1 123 39 is_stmt 1 view .LVU3081
 123:../USER/main.c **** 	if(kinbwp>=256) kinbwp = 0;
 8998              		.loc 1 123 2 view .LVU3082
 123:../USER/main.c **** 	if(kinbwp>=256) kinbwp = 0;
 8999              		.loc 1 123 11 is_stmt 0 view .LVU3083
 9000 13ba 6168     		ldr	r1, [r4, #4]
 123:../USER/main.c **** 	if(kinbwp>=256) kinbwp = 0;
 9001              		.loc 1 123 52 view .LVU3084
 9002 13bc 5A1C     		adds	r2, r3, #1
 123:../USER/main.c **** 	if(kinbwp>=256) kinbwp = 0;
 9003              		.loc 1 123 4 view .LVU3085
 9004 13be 8E07     		lsls	r6, r1, #30
 9005 13c0 09D5     		bpl	.L756
 124:../USER/main.c **** 	//
 9006              		.loc 1 124 25 view .LVU3086
 9007 13c2 B2F5807F 		cmp	r2, #256
 9008 13c6 14BF     		ite	ne
 9009 13c8 1146     		movne	r1, r2
 9010 13ca 3946     		moveq	r1, r7
 123:../USER/main.c **** 	if(kinbwp>=256) kinbwp = 0;
 9011              		.loc 1 123 63 view .LVU3087
 9012 13cc 2068     		ldr	r0, [r4]
 9013              	.LVL603:
 124:../USER/main.c **** 	//
 9014              		.loc 1 124 25 view .LVU3088
 9015 13ce C8F80010 		str	r1, [r8]
 123:../USER/main.c **** 	if(kinbwp>=256) kinbwp = 0;
 9016              		.loc 1 123 56 view .LVU3089
 9017 13d2 09F80300 		strb	r0, [r9, r3]
 124:../USER/main.c **** 	//
 9018              		.loc 1 124 2 is_stmt 1 view .LVU3090
 9019              	.L756:
 124:../USER/main.c **** 	//
 9020              		.loc 1 124 2 is_stmt 0 view .LVU3091
 9021              	.LBE1526:
 9022              	.LBE1525:
 147:../USER/main.c **** }
 9023              		.loc 1 147 27 is_stmt 1 view .LVU3092
 147:../USER/main.c **** }
 9024              		.loc 1 147 32 is_stmt 0 view .LVU3093
 9025 13d6 2020     		movs	r0, #32
 9026 13d8 FFF7FEFF 		bl	disp_vram
 9027              	.LVL604:
 147:../USER/main.c **** }
 9028              		.loc 1 147 2 view .LVU3094
 9029 13dc 60B1     		cbz	r0, .L1182
 9030              	.LVL605:
 9031              	.L757:
 147:../USER/main.c **** }
 9032              		.loc 1 147 2 is_stmt 1 view .LVU3095
 147:../USER/main.c **** }
 9033              		.loc 1 147 10 view .LVU3096
 147:../USER/main.c **** }
 9034              		.loc 1 147 14 view .LVU3097
 9035              	.LBB1528:
 9036              	.LBI1525:
 116:../USER/main.c **** 	char ch;
 9037              		.loc 1 116 6 view .LVU3098
 9038              	.LBB1527:
 117:../USER/main.c **** 	//
 9039              		.loc 1 117 2 view .LVU3099
 119:../USER/main.c **** 	if(ch!=0) kinbuf[kinbwp++] = ch;
 9040              		.loc 1 119 2 view .LVU3100
 119:../USER/main.c **** 	if(ch!=0) kinbuf[kinbwp++] = ch;
 9041              		.loc 1 119 7 is_stmt 0 view .LVU3101
 9042 13de FFF7FEFF 		bl	SPI_ReadData
 9043              	.LVL606:
 120:../USER/main.c **** 	if(kinbwp>=256) kinbwp = 0;
 9044              		.loc 1 120 12 is_stmt 1 view .LVU3102
 119:../USER/main.c **** 	if(ch!=0) kinbuf[kinbwp++] = ch;
 9045              		.loc 1 119 5 is_stmt 0 view .LVU3103
 9046 13e2 40B2     		sxtb	r0, r0
 9047              	.LVL607:
 120:../USER/main.c **** 	if(kinbwp>=256) kinbwp = 0;
 9048              		.loc 1 120 2 is_stmt 1 view .LVU3104
 120:../USER/main.c **** 	if(kinbwp>=256) kinbwp = 0;
 9049              		.loc 1 120 4 is_stmt 0 view .LVU3105
 9050 13e4 0028     		cmp	r0, #0
 9051 13e6 E1D0     		beq	.L1183
 120:../USER/main.c **** 	if(kinbwp>=256) kinbwp = 0;
 9052              		.loc 1 120 25 view .LVU3106
 9053 13e8 D8F80020 		ldr	r2, [r8]
 9054 13ec 531C     		adds	r3, r2, #1
 120:../USER/main.c **** 	if(kinbwp>=256) kinbwp = 0;
 9055              		.loc 1 120 29 view .LVU3107
 9056 13ee 09F80200 		strb	r0, [r9, r2]
 120:../USER/main.c **** 	if(kinbwp>=256) kinbwp = 0;
 9057              		.loc 1 120 25 view .LVU3108
 9058 13f2 C8F80030 		str	r3, [r8]
 9059 13f6 DBE7     		b	.L753
 9060              	.LVL608:
 9061              	.L1182:
 120:../USER/main.c **** 	if(kinbwp>=256) kinbwp = 0;
 9062              		.loc 1 120 25 view .LVU3109
 9063              	.LBE1527:
 9064              	.LBE1528:
 147:../USER/main.c **** }
 9065              		.loc 1 147 2 view .LVU3110
 9066 13f8 26AE     		add	r6, sp, #152
 9067              	.LVL609:
 9068              	.L783:
 147:../USER/main.c **** }
 9069              		.loc 1 147 2 view .LVU3111
 9070              	.LBE1520:
 9071              	.LBE1519:
 9072              	.LBB1530:
 9073              	.LBB1531:
 9074              	.LBB1532:
 162:../USER/main.c **** 	while(1){
 9075              		.loc 1 162 2 is_stmt 1 view .LVU3112
 163:../USER/main.c **** 		ch = getch(); putch(ch); *buf++ = ch;
 9076              		.loc 1 163 2 view .LVU3113
 164:../USER/main.c **** 		if(ch==0x0d) break;
 9077              		.loc 1 164 3 view .LVU3114
 9078              	.LBB1533:
 9079              	.LBI1533:
 127:../USER/main.c **** 	char dt;
 9080              		.loc 1 127 6 view .LVU3115
 9081              	.LBB1534:
 9082              	.LBB1535:
 9083              	.LBB1536:
 123:../USER/main.c **** 	if(kinbwp>=256) kinbwp = 0;
 9084              		.loc 1 123 11 is_stmt 0 view .LVU3116
 9085 13fa 4FF04024 		mov	r4, #1073758208
 9086 13fe D8F80030 		ldr	r3, [r8]
 9087              	.L765:
 9088              	.LBE1536:
 9089              	.LBE1535:
 129:../USER/main.c **** 	dt = kinbuf[kinbrp++];
 9090              		.loc 1 129 14 view .LVU3117
 9091 1402 844A     		ldr	r2, .L1219+4
 9092 1404 1268     		ldr	r2, [r2]
 129:../USER/main.c **** 	dt = kinbuf[kinbrp++];
 9093              		.loc 1 129 7 view .LVU3118
 9094 1406 9A42     		cmp	r2, r3
 9095 1408 31D1     		bne	.L1184
 9096              	.L766:
 129:../USER/main.c **** 	dt = kinbuf[kinbrp++];
 9097              		.loc 1 129 24 is_stmt 1 view .LVU3119
 9098              	.LBB1539:
 9099              	.LBI1535:
 116:../USER/main.c **** 	char ch;
 9100              		.loc 1 116 6 view .LVU3120
 9101              	.LBB1537:
 117:../USER/main.c **** 	//
 9102              		.loc 1 117 2 view .LVU3121
 119:../USER/main.c **** 	if(ch!=0) kinbuf[kinbwp++] = ch;
 9103              		.loc 1 119 2 view .LVU3122
 119:../USER/main.c **** 	if(ch!=0) kinbuf[kinbwp++] = ch;
 9104              		.loc 1 119 7 is_stmt 0 view .LVU3123
 9105 140a FFF7FEFF 		bl	SPI_ReadData
 9106              	.LVL610:
 119:../USER/main.c **** 	if(ch!=0) kinbuf[kinbwp++] = ch;
 9107              		.loc 1 119 5 view .LVU3124
 9108 140e 40B2     		sxtb	r0, r0
 9109              	.LVL611:
 120:../USER/main.c **** 	if(kinbwp>=256) kinbwp = 0;
 9110              		.loc 1 120 2 is_stmt 1 view .LVU3125
 120:../USER/main.c **** 	if(kinbwp>=256) kinbwp = 0;
 9111              		.loc 1 120 4 is_stmt 0 view .LVU3126
 9112 1410 88B9     		cbnz	r0, .L759
 9113 1412 D8F80030 		ldr	r3, [r8]
 121:../USER/main.c **** 	//
 9114              		.loc 1 121 2 is_stmt 1 view .LVU3127
 121:../USER/main.c **** 	//
 9115              		.loc 1 121 4 is_stmt 0 view .LVU3128
 9116 1416 FF2B     		cmp	r3, #255
 9117 1418 16DD     		ble	.L761
 9118              	.L1185:
 121:../USER/main.c **** 	//
 9119              		.loc 1 121 18 is_stmt 1 view .LVU3129
 123:../USER/main.c **** 	if(kinbwp>=256) kinbwp = 0;
 9120              		.loc 1 123 11 is_stmt 0 view .LVU3130
 9121 141a 6368     		ldr	r3, [r4, #4]
 121:../USER/main.c **** 	//
 9122              		.loc 1 121 25 view .LVU3131
 9123 141c C8F80070 		str	r7, [r8]
 123:../USER/main.c **** 	if(kinbwp>=256) kinbwp = 0;
 9124              		.loc 1 123 2 is_stmt 1 view .LVU3132
 123:../USER/main.c **** 	if(kinbwp>=256) kinbwp = 0;
 9125              		.loc 1 123 4 is_stmt 0 view .LVU3133
 9126 1420 13F00203 		ands	r3, r3, #2
 9127 1424 EDD0     		beq	.L765
 123:../USER/main.c **** 	if(kinbwp>=256) kinbwp = 0;
 9128              		.loc 1 123 39 is_stmt 1 view .LVU3134
 123:../USER/main.c **** 	if(kinbwp>=256) kinbwp = 0;
 9129              		.loc 1 123 52 is_stmt 0 view .LVU3135
 9130 1426 0122     		movs	r2, #1
 123:../USER/main.c **** 	if(kinbwp>=256) kinbwp = 0;
 9131              		.loc 1 123 63 view .LVU3136
 9132 1428 2368     		ldr	r3, [r4]
 123:../USER/main.c **** 	if(kinbwp>=256) kinbwp = 0;
 9133              		.loc 1 123 52 view .LVU3137
 9134 142a C8F80020 		str	r2, [r8]
 123:../USER/main.c **** 	if(kinbwp>=256) kinbwp = 0;
 9135              		.loc 1 123 56 view .LVU3138
 9136 142e 89F80030 		strb	r3, [r9]
 124:../USER/main.c **** 	//
 9137              		.loc 1 124 2 is_stmt 1 view .LVU3139
 9138              	.L916:
 123:../USER/main.c **** 	if(kinbwp>=256) kinbwp = 0;
 9139              		.loc 1 123 4 is_stmt 0 view .LVU3140
 9140 1432 1346     		mov	r3, r2
 9141 1434 E5E7     		b	.L765
 9142              	.L759:
 120:../USER/main.c **** 	if(kinbwp>=256) kinbwp = 0;
 9143              		.loc 1 120 12 is_stmt 1 view .LVU3141
 120:../USER/main.c **** 	if(kinbwp>=256) kinbwp = 0;
 9144              		.loc 1 120 25 is_stmt 0 view .LVU3142
 9145 1436 D8F80020 		ldr	r2, [r8]
 9146 143a 531C     		adds	r3, r2, #1
 121:../USER/main.c **** 	//
 9147              		.loc 1 121 4 view .LVU3143
 9148 143c FF2B     		cmp	r3, #255
 120:../USER/main.c **** 	if(kinbwp>=256) kinbwp = 0;
 9149              		.loc 1 120 29 view .LVU3144
 9150 143e 09F80200 		strb	r0, [r9, r2]
 120:../USER/main.c **** 	if(kinbwp>=256) kinbwp = 0;
 9151              		.loc 1 120 25 view .LVU3145
 9152 1442 C8F80030 		str	r3, [r8]
 121:../USER/main.c **** 	//
 9153              		.loc 1 121 2 is_stmt 1 view .LVU3146
 121:../USER/main.c **** 	//
 9154              		.loc 1 121 4 is_stmt 0 view .LVU3147
 9155 1446 E8DC     		bgt	.L1185
 9156              	.L761:
 123:../USER/main.c **** 	if(kinbwp>=256) kinbwp = 0;
 9157              		.loc 1 123 2 is_stmt 1 view .LVU3148
 123:../USER/main.c **** 	if(kinbwp>=256) kinbwp = 0;
 9158              		.loc 1 123 11 is_stmt 0 view .LVU3149
 9159 1448 6268     		ldr	r2, [r4, #4]
 123:../USER/main.c **** 	if(kinbwp>=256) kinbwp = 0;
 9160              		.loc 1 123 4 view .LVU3150
 9161 144a 9507     		lsls	r5, r2, #30
 9162 144c D9D5     		bpl	.L765
 123:../USER/main.c **** 	if(kinbwp>=256) kinbwp = 0;
 9163              		.loc 1 123 39 is_stmt 1 view .LVU3151
 123:../USER/main.c **** 	if(kinbwp>=256) kinbwp = 0;
 9164              		.loc 1 123 63 is_stmt 0 view .LVU3152
 9165 144e 2168     		ldr	r1, [r4]
 123:../USER/main.c **** 	if(kinbwp>=256) kinbwp = 0;
 9166              		.loc 1 123 52 view .LVU3153
 9167 1450 5A1C     		adds	r2, r3, #1
 124:../USER/main.c **** 	//
 9168              		.loc 1 124 4 view .LVU3154
 9169 1452 B2F5807F 		cmp	r2, #256
 123:../USER/main.c **** 	if(kinbwp>=256) kinbwp = 0;
 9170              		.loc 1 123 56 view .LVU3155
 9171 1456 09F80310 		strb	r1, [r9, r3]
 124:../USER/main.c **** 	//
 9172              		.loc 1 124 2 is_stmt 1 view .LVU3156
 123:../USER/main.c **** 	if(kinbwp>=256) kinbwp = 0;
 9173              		.loc 1 123 52 is_stmt 0 view .LVU3157
 9174 145a C8F80020 		str	r2, [r8]
 124:../USER/main.c **** 	//
 9175              		.loc 1 124 4 view .LVU3158
 9176 145e E8D1     		bne	.L916
 124:../USER/main.c **** 	//
 9177              		.loc 1 124 18 is_stmt 1 view .LVU3159
 9178 1460 0023     		movs	r3, #0
 9179              	.LBE1537:
 9180              	.LBE1539:
 129:../USER/main.c **** 	dt = kinbuf[kinbrp++];
 9181              		.loc 1 129 14 is_stmt 0 view .LVU3160
 9182 1462 6C4A     		ldr	r2, .L1219+4
 9183              	.LBB1540:
 9184              	.LBB1538:
 124:../USER/main.c **** 	//
 9185              		.loc 1 124 25 view .LVU3161
 9186 1464 C8F80070 		str	r7, [r8]
 9187              	.LBE1538:
 9188              	.LBE1540:
 129:../USER/main.c **** 	dt = kinbuf[kinbrp++];
 9189              		.loc 1 129 14 view .LVU3162
 9190 1468 1268     		ldr	r2, [r2]
 129:../USER/main.c **** 	dt = kinbuf[kinbrp++];
 9191              		.loc 1 129 7 view .LVU3163
 9192 146a 9A42     		cmp	r2, r3
 9193 146c CDD0     		beq	.L766
 9194              	.LVL612:
 9195              	.L1184:
 130:../USER/main.c **** 	if(kinbrp>=256) kinbrp = 0;
 9196              		.loc 1 130 2 is_stmt 1 view .LVU3164
 130:../USER/main.c **** 	if(kinbrp>=256) kinbrp = 0;
 9197              		.loc 1 130 20 is_stmt 0 view .LVU3165
 9198 146e 531C     		adds	r3, r2, #1
 131:../USER/main.c **** 	return dt;
 9199              		.loc 1 131 25 view .LVU3166
 9200 1470 B3F5807F 		cmp	r3, #256
 9201 1474 B4BF     		ite	lt
 9202 1476 1946     		movlt	r1, r3
 9203 1478 3946     		movge	r1, r7
 130:../USER/main.c **** 	if(kinbrp>=256) kinbrp = 0;
 9204              		.loc 1 130 20 view .LVU3167
 9205 147a 6648     		ldr	r0, .L1219+4
 9206              	.LBE1534:
 9207              	.LBE1533:
 9208              	.LBB1543:
 9209              	.LBB1544:
 136:../USER/main.c **** 		UART_SendChar(UART0,ch);
 9210              		.loc 1 136 13 view .LVU3168
 9211 147c DAF80030 		ldr	r3, [r10]
 9212              	.LBE1544:
 9213              	.LBE1543:
 9214              	.LBB1556:
 9215              	.LBB1541:
 131:../USER/main.c **** 	return dt;
 9216              		.loc 1 131 25 view .LVU3169
 9217 1480 0160     		str	r1, [r0]
 9218              	.LBE1541:
 9219              	.LBE1556:
 9220              	.LBB1557:
 9221              	.LBB1553:
 136:../USER/main.c **** 		UART_SendChar(UART0,ch);
 9222              		.loc 1 136 4 view .LVU3170
 9223 1482 9904     		lsls	r1, r3, #18
 9224              	.LBE1553:
 9225              	.LBE1557:
 9226              	.LBB1558:
 9227              	.LBB1542:
 130:../USER/main.c **** 	if(kinbrp>=256) kinbrp = 0;
 9228              		.loc 1 130 5 view .LVU3171
 9229 1484 19F90240 		ldrsb	r4, [r9, r2]
 9230              	.LVL613:
 131:../USER/main.c **** 	return dt;
 9231              		.loc 1 131 2 is_stmt 1 view .LVU3172
 132:../USER/main.c **** }
 9232              		.loc 1 132 2 view .LVU3173
 132:../USER/main.c **** }
 9233              		.loc 1 132 2 is_stmt 0 view .LVU3174
 9234              	.LBE1542:
 9235              	.LBE1558:
 164:../USER/main.c **** 		if(ch==0x0d) break;
 9236              		.loc 1 164 17 is_stmt 1 view .LVU3175
 9237              	.LBB1559:
 9238              	.LBI1543:
 134:../USER/main.c **** 	volatile uint32_t gpiord;
 9239              		.loc 1 134 6 view .LVU3176
 9240              	.LBB1554:
 135:../USER/main.c **** 	if((mdgpio & 0x2000)==0)
 9241              		.loc 1 135 2 view .LVU3177
 136:../USER/main.c **** 		UART_SendChar(UART0,ch);
 9242              		.loc 1 136 2 view .LVU3178
 136:../USER/main.c **** 		UART_SendChar(UART0,ch);
 9243              		.loc 1 136 4 is_stmt 0 view .LVU3179
 9244 1488 40F1AB80 		bpl	.L1186
 139:../USER/main.c **** 		while((gpiord & 0x4000)!=0) {
 9245              		.loc 1 139 3 is_stmt 1 view .LVU3180
 139:../USER/main.c **** 		while((gpiord & 0x4000)!=0) {
 9246              		.loc 1 139 10 is_stmt 0 view .LVU3181
 9247 148c 4FF48043 		mov	r3, #16384
 9248 1490 2493     		str	r3, [sp, #144]
 140:../USER/main.c **** 			key_check();
 9249              		.loc 1 140 3 is_stmt 1 view .LVU3182
 140:../USER/main.c **** 			key_check();
 9250              		.loc 1 140 17 is_stmt 0 view .LVU3183
 9251 1492 249B     		ldr	r3, [sp, #144]
 140:../USER/main.c **** 			key_check();
 9252              		.loc 1 140 8 view .LVU3184
 9253 1494 5A04     		lsls	r2, r3, #17
 9254 1496 2CD5     		bpl	.L776
 142:../USER/main.c **** 		}
 9255              		.loc 1 142 13 view .LVU3185
 9256 1498 5D4D     		ldr	r5, .L1219
 9257 149a 1DE0     		b	.L770
 9258              	.LVL614:
 9259              	.L1187:
 142:../USER/main.c **** 		}
 9260              		.loc 1 142 13 view .LVU3186
 9261 149c D8F80030 		ldr	r3, [r8]
 9262              	.L772:
 9263              	.LBB1545:
 9264              	.LBB1546:
 121:../USER/main.c **** 	//
 9265              		.loc 1 121 2 is_stmt 1 view .LVU3187
 121:../USER/main.c **** 	//
 9266              		.loc 1 121 18 view .LVU3188
 121:../USER/main.c **** 	//
 9267              		.loc 1 121 4 is_stmt 0 view .LVU3189
 9268 14a0 FF2B     		cmp	r3, #255
 9269 14a2 02DD     		ble	.L773
 121:../USER/main.c **** 	//
 9270              		.loc 1 121 25 view .LVU3190
 9271 14a4 0023     		movs	r3, #0
 9272 14a6 C8F80070 		str	r7, [r8]
 9273              	.L773:
 123:../USER/main.c **** 	if(kinbwp>=256) kinbwp = 0;
 9274              		.loc 1 123 39 is_stmt 1 view .LVU3191
 123:../USER/main.c **** 	if(kinbwp>=256) kinbwp = 0;
 9275              		.loc 1 123 2 view .LVU3192
 123:../USER/main.c **** 	if(kinbwp>=256) kinbwp = 0;
 9276              		.loc 1 123 11 is_stmt 0 view .LVU3193
 9277 14aa 4FF04021 		mov	r1, #1073758208
 9278 14ae 4868     		ldr	r0, [r1, #4]
 9279              	.LVL615:
 123:../USER/main.c **** 	if(kinbwp>=256) kinbwp = 0;
 9280              		.loc 1 123 52 view .LVU3194
 9281 14b0 5A1C     		adds	r2, r3, #1
 123:../USER/main.c **** 	if(kinbwp>=256) kinbwp = 0;
 9282              		.loc 1 123 4 view .LVU3195
 9283 14b2 8007     		lsls	r0, r0, #30
 9284 14b4 09D5     		bpl	.L775
 124:../USER/main.c **** 	//
 9285              		.loc 1 124 25 view .LVU3196
 9286 14b6 B2F5807F 		cmp	r2, #256
 123:../USER/main.c **** 	if(kinbwp>=256) kinbwp = 0;
 9287              		.loc 1 123 63 view .LVU3197
 9288 14ba 0868     		ldr	r0, [r1]
 124:../USER/main.c **** 	//
 9289              		.loc 1 124 25 view .LVU3198
 9290 14bc 14BF     		ite	ne
 9291 14be 1146     		movne	r1, r2
 9292 14c0 3946     		moveq	r1, r7
 123:../USER/main.c **** 	if(kinbwp>=256) kinbwp = 0;
 9293              		.loc 1 123 56 view .LVU3199
 9294 14c2 09F80300 		strb	r0, [r9, r3]
 124:../USER/main.c **** 	//
 9295              		.loc 1 124 2 is_stmt 1 view .LVU3200
 124:../USER/main.c **** 	//
 9296              		.loc 1 124 25 is_stmt 0 view .LVU3201
 9297 14c6 C8F80010 		str	r1, [r8]
 9298              	.L775:
 124:../USER/main.c **** 	//
 9299              		.loc 1 124 25 view .LVU3202
 9300              	.LBE1546:
 9301              	.LBE1545:
 142:../USER/main.c **** 		}
 9302              		.loc 1 142 4 is_stmt 1 view .LVU3203
 142:../USER/main.c **** 		}
 9303              		.loc 1 142 13 is_stmt 0 view .LVU3204
 9304 14ca 2846     		mov	r0, r5
 9305 14cc FFF7FEFF 		bl	GPIO_ReadBits
 9306              	.LVL616:
 142:../USER/main.c **** 		}
 9307              		.loc 1 142 11 view .LVU3205
 9308 14d0 2490     		str	r0, [sp, #144]
 140:../USER/main.c **** 			key_check();
 9309              		.loc 1 140 17 view .LVU3206
 9310 14d2 249B     		ldr	r3, [sp, #144]
 140:../USER/main.c **** 			key_check();
 9311              		.loc 1 140 8 view .LVU3207
 9312 14d4 5B04     		lsls	r3, r3, #17
 9313 14d6 0CD5     		bpl	.L776
 9314              	.L770:
 141:../USER/main.c **** 			gpiord = GPIO_ReadBits(GPIO0);
 9315              		.loc 1 141 4 is_stmt 1 view .LVU3208
 9316              	.LBB1548:
 9317              	.LBI1545:
 116:../USER/main.c **** 	char ch;
 9318              		.loc 1 116 6 view .LVU3209
 9319              	.LBB1547:
 117:../USER/main.c **** 	//
 9320              		.loc 1 117 2 view .LVU3210
 119:../USER/main.c **** 	if(ch!=0) kinbuf[kinbwp++] = ch;
 9321              		.loc 1 119 2 view .LVU3211
 119:../USER/main.c **** 	if(ch!=0) kinbuf[kinbwp++] = ch;
 9322              		.loc 1 119 7 is_stmt 0 view .LVU3212
 9323 14d8 FFF7FEFF 		bl	SPI_ReadData
 9324              	.LVL617:
 120:../USER/main.c **** 	if(kinbwp>=256) kinbwp = 0;
 9325              		.loc 1 120 12 is_stmt 1 view .LVU3213
 119:../USER/main.c **** 	if(ch!=0) kinbuf[kinbwp++] = ch;
 9326              		.loc 1 119 5 is_stmt 0 view .LVU3214
 9327 14dc 40B2     		sxtb	r0, r0
 9328              	.LVL618:
 120:../USER/main.c **** 	if(kinbwp>=256) kinbwp = 0;
 9329              		.loc 1 120 2 is_stmt 1 view .LVU3215
 120:../USER/main.c **** 	if(kinbwp>=256) kinbwp = 0;
 9330              		.loc 1 120 4 is_stmt 0 view .LVU3216
 9331 14de 0028     		cmp	r0, #0
 9332 14e0 DCD0     		beq	.L1187
 120:../USER/main.c **** 	if(kinbwp>=256) kinbwp = 0;
 9333              		.loc 1 120 25 view .LVU3217
 9334 14e2 D8F80020 		ldr	r2, [r8]
 9335 14e6 531C     		adds	r3, r2, #1
 120:../USER/main.c **** 	if(kinbwp>=256) kinbwp = 0;
 9336              		.loc 1 120 29 view .LVU3218
 9337 14e8 09F80200 		strb	r0, [r9, r2]
 120:../USER/main.c **** 	if(kinbwp>=256) kinbwp = 0;
 9338              		.loc 1 120 25 view .LVU3219
 9339 14ec C8F80030 		str	r3, [r8]
 9340 14f0 D6E7     		b	.L772
 9341              	.LVL619:
 9342              	.L776:
 120:../USER/main.c **** 	if(kinbwp>=256) kinbwp = 0;
 9343              		.loc 1 120 25 view .LVU3220
 9344              	.LBE1547:
 9345              	.LBE1548:
 144:../USER/main.c **** 	}
 9346              		.loc 1 144 3 is_stmt 1 view .LVU3221
 9347 14f2 E0B2     		uxtb	r0, r4
 9348 14f4 FFF7FEFF 		bl	SPI_WriteData
 9349              	.LVL620:
 9350              	.L769:
 9351              	.LBB1549:
 9352              	.LBB1550:
 123:../USER/main.c **** 	if(kinbwp>=256) kinbwp = 0;
 9353              		.loc 1 123 11 is_stmt 0 view .LVU3222
 9354 14f8 4FF04025 		mov	r5, #1073758208
 9355 14fc 18E0     		b	.L782
 9356              	.LVL621:
 9357              	.L1189:
 123:../USER/main.c **** 	if(kinbwp>=256) kinbwp = 0;
 9358              		.loc 1 123 11 view .LVU3223
 9359 14fe D8F80030 		ldr	r3, [r8]
 9360              	.L778:
 121:../USER/main.c **** 	//
 9361              		.loc 1 121 2 is_stmt 1 view .LVU3224
 121:../USER/main.c **** 	//
 9362              		.loc 1 121 18 view .LVU3225
 121:../USER/main.c **** 	//
 9363              		.loc 1 121 4 is_stmt 0 view .LVU3226
 9364 1502 FF2B     		cmp	r3, #255
 9365 1504 02DD     		ble	.L779
 121:../USER/main.c **** 	//
 9366              		.loc 1 121 25 view .LVU3227
 9367 1506 0023     		movs	r3, #0
 9368 1508 C8F80070 		str	r7, [r8]
 9369              	.L779:
 123:../USER/main.c **** 	if(kinbwp>=256) kinbwp = 0;
 9370              		.loc 1 123 39 is_stmt 1 view .LVU3228
 123:../USER/main.c **** 	if(kinbwp>=256) kinbwp = 0;
 9371              		.loc 1 123 2 view .LVU3229
 123:../USER/main.c **** 	if(kinbwp>=256) kinbwp = 0;
 9372              		.loc 1 123 11 is_stmt 0 view .LVU3230
 9373 150c 6968     		ldr	r1, [r5, #4]
 123:../USER/main.c **** 	if(kinbwp>=256) kinbwp = 0;
 9374              		.loc 1 123 52 view .LVU3231
 9375 150e 5A1C     		adds	r2, r3, #1
 123:../USER/main.c **** 	if(kinbwp>=256) kinbwp = 0;
 9376              		.loc 1 123 4 view .LVU3232
 9377 1510 8807     		lsls	r0, r1, #30
 9378              	.LVL622:
 123:../USER/main.c **** 	if(kinbwp>=256) kinbwp = 0;
 9379              		.loc 1 123 4 view .LVU3233
 9380 1512 09D5     		bpl	.L781
 124:../USER/main.c **** 	//
 9381              		.loc 1 124 25 view .LVU3234
 9382 1514 B2F5807F 		cmp	r2, #256
 9383 1518 14BF     		ite	ne
 9384 151a 1146     		movne	r1, r2
 9385 151c 3946     		moveq	r1, r7
 123:../USER/main.c **** 	if(kinbwp>=256) kinbwp = 0;
 9386              		.loc 1 123 63 view .LVU3235
 9387 151e 2868     		ldr	r0, [r5]
 124:../USER/main.c **** 	//
 9388              		.loc 1 124 25 view .LVU3236
 9389 1520 C8F80010 		str	r1, [r8]
 123:../USER/main.c **** 	if(kinbwp>=256) kinbwp = 0;
 9390              		.loc 1 123 56 view .LVU3237
 9391 1524 09F80300 		strb	r0, [r9, r3]
 124:../USER/main.c **** 	//
 9392              		.loc 1 124 2 is_stmt 1 view .LVU3238
 9393              	.L781:
 124:../USER/main.c **** 	//
 9394              		.loc 1 124 2 is_stmt 0 view .LVU3239
 9395              	.LBE1550:
 9396              	.LBE1549:
 147:../USER/main.c **** }
 9397              		.loc 1 147 27 is_stmt 1 view .LVU3240
 147:../USER/main.c **** }
 9398              		.loc 1 147 32 is_stmt 0 view .LVU3241
 9399 1528 2046     		mov	r0, r4
 9400 152a FFF7FEFF 		bl	disp_vram
 9401              	.LVL623:
 147:../USER/main.c **** }
 9402              		.loc 1 147 2 view .LVU3242
 9403 152e 60B1     		cbz	r0, .L1188
 9404              	.LVL624:
 9405              	.L782:
 147:../USER/main.c **** }
 9406              		.loc 1 147 2 is_stmt 1 view .LVU3243
 147:../USER/main.c **** }
 9407              		.loc 1 147 10 view .LVU3244
 147:../USER/main.c **** }
 9408              		.loc 1 147 14 view .LVU3245
 9409              	.LBB1552:
 9410              	.LBI1549:
 116:../USER/main.c **** 	char ch;
 9411              		.loc 1 116 6 view .LVU3246
 9412              	.LBB1551:
 117:../USER/main.c **** 	//
 9413              		.loc 1 117 2 view .LVU3247
 119:../USER/main.c **** 	if(ch!=0) kinbuf[kinbwp++] = ch;
 9414              		.loc 1 119 2 view .LVU3248
 119:../USER/main.c **** 	if(ch!=0) kinbuf[kinbwp++] = ch;
 9415              		.loc 1 119 7 is_stmt 0 view .LVU3249
 9416 1530 FFF7FEFF 		bl	SPI_ReadData
 9417              	.LVL625:
 120:../USER/main.c **** 	if(kinbwp>=256) kinbwp = 0;
 9418              		.loc 1 120 12 is_stmt 1 view .LVU3250
 119:../USER/main.c **** 	if(ch!=0) kinbuf[kinbwp++] = ch;
 9419              		.loc 1 119 5 is_stmt 0 view .LVU3251
 9420 1534 40B2     		sxtb	r0, r0
 9421              	.LVL626:
 120:../USER/main.c **** 	if(kinbwp>=256) kinbwp = 0;
 9422              		.loc 1 120 2 is_stmt 1 view .LVU3252
 120:../USER/main.c **** 	if(kinbwp>=256) kinbwp = 0;
 9423              		.loc 1 120 4 is_stmt 0 view .LVU3253
 9424 1536 0028     		cmp	r0, #0
 9425 1538 E1D0     		beq	.L1189
 120:../USER/main.c **** 	if(kinbwp>=256) kinbwp = 0;
 9426              		.loc 1 120 25 view .LVU3254
 9427 153a D8F80020 		ldr	r2, [r8]
 9428 153e 531C     		adds	r3, r2, #1
 120:../USER/main.c **** 	if(kinbwp>=256) kinbwp = 0;
 9429              		.loc 1 120 29 view .LVU3255
 9430 1540 09F80200 		strb	r0, [r9, r2]
 120:../USER/main.c **** 	if(kinbwp>=256) kinbwp = 0;
 9431              		.loc 1 120 25 view .LVU3256
 9432 1544 C8F80030 		str	r3, [r8]
 9433 1548 DBE7     		b	.L778
 9434              	.LVL627:
 9435              	.L1188:
 120:../USER/main.c **** 	if(kinbwp>=256) kinbwp = 0;
 9436              		.loc 1 120 25 view .LVU3257
 9437              	.LBE1551:
 9438              	.LBE1552:
 9439              	.LBE1554:
 9440              	.LBE1559:
 164:../USER/main.c **** 		if(ch==0x0d) break;
 9441              		.loc 1 164 28 is_stmt 1 view .LVU3258
 165:../USER/main.c **** 	}
 9442              		.loc 1 165 5 is_stmt 0 view .LVU3259
 9443 154a 0D2C     		cmp	r4, #13
 164:../USER/main.c **** 		if(ch==0x0d) break;
 9444              		.loc 1 164 35 view .LVU3260
 9445 154c 06F8014B 		strb	r4, [r6], #1
 9446              	.LVL628:
 165:../USER/main.c **** 	}
 9447              		.loc 1 165 3 is_stmt 1 view .LVU3261
 165:../USER/main.c **** 	}
 9448              		.loc 1 165 5 is_stmt 0 view .LVU3262
 9449 1550 7FF453AF 		bne	.L783
 9450              	.LVL629:
 165:../USER/main.c **** 	}
 9451              		.loc 1 165 5 view .LVU3263
 9452              	.LBE1532:
 9453              	.LBE1531:
 9454              	.LBB1562:
 9455              	.LBB1563:
 109:../USER/main.c ****    if( *buf>='a' && *buf<='z') *buf = *buf - 0x20;
 9456              		.loc 1 109 9 view .LVU3264
 9457 1554 9DF99830 		ldrsb	r3, [sp, #152]
 109:../USER/main.c ****    if( *buf>='a' && *buf<='z') *buf = *buf - 0x20;
 9458              		.loc 1 109 8 view .LVU3265
 9459 1558 0D2B     		cmp	r3, #13
 9460 155a 00F01785 		beq	.L784
 9461 155e 26AA     		add	r2, sp, #152
 9462              	.LVL630:
 9463              	.L788:
 110:../USER/main.c ****    buf++;
 9464              		.loc 1 110 4 is_stmt 1 view .LVU3266
 110:../USER/main.c ****    buf++;
 9465              		.loc 1 110 32 view .LVU3267
 111:../USER/main.c ****   }
 9466              		.loc 1 111 4 view .LVU3268
 110:../USER/main.c ****    buf++;
 9467              		.loc 1 110 18 is_stmt 0 view .LVU3269
 9468 1560 DBB2     		uxtb	r3, r3
 110:../USER/main.c ****    buf++;
 9469              		.loc 1 110 44 view .LVU3270
 9470 1562 A3F12001 		sub	r1, r3, #32
 110:../USER/main.c ****    buf++;
 9471              		.loc 1 110 6 view .LVU3271
 9472 1566 613B     		subs	r3, r3, #97
 9473 1568 192B     		cmp	r3, #25
 9474 156a 35D8     		bhi	.L785
 110:../USER/main.c ****    buf++;
 9475              		.loc 1 110 37 view .LVU3272
 9476 156c 1170     		strb	r1, [r2]
 111:../USER/main.c ****   }
 9477              		.loc 1 111 4 is_stmt 1 view .LVU3273
 109:../USER/main.c ****    if( *buf>='a' && *buf<='z') *buf = *buf - 0x20;
 9478              		.loc 1 109 9 is_stmt 0 view .LVU3274
 9479 156e 12F9013F 		ldrsb	r3, [r2, #1]!
 9480              	.LVL631:
 109:../USER/main.c ****    if( *buf>='a' && *buf<='z') *buf = *buf - 0x20;
 9481              		.loc 1 109 8 view .LVU3275
 9482 1572 0D2B     		cmp	r3, #13
 9483 1574 F4D1     		bne	.L788
 9484              	.LVL632:
 9485              	.L787:
 109:../USER/main.c ****    if( *buf>='a' && *buf<='z') *buf = *buf - 0x20;
 9486              		.loc 1 109 8 view .LVU3276
 9487 1576 9DF99810 		ldrsb	r1, [sp, #152]
 109:../USER/main.c ****    if( *buf>='a' && *buf<='z') *buf = *buf - 0x20;
 9488              		.loc 1 109 8 view .LVU3277
 9489              	.LBE1563:
 9490              	.LBE1562:
 9491              	.LBE1530:
 271:../USER/main.c **** 	          getssu(cbuf); cbp = &cbuf[0];
 9492              		.loc 1 271 26 is_stmt 1 view .LVU3278
 9493              		.loc 1 271 30 is_stmt 0 view .LVU3279
 9494 157a 26AB     		add	r3, sp, #152
 9495              	.LBB1567:
 9496              	.LBB1568:
 180:../USER/main.c ****   while(**buf==' ') (*buf)++; /* spip sp*/
 9497              		.loc 1 180 5 view .LVU3280
 9498 157c 0D29     		cmp	r1, #13
 9499              	.LBE1568:
 9500              	.LBE1567:
 9501              		.loc 1 271 30 view .LVU3281
 9502 157e 0D93     		str	r3, [sp, #52]
 272:../USER/main.c **** 	          dt = getsh(cbpp); cmd = *cbp;
 9503              		.loc 1 272 12 is_stmt 1 view .LVU3282
 9504              	.LVL633:
 9505              	.LBB1584:
 9506              	.LBI1567:
 178:../USER/main.c ****   long num = 0; int hd;
 9507              		.loc 1 178 6 view .LVU3283
 9508              	.LBB1581:
 179:../USER/main.c ****   if(**buf==0x0d) return -1;
 9509              		.loc 1 179 3 view .LVU3284
 179:../USER/main.c ****   if(**buf==0x0d) return -1;
 9510              		.loc 1 179 17 view .LVU3285
 180:../USER/main.c ****   while(**buf==' ') (*buf)++; /* spip sp*/
 9511              		.loc 1 180 3 view .LVU3286
 180:../USER/main.c ****   while(**buf==' ') (*buf)++; /* spip sp*/
 9512              		.loc 1 180 5 is_stmt 0 view .LVU3287
 9513 1580 00F08981 		beq	.L803
 9514              	.LBB1569:
 9515              	.LBB1570:
 181:../USER/main.c ****   while( (hd=ishex(**buf)) != -1){ num = num * 16 + hd; (*buf)++; }
 9516              		.loc 1 181 8 view .LVU3288
 9517 1584 2029     		cmp	r1, #32
 9518 1586 40F0C281 		bne	.L956
 9519              	.L791:
 181:../USER/main.c ****   while( (hd=ishex(**buf)) != -1){ num = num * 16 + hd; (*buf)++; }
 9520              		.loc 1 181 21 is_stmt 1 view .LVU3289
 181:../USER/main.c ****   while( (hd=ishex(**buf)) != -1){ num = num * 16 + hd; (*buf)++; }
 9521              		.loc 1 181 9 is_stmt 0 view .LVU3290
 9522 158a 13F9011F 		ldrsb	r1, [r3, #1]!
 181:../USER/main.c ****   while( (hd=ishex(**buf)) != -1){ num = num * 16 + hd; (*buf)++; }
 9523              		.loc 1 181 8 view .LVU3291
 9524 158e 2029     		cmp	r1, #32
 9525 1590 FBD0     		beq	.L791
 9526 1592 0D93     		str	r3, [sp, #52]
 9527 1594 09E0     		b	.L792
 9528              	.LVL634:
 9529              	.L1190:
 9530              	.LBB1571:
 9531              	.LBB1572:
 170:../USER/main.c ****   else if(ch>='A' && ch<='F') hd = ch - 0x37;
 9532              		.loc 1 170 29 view .LVU3292
 9533 1596 A1F13002 		sub	r2, r1, #48
 9534              	.LVL635:
 170:../USER/main.c ****   else if(ch>='A' && ch<='F') hd = ch - 0x37;
 9535              		.loc 1 170 29 view .LVU3293
 9536              	.LBE1572:
 9537              	.LBE1571:
 182:../USER/main.c ****   return num;
 9538              		.loc 1 182 36 is_stmt 1 view .LVU3294
 9539              	.LBB1576:
 9540              	.LBB1573:
 173:../USER/main.c **** }
 9541              		.loc 1 173 3 view .LVU3295
 173:../USER/main.c **** }
 9542              		.loc 1 173 3 is_stmt 0 view .LVU3296
 9543              	.LBE1573:
 9544              	.LBE1576:
 182:../USER/main.c ****   return num;
 9545              		.loc 1 182 8 view .LVU3297
 9546 159a 541C     		adds	r4, r2, #1
 9547 159c 12D0     		beq	.L795
 9548              	.LVL636:
 9549              	.L796:
 182:../USER/main.c ****   return num;
 9550              		.loc 1 182 63 view .LVU3298
 9551 159e 0133     		adds	r3, r3, #1
 9552 15a0 0D93     		str	r3, [sp, #52]
 9553 15a2 93F90010 		ldrsb	r1, [r3]
 182:../USER/main.c ****   return num;
 9554              		.loc 1 182 40 view .LVU3299
 9555 15a6 02EB0010 		add	r0, r2, r0, lsl #4
 182:../USER/main.c ****   return num;
 9556              		.loc 1 182 57 is_stmt 1 view .LVU3300
 9557              	.LVL637:
 9558              	.L792:
 9559              	.LBB1577:
 9560              	.LBI1571:
 168:../USER/main.c ****   int hd;
 9561              		.loc 1 168 5 view .LVU3301
 9562              	.LBB1574:
 169:../USER/main.c ****   if(ch>='0' && ch<='9') hd = ch - 0x30;
 9563              		.loc 1 169 3 view .LVU3302
 170:../USER/main.c ****   else if(ch>='A' && ch<='F') hd = ch - 0x37;
 9564              		.loc 1 170 3 view .LVU3303
 170:../USER/main.c ****   else if(ch>='A' && ch<='F') hd = ch - 0x37;
 9565              		.loc 1 170 26 view .LVU3304
 171:../USER/main.c ****   else hd = -1;
 9566              		.loc 1 171 8 view .LVU3305
 171:../USER/main.c ****   else hd = -1;
 9567              		.loc 1 171 31 view .LVU3306
 170:../USER/main.c ****   else if(ch>='A' && ch<='F') hd = ch - 0x37;
 9568              		.loc 1 170 14 is_stmt 0 view .LVU3307
 9569 15aa CAB2     		uxtb	r2, r1
 170:../USER/main.c ****   else if(ch>='A' && ch<='F') hd = ch - 0x37;
 9570              		.loc 1 170 5 view .LVU3308
 9571 15ac A2F13004 		sub	r4, r2, #48
 9572 15b0 092C     		cmp	r4, #9
 171:../USER/main.c ****   else hd = -1;
 9573              		.loc 1 171 10 view .LVU3309
 9574 15b2 A2F14102 		sub	r2, r2, #65
 170:../USER/main.c ****   else if(ch>='A' && ch<='F') hd = ch - 0x37;
 9575              		.loc 1 170 5 view .LVU3310
 9576 15b6 EED9     		bls	.L1190
 171:../USER/main.c ****   else hd = -1;
 9577              		.loc 1 171 10 view .LVU3311
 9578 15b8 052A     		cmp	r2, #5
 9579 15ba 03D8     		bhi	.L795
 171:../USER/main.c ****   else hd = -1;
 9580              		.loc 1 171 34 view .LVU3312
 9581 15bc A1F13702 		sub	r2, r1, #55
 9582              	.LVL638:
 171:../USER/main.c ****   else hd = -1;
 9583              		.loc 1 171 34 view .LVU3313
 9584              	.LBE1574:
 9585              	.LBE1577:
 182:../USER/main.c ****   return num;
 9586              		.loc 1 182 36 is_stmt 1 view .LVU3314
 9587              	.LBB1578:
 9588              	.LBB1575:
 173:../USER/main.c **** }
 9589              		.loc 1 173 3 view .LVU3315
 173:../USER/main.c **** }
 9590              		.loc 1 173 3 is_stmt 0 view .LVU3316
 9591              	.LBE1575:
 9592              	.LBE1578:
 182:../USER/main.c ****   return num;
 9593              		.loc 1 182 8 view .LVU3317
 9594 15c0 541C     		adds	r4, r2, #1
 9595 15c2 ECD1     		bne	.L796
 9596              	.LVL639:
 9597              	.L795:
 182:../USER/main.c ****   return num;
 9598              		.loc 1 182 8 view .LVU3318
 9599              	.LBE1570:
 9600              	.LBE1569:
 9601              	.LBE1581:
 9602              	.LBE1584:
 9603              		.loc 1 272 30 is_stmt 1 view .LVU3319
 273:../USER/main.c **** 	          if(cmd==0x0d && dt>=0){
 9604              		.loc 1 273 12 view .LVU3320
 9605              		.loc 1 273 14 is_stmt 0 view .LVU3321
 9606 15c4 0D29     		cmp	r1, #13
 9607 15c6 52D0     		beq	.L1191
 9608              	.LVL640:
 274:../USER/main.c **** 	            if(mmd==1){
 275:../USER/main.c **** 	              if(dt>=0) {
 276:../USER/main.c **** 	                mbase[adr] = dt; dtr = mbase[adr];
 277:../USER/main.c **** 	                if(dt!=dtr) adr--;
 278:../USER/main.c **** 	              }
 279:../USER/main.c **** 	            } else {
 280:../USER/main.c **** 	              wrp = (unsigned int *)&mbase[adr];
 281:../USER/main.c **** 	              if(dt>=0) {
 282:../USER/main.c **** 	                *wrp = dt; dtr = *wrp;
 283:../USER/main.c **** 	                if(dt!=dtr) wrp--;
 284:../USER/main.c **** 	              }
 285:../USER/main.c **** 	              adr = (long)wrp;
 286:../USER/main.c **** 	            }
 287:../USER/main.c **** 	          }
 288:../USER/main.c **** 	          if(cmd=='-') adr = adr - mmd;
 9609              		.loc 1 288 12 is_stmt 1 view .LVU3322
 9610              		.loc 1 288 14 is_stmt 0 view .LVU3323
 9611 15c8 2D29     		cmp	r1, #45
 9612 15ca 40F06181 		bne	.L802
 9613              		.loc 1 288 25 is_stmt 1 discriminator 1 view .LVU3324
 9614              		.loc 1 288 29 is_stmt 0 discriminator 1 view .LVU3325
 9615 15ce 049B     		ldr	r3, [sp, #16]
 9616 15d0 ABEB030B 		sub	fp, fp, r3
 9617              	.LVL641:
 9618              		.loc 1 288 29 discriminator 1 view .LVU3326
 9619 15d4 FEF799BF 		b	.L1096
 9620              	.LVL642:
 9621              	.L785:
 9622              	.LBB1585:
 9623              	.LBB1565:
 9624              	.LBB1564:
 109:../USER/main.c ****    if( *buf>='a' && *buf<='z') *buf = *buf - 0x20;
 9625              		.loc 1 109 9 view .LVU3327
 9626 15d8 12F9013F 		ldrsb	r3, [r2, #1]!
 9627              	.LVL643:
 109:../USER/main.c ****    if( *buf>='a' && *buf<='z') *buf = *buf - 0x20;
 9628              		.loc 1 109 8 view .LVU3328
 9629 15dc 0D2B     		cmp	r3, #13
 9630 15de BFD1     		bne	.L788
 9631 15e0 C9E7     		b	.L787
 9632              	.LVL644:
 9633              	.L1186:
 109:../USER/main.c ****    if( *buf>='a' && *buf<='z') *buf = *buf - 0x20;
 9634              		.loc 1 109 8 view .LVU3329
 9635              	.LBE1564:
 9636              	.LBE1565:
 9637              	.LBB1566:
 9638              	.LBB1561:
 9639              	.LBB1560:
 9640              	.LBB1555:
 137:../USER/main.c **** 	else {
 9641              		.loc 1 137 3 is_stmt 1 view .LVU3330
 9642 15e2 2146     		mov	r1, r4
 9643 15e4 4FF04020 		mov	r0, #1073758208
 9644 15e8 FFF7FEFF 		bl	UART_SendChar
 9645              	.LVL645:
 9646 15ec 84E7     		b	.L769
 9647              	.LVL646:
 9648              	.L631:
 137:../USER/main.c **** 	else {
 9649              		.loc 1 137 3 is_stmt 0 view .LVU3331
 9650              	.LBE1555:
 9651              	.LBE1560:
 9652              	.LBE1561:
 9653              	.LBE1566:
 9654              	.LBE1585:
 9655              	.LBB1586:
 9656              	.LBB1289:
 9657              	.LBB1271:
 9658              	.LBB1262:
 9659              	.LBB1256:
 9660              	.LBB1247:
 9661              	.LBB1187:
 9662              	.LBB1180:
 9663              	.LBB1152:
 150:../USER/main.c **** void puth2(dt) int dt;{ puth((dt >> 4) & 0xf); puth(dt & 0xf); }
 9664              		.loc 1 150 55 is_stmt 1 view .LVU3332
 9665              	.LBB1133:
 9666              	.LBB1134:
 136:../USER/main.c **** 		UART_SendChar(UART0,ch);
 9667              		.loc 1 136 13 is_stmt 0 view .LVU3333
 9668 15ee DAF80030 		ldr	r3, [r10]
 9669              	.LVL647:
 136:../USER/main.c **** 		UART_SendChar(UART0,ch);
 9670              		.loc 1 136 13 view .LVU3334
 9671              	.LBE1134:
 9672              	.LBE1133:
 150:../USER/main.c **** void puth2(dt) int dt;{ puth((dt >> 4) & 0xf); puth(dt & 0xf); }
 9673              		.loc 1 150 65 view .LVU3335
 9674 15f2 00F13702 		add	r2, r0, #55
 9675              	.LVL648:
 9676              	.LBB1147:
 9677              	.LBB1143:
 136:../USER/main.c **** 		UART_SendChar(UART0,ch);
 9678              		.loc 1 136 4 view .LVU3336
 9679 15f6 9904     		lsls	r1, r3, #18
 9680              	.LBE1143:
 9681              	.LBE1147:
 150:../USER/main.c **** void puth2(dt) int dt;{ puth((dt >> 4) & 0xf); puth(dt & 0xf); }
 9682              		.loc 1 150 65 view .LVU3337
 9683 15f8 0A92     		str	r2, [sp, #40]
 150:../USER/main.c **** void puth2(dt) int dt;{ puth((dt >> 4) & 0xf); puth(dt & 0xf); }
 9684              		.loc 1 150 55 view .LVU3338
 9685 15fa 54B2     		sxtb	r4, r2
 9686              	.LVL649:
 9687              	.LBB1148:
 9688              	.LBI1133:
 134:../USER/main.c **** 	volatile uint32_t gpiord;
 9689              		.loc 1 134 6 is_stmt 1 view .LVU3339
 9690              	.LBB1144:
 135:../USER/main.c **** 	if((mdgpio & 0x2000)==0)
 9691              		.loc 1 135 2 view .LVU3340
 136:../USER/main.c **** 		UART_SendChar(UART0,ch);
 9692              		.loc 1 136 2 view .LVU3341
 136:../USER/main.c **** 		UART_SendChar(UART0,ch);
 9693              		.loc 1 136 4 is_stmt 0 view .LVU3342
 9694 15fc 40F16281 		bpl	.L1192
 139:../USER/main.c **** 		while((gpiord & 0x4000)!=0) {
 9695              		.loc 1 139 3 is_stmt 1 view .LVU3343
 139:../USER/main.c **** 		while((gpiord & 0x4000)!=0) {
 9696              		.loc 1 139 10 is_stmt 0 view .LVU3344
 9697 1600 4FF48043 		mov	r3, #16384
 9698 1604 1E93     		str	r3, [sp, #120]
 140:../USER/main.c **** 			key_check();
 9699              		.loc 1 140 3 is_stmt 1 view .LVU3345
 140:../USER/main.c **** 			key_check();
 9700              		.loc 1 140 17 is_stmt 0 view .LVU3346
 9701 1606 1E9B     		ldr	r3, [sp, #120]
 140:../USER/main.c **** 			key_check();
 9702              		.loc 1 140 8 view .LVU3347
 9703 1608 5A04     		lsls	r2, r3, #17
 9704 160a 3BD5     		bpl	.L641
 142:../USER/main.c **** 		}
 9705              		.loc 1 142 13 view .LVU3348
 9706 160c 004E     		ldr	r6, .L1219
 9707 160e 21E0     		b	.L635
 9708              	.L1220:
 9709              		.align	2
 9710              	.L1219:
 9711 1610 00000140 		.word	1073807360
 9712 1614 00000000 		.word	.LANCHOR1
 9713              	.LVL650:
 9714              	.L1193:
 142:../USER/main.c **** 		}
 9715              		.loc 1 142 13 view .LVU3349
 9716 1618 D8F80030 		ldr	r3, [r8]
 9717              	.L637:
 9718              	.LBB1135:
 9719              	.LBB1136:
 121:../USER/main.c **** 	//
 9720              		.loc 1 121 2 is_stmt 1 view .LVU3350
 121:../USER/main.c **** 	//
 9721              		.loc 1 121 18 view .LVU3351
 121:../USER/main.c **** 	//
 9722              		.loc 1 121 4 is_stmt 0 view .LVU3352
 9723 161c FF2B     		cmp	r3, #255
 9724 161e 02DD     		ble	.L638
 121:../USER/main.c **** 	//
 9725              		.loc 1 121 25 view .LVU3353
 9726 1620 0023     		movs	r3, #0
 9727 1622 C8F80070 		str	r7, [r8]
 9728              	.L638:
 123:../USER/main.c **** 	if(kinbwp>=256) kinbwp = 0;
 9729              		.loc 1 123 39 is_stmt 1 view .LVU3354
 123:../USER/main.c **** 	if(kinbwp>=256) kinbwp = 0;
 9730              		.loc 1 123 2 view .LVU3355
 123:../USER/main.c **** 	if(kinbwp>=256) kinbwp = 0;
 9731              		.loc 1 123 11 is_stmt 0 view .LVU3356
 9732 1626 4FF04022 		mov	r2, #1073758208
 9733 162a 5068     		ldr	r0, [r2, #4]
 9734              	.LVL651:
 123:../USER/main.c **** 	if(kinbwp>=256) kinbwp = 0;
 9735              		.loc 1 123 52 view .LVU3357
 9736 162c 591C     		adds	r1, r3, #1
 123:../USER/main.c **** 	if(kinbwp>=256) kinbwp = 0;
 9737              		.loc 1 123 4 view .LVU3358
 9738 162e 8007     		lsls	r0, r0, #30
 9739 1630 09D5     		bpl	.L640
 124:../USER/main.c **** 	//
 9740              		.loc 1 124 25 view .LVU3359
 9741 1632 B1F5807F 		cmp	r1, #256
 123:../USER/main.c **** 	if(kinbwp>=256) kinbwp = 0;
 9742              		.loc 1 123 63 view .LVU3360
 9743 1636 1068     		ldr	r0, [r2]
 124:../USER/main.c **** 	//
 9744              		.loc 1 124 25 view .LVU3361
 9745 1638 14BF     		ite	ne
 9746 163a 0A46     		movne	r2, r1
 9747 163c 3A46     		moveq	r2, r7
 123:../USER/main.c **** 	if(kinbwp>=256) kinbwp = 0;
 9748              		.loc 1 123 56 view .LVU3362
 9749 163e 09F80300 		strb	r0, [r9, r3]
 124:../USER/main.c **** 	//
 9750              		.loc 1 124 2 is_stmt 1 view .LVU3363
 124:../USER/main.c **** 	//
 9751              		.loc 1 124 25 is_stmt 0 view .LVU3364
 9752 1642 C8F80020 		str	r2, [r8]
 9753              	.L640:
 124:../USER/main.c **** 	//
 9754              		.loc 1 124 25 view .LVU3365
 9755              	.LBE1136:
 9756              	.LBE1135:
 142:../USER/main.c **** 		}
 9757              		.loc 1 142 4 is_stmt 1 view .LVU3366
 142:../USER/main.c **** 		}
 9758              		.loc 1 142 13 is_stmt 0 view .LVU3367
 9759 1646 3046     		mov	r0, r6
 9760 1648 FFF7FEFF 		bl	GPIO_ReadBits
 9761              	.LVL652:
 142:../USER/main.c **** 		}
 9762              		.loc 1 142 11 view .LVU3368
 9763 164c 1E90     		str	r0, [sp, #120]
 140:../USER/main.c **** 			key_check();
 9764              		.loc 1 140 17 view .LVU3369
 9765 164e 1E9B     		ldr	r3, [sp, #120]
 140:../USER/main.c **** 			key_check();
 9766              		.loc 1 140 8 view .LVU3370
 9767 1650 5B04     		lsls	r3, r3, #17
 9768 1652 17D5     		bpl	.L641
 9769              	.L635:
 141:../USER/main.c **** 			gpiord = GPIO_ReadBits(GPIO0);
 9770              		.loc 1 141 4 is_stmt 1 view .LVU3371
 9771              	.LBB1138:
 9772              	.LBI1135:
 116:../USER/main.c **** 	char ch;
 9773              		.loc 1 116 6 view .LVU3372
 9774              	.LBB1137:
 117:../USER/main.c **** 	//
 9775              		.loc 1 117 2 view .LVU3373
 119:../USER/main.c **** 	if(ch!=0) kinbuf[kinbwp++] = ch;
 9776              		.loc 1 119 2 view .LVU3374
 119:../USER/main.c **** 	if(ch!=0) kinbuf[kinbwp++] = ch;
 9777              		.loc 1 119 7 is_stmt 0 view .LVU3375
 9778 1654 FFF7FEFF 		bl	SPI_ReadData
 9779              	.LVL653:
 120:../USER/main.c **** 	if(kinbwp>=256) kinbwp = 0;
 9780              		.loc 1 120 12 is_stmt 1 view .LVU3376
 119:../USER/main.c **** 	if(ch!=0) kinbuf[kinbwp++] = ch;
 9781              		.loc 1 119 5 is_stmt 0 view .LVU3377
 9782 1658 40B2     		sxtb	r0, r0
 9783              	.LVL654:
 120:../USER/main.c **** 	if(kinbwp>=256) kinbwp = 0;
 9784              		.loc 1 120 2 is_stmt 1 view .LVU3378
 120:../USER/main.c **** 	if(kinbwp>=256) kinbwp = 0;
 9785              		.loc 1 120 4 is_stmt 0 view .LVU3379
 9786 165a 0028     		cmp	r0, #0
 9787 165c DCD0     		beq	.L1193
 120:../USER/main.c **** 	if(kinbwp>=256) kinbwp = 0;
 9788              		.loc 1 120 25 view .LVU3380
 9789 165e D8F80020 		ldr	r2, [r8]
 9790 1662 531C     		adds	r3, r2, #1
 120:../USER/main.c **** 	if(kinbwp>=256) kinbwp = 0;
 9791              		.loc 1 120 29 view .LVU3381
 9792 1664 09F80200 		strb	r0, [r9, r2]
 120:../USER/main.c **** 	if(kinbwp>=256) kinbwp = 0;
 9793              		.loc 1 120 25 view .LVU3382
 9794 1668 C8F80030 		str	r3, [r8]
 9795 166c D6E7     		b	.L637
 9796              	.LVL655:
 9797              	.L1191:
 120:../USER/main.c **** 	if(kinbwp>=256) kinbwp = 0;
 9798              		.loc 1 120 25 view .LVU3383
 9799              	.LBE1137:
 9800              	.LBE1138:
 9801              	.LBE1144:
 9802              	.LBE1148:
 9803              	.LBE1152:
 9804              	.LBE1180:
 9805              	.LBE1187:
 9806              	.LBE1247:
 9807              	.LBE1256:
 9808              	.LBE1262:
 9809              	.LBE1271:
 9810              	.LBE1289:
 9811              	.LBE1586:
 273:../USER/main.c **** 	            if(mmd==1){
 9812              		.loc 1 273 25 discriminator 1 view .LVU3384
 9813 166e 0028     		cmp	r0, #0
 9814 1670 C0F21181 		blt	.L803
 274:../USER/main.c **** 	              if(dt>=0) {
 9815              		.loc 1 274 14 is_stmt 1 view .LVU3385
 274:../USER/main.c **** 	              if(dt>=0) {
 9816              		.loc 1 274 16 is_stmt 0 view .LVU3386
 9817 1674 049B     		ldr	r3, [sp, #16]
 9818 1676 012B     		cmp	r3, #1
 9819 1678 00F0DB81 		beq	.L1194
 280:../USER/main.c **** 	              if(dt>=0) {
 9820              		.loc 1 280 16 is_stmt 1 view .LVU3387
 9821              	.LVL656:
 281:../USER/main.c **** 	                *wrp = dt; dtr = *wrp;
 9822              		.loc 1 281 16 view .LVU3388
 282:../USER/main.c **** 	                if(dt!=dtr) wrp--;
 9823              		.loc 1 282 18 view .LVU3389
 282:../USER/main.c **** 	                if(dt!=dtr) wrp--;
 9824              		.loc 1 282 23 is_stmt 0 view .LVU3390
 9825 167c 4BF8020B 		str	r0, [fp], #2
 9826              	.LVL657:
 282:../USER/main.c **** 	                if(dt!=dtr) wrp--;
 9827              		.loc 1 282 29 is_stmt 1 view .LVU3391
 283:../USER/main.c **** 	              }
 9828              		.loc 1 283 18 view .LVU3392
 285:../USER/main.c **** 	            }
 9829              		.loc 1 285 16 view .LVU3393
 289:../USER/main.c **** 	          else         adr = adr + mmd;
 9830              		.loc 1 289 25 view .LVU3394
 9831              		.loc 1 289 25 is_stmt 0 view .LVU3395
 9832 1680 FEF743BF 		b	.L1096
 9833              	.LVL658:
 9834              	.L641:
 9835              	.LBB1587:
 9836              	.LBB1290:
 9837              	.LBB1272:
 9838              	.LBB1263:
 9839              	.LBB1257:
 9840              	.LBB1248:
 9841              	.LBB1188:
 9842              	.LBB1181:
 9843              	.LBB1153:
 9844              	.LBB1149:
 9845              	.LBB1145:
 144:../USER/main.c **** 	}
 9846              		.loc 1 144 3 is_stmt 1 view .LVU3396
 9847 1684 0A98     		ldr	r0, [sp, #40]
 9848 1686 FFF7FEFF 		bl	SPI_WriteData
 9849              	.LVL659:
 9850              	.L634:
 9851              	.LBB1139:
 9852              	.LBB1140:
 123:../USER/main.c **** 	if(kinbwp>=256) kinbwp = 0;
 9853              		.loc 1 123 11 is_stmt 0 view .LVU3397
 9854 168a 4FF04026 		mov	r6, #1073758208
 9855 168e 1AE0     		b	.L647
 9856              	.LVL660:
 9857              	.L1195:
 123:../USER/main.c **** 	if(kinbwp>=256) kinbwp = 0;
 9858              		.loc 1 123 11 view .LVU3398
 9859 1690 D8F80030 		ldr	r3, [r8]
 9860              	.L643:
 121:../USER/main.c **** 	//
 9861              		.loc 1 121 2 is_stmt 1 view .LVU3399
 121:../USER/main.c **** 	//
 9862              		.loc 1 121 18 view .LVU3400
 121:../USER/main.c **** 	//
 9863              		.loc 1 121 4 is_stmt 0 view .LVU3401
 9864 1694 FF2B     		cmp	r3, #255
 9865 1696 02DD     		ble	.L644
 121:../USER/main.c **** 	//
 9866              		.loc 1 121 25 view .LVU3402
 9867 1698 0023     		movs	r3, #0
 9868 169a C8F80070 		str	r7, [r8]
 9869              	.L644:
 123:../USER/main.c **** 	if(kinbwp>=256) kinbwp = 0;
 9870              		.loc 1 123 39 is_stmt 1 view .LVU3403
 123:../USER/main.c **** 	if(kinbwp>=256) kinbwp = 0;
 9871              		.loc 1 123 2 view .LVU3404
 123:../USER/main.c **** 	if(kinbwp>=256) kinbwp = 0;
 9872              		.loc 1 123 11 is_stmt 0 view .LVU3405
 9873 169e 7168     		ldr	r1, [r6, #4]
 123:../USER/main.c **** 	if(kinbwp>=256) kinbwp = 0;
 9874              		.loc 1 123 52 view .LVU3406
 9875 16a0 5A1C     		adds	r2, r3, #1
 123:../USER/main.c **** 	if(kinbwp>=256) kinbwp = 0;
 9876              		.loc 1 123 4 view .LVU3407
 9877 16a2 8807     		lsls	r0, r1, #30
 9878              	.LVL661:
 123:../USER/main.c **** 	if(kinbwp>=256) kinbwp = 0;
 9879              		.loc 1 123 4 view .LVU3408
 9880 16a4 09D5     		bpl	.L646
 124:../USER/main.c **** 	//
 9881              		.loc 1 124 25 view .LVU3409
 9882 16a6 B2F5807F 		cmp	r2, #256
 9883 16aa 14BF     		ite	ne
 9884 16ac 1146     		movne	r1, r2
 9885 16ae 3946     		moveq	r1, r7
 123:../USER/main.c **** 	if(kinbwp>=256) kinbwp = 0;
 9886              		.loc 1 123 63 view .LVU3410
 9887 16b0 3068     		ldr	r0, [r6]
 124:../USER/main.c **** 	//
 9888              		.loc 1 124 25 view .LVU3411
 9889 16b2 C8F80010 		str	r1, [r8]
 123:../USER/main.c **** 	if(kinbwp>=256) kinbwp = 0;
 9890              		.loc 1 123 56 view .LVU3412
 9891 16b6 09F80300 		strb	r0, [r9, r3]
 124:../USER/main.c **** 	//
 9892              		.loc 1 124 2 is_stmt 1 view .LVU3413
 9893              	.L646:
 124:../USER/main.c **** 	//
 9894              		.loc 1 124 2 is_stmt 0 view .LVU3414
 9895              	.LBE1140:
 9896              	.LBE1139:
 147:../USER/main.c **** }
 9897              		.loc 1 147 27 is_stmt 1 view .LVU3415
 147:../USER/main.c **** }
 9898              		.loc 1 147 32 is_stmt 0 view .LVU3416
 9899 16ba 2046     		mov	r0, r4
 9900 16bc FFF7FEFF 		bl	disp_vram
 9901              	.LVL662:
 147:../USER/main.c **** }
 9902              		.loc 1 147 2 view .LVU3417
 9903 16c0 0028     		cmp	r0, #0
 9904 16c2 3FF46AA8 		beq	.L632
 9905              	.LVL663:
 9906              	.L647:
 147:../USER/main.c **** }
 9907              		.loc 1 147 2 is_stmt 1 view .LVU3418
 147:../USER/main.c **** }
 9908              		.loc 1 147 10 view .LVU3419
 147:../USER/main.c **** }
 9909              		.loc 1 147 14 view .LVU3420
 9910              	.LBB1142:
 9911              	.LBI1139:
 116:../USER/main.c **** 	char ch;
 9912              		.loc 1 116 6 view .LVU3421
 9913              	.LBB1141:
 117:../USER/main.c **** 	//
 9914              		.loc 1 117 2 view .LVU3422
 119:../USER/main.c **** 	if(ch!=0) kinbuf[kinbwp++] = ch;
 9915              		.loc 1 119 2 view .LVU3423
 119:../USER/main.c **** 	if(ch!=0) kinbuf[kinbwp++] = ch;
 9916              		.loc 1 119 7 is_stmt 0 view .LVU3424
 9917 16c6 FFF7FEFF 		bl	SPI_ReadData
 9918              	.LVL664:
 120:../USER/main.c **** 	if(kinbwp>=256) kinbwp = 0;
 9919              		.loc 1 120 12 is_stmt 1 view .LVU3425
 119:../USER/main.c **** 	if(ch!=0) kinbuf[kinbwp++] = ch;
 9920              		.loc 1 119 5 is_stmt 0 view .LVU3426
 9921 16ca 40B2     		sxtb	r0, r0
 9922              	.LVL665:
 120:../USER/main.c **** 	if(kinbwp>=256) kinbwp = 0;
 9923              		.loc 1 120 2 is_stmt 1 view .LVU3427
 120:../USER/main.c **** 	if(kinbwp>=256) kinbwp = 0;
 9924              		.loc 1 120 4 is_stmt 0 view .LVU3428
 9925 16cc 0028     		cmp	r0, #0
 9926 16ce DFD0     		beq	.L1195
 120:../USER/main.c **** 	if(kinbwp>=256) kinbwp = 0;
 9927              		.loc 1 120 25 view .LVU3429
 9928 16d0 D8F80020 		ldr	r2, [r8]
 9929 16d4 531C     		adds	r3, r2, #1
 120:../USER/main.c **** 	if(kinbwp>=256) kinbwp = 0;
 9930              		.loc 1 120 29 view .LVU3430
 9931 16d6 09F80200 		strb	r0, [r9, r2]
 120:../USER/main.c **** 	if(kinbwp>=256) kinbwp = 0;
 9932              		.loc 1 120 25 view .LVU3431
 9933 16da C8F80030 		str	r3, [r8]
 9934 16de D9E7     		b	.L643
 9935              	.LVL666:
 9936              	.L624:
 120:../USER/main.c **** 	if(kinbwp>=256) kinbwp = 0;
 9937              		.loc 1 120 25 view .LVU3432
 9938              	.LBE1141:
 9939              	.LBE1142:
 9940              	.LBE1145:
 9941              	.LBE1149:
 9942              	.LBE1153:
 9943              	.LBE1181:
 9944              	.LBE1188:
 9945              	.LBE1248:
 9946              	.LBE1257:
 9947              	.LBE1263:
 9948              	.LBB1264:
 9949              	.LBB1123:
 9950              	.LBB1120:
 9951              	.LBB1117:
 9952              	.LBB1114:
 9953              	.LBB1111:
 9954              	.LBB1107:
 144:../USER/main.c **** 	}
 9955              		.loc 1 144 3 is_stmt 1 view .LVU3433
 9956 16e0 2846     		mov	r0, r5
 9957 16e2 FFF7FEFF 		bl	SPI_WriteData
 9958              	.LVL667:
 9959              	.L617:
 9960              	.LBB1101:
 9961              	.LBB1102:
 123:../USER/main.c **** 	if(kinbwp>=256) kinbwp = 0;
 9962              		.loc 1 123 11 is_stmt 0 view .LVU3434
 9963 16e6 4FF04025 		mov	r5, #1073758208
 9964 16ea 1AE0     		b	.L630
 9965              	.LVL668:
 9966              	.L1196:
 123:../USER/main.c **** 	if(kinbwp>=256) kinbwp = 0;
 9967              		.loc 1 123 11 view .LVU3435
 9968 16ec D8F80030 		ldr	r3, [r8]
 9969              	.L626:
 121:../USER/main.c **** 	//
 9970              		.loc 1 121 2 is_stmt 1 view .LVU3436
 121:../USER/main.c **** 	//
 9971              		.loc 1 121 18 view .LVU3437
 121:../USER/main.c **** 	//
 9972              		.loc 1 121 4 is_stmt 0 view .LVU3438
 9973 16f0 FF2B     		cmp	r3, #255
 9974 16f2 02DD     		ble	.L627
 121:../USER/main.c **** 	//
 9975              		.loc 1 121 25 view .LVU3439
 9976 16f4 0023     		movs	r3, #0
 9977 16f6 C8F80070 		str	r7, [r8]
 9978              	.L627:
 123:../USER/main.c **** 	if(kinbwp>=256) kinbwp = 0;
 9979              		.loc 1 123 39 is_stmt 1 view .LVU3440
 123:../USER/main.c **** 	if(kinbwp>=256) kinbwp = 0;
 9980              		.loc 1 123 2 view .LVU3441
 123:../USER/main.c **** 	if(kinbwp>=256) kinbwp = 0;
 9981              		.loc 1 123 11 is_stmt 0 view .LVU3442
 9982 16fa 6968     		ldr	r1, [r5, #4]
 123:../USER/main.c **** 	if(kinbwp>=256) kinbwp = 0;
 9983              		.loc 1 123 52 view .LVU3443
 9984 16fc 5A1C     		adds	r2, r3, #1
 123:../USER/main.c **** 	if(kinbwp>=256) kinbwp = 0;
 9985              		.loc 1 123 4 view .LVU3444
 9986 16fe 8E07     		lsls	r6, r1, #30
 9987 1700 09D5     		bpl	.L629
 124:../USER/main.c **** 	//
 9988              		.loc 1 124 25 view .LVU3445
 9989 1702 B2F5807F 		cmp	r2, #256
 9990 1706 14BF     		ite	ne
 9991 1708 1146     		movne	r1, r2
 9992 170a 3946     		moveq	r1, r7
 123:../USER/main.c **** 	if(kinbwp>=256) kinbwp = 0;
 9993              		.loc 1 123 63 view .LVU3446
 9994 170c 2868     		ldr	r0, [r5]
 9995              	.LVL669:
 124:../USER/main.c **** 	//
 9996              		.loc 1 124 25 view .LVU3447
 9997 170e C8F80010 		str	r1, [r8]
 123:../USER/main.c **** 	if(kinbwp>=256) kinbwp = 0;
 9998              		.loc 1 123 56 view .LVU3448
 9999 1712 09F80300 		strb	r0, [r9, r3]
 124:../USER/main.c **** 	//
 10000              		.loc 1 124 2 is_stmt 1 view .LVU3449
 10001              	.L629:
 124:../USER/main.c **** 	//
 10002              		.loc 1 124 2 is_stmt 0 view .LVU3450
 10003              	.LBE1102:
 10004              	.LBE1101:
 147:../USER/main.c **** }
 10005              		.loc 1 147 27 is_stmt 1 view .LVU3451
 147:../USER/main.c **** }
 10006              		.loc 1 147 32 is_stmt 0 view .LVU3452
 10007 1716 2046     		mov	r0, r4
 10008 1718 FFF7FEFF 		bl	disp_vram
 10009              	.LVL670:
 147:../USER/main.c **** }
 10010              		.loc 1 147 2 view .LVU3453
 10011 171c 0028     		cmp	r0, #0
 10012 171e 3FF431A8 		beq	.L615
 10013              	.LVL671:
 10014              	.L630:
 147:../USER/main.c **** }
 10015              		.loc 1 147 2 is_stmt 1 view .LVU3454
 147:../USER/main.c **** }
 10016              		.loc 1 147 10 view .LVU3455
 147:../USER/main.c **** }
 10017              		.loc 1 147 14 view .LVU3456
 10018              	.LBB1104:
 10019              	.LBI1101:
 116:../USER/main.c **** 	char ch;
 10020              		.loc 1 116 6 view .LVU3457
 10021              	.LBB1103:
 117:../USER/main.c **** 	//
 10022              		.loc 1 117 2 view .LVU3458
 119:../USER/main.c **** 	if(ch!=0) kinbuf[kinbwp++] = ch;
 10023              		.loc 1 119 2 view .LVU3459
 119:../USER/main.c **** 	if(ch!=0) kinbuf[kinbwp++] = ch;
 10024              		.loc 1 119 7 is_stmt 0 view .LVU3460
 10025 1722 FFF7FEFF 		bl	SPI_ReadData
 10026              	.LVL672:
 120:../USER/main.c **** 	if(kinbwp>=256) kinbwp = 0;
 10027              		.loc 1 120 12 is_stmt 1 view .LVU3461
 119:../USER/main.c **** 	if(ch!=0) kinbuf[kinbwp++] = ch;
 10028              		.loc 1 119 5 is_stmt 0 view .LVU3462
 10029 1726 40B2     		sxtb	r0, r0
 10030              	.LVL673:
 120:../USER/main.c **** 	if(kinbwp>=256) kinbwp = 0;
 10031              		.loc 1 120 2 is_stmt 1 view .LVU3463
 120:../USER/main.c **** 	if(kinbwp>=256) kinbwp = 0;
 10032              		.loc 1 120 4 is_stmt 0 view .LVU3464
 10033 1728 0028     		cmp	r0, #0
 10034 172a DFD0     		beq	.L1196
 120:../USER/main.c **** 	if(kinbwp>=256) kinbwp = 0;
 10035              		.loc 1 120 25 view .LVU3465
 10036 172c D8F80020 		ldr	r2, [r8]
 10037 1730 531C     		adds	r3, r2, #1
 120:../USER/main.c **** 	if(kinbwp>=256) kinbwp = 0;
 10038              		.loc 1 120 29 view .LVU3466
 10039 1732 09F80200 		strb	r0, [r9, r2]
 120:../USER/main.c **** 	if(kinbwp>=256) kinbwp = 0;
 10040              		.loc 1 120 25 view .LVU3467
 10041 1736 C8F80030 		str	r3, [r8]
 10042 173a D9E7     		b	.L626
 10043              	.LVL674:
 10044              	.L657:
 120:../USER/main.c **** 	if(kinbwp>=256) kinbwp = 0;
 10045              		.loc 1 120 25 view .LVU3468
 10046              	.LBE1103:
 10047              	.LBE1104:
 10048              	.LBE1107:
 10049              	.LBE1111:
 10050              	.LBE1114:
 10051              	.LBE1117:
 10052              	.LBE1120:
 10053              	.LBE1123:
 10054              	.LBE1264:
 10055              	.LBB1265:
 10056              	.LBB1258:
 10057              	.LBB1249:
 10058              	.LBB1189:
 10059              	.LBB1182:
 10060              	.LBB1177:
 10061              	.LBB1174:
 10062              	.LBB1170:
 144:../USER/main.c **** 	}
 10063              		.loc 1 144 3 is_stmt 1 view .LVU3469
 10064 173c 2846     		mov	r0, r5
 10065 173e FFF7FEFF 		bl	SPI_WriteData
 10066              	.LVL675:
 10067              	.L650:
 10068              	.LBB1164:
 10069              	.LBB1165:
 123:../USER/main.c **** 	if(kinbwp>=256) kinbwp = 0;
 10070              		.loc 1 123 11 is_stmt 0 view .LVU3470
 10071 1742 4FF04025 		mov	r5, #1073758208
 10072 1746 1AE0     		b	.L663
 10073              	.LVL676:
 10074              	.L1197:
 123:../USER/main.c **** 	if(kinbwp>=256) kinbwp = 0;
 10075              		.loc 1 123 11 view .LVU3471
 10076 1748 D8F80030 		ldr	r3, [r8]
 10077              	.L659:
 121:../USER/main.c **** 	//
 10078              		.loc 1 121 2 is_stmt 1 view .LVU3472
 121:../USER/main.c **** 	//
 10079              		.loc 1 121 18 view .LVU3473
 121:../USER/main.c **** 	//
 10080              		.loc 1 121 4 is_stmt 0 view .LVU3474
 10081 174c FF2B     		cmp	r3, #255
 10082 174e 02DD     		ble	.L660
 121:../USER/main.c **** 	//
 10083              		.loc 1 121 25 view .LVU3475
 10084 1750 0023     		movs	r3, #0
 10085 1752 C8F80070 		str	r7, [r8]
 10086              	.L660:
 123:../USER/main.c **** 	if(kinbwp>=256) kinbwp = 0;
 10087              		.loc 1 123 39 is_stmt 1 view .LVU3476
 123:../USER/main.c **** 	if(kinbwp>=256) kinbwp = 0;
 10088              		.loc 1 123 2 view .LVU3477
 123:../USER/main.c **** 	if(kinbwp>=256) kinbwp = 0;
 10089              		.loc 1 123 11 is_stmt 0 view .LVU3478
 10090 1756 6968     		ldr	r1, [r5, #4]
 123:../USER/main.c **** 	if(kinbwp>=256) kinbwp = 0;
 10091              		.loc 1 123 52 view .LVU3479
 10092 1758 5A1C     		adds	r2, r3, #1
 123:../USER/main.c **** 	if(kinbwp>=256) kinbwp = 0;
 10093              		.loc 1 123 4 view .LVU3480
 10094 175a 8E07     		lsls	r6, r1, #30
 10095 175c 09D5     		bpl	.L662
 124:../USER/main.c **** 	//
 10096              		.loc 1 124 25 view .LVU3481
 10097 175e B2F5807F 		cmp	r2, #256
 10098 1762 14BF     		ite	ne
 10099 1764 1146     		movne	r1, r2
 10100 1766 3946     		moveq	r1, r7
 123:../USER/main.c **** 	if(kinbwp>=256) kinbwp = 0;
 10101              		.loc 1 123 63 view .LVU3482
 10102 1768 2868     		ldr	r0, [r5]
 10103              	.LVL677:
 124:../USER/main.c **** 	//
 10104              		.loc 1 124 25 view .LVU3483
 10105 176a C8F80010 		str	r1, [r8]
 123:../USER/main.c **** 	if(kinbwp>=256) kinbwp = 0;
 10106              		.loc 1 123 56 view .LVU3484
 10107 176e 09F80300 		strb	r0, [r9, r3]
 124:../USER/main.c **** 	//
 10108              		.loc 1 124 2 is_stmt 1 view .LVU3485
 10109              	.L662:
 124:../USER/main.c **** 	//
 10110              		.loc 1 124 2 is_stmt 0 view .LVU3486
 10111              	.LBE1165:
 10112              	.LBE1164:
 147:../USER/main.c **** }
 10113              		.loc 1 147 27 is_stmt 1 view .LVU3487
 147:../USER/main.c **** }
 10114              		.loc 1 147 32 is_stmt 0 view .LVU3488
 10115 1772 2046     		mov	r0, r4
 10116 1774 FFF7FEFF 		bl	disp_vram
 10117              	.LVL678:
 147:../USER/main.c **** }
 10118              		.loc 1 147 2 view .LVU3489
 10119 1778 0028     		cmp	r0, #0
 10120 177a 3FF44FAC 		beq	.L664
 10121              	.LVL679:
 10122              	.L663:
 147:../USER/main.c **** }
 10123              		.loc 1 147 2 is_stmt 1 view .LVU3490
 147:../USER/main.c **** }
 10124              		.loc 1 147 10 view .LVU3491
 147:../USER/main.c **** }
 10125              		.loc 1 147 14 view .LVU3492
 10126              	.LBB1167:
 10127              	.LBI1164:
 116:../USER/main.c **** 	char ch;
 10128              		.loc 1 116 6 view .LVU3493
 10129              	.LBB1166:
 117:../USER/main.c **** 	//
 10130              		.loc 1 117 2 view .LVU3494
 119:../USER/main.c **** 	if(ch!=0) kinbuf[kinbwp++] = ch;
 10131              		.loc 1 119 2 view .LVU3495
 119:../USER/main.c **** 	if(ch!=0) kinbuf[kinbwp++] = ch;
 10132              		.loc 1 119 7 is_stmt 0 view .LVU3496
 10133 177e FFF7FEFF 		bl	SPI_ReadData
 10134              	.LVL680:
 120:../USER/main.c **** 	if(kinbwp>=256) kinbwp = 0;
 10135              		.loc 1 120 12 is_stmt 1 view .LVU3497
 119:../USER/main.c **** 	if(ch!=0) kinbuf[kinbwp++] = ch;
 10136              		.loc 1 119 5 is_stmt 0 view .LVU3498
 10137 1782 40B2     		sxtb	r0, r0
 10138              	.LVL681:
 120:../USER/main.c **** 	if(kinbwp>=256) kinbwp = 0;
 10139              		.loc 1 120 2 is_stmt 1 view .LVU3499
 120:../USER/main.c **** 	if(kinbwp>=256) kinbwp = 0;
 10140              		.loc 1 120 4 is_stmt 0 view .LVU3500
 10141 1784 0028     		cmp	r0, #0
 10142 1786 DFD0     		beq	.L1197
 120:../USER/main.c **** 	if(kinbwp>=256) kinbwp = 0;
 10143              		.loc 1 120 25 view .LVU3501
 10144 1788 D8F80020 		ldr	r2, [r8]
 10145 178c 531C     		adds	r3, r2, #1
 120:../USER/main.c **** 	if(kinbwp>=256) kinbwp = 0;
 10146              		.loc 1 120 29 view .LVU3502
 10147 178e 09F80200 		strb	r0, [r9, r2]
 120:../USER/main.c **** 	if(kinbwp>=256) kinbwp = 0;
 10148              		.loc 1 120 25 view .LVU3503
 10149 1792 C8F80030 		str	r3, [r8]
 10150 1796 D9E7     		b	.L659
 10151              	.LVL682:
 10152              	.L674:
 120:../USER/main.c **** 	if(kinbwp>=256) kinbwp = 0;
 10153              		.loc 1 120 25 view .LVU3504
 10154              	.LBE1166:
 10155              	.LBE1167:
 10156              	.LBE1170:
 10157              	.LBE1174:
 10158              	.LBE1177:
 10159              	.LBE1182:
 10160              	.LBE1189:
 10161              	.LBE1249:
 10162              	.LBB1250:
 10163              	.LBB1244:
 10164              	.LBB1240:
 10165              	.LBB1216:
 10166              	.LBB1213:
 10167              	.LBB1208:
 144:../USER/main.c **** 	}
 10168              		.loc 1 144 3 is_stmt 1 view .LVU3505
 10169 1798 2846     		mov	r0, r5
 10170 179a FFF7FEFF 		bl	SPI_WriteData
 10171              	.LVL683:
 10172              	.L667:
 10173              	.LBB1204:
 10174              	.LBB1205:
 123:../USER/main.c **** 	if(kinbwp>=256) kinbwp = 0;
 10175              		.loc 1 123 11 is_stmt 0 view .LVU3506
 10176 179e 4FF04025 		mov	r5, #1073758208
 10177 17a2 1AE0     		b	.L680
 10178              	.LVL684:
 10179              	.L1198:
 123:../USER/main.c **** 	if(kinbwp>=256) kinbwp = 0;
 10180              		.loc 1 123 11 view .LVU3507
 10181 17a4 D8F80030 		ldr	r3, [r8]
 10182              	.L676:
 121:../USER/main.c **** 	//
 10183              		.loc 1 121 2 is_stmt 1 view .LVU3508
 121:../USER/main.c **** 	//
 10184              		.loc 1 121 18 view .LVU3509
 121:../USER/main.c **** 	//
 10185              		.loc 1 121 4 is_stmt 0 view .LVU3510
 10186 17a8 FF2B     		cmp	r3, #255
 10187 17aa 02DD     		ble	.L677
 121:../USER/main.c **** 	//
 10188              		.loc 1 121 25 view .LVU3511
 10189 17ac 0023     		movs	r3, #0
 10190 17ae C8F80070 		str	r7, [r8]
 10191              	.L677:
 123:../USER/main.c **** 	if(kinbwp>=256) kinbwp = 0;
 10192              		.loc 1 123 39 is_stmt 1 view .LVU3512
 123:../USER/main.c **** 	if(kinbwp>=256) kinbwp = 0;
 10193              		.loc 1 123 2 view .LVU3513
 123:../USER/main.c **** 	if(kinbwp>=256) kinbwp = 0;
 10194              		.loc 1 123 11 is_stmt 0 view .LVU3514
 10195 17b2 6968     		ldr	r1, [r5, #4]
 123:../USER/main.c **** 	if(kinbwp>=256) kinbwp = 0;
 10196              		.loc 1 123 52 view .LVU3515
 10197 17b4 5A1C     		adds	r2, r3, #1
 123:../USER/main.c **** 	if(kinbwp>=256) kinbwp = 0;
 10198              		.loc 1 123 4 view .LVU3516
 10199 17b6 8E07     		lsls	r6, r1, #30
 10200 17b8 09D5     		bpl	.L679
 124:../USER/main.c **** 	//
 10201              		.loc 1 124 25 view .LVU3517
 10202 17ba B2F5807F 		cmp	r2, #256
 10203 17be 14BF     		ite	ne
 10204 17c0 1146     		movne	r1, r2
 10205 17c2 3946     		moveq	r1, r7
 123:../USER/main.c **** 	if(kinbwp>=256) kinbwp = 0;
 10206              		.loc 1 123 63 view .LVU3518
 10207 17c4 2868     		ldr	r0, [r5]
 10208              	.LVL685:
 124:../USER/main.c **** 	//
 10209              		.loc 1 124 25 view .LVU3519
 10210 17c6 C8F80010 		str	r1, [r8]
 123:../USER/main.c **** 	if(kinbwp>=256) kinbwp = 0;
 10211              		.loc 1 123 56 view .LVU3520
 10212 17ca 09F80300 		strb	r0, [r9, r3]
 124:../USER/main.c **** 	//
 10213              		.loc 1 124 2 is_stmt 1 view .LVU3521
 10214              	.L679:
 124:../USER/main.c **** 	//
 10215              		.loc 1 124 2 is_stmt 0 view .LVU3522
 10216              	.LBE1205:
 10217              	.LBE1204:
 147:../USER/main.c **** }
 10218              		.loc 1 147 27 is_stmt 1 view .LVU3523
 147:../USER/main.c **** }
 10219              		.loc 1 147 32 is_stmt 0 view .LVU3524
 10220 17ce 2046     		mov	r0, r4
 10221 17d0 FFF7FEFF 		bl	disp_vram
 10222              	.LVL686:
 147:../USER/main.c **** }
 10223              		.loc 1 147 2 view .LVU3525
 10224 17d4 0028     		cmp	r0, #0
 10225 17d6 3FF484AC 		beq	.L688
 10226              	.LVL687:
 10227              	.L680:
 147:../USER/main.c **** }
 10228              		.loc 1 147 2 is_stmt 1 view .LVU3526
 147:../USER/main.c **** }
 10229              		.loc 1 147 10 view .LVU3527
 147:../USER/main.c **** }
 10230              		.loc 1 147 14 view .LVU3528
 10231              	.LBB1207:
 10232              	.LBI1204:
 116:../USER/main.c **** 	char ch;
 10233              		.loc 1 116 6 view .LVU3529
 10234              	.LBB1206:
 117:../USER/main.c **** 	//
 10235              		.loc 1 117 2 view .LVU3530
 119:../USER/main.c **** 	if(ch!=0) kinbuf[kinbwp++] = ch;
 10236              		.loc 1 119 2 view .LVU3531
 119:../USER/main.c **** 	if(ch!=0) kinbuf[kinbwp++] = ch;
 10237              		.loc 1 119 7 is_stmt 0 view .LVU3532
 10238 17da FFF7FEFF 		bl	SPI_ReadData
 10239              	.LVL688:
 120:../USER/main.c **** 	if(kinbwp>=256) kinbwp = 0;
 10240              		.loc 1 120 12 is_stmt 1 view .LVU3533
 119:../USER/main.c **** 	if(ch!=0) kinbuf[kinbwp++] = ch;
 10241              		.loc 1 119 5 is_stmt 0 view .LVU3534
 10242 17de 40B2     		sxtb	r0, r0
 10243              	.LVL689:
 120:../USER/main.c **** 	if(kinbwp>=256) kinbwp = 0;
 10244              		.loc 1 120 2 is_stmt 1 view .LVU3535
 120:../USER/main.c **** 	if(kinbwp>=256) kinbwp = 0;
 10245              		.loc 1 120 4 is_stmt 0 view .LVU3536
 10246 17e0 0028     		cmp	r0, #0
 10247 17e2 DFD0     		beq	.L1198
 120:../USER/main.c **** 	if(kinbwp>=256) kinbwp = 0;
 10248              		.loc 1 120 25 view .LVU3537
 10249 17e4 D8F80020 		ldr	r2, [r8]
 10250 17e8 531C     		adds	r3, r2, #1
 120:../USER/main.c **** 	if(kinbwp>=256) kinbwp = 0;
 10251              		.loc 1 120 29 view .LVU3538
 10252 17ea 09F80200 		strb	r0, [r9, r2]
 120:../USER/main.c **** 	if(kinbwp>=256) kinbwp = 0;
 10253              		.loc 1 120 25 view .LVU3539
 10254 17ee C8F80030 		str	r3, [r8]
 10255 17f2 D9E7     		b	.L676
 10256              	.LVL690:
 10257              	.L697:
 120:../USER/main.c **** 	if(kinbwp>=256) kinbwp = 0;
 10258              		.loc 1 120 25 view .LVU3540
 10259              	.LBE1206:
 10260              	.LBE1207:
 10261              	.LBE1208:
 10262              	.LBE1213:
 10263              	.LBE1216:
 10264              	.LBE1240:
 10265              	.LBB1241:
 10266              	.LBB1238:
 10267              	.LBB1236:
 10268              	.LBB1232:
 144:../USER/main.c **** 	}
 10269              		.loc 1 144 3 is_stmt 1 view .LVU3541
 10270 17f4 2846     		mov	r0, r5
 10271 17f6 FFF7FEFF 		bl	SPI_WriteData
 10272              	.LVL691:
 10273              	.L690:
 10274              	.LBB1226:
 10275              	.LBB1227:
 123:../USER/main.c **** 	if(kinbwp>=256) kinbwp = 0;
 10276              		.loc 1 123 11 is_stmt 0 view .LVU3542
 10277 17fa 4FF04025 		mov	r5, #1073758208
 10278 17fe 1AE0     		b	.L703
 10279              	.LVL692:
 10280              	.L1199:
 123:../USER/main.c **** 	if(kinbwp>=256) kinbwp = 0;
 10281              		.loc 1 123 11 view .LVU3543
 10282 1800 D8F80030 		ldr	r3, [r8]
 10283              	.L699:
 121:../USER/main.c **** 	//
 10284              		.loc 1 121 2 is_stmt 1 view .LVU3544
 121:../USER/main.c **** 	//
 10285              		.loc 1 121 18 view .LVU3545
 121:../USER/main.c **** 	//
 10286              		.loc 1 121 4 is_stmt 0 view .LVU3546
 10287 1804 FF2B     		cmp	r3, #255
 10288 1806 02DD     		ble	.L700
 121:../USER/main.c **** 	//
 10289              		.loc 1 121 25 view .LVU3547
 10290 1808 0023     		movs	r3, #0
 10291 180a C8F80070 		str	r7, [r8]
 10292              	.L700:
 123:../USER/main.c **** 	if(kinbwp>=256) kinbwp = 0;
 10293              		.loc 1 123 39 is_stmt 1 view .LVU3548
 123:../USER/main.c **** 	if(kinbwp>=256) kinbwp = 0;
 10294              		.loc 1 123 2 view .LVU3549
 123:../USER/main.c **** 	if(kinbwp>=256) kinbwp = 0;
 10295              		.loc 1 123 11 is_stmt 0 view .LVU3550
 10296 180e 6968     		ldr	r1, [r5, #4]
 123:../USER/main.c **** 	if(kinbwp>=256) kinbwp = 0;
 10297              		.loc 1 123 52 view .LVU3551
 10298 1810 5A1C     		adds	r2, r3, #1
 123:../USER/main.c **** 	if(kinbwp>=256) kinbwp = 0;
 10299              		.loc 1 123 4 view .LVU3552
 10300 1812 8E07     		lsls	r6, r1, #30
 10301 1814 09D5     		bpl	.L702
 124:../USER/main.c **** 	//
 10302              		.loc 1 124 25 view .LVU3553
 10303 1816 B2F5807F 		cmp	r2, #256
 10304 181a 14BF     		ite	ne
 10305 181c 1146     		movne	r1, r2
 10306 181e 3946     		moveq	r1, r7
 123:../USER/main.c **** 	if(kinbwp>=256) kinbwp = 0;
 10307              		.loc 1 123 63 view .LVU3554
 10308 1820 2868     		ldr	r0, [r5]
 10309              	.LVL693:
 124:../USER/main.c **** 	//
 10310              		.loc 1 124 25 view .LVU3555
 10311 1822 C8F80010 		str	r1, [r8]
 123:../USER/main.c **** 	if(kinbwp>=256) kinbwp = 0;
 10312              		.loc 1 123 56 view .LVU3556
 10313 1826 09F80300 		strb	r0, [r9, r3]
 124:../USER/main.c **** 	//
 10314              		.loc 1 124 2 is_stmt 1 view .LVU3557
 10315              	.L702:
 124:../USER/main.c **** 	//
 10316              		.loc 1 124 2 is_stmt 0 view .LVU3558
 10317              	.LBE1227:
 10318              	.LBE1226:
 147:../USER/main.c **** }
 10319              		.loc 1 147 27 is_stmt 1 view .LVU3559
 147:../USER/main.c **** }
 10320              		.loc 1 147 32 is_stmt 0 view .LVU3560
 10321 182a 2046     		mov	r0, r4
 10322 182c FFF7FEFF 		bl	disp_vram
 10323              	.LVL694:
 147:../USER/main.c **** }
 10324              		.loc 1 147 2 view .LVU3561
 10325 1830 0028     		cmp	r0, #0
 10326 1832 3FF49AAC 		beq	.L704
 10327              	.LVL695:
 10328              	.L703:
 147:../USER/main.c **** }
 10329              		.loc 1 147 2 is_stmt 1 view .LVU3562
 147:../USER/main.c **** }
 10330              		.loc 1 147 10 view .LVU3563
 147:../USER/main.c **** }
 10331              		.loc 1 147 14 view .LVU3564
 10332              	.LBB1229:
 10333              	.LBI1226:
 116:../USER/main.c **** 	char ch;
 10334              		.loc 1 116 6 view .LVU3565
 10335              	.LBB1228:
 117:../USER/main.c **** 	//
 10336              		.loc 1 117 2 view .LVU3566
 119:../USER/main.c **** 	if(ch!=0) kinbuf[kinbwp++] = ch;
 10337              		.loc 1 119 2 view .LVU3567
 119:../USER/main.c **** 	if(ch!=0) kinbuf[kinbwp++] = ch;
 10338              		.loc 1 119 7 is_stmt 0 view .LVU3568
 10339 1836 FFF7FEFF 		bl	SPI_ReadData
 10340              	.LVL696:
 120:../USER/main.c **** 	if(kinbwp>=256) kinbwp = 0;
 10341              		.loc 1 120 12 is_stmt 1 view .LVU3569
 119:../USER/main.c **** 	if(ch!=0) kinbuf[kinbwp++] = ch;
 10342              		.loc 1 119 5 is_stmt 0 view .LVU3570
 10343 183a 40B2     		sxtb	r0, r0
 10344              	.LVL697:
 120:../USER/main.c **** 	if(kinbwp>=256) kinbwp = 0;
 10345              		.loc 1 120 2 is_stmt 1 view .LVU3571
 120:../USER/main.c **** 	if(kinbwp>=256) kinbwp = 0;
 10346              		.loc 1 120 4 is_stmt 0 view .LVU3572
 10347 183c 0028     		cmp	r0, #0
 10348 183e DFD0     		beq	.L1199
 120:../USER/main.c **** 	if(kinbwp>=256) kinbwp = 0;
 10349              		.loc 1 120 25 view .LVU3573
 10350 1840 D8F80020 		ldr	r2, [r8]
 10351 1844 531C     		adds	r3, r2, #1
 120:../USER/main.c **** 	if(kinbwp>=256) kinbwp = 0;
 10352              		.loc 1 120 29 view .LVU3574
 10353 1846 09F80200 		strb	r0, [r9, r2]
 120:../USER/main.c **** 	if(kinbwp>=256) kinbwp = 0;
 10354              		.loc 1 120 25 view .LVU3575
 10355 184a C8F80030 		str	r3, [r8]
 10356 184e D9E7     		b	.L699
 10357              	.LVL698:
 10358              	.L1180:
 120:../USER/main.c **** 	if(kinbwp>=256) kinbwp = 0;
 10359              		.loc 1 120 25 view .LVU3576
 10360              	.LBE1228:
 10361              	.LBE1229:
 10362              	.LBE1232:
 10363              	.LBE1236:
 10364              	.LBE1238:
 10365              	.LBE1241:
 10366              	.LBE1244:
 10367              	.LBE1250:
 10368              	.LBE1258:
 10369              	.LBE1265:
 10370              	.LBE1272:
 10371              	.LBE1290:
 10372              	.LBE1587:
 10373              	.LBB1588:
 10374              	.LBB1529:
 137:../USER/main.c **** 	else {
 10375              		.loc 1 137 3 is_stmt 1 view .LVU3577
 10376 1850 2021     		movs	r1, #32
 10377 1852 4FF04020 		mov	r0, #1073758208
 10378 1856 FFF7FEFF 		bl	UART_SendChar
 10379              	.LVL699:
 10380 185a A4E5     		b	.L744
 10381              	.LVL700:
 10382              	.L1175:
 137:../USER/main.c **** 	else {
 10383              		.loc 1 137 3 is_stmt 0 view .LVU3578
 10384              	.LBE1529:
 10385              	.LBE1588:
 10386              	.LBB1589:
 10387              	.LBB1512:
 137:../USER/main.c **** 	else {
 10388              		.loc 1 137 3 is_stmt 1 view .LVU3579
 10389 185c 2021     		movs	r1, #32
 10390 185e 4FF04020 		mov	r0, #1073758208
 10391 1862 FFF7FEFF 		bl	UART_SendChar
 10392              	.LVL701:
 10393 1866 22E5     		b	.L721
 10394              	.LVL702:
 10395              	.L1171:
 137:../USER/main.c **** 	else {
 10396              		.loc 1 137 3 is_stmt 0 view .LVU3580
 10397              	.LBE1512:
 10398              	.LBE1589:
 10399              	.LBB1590:
 10400              	.LBB1291:
 10401              	.LBB1288:
 137:../USER/main.c **** 	else {
 10402              		.loc 1 137 3 is_stmt 1 view .LVU3581
 10403 1868 3A21     		movs	r1, #58
 10404 186a 4FF04020 		mov	r0, #1073758208
 10405 186e FFF7FEFF 		bl	UART_SendChar
 10406              	.LVL703:
 10407 1872 B5E4     		b	.L706
 10408              	.LVL704:
 10409              	.L1108:
 137:../USER/main.c **** 	else {
 10410              		.loc 1 137 3 is_stmt 0 view .LVU3582
 10411              	.LBE1288:
 10412              	.LBE1291:
 10413              	.LBE1590:
 10414              	.LBB1591:
 10415              	.LBB1013:
 10416              	.LBB1011:
 10417              	.LBB1009:
 137:../USER/main.c **** 	else {
 10418              		.loc 1 137 3 is_stmt 1 view .LVU3583
 10419 1874 2146     		mov	r1, r4
 10420 1876 4FF04020 		mov	r0, #1073758208
 10421 187a FFF7FEFF 		bl	UART_SendChar
 10422              	.LVL705:
 10423 187e FFF7ACB8 		b	.L338
 10424              	.LVL706:
 10425              	.L1138:
 137:../USER/main.c **** 	else {
 10426              		.loc 1 137 3 is_stmt 0 view .LVU3584
 10427              	.LBE1009:
 10428              	.LBE1011:
 10429              	.LBE1013:
 10430              	.LBE1591:
 10431              	.LBB1592:
 10432              	.LBB1375:
 10433              	.LBB1372:
 137:../USER/main.c **** 	else {
 10434              		.loc 1 137 3 is_stmt 1 view .LVU3585
 10435 1882 3A21     		movs	r1, #58
 10436 1884 4FF04020 		mov	r0, #1073758208
 10437 1888 FFF7FEFF 		bl	UART_SendChar
 10438              	.LVL707:
 10439 188c FFF713B9 		b	.L390
 10440              	.LVL708:
 10441              	.L802:
 137:../USER/main.c **** 	else {
 10442              		.loc 1 137 3 is_stmt 0 view .LVU3586
 10443              	.LBE1372:
 10444              	.LBE1375:
 10445              	.LBE1592:
 10446              		.loc 1 289 25 is_stmt 1 view .LVU3587
 267:../USER/main.c **** 	          putadrhd(adr);
 10447              		.loc 1 267 15 is_stmt 0 view .LVU3588
 10448 1890 2E29     		cmp	r1, #46
 10449 1892 3EF4D4AB 		beq	.L279
 10450              	.LVL709:
 10451              	.L803:
 10452              		.loc 1 289 29 view .LVU3589
 10453 1896 049B     		ldr	r3, [sp, #16]
 10454 1898 9B44     		add	fp, fp, r3
 10455 189a FEF736BE 		b	.L1096
 10456              	.LVL710:
 10457              	.L1179:
 269:../USER/main.c **** 	          putch(' ');
 10458              		.loc 1 269 54 is_stmt 1 discriminator 1 view .LVU3590
 269:../USER/main.c **** 	          putch(' ');
 10459              		.loc 1 269 65 is_stmt 0 discriminator 1 view .LVU3591
 10460 189e 9BF80140 		ldrb	r4, [fp, #1]	@ zero_extendqisi2
 10461              	.LVL711:
 10462              	.LBB1593:
 10463              	.LBI1593:
 151:../USER/main.c **** void puth4(dt) int dt;{ puth2((dt >> 8) & 0xff); puth2(dt & 0xff); }
 10464              		.loc 1 151 6 is_stmt 1 discriminator 1 view .LVU3592
 10465              	.LBB1594:
 151:../USER/main.c **** void puth4(dt) int dt;{ puth2((dt >> 8) & 0xff); puth2(dt & 0xff); }
 10466              		.loc 1 151 25 discriminator 1 view .LVU3593
 151:../USER/main.c **** void puth4(dt) int dt;{ puth2((dt >> 8) & 0xff); puth2(dt & 0xff); }
 10467              		.loc 1 151 34 is_stmt 0 discriminator 1 view .LVU3594
 10468 18a2 2311     		asrs	r3, r4, #4
 10469              	.LVL712:
 10470              	.LBB1595:
 10471              	.LBI1595:
 150:../USER/main.c **** void puth2(dt) int dt;{ puth((dt >> 4) & 0xf); puth(dt & 0xf); }
 10472              		.loc 1 150 6 is_stmt 1 discriminator 1 view .LVU3595
 10473              	.LBB1596:
 150:../USER/main.c **** void puth2(dt) int dt;{ puth((dt >> 4) & 0xf); puth(dt & 0xf); }
 10474              		.loc 1 150 24 discriminator 1 view .LVU3596
 150:../USER/main.c **** void puth2(dt) int dt;{ puth((dt >> 4) & 0xf); puth(dt & 0xf); }
 10475              		.loc 1 150 34 discriminator 1 view .LVU3597
 150:../USER/main.c **** void puth2(dt) int dt;{ puth((dt >> 4) & 0xf); puth(dt & 0xf); }
 10476              		.loc 1 150 55 discriminator 1 view .LVU3598
 10477 18a4 D8B2     		uxtb	r0, r3
 150:../USER/main.c **** void puth2(dt) int dt;{ puth((dt >> 4) & 0xf); puth(dt & 0xf); }
 10478              		.loc 1 150 26 is_stmt 0 discriminator 1 view .LVU3599
 10479 18a6 092B     		cmp	r3, #9
 150:../USER/main.c **** void puth2(dt) int dt;{ puth((dt >> 4) & 0xf); puth(dt & 0xf); }
 10480              		.loc 1 150 34 discriminator 1 view .LVU3600
 10481 18a8 D4BF     		ite	le
 10482 18aa 3030     		addle	r0, r0, #48
 150:../USER/main.c **** void puth2(dt) int dt;{ puth((dt >> 4) & 0xf); puth(dt & 0xf); }
 10483              		.loc 1 150 55 discriminator 1 view .LVU3601
 10484 18ac 3730     		addgt	r0, r0, #55
 10485 18ae FFF7FEFF 		bl	putch_uart
 10486              	.LVL713:
 150:../USER/main.c **** void puth2(dt) int dt;{ puth((dt >> 4) & 0xf); puth(dt & 0xf); }
 10487              		.loc 1 150 55 discriminator 1 view .LVU3602
 10488              	.LBE1596:
 10489              	.LBE1595:
 151:../USER/main.c **** void puth4(dt) int dt;{ puth2((dt >> 8) & 0xff); puth2(dt & 0xff); }
 10490              		.loc 1 151 48 is_stmt 1 discriminator 1 view .LVU3603
 10491 18b2 04F00F00 		and	r0, r4, #15
 10492              	.LVL714:
 10493              	.LBB1597:
 10494              	.LBI1597:
 150:../USER/main.c **** void puth2(dt) int dt;{ puth((dt >> 4) & 0xf); puth(dt & 0xf); }
 10495              		.loc 1 150 6 discriminator 1 view .LVU3604
 10496              	.LBB1598:
 150:../USER/main.c **** void puth2(dt) int dt;{ puth((dt >> 4) & 0xf); puth(dt & 0xf); }
 10497              		.loc 1 150 24 discriminator 1 view .LVU3605
 150:../USER/main.c **** void puth2(dt) int dt;{ puth((dt >> 4) & 0xf); puth(dt & 0xf); }
 10498              		.loc 1 150 34 discriminator 1 view .LVU3606
 150:../USER/main.c **** void puth2(dt) int dt;{ puth((dt >> 4) & 0xf); puth(dt & 0xf); }
 10499              		.loc 1 150 55 discriminator 1 view .LVU3607
 150:../USER/main.c **** void puth2(dt) int dt;{ puth((dt >> 4) & 0xf); puth(dt & 0xf); }
 10500              		.loc 1 150 26 is_stmt 0 discriminator 1 view .LVU3608
 10501 18b6 0928     		cmp	r0, #9
 150:../USER/main.c **** void puth2(dt) int dt;{ puth((dt >> 4) & 0xf); puth(dt & 0xf); }
 10502              		.loc 1 150 34 discriminator 1 view .LVU3609
 10503 18b8 94BF     		ite	ls
 10504 18ba 3030     		addls	r0, r0, #48
 10505              	.LVL715:
 150:../USER/main.c **** void puth2(dt) int dt;{ puth((dt >> 4) & 0xf); puth(dt & 0xf); }
 10506              		.loc 1 150 55 discriminator 1 view .LVU3610
 10507 18bc 3730     		addhi	r0, r0, #55
 10508 18be FFF7FEFF 		bl	putch_uart
 10509              	.LVL716:
 10510 18c2 35E5     		b	.L739
 10511              	.LVL717:
 10512              	.L1192:
 150:../USER/main.c **** void puth2(dt) int dt;{ puth((dt >> 4) & 0xf); puth(dt & 0xf); }
 10513              		.loc 1 150 55 discriminator 1 view .LVU3611
 10514              	.LBE1598:
 10515              	.LBE1597:
 10516              	.LBE1594:
 10517              	.LBE1593:
 10518              	.LBB1599:
 10519              	.LBB1292:
 10520              	.LBB1273:
 10521              	.LBB1266:
 10522              	.LBB1259:
 10523              	.LBB1251:
 10524              	.LBB1190:
 10525              	.LBB1183:
 10526              	.LBB1154:
 10527              	.LBB1150:
 10528              	.LBB1146:
 137:../USER/main.c **** 	else {
 10529              		.loc 1 137 3 is_stmt 1 view .LVU3612
 10530 18c4 2146     		mov	r1, r4
 10531 18c6 4FF04020 		mov	r0, #1073758208
 10532 18ca FFF7FEFF 		bl	UART_SendChar
 10533              	.LVL718:
 10534 18ce DCE6     		b	.L634
 10535              	.LVL719:
 10536              	.L1169:
 137:../USER/main.c **** 	else {
 10537              		.loc 1 137 3 is_stmt 0 view .LVU3613
 10538              	.LBE1146:
 10539              	.LBE1150:
 10540              	.LBE1154:
 10541              	.LBE1183:
 10542              	.LBE1190:
 10543              	.LBE1251:
 10544              	.LBB1252:
 10545              	.LBB1245:
 10546              	.LBB1242:
 10547              	.LBB1239:
 10548              	.LBB1237:
 10549              	.LBB1233:
 137:../USER/main.c **** 	else {
 10550              		.loc 1 137 3 is_stmt 1 view .LVU3614
 10551 18d0 2146     		mov	r1, r4
 10552 18d2 4FF04020 		mov	r0, #1073758208
 10553 18d6 FFF7FEFF 		bl	UART_SendChar
 10554              	.LVL720:
 10555 18da 8EE7     		b	.L690
 10556              	.LVL721:
 10557              	.L1134:
 137:../USER/main.c **** 	else {
 10558              		.loc 1 137 3 is_stmt 0 view .LVU3615
 10559              	.LBE1233:
 10560              	.LBE1237:
 10561              	.LBE1239:
 10562              	.LBE1242:
 10563              	.LBE1245:
 10564              	.LBE1252:
 10565              	.LBB1253:
 10566              	.LBB1191:
 10567              	.LBB1184:
 10568              	.LBB1178:
 10569              	.LBB1175:
 10570              	.LBB1171:
 137:../USER/main.c **** 	else {
 10571              		.loc 1 137 3 is_stmt 1 view .LVU3616
 10572 18dc 2146     		mov	r1, r4
 10573 18de 4FF04020 		mov	r0, #1073758208
 10574 18e2 FFF7FEFF 		bl	UART_SendChar
 10575              	.LVL722:
 10576 18e6 2CE7     		b	.L650
 10577              	.LVL723:
 10578              	.L1165:
 137:../USER/main.c **** 	else {
 10579              		.loc 1 137 3 is_stmt 0 view .LVU3617
 10580              	.LBE1171:
 10581              	.LBE1175:
 10582              	.LBE1178:
 10583              	.LBE1184:
 10584              	.LBE1191:
 10585              	.LBE1253:
 10586              	.LBB1254:
 10587              	.LBB1246:
 10588              	.LBB1243:
 10589              	.LBB1217:
 10590              	.LBB1214:
 10591              	.LBB1209:
 137:../USER/main.c **** 	else {
 10592              		.loc 1 137 3 is_stmt 1 view .LVU3618
 10593 18e8 2146     		mov	r1, r4
 10594 18ea 4FF04020 		mov	r0, #1073758208
 10595 18ee FFF7FEFF 		bl	UART_SendChar
 10596              	.LVL724:
 10597 18f2 54E7     		b	.L667
 10598              	.LVL725:
 10599              	.L1167:
 137:../USER/main.c **** 	else {
 10600              		.loc 1 137 3 is_stmt 0 view .LVU3619
 10601              	.LBE1209:
 10602              	.LBE1214:
 10603              	.LBB1215:
 10604              	.LBB1212:
 137:../USER/main.c **** 	else {
 10605              		.loc 1 137 3 is_stmt 1 view .LVU3620
 10606 18f4 2146     		mov	r1, r4
 10607 18f6 4FF04020 		mov	r0, #1073758208
 10608 18fa FFF7FEFF 		bl	UART_SendChar
 10609              	.LVL726:
 10610 18fe FFF7E9BB 		b	.L687
 10611              	.LVL727:
 10612              	.L1163:
 137:../USER/main.c **** 	else {
 10613              		.loc 1 137 3 is_stmt 0 view .LVU3621
 10614              	.LBE1212:
 10615              	.LBE1215:
 10616              	.LBE1217:
 10617              	.LBE1243:
 10618              	.LBE1246:
 10619              	.LBE1254:
 10620              	.LBE1259:
 10621              	.LBE1266:
 10622              	.LBB1267:
 10623              	.LBB1124:
 10624              	.LBB1121:
 10625              	.LBB1118:
 10626              	.LBB1115:
 10627              	.LBB1112:
 10628              	.LBB1108:
 137:../USER/main.c **** 	else {
 10629              		.loc 1 137 3 is_stmt 1 view .LVU3622
 10630 1902 2146     		mov	r1, r4
 10631 1904 4FF04020 		mov	r0, #1073758208
 10632 1908 FFF7FEFF 		bl	UART_SendChar
 10633              	.LVL728:
 10634 190c EBE6     		b	.L617
 10635              	.LVL729:
 10636              	.L956:
 137:../USER/main.c **** 	else {
 10637              		.loc 1 137 3 is_stmt 0 view .LVU3623
 10638              	.LBE1108:
 10639              	.LBE1112:
 10640              	.LBE1115:
 10641              	.LBE1118:
 10642              	.LBE1121:
 10643              	.LBE1124:
 10644              	.LBE1267:
 10645              	.LBE1273:
 10646              	.LBE1292:
 10647              	.LBE1599:
 10648              	.LBB1600:
 10649              	.LBB1582:
 10650              	.LBB1580:
 10651              	.LBB1579:
 181:../USER/main.c ****   while( (hd=ishex(**buf)) != -1){ num = num * 16 + hd; (*buf)++; }
 10652              		.loc 1 181 8 view .LVU3624
 10653 190e 26AB     		add	r3, sp, #152
 10654 1910 4BE6     		b	.L792
 10655              	.LVL730:
 10656              	.L541:
 181:../USER/main.c ****   while( (hd=ishex(**buf)) != -1){ num = num * 16 + hd; (*buf)++; }
 10657              		.loc 1 181 8 view .LVU3625
 10658              	.LBE1579:
 10659              	.LBE1580:
 10660              	.LBE1582:
 10661              	.LBE1600:
 10662              	.LBB1601:
 10663              	.LBB1053:
 144:../USER/main.c **** 	}
 10664              		.loc 1 144 3 is_stmt 1 view .LVU3626
 10665 1912 2020     		movs	r0, #32
 10666 1914 FFF7FEFF 		bl	SPI_WriteData
 10667              	.LVL731:
 10668              	.L534:
 10669              	.LBB1049:
 10670              	.LBB1050:
 123:../USER/main.c **** 	if(kinbwp>=256) kinbwp = 0;
 10671              		.loc 1 123 11 is_stmt 0 view .LVU3627
 10672 1918 4FF04024 		mov	r4, #1073758208
 10673 191c 1AE0     		b	.L547
 10674              	.LVL732:
 10675              	.L1201:
 123:../USER/main.c **** 	if(kinbwp>=256) kinbwp = 0;
 10676              		.loc 1 123 11 view .LVU3628
 10677 191e D8F80030 		ldr	r3, [r8]
 10678              	.L543:
 121:../USER/main.c **** 	//
 10679              		.loc 1 121 2 is_stmt 1 view .LVU3629
 121:../USER/main.c **** 	//
 10680              		.loc 1 121 18 view .LVU3630
 121:../USER/main.c **** 	//
 10681              		.loc 1 121 4 is_stmt 0 view .LVU3631
 10682 1922 FF2B     		cmp	r3, #255
 10683 1924 02DD     		ble	.L544
 121:../USER/main.c **** 	//
 10684              		.loc 1 121 25 view .LVU3632
 10685 1926 0023     		movs	r3, #0
 10686 1928 C8F80070 		str	r7, [r8]
 10687              	.L544:
 123:../USER/main.c **** 	if(kinbwp>=256) kinbwp = 0;
 10688              		.loc 1 123 39 is_stmt 1 view .LVU3633
 123:../USER/main.c **** 	if(kinbwp>=256) kinbwp = 0;
 10689              		.loc 1 123 2 view .LVU3634
 123:../USER/main.c **** 	if(kinbwp>=256) kinbwp = 0;
 10690              		.loc 1 123 11 is_stmt 0 view .LVU3635
 10691 192c 6168     		ldr	r1, [r4, #4]
 123:../USER/main.c **** 	if(kinbwp>=256) kinbwp = 0;
 10692              		.loc 1 123 52 view .LVU3636
 10693 192e 5A1C     		adds	r2, r3, #1
 123:../USER/main.c **** 	if(kinbwp>=256) kinbwp = 0;
 10694              		.loc 1 123 4 view .LVU3637
 10695 1930 8807     		lsls	r0, r1, #30
 10696              	.LVL733:
 123:../USER/main.c **** 	if(kinbwp>=256) kinbwp = 0;
 10697              		.loc 1 123 4 view .LVU3638
 10698 1932 09D5     		bpl	.L546
 124:../USER/main.c **** 	//
 10699              		.loc 1 124 25 view .LVU3639
 10700 1934 B2F5807F 		cmp	r2, #256
 10701 1938 14BF     		ite	ne
 10702 193a 1146     		movne	r1, r2
 10703 193c 3946     		moveq	r1, r7
 123:../USER/main.c **** 	if(kinbwp>=256) kinbwp = 0;
 10704              		.loc 1 123 63 view .LVU3640
 10705 193e 2068     		ldr	r0, [r4]
 124:../USER/main.c **** 	//
 10706              		.loc 1 124 25 view .LVU3641
 10707 1940 C8F80010 		str	r1, [r8]
 123:../USER/main.c **** 	if(kinbwp>=256) kinbwp = 0;
 10708              		.loc 1 123 56 view .LVU3642
 10709 1944 09F80300 		strb	r0, [r9, r3]
 124:../USER/main.c **** 	//
 10710              		.loc 1 124 2 is_stmt 1 view .LVU3643
 10711              	.L546:
 124:../USER/main.c **** 	//
 10712              		.loc 1 124 2 is_stmt 0 view .LVU3644
 10713              	.LBE1050:
 10714              	.LBE1049:
 147:../USER/main.c **** }
 10715              		.loc 1 147 27 is_stmt 1 view .LVU3645
 147:../USER/main.c **** }
 10716              		.loc 1 147 32 is_stmt 0 view .LVU3646
 10717 1948 2020     		movs	r0, #32
 10718 194a FFF7FEFF 		bl	disp_vram
 10719              	.LVL734:
 147:../USER/main.c **** }
 10720              		.loc 1 147 2 view .LVU3647
 10721 194e 0028     		cmp	r0, #0
 10722 1950 3EF47DAD 		beq	.L1200
 10723              	.LVL735:
 10724              	.L547:
 147:../USER/main.c **** }
 10725              		.loc 1 147 2 is_stmt 1 view .LVU3648
 147:../USER/main.c **** }
 10726              		.loc 1 147 10 view .LVU3649
 147:../USER/main.c **** }
 10727              		.loc 1 147 14 view .LVU3650
 10728              	.LBB1052:
 10729              	.LBI1049:
 116:../USER/main.c **** 	char ch;
 10730              		.loc 1 116 6 view .LVU3651
 10731              	.LBB1051:
 117:../USER/main.c **** 	//
 10732              		.loc 1 117 2 view .LVU3652
 119:../USER/main.c **** 	if(ch!=0) kinbuf[kinbwp++] = ch;
 10733              		.loc 1 119 2 view .LVU3653
 119:../USER/main.c **** 	if(ch!=0) kinbuf[kinbwp++] = ch;
 10734              		.loc 1 119 7 is_stmt 0 view .LVU3654
 10735 1954 FFF7FEFF 		bl	SPI_ReadData
 10736              	.LVL736:
 120:../USER/main.c **** 	if(kinbwp>=256) kinbwp = 0;
 10737              		.loc 1 120 12 is_stmt 1 view .LVU3655
 119:../USER/main.c **** 	if(ch!=0) kinbuf[kinbwp++] = ch;
 10738              		.loc 1 119 5 is_stmt 0 view .LVU3656
 10739 1958 40B2     		sxtb	r0, r0
 10740              	.LVL737:
 120:../USER/main.c **** 	if(kinbwp>=256) kinbwp = 0;
 10741              		.loc 1 120 2 is_stmt 1 view .LVU3657
 120:../USER/main.c **** 	if(kinbwp>=256) kinbwp = 0;
 10742              		.loc 1 120 4 is_stmt 0 view .LVU3658
 10743 195a 0028     		cmp	r0, #0
 10744 195c DFD0     		beq	.L1201
 120:../USER/main.c **** 	if(kinbwp>=256) kinbwp = 0;
 10745              		.loc 1 120 25 view .LVU3659
 10746 195e D8F80020 		ldr	r2, [r8]
 10747 1962 531C     		adds	r3, r2, #1
 120:../USER/main.c **** 	if(kinbwp>=256) kinbwp = 0;
 10748              		.loc 1 120 29 view .LVU3660
 10749 1964 09F80200 		strb	r0, [r9, r2]
 120:../USER/main.c **** 	if(kinbwp>=256) kinbwp = 0;
 10750              		.loc 1 120 25 view .LVU3661
 10751 1968 C8F80030 		str	r3, [r8]
 10752 196c D9E7     		b	.L543
 10753              	.LVL738:
 10754              	.L1122:
 120:../USER/main.c **** 	if(kinbwp>=256) kinbwp = 0;
 10755              		.loc 1 120 25 view .LVU3662
 10756 196e 0D9A     		ldr	r2, [sp, #52]
 10757 1970 92F90030 		ldrsb	r3, [r2]
 10758              	.LBE1051:
 10759              	.LBE1052:
 10760              	.LBE1053:
 10761              	.LBE1601:
 252:../USER/main.c **** 	    		unsigned char wddtwk[32];
 10762              		.loc 1 252 7 is_stmt 1 view .LVU3663
 252:../USER/main.c **** 	    		unsigned char wddtwk[32];
 10763              		.loc 1 252 9 is_stmt 0 view .LVU3664
 10764 1974 442B     		cmp	r3, #68
 10765 1976 7EF43AAD 		bne	.L549
 10766              	.LVL739:
 10767              	.L1120:
 10768              	.LBB1602:
 253:../USER/main.c **** 	    		cbp++;
 10769              		.loc 1 253 8 is_stmt 1 view .LVU3665
 254:../USER/main.c **** 	    		get_vram((int)getsh(cbpp), (int)getsh(cbpp));
 10770              		.loc 1 254 8 view .LVU3666
 254:../USER/main.c **** 	    		get_vram((int)getsh(cbpp), (int)getsh(cbpp));
 10771              		.loc 1 254 11 is_stmt 0 view .LVU3667
 10772 197a 531C     		adds	r3, r2, #1
 10773 197c 0D93     		str	r3, [sp, #52]
 255:../USER/main.c **** 	    		memcpy(&wddtwk[0], &wddt.b[4], 32);
 10774              		.loc 1 255 8 is_stmt 1 view .LVU3668
 10775              	.LVL740:
 10776              	.LBB1603:
 10777              	.LBI1603:
 178:../USER/main.c ****   long num = 0; int hd;
 10778              		.loc 1 178 6 view .LVU3669
 10779              	.LBB1604:
 179:../USER/main.c ****   if(**buf==0x0d) return -1;
 10780              		.loc 1 179 3 view .LVU3670
 179:../USER/main.c ****   if(**buf==0x0d) return -1;
 10781              		.loc 1 179 17 view .LVU3671
 180:../USER/main.c ****   while(**buf==' ') (*buf)++; /* spip sp*/
 10782              		.loc 1 180 3 view .LVU3672
 180:../USER/main.c ****   while(**buf==' ') (*buf)++; /* spip sp*/
 10783              		.loc 1 180 5 is_stmt 0 view .LVU3673
 10784 197e 92F90130 		ldrsb	r3, [r2, #1]
 10785 1982 0D2B     		cmp	r3, #13
 10786 1984 00F04583 		beq	.L950
 10787 1988 0DA8     		add	r0, sp, #52
 10788              	.LVL741:
 180:../USER/main.c ****   while(**buf==' ') (*buf)++; /* spip sp*/
 10789              		.loc 1 180 5 view .LVU3674
 10790 198a FFF7FEFF 		bl	getsh.part.0
 10791              	.LVL742:
 180:../USER/main.c ****   while(**buf==' ') (*buf)++; /* spip sp*/
 10792              		.loc 1 180 5 view .LVU3675
 10793              	.LBE1604:
 10794              	.LBE1603:
 10795              	.LBB1607:
 10796              	.LBB1608:
 10797 198e 0D9B     		ldr	r3, [sp, #52]
 10798              	.LBE1608:
 10799              	.LBE1607:
 10800              	.LBB1612:
 10801              	.LBB1605:
 10802 1990 0446     		mov	r4, r0
 10803              	.LVL743:
 180:../USER/main.c ****   while(**buf==' ') (*buf)++; /* spip sp*/
 10804              		.loc 1 180 5 view .LVU3676
 10805              	.LBE1605:
 10806              	.LBE1612:
 10807              	.LBB1613:
 10808              	.LBI1607:
 178:../USER/main.c ****   long num = 0; int hd;
 10809              		.loc 1 178 6 is_stmt 1 view .LVU3677
 10810              	.LBB1609:
 179:../USER/main.c ****   if(**buf==0x0d) return -1;
 10811              		.loc 1 179 3 view .LVU3678
 179:../USER/main.c ****   if(**buf==0x0d) return -1;
 10812              		.loc 1 179 17 view .LVU3679
 180:../USER/main.c ****   while(**buf==' ') (*buf)++; /* spip sp*/
 10813              		.loc 1 180 3 view .LVU3680
 180:../USER/main.c ****   while(**buf==' ') (*buf)++; /* spip sp*/
 10814              		.loc 1 180 5 is_stmt 0 view .LVU3681
 10815 1992 93F90030 		ldrsb	r3, [r3]
 10816 1996 0D2B     		cmp	r3, #13
 10817 1998 00F05E83 		beq	.L951
 10818 199c 0DA8     		add	r0, sp, #52
 10819              	.LVL744:
 180:../USER/main.c ****   while(**buf==' ') (*buf)++; /* spip sp*/
 10820              		.loc 1 180 5 view .LVU3682
 10821 199e FFF7FEFF 		bl	getsh.part.0
 10822              	.LVL745:
 180:../USER/main.c ****   while(**buf==' ') (*buf)++; /* spip sp*/
 10823              		.loc 1 180 5 view .LVU3683
 10824 19a2 0146     		mov	r1, r0
 10825              	.LVL746:
 10826              	.L550:
 180:../USER/main.c ****   while(**buf==' ') (*buf)++; /* spip sp*/
 10827              		.loc 1 180 5 view .LVU3684
 10828              	.LBE1609:
 10829              	.LBE1613:
 256:../USER/main.c **** 	    		for(j=0; j<32; j++) { putch(' '); puth2(wddtwk[j]); }
 10830              		.loc 1 256 8 view .LVU3685
 10831 19a4 CC4E     		ldr	r6, .L1221
 255:../USER/main.c **** 	    		memcpy(&wddtwk[0], &wddt.b[4], 32);
 10832              		.loc 1 255 8 view .LVU3686
 10833 19a6 2046     		mov	r0, r4
 256:../USER/main.c **** 	    		for(j=0; j<32; j++) { putch(' '); puth2(wddtwk[j]); }
 10834              		.loc 1 256 8 view .LVU3687
 10835 19a8 2EAD     		add	r5, sp, #184
 255:../USER/main.c **** 	    		memcpy(&wddtwk[0], &wddt.b[4], 32);
 10836              		.loc 1 255 8 view .LVU3688
 10837 19aa FFF7FEFF 		bl	get_vram
 10838              	.LVL747:
 256:../USER/main.c **** 	    		for(j=0; j<32; j++) { putch(' '); puth2(wddtwk[j]); }
 10839              		.loc 1 256 8 is_stmt 1 view .LVU3689
 10840 19ae 0FCE     		ldmia	r6!, {r0, r1, r2, r3}
 10841 19b0 0FC5     		stmia	r5!, {r0, r1, r2, r3}
 10842 19b2 96E80F00 		ldm	r6, {r0, r1, r2, r3}
 10843 19b6 85E80F00 		stm	r5, {r0, r1, r2, r3}
 257:../USER/main.c **** 	    	}
 10844              		.loc 1 257 8 view .LVU3690
 10845              	.LVL748:
 257:../USER/main.c **** 	    	}
 10846              		.loc 1 257 8 is_stmt 0 view .LVU3691
 10847 19ba 0DF1B704 		add	r4, sp, #183
 10848              	.LVL749:
 10849              	.L570:
 257:../USER/main.c **** 	    	}
 10850              		.loc 1 257 30 is_stmt 1 view .LVU3692
 10851              	.LBB1614:
 10852              	.LBI1614:
 134:../USER/main.c **** 	volatile uint32_t gpiord;
 10853              		.loc 1 134 6 view .LVU3693
 10854              	.LBB1615:
 135:../USER/main.c **** 	if((mdgpio & 0x2000)==0)
 10855              		.loc 1 135 2 view .LVU3694
 136:../USER/main.c **** 		UART_SendChar(UART0,ch);
 10856              		.loc 1 136 2 view .LVU3695
 136:../USER/main.c **** 		UART_SendChar(UART0,ch);
 10857              		.loc 1 136 13 is_stmt 0 view .LVU3696
 10858 19be DAF80030 		ldr	r3, [r10]
 136:../USER/main.c **** 		UART_SendChar(UART0,ch);
 10859              		.loc 1 136 4 view .LVU3697
 10860 19c2 9A04     		lsls	r2, r3, #18
 10861 19c4 40F1A082 		bpl	.L1202
 139:../USER/main.c **** 		while((gpiord & 0x4000)!=0) {
 10862              		.loc 1 139 3 is_stmt 1 view .LVU3698
 139:../USER/main.c **** 		while((gpiord & 0x4000)!=0) {
 10863              		.loc 1 139 10 is_stmt 0 view .LVU3699
 10864 19c8 4FF48043 		mov	r3, #16384
 10865 19cc 1993     		str	r3, [sp, #100]
 140:../USER/main.c **** 			key_check();
 10866              		.loc 1 140 3 is_stmt 1 view .LVU3700
 140:../USER/main.c **** 			key_check();
 10867              		.loc 1 140 17 is_stmt 0 view .LVU3701
 10868 19ce 199B     		ldr	r3, [sp, #100]
 140:../USER/main.c **** 			key_check();
 10869              		.loc 1 140 8 view .LVU3702
 10870 19d0 5B04     		lsls	r3, r3, #17
 10871 19d2 40F15182 		bpl	.L559
 142:../USER/main.c **** 		}
 10872              		.loc 1 142 13 view .LVU3703
 10873 19d6 C14D     		ldr	r5, .L1221+4
 10874 19d8 1EE0     		b	.L553
 10875              	.LVL750:
 10876              	.L1203:
 142:../USER/main.c **** 		}
 10877              		.loc 1 142 13 view .LVU3704
 10878 19da D8F80030 		ldr	r3, [r8]
 10879              	.L555:
 10880              	.LBB1616:
 10881              	.LBB1617:
 121:../USER/main.c **** 	//
 10882              		.loc 1 121 2 is_stmt 1 view .LVU3705
 121:../USER/main.c **** 	//
 10883              		.loc 1 121 18 view .LVU3706
 121:../USER/main.c **** 	//
 10884              		.loc 1 121 4 is_stmt 0 view .LVU3707
 10885 19de FF2B     		cmp	r3, #255
 10886 19e0 02DD     		ble	.L556
 121:../USER/main.c **** 	//
 10887              		.loc 1 121 25 view .LVU3708
 10888 19e2 0023     		movs	r3, #0
 10889 19e4 C8F80070 		str	r7, [r8]
 10890              	.L556:
 123:../USER/main.c **** 	if(kinbwp>=256) kinbwp = 0;
 10891              		.loc 1 123 39 is_stmt 1 view .LVU3709
 123:../USER/main.c **** 	if(kinbwp>=256) kinbwp = 0;
 10892              		.loc 1 123 2 view .LVU3710
 123:../USER/main.c **** 	if(kinbwp>=256) kinbwp = 0;
 10893              		.loc 1 123 11 is_stmt 0 view .LVU3711
 10894 19e8 4FF04021 		mov	r1, #1073758208
 10895 19ec 4868     		ldr	r0, [r1, #4]
 10896              	.LVL751:
 123:../USER/main.c **** 	if(kinbwp>=256) kinbwp = 0;
 10897              		.loc 1 123 52 view .LVU3712
 10898 19ee 5A1C     		adds	r2, r3, #1
 123:../USER/main.c **** 	if(kinbwp>=256) kinbwp = 0;
 10899              		.loc 1 123 4 view .LVU3713
 10900 19f0 8607     		lsls	r6, r0, #30
 10901 19f2 09D5     		bpl	.L558
 124:../USER/main.c **** 	//
 10902              		.loc 1 124 25 view .LVU3714
 10903 19f4 B2F5807F 		cmp	r2, #256
 123:../USER/main.c **** 	if(kinbwp>=256) kinbwp = 0;
 10904              		.loc 1 123 63 view .LVU3715
 10905 19f8 0868     		ldr	r0, [r1]
 124:../USER/main.c **** 	//
 10906              		.loc 1 124 25 view .LVU3716
 10907 19fa 14BF     		ite	ne
 10908 19fc 1146     		movne	r1, r2
 10909 19fe 3946     		moveq	r1, r7
 123:../USER/main.c **** 	if(kinbwp>=256) kinbwp = 0;
 10910              		.loc 1 123 56 view .LVU3717
 10911 1a00 09F80300 		strb	r0, [r9, r3]
 124:../USER/main.c **** 	//
 10912              		.loc 1 124 2 is_stmt 1 view .LVU3718
 124:../USER/main.c **** 	//
 10913              		.loc 1 124 25 is_stmt 0 view .LVU3719
 10914 1a04 C8F80010 		str	r1, [r8]
 10915              	.L558:
 124:../USER/main.c **** 	//
 10916              		.loc 1 124 25 view .LVU3720
 10917              	.LBE1617:
 10918              	.LBE1616:
 142:../USER/main.c **** 		}
 10919              		.loc 1 142 4 is_stmt 1 view .LVU3721
 142:../USER/main.c **** 		}
 10920              		.loc 1 142 13 is_stmt 0 view .LVU3722
 10921 1a08 2846     		mov	r0, r5
 10922 1a0a FFF7FEFF 		bl	GPIO_ReadBits
 10923              	.LVL752:
 142:../USER/main.c **** 		}
 10924              		.loc 1 142 11 view .LVU3723
 10925 1a0e 1990     		str	r0, [sp, #100]
 140:../USER/main.c **** 			key_check();
 10926              		.loc 1 140 17 view .LVU3724
 10927 1a10 199B     		ldr	r3, [sp, #100]
 140:../USER/main.c **** 			key_check();
 10928              		.loc 1 140 8 view .LVU3725
 10929 1a12 5E04     		lsls	r6, r3, #17
 10930 1a14 40F13082 		bpl	.L559
 10931              	.L553:
 141:../USER/main.c **** 			gpiord = GPIO_ReadBits(GPIO0);
 10932              		.loc 1 141 4 is_stmt 1 view .LVU3726
 10933              	.LBB1619:
 10934              	.LBI1616:
 116:../USER/main.c **** 	char ch;
 10935              		.loc 1 116 6 view .LVU3727
 10936              	.LBB1618:
 117:../USER/main.c **** 	//
 10937              		.loc 1 117 2 view .LVU3728
 119:../USER/main.c **** 	if(ch!=0) kinbuf[kinbwp++] = ch;
 10938              		.loc 1 119 2 view .LVU3729
 119:../USER/main.c **** 	if(ch!=0) kinbuf[kinbwp++] = ch;
 10939              		.loc 1 119 7 is_stmt 0 view .LVU3730
 10940 1a18 FFF7FEFF 		bl	SPI_ReadData
 10941              	.LVL753:
 120:../USER/main.c **** 	if(kinbwp>=256) kinbwp = 0;
 10942              		.loc 1 120 12 is_stmt 1 view .LVU3731
 119:../USER/main.c **** 	if(ch!=0) kinbuf[kinbwp++] = ch;
 10943              		.loc 1 119 5 is_stmt 0 view .LVU3732
 10944 1a1c 40B2     		sxtb	r0, r0
 10945              	.LVL754:
 120:../USER/main.c **** 	if(kinbwp>=256) kinbwp = 0;
 10946              		.loc 1 120 2 is_stmt 1 view .LVU3733
 120:../USER/main.c **** 	if(kinbwp>=256) kinbwp = 0;
 10947              		.loc 1 120 4 is_stmt 0 view .LVU3734
 10948 1a1e 0028     		cmp	r0, #0
 10949 1a20 DBD0     		beq	.L1203
 120:../USER/main.c **** 	if(kinbwp>=256) kinbwp = 0;
 10950              		.loc 1 120 25 view .LVU3735
 10951 1a22 D8F80020 		ldr	r2, [r8]
 10952 1a26 531C     		adds	r3, r2, #1
 120:../USER/main.c **** 	if(kinbwp>=256) kinbwp = 0;
 10953              		.loc 1 120 29 view .LVU3736
 10954 1a28 09F80200 		strb	r0, [r9, r2]
 120:../USER/main.c **** 	if(kinbwp>=256) kinbwp = 0;
 10955              		.loc 1 120 25 view .LVU3737
 10956 1a2c C8F80030 		str	r3, [r8]
 10957 1a30 D5E7     		b	.L555
 10958              	.LVL755:
 10959              	.L1194:
 120:../USER/main.c **** 	if(kinbwp>=256) kinbwp = 0;
 10960              		.loc 1 120 25 view .LVU3738
 10961              	.LBE1618:
 10962              	.LBE1619:
 10963              	.LBE1615:
 10964              	.LBE1614:
 10965              	.LBE1602:
 275:../USER/main.c **** 	                mbase[adr] = dt; dtr = mbase[adr];
 10966              		.loc 1 275 16 is_stmt 1 view .LVU3739
 276:../USER/main.c **** 	                if(dt!=dtr) adr--;
 10967              		.loc 1 276 18 view .LVU3740
 277:../USER/main.c **** 	              }
 10968              		.loc 1 277 20 is_stmt 0 view .LVU3741
 10969 1a32 30F0FF03 		bics	r3, r0, #255
 276:../USER/main.c **** 	                if(dt!=dtr) adr--;
 10970              		.loc 1 276 29 view .LVU3742
 10971 1a36 8BF80000 		strb	r0, [fp]
 10972              	.LVL756:
 276:../USER/main.c **** 	                if(dt!=dtr) adr--;
 10973              		.loc 1 276 35 is_stmt 1 view .LVU3743
 277:../USER/main.c **** 	              }
 10974              		.loc 1 277 18 view .LVU3744
 277:../USER/main.c **** 	              }
 10975              		.loc 1 277 20 is_stmt 0 view .LVU3745
 10976 1a3a 7EF478AD 		bne	.L589
 10977              	.LVL757:
 10978              		.loc 1 289 25 is_stmt 1 view .LVU3746
 10979              		.loc 1 289 29 is_stmt 0 view .LVU3747
 10980 1a3e 0BF1010B 		add	fp, fp, #1
 10981              	.LVL758:
 10982              		.loc 1 289 29 view .LVU3748
 10983 1a42 FEF762BD 		b	.L1096
 10984              	.LVL759:
 10985              	.L1123:
 10986              	.LBB1637:
 10987              	.LBB1054:
 137:../USER/main.c **** 	else {
 10988              		.loc 1 137 3 is_stmt 1 view .LVU3749
 10989 1a46 2021     		movs	r1, #32
 10990 1a48 4FF04020 		mov	r0, #1073758208
 10991 1a4c FFF7FEFF 		bl	UART_SendChar
 10992              	.LVL760:
 10993 1a50 62E7     		b	.L534
 10994              	.LVL761:
 10995              	.L1119:
 137:../USER/main.c **** 	else {
 10996              		.loc 1 137 3 is_stmt 0 view .LVU3750
 10997              	.LBE1054:
 10998              	.LBE1637:
 241:../USER/main.c **** 			if(*cbp=='G'){
 10999              		.loc 1 241 5 is_stmt 1 view .LVU3751
 241:../USER/main.c **** 			if(*cbp=='G'){
 11000              		.loc 1 241 8 is_stmt 0 view .LVU3752
 11001 1a52 5A1C     		adds	r2, r3, #1
 11002 1a54 0D92     		str	r2, [sp, #52]
 241:../USER/main.c **** 			if(*cbp=='G'){
 11003              		.loc 1 241 12 is_stmt 1 view .LVU3753
 11004              	.LVL762:
 11005              	.LBB1638:
 11006              	.LBI1638:
 178:../USER/main.c ****   long num = 0; int hd;
 11007              		.loc 1 178 6 view .LVU3754
 11008              	.LBB1639:
 179:../USER/main.c ****   if(**buf==0x0d) return -1;
 11009              		.loc 1 179 3 view .LVU3755
 179:../USER/main.c ****   if(**buf==0x0d) return -1;
 11010              		.loc 1 179 17 view .LVU3756
 180:../USER/main.c ****   while(**buf==' ') (*buf)++; /* spip sp*/
 11011              		.loc 1 180 3 view .LVU3757
 180:../USER/main.c ****   while(**buf==' ') (*buf)++; /* spip sp*/
 11012              		.loc 1 180 5 is_stmt 0 view .LVU3758
 11013 1a56 93F90130 		ldrsb	r3, [r3, #1]
 11014 1a5a 0D2B     		cmp	r3, #13
 11015 1a5c 00F0EB82 		beq	.L946
 11016 1a60 0DA8     		add	r0, sp, #52
 11017              	.LVL763:
 180:../USER/main.c ****   while(**buf==' ') (*buf)++; /* spip sp*/
 11018              		.loc 1 180 5 view .LVU3759
 11019 1a62 FFF7FEFF 		bl	getsh.part.0
 11020              	.LVL764:
 180:../USER/main.c ****   while(**buf==' ') (*buf)++; /* spip sp*/
 11021              		.loc 1 180 5 view .LVU3760
 11022              	.LBE1639:
 11023              	.LBE1638:
 11024              	.LBB1642:
 11025              	.LBB1643:
 11026 1a66 0D9B     		ldr	r3, [sp, #52]
 11027              	.LBE1643:
 11028              	.LBE1642:
 11029              	.LBB1647:
 11030              	.LBB1640:
 11031 1a68 0446     		mov	r4, r0
 11032              	.LVL765:
 180:../USER/main.c ****   while(**buf==' ') (*buf)++; /* spip sp*/
 11033              		.loc 1 180 5 view .LVU3761
 11034              	.LBE1640:
 11035              	.LBE1647:
 11036              	.LBB1648:
 11037              	.LBI1642:
 178:../USER/main.c ****   long num = 0; int hd;
 11038              		.loc 1 178 6 is_stmt 1 view .LVU3762
 11039              	.LBB1644:
 179:../USER/main.c ****   if(**buf==0x0d) return -1;
 11040              		.loc 1 179 3 view .LVU3763
 179:../USER/main.c ****   if(**buf==0x0d) return -1;
 11041              		.loc 1 179 17 view .LVU3764
 180:../USER/main.c ****   while(**buf==' ') (*buf)++; /* spip sp*/
 11042              		.loc 1 180 3 view .LVU3765
 180:../USER/main.c ****   while(**buf==' ') (*buf)++; /* spip sp*/
 11043              		.loc 1 180 5 is_stmt 0 view .LVU3766
 11044 1a6a 93F90030 		ldrsb	r3, [r3]
 11045 1a6e 0D2B     		cmp	r3, #13
 11046 1a70 00F02083 		beq	.L947
 11047 1a74 0DA8     		add	r0, sp, #52
 11048              	.LVL766:
 180:../USER/main.c ****   while(**buf==' ') (*buf)++; /* spip sp*/
 11049              		.loc 1 180 5 view .LVU3767
 11050 1a76 FFF7FEFF 		bl	getsh.part.0
 11051              	.LVL767:
 180:../USER/main.c ****   while(**buf==' ') (*buf)++; /* spip sp*/
 11052              		.loc 1 180 5 view .LVU3768
 11053 1a7a 0146     		mov	r1, r0
 11054              	.LVL768:
 11055              	.L526:
 180:../USER/main.c ****   while(**buf==' ') (*buf)++; /* spip sp*/
 11056              		.loc 1 180 5 view .LVU3769
 11057              	.LBE1644:
 11058              	.LBE1648:
 241:../USER/main.c **** 			if(*cbp=='G'){
 11059              		.loc 1 241 12 view .LVU3770
 11060 1a7c 2046     		mov	r0, r4
 11061 1a7e FFF7FEFF 		bl	dispscroll
 11062              	.LVL769:
 11063 1a82 0D9B     		ldr	r3, [sp, #52]
 11064 1a84 93F90010 		ldrsb	r1, [r3]
 11065 1a88 FEF796BC 		b	.L525
 11066              	.LVL770:
 11067              	.L1118:
 239:../USER/main.c **** 			if(*cbp=='U'){
 11068              		.loc 1 239 5 is_stmt 1 view .LVU3771
 239:../USER/main.c **** 			if(*cbp=='U'){
 11069              		.loc 1 239 8 is_stmt 0 view .LVU3772
 11070 1a8c 5A1C     		adds	r2, r3, #1
 11071 1a8e 0D92     		str	r2, [sp, #52]
 239:../USER/main.c **** 			if(*cbp=='U'){
 11072              		.loc 1 239 12 is_stmt 1 view .LVU3773
 11073              	.LVL771:
 11074              	.LBB1649:
 11075              	.LBI1649:
 178:../USER/main.c ****   long num = 0; int hd;
 11076              		.loc 1 178 6 view .LVU3774
 11077              	.LBB1650:
 179:../USER/main.c ****   if(**buf==0x0d) return -1;
 11078              		.loc 1 179 3 view .LVU3775
 179:../USER/main.c ****   if(**buf==0x0d) return -1;
 11079              		.loc 1 179 17 view .LVU3776
 180:../USER/main.c ****   while(**buf==' ') (*buf)++; /* spip sp*/
 11080              		.loc 1 180 3 view .LVU3777
 180:../USER/main.c ****   while(**buf==' ') (*buf)++; /* spip sp*/
 11081              		.loc 1 180 5 is_stmt 0 view .LVU3778
 11082 1a90 93F90130 		ldrsb	r3, [r3, #1]
 11083 1a94 0D2B     		cmp	r3, #13
 11084 1a96 00F0D882 		beq	.L943
 11085 1a9a 0DA8     		add	r0, sp, #52
 11086              	.LVL772:
 180:../USER/main.c ****   while(**buf==' ') (*buf)++; /* spip sp*/
 11087              		.loc 1 180 5 view .LVU3779
 11088 1a9c FFF7FEFF 		bl	getsh.part.0
 11089              	.LVL773:
 180:../USER/main.c ****   while(**buf==' ') (*buf)++; /* spip sp*/
 11090              		.loc 1 180 5 view .LVU3780
 11091              	.LBE1650:
 11092              	.LBE1649:
 11093              	.LBB1652:
 11094              	.LBB1653:
 11095 1aa0 0D9B     		ldr	r3, [sp, #52]
 11096 1aa2 85B2     		uxth	r5, r0
 11097              	.LVL774:
 180:../USER/main.c ****   while(**buf==' ') (*buf)++; /* spip sp*/
 11098              		.loc 1 180 5 view .LVU3781
 11099              	.LBE1653:
 11100              	.LBI1652:
 178:../USER/main.c ****   long num = 0; int hd;
 11101              		.loc 1 178 6 is_stmt 1 view .LVU3782
 11102              	.LBB1654:
 179:../USER/main.c ****   if(**buf==0x0d) return -1;
 11103              		.loc 1 179 3 view .LVU3783
 179:../USER/main.c ****   if(**buf==0x0d) return -1;
 11104              		.loc 1 179 17 view .LVU3784
 180:../USER/main.c ****   while(**buf==' ') (*buf)++; /* spip sp*/
 11105              		.loc 1 180 3 view .LVU3785
 180:../USER/main.c ****   while(**buf==' ') (*buf)++; /* spip sp*/
 11106              		.loc 1 180 5 is_stmt 0 view .LVU3786
 11107 1aa4 93F90030 		ldrsb	r3, [r3]
 11108 1aa8 0D2B     		cmp	r3, #13
 11109 1aaa 00F0C882 		beq	.L944
 11110 1aae 0DA8     		add	r0, sp, #52
 11111              	.LVL775:
 180:../USER/main.c ****   while(**buf==' ') (*buf)++; /* spip sp*/
 11112              		.loc 1 180 5 view .LVU3787
 11113 1ab0 FFF7FEFF 		bl	getsh.part.0
 11114              	.LVL776:
 180:../USER/main.c ****   while(**buf==' ') (*buf)++; /* spip sp*/
 11115              		.loc 1 180 5 view .LVU3788
 11116              	.LBE1654:
 11117              	.LBE1652:
 11118              	.LBB1655:
 11119              	.LBB1656:
 180:../USER/main.c ****   while(**buf==' ') (*buf)++; /* spip sp*/
 11120              		.loc 1 180 6 view .LVU3789
 11121 1ab4 0D9B     		ldr	r3, [sp, #52]
 11122              	.LBE1656:
 11123              	.LBE1655:
 239:../USER/main.c **** 			if(*cbp=='U'){
 11124              		.loc 1 239 12 view .LVU3790
 11125 1ab6 84B2     		uxth	r4, r0
 11126              	.LVL777:
 11127              	.LBB1658:
 11128              	.LBI1655:
 178:../USER/main.c ****   long num = 0; int hd;
 11129              		.loc 1 178 6 is_stmt 1 view .LVU3791
 11130              	.LBB1657:
 179:../USER/main.c ****   if(**buf==0x0d) return -1;
 11131              		.loc 1 179 3 view .LVU3792
 179:../USER/main.c ****   if(**buf==0x0d) return -1;
 11132              		.loc 1 179 17 view .LVU3793
 180:../USER/main.c ****   while(**buf==' ') (*buf)++; /* spip sp*/
 11133              		.loc 1 180 3 view .LVU3794
 180:../USER/main.c ****   while(**buf==' ') (*buf)++; /* spip sp*/
 11134              		.loc 1 180 5 is_stmt 0 view .LVU3795
 11135 1ab8 93F90030 		ldrsb	r3, [r3]
 11136 1abc 0D2B     		cmp	r3, #13
 11137 1abe 00F0C082 		beq	.L523
 11138 1ac2 0DA8     		add	r0, sp, #52
 11139              	.LVL778:
 180:../USER/main.c ****   while(**buf==' ') (*buf)++; /* spip sp*/
 11140              		.loc 1 180 5 view .LVU3796
 11141 1ac4 FFF7FEFF 		bl	getsh.part.0
 11142              	.LVL779:
 180:../USER/main.c ****   while(**buf==' ') (*buf)++; /* spip sp*/
 11143              		.loc 1 180 5 view .LVU3797
 11144              	.LBE1657:
 11145              	.LBE1658:
 11146              	.LBB1659:
 11147              	.LBB1660:
 180:../USER/main.c ****   while(**buf==' ') (*buf)++; /* spip sp*/
 11148              		.loc 1 180 6 view .LVU3798
 11149 1ac8 0D9B     		ldr	r3, [sp, #52]
 11150              	.LBE1660:
 11151              	.LBE1659:
 239:../USER/main.c **** 			if(*cbp=='U'){
 11152              		.loc 1 239 12 view .LVU3799
 11153 1aca 86B2     		uxth	r6, r0
 11154              	.LVL780:
 11155              	.LBB1665:
 11156              	.LBI1659:
 178:../USER/main.c ****   long num = 0; int hd;
 11157              		.loc 1 178 6 is_stmt 1 view .LVU3800
 11158              	.LBB1661:
 179:../USER/main.c ****   if(**buf==0x0d) return -1;
 11159              		.loc 1 179 3 view .LVU3801
 179:../USER/main.c ****   if(**buf==0x0d) return -1;
 11160              		.loc 1 179 17 view .LVU3802
 180:../USER/main.c ****   while(**buf==' ') (*buf)++; /* spip sp*/
 11161              		.loc 1 180 3 view .LVU3803
 180:../USER/main.c ****   while(**buf==' ') (*buf)++; /* spip sp*/
 11162              		.loc 1 180 5 is_stmt 0 view .LVU3804
 11163 1acc 93F90030 		ldrsb	r3, [r3]
 11164 1ad0 0D2B     		cmp	r3, #13
 11165 1ad2 00F0EC82 		beq	.L945
 11166 1ad6 0DA8     		add	r0, sp, #52
 11167              	.LVL781:
 180:../USER/main.c ****   while(**buf==' ') (*buf)++; /* spip sp*/
 11168              		.loc 1 180 5 view .LVU3805
 11169 1ad8 FFF7FEFF 		bl	getsh.part.0
 11170              	.LVL782:
 180:../USER/main.c ****   while(**buf==' ') (*buf)++; /* spip sp*/
 11171              		.loc 1 180 5 view .LVU3806
 11172 1adc 83B2     		uxth	r3, r0
 11173              	.LVL783:
 11174              	.L524:
 180:../USER/main.c ****   while(**buf==' ') (*buf)++; /* spip sp*/
 11175              		.loc 1 180 5 view .LVU3807
 11176              	.LBE1661:
 11177              	.LBE1665:
 239:../USER/main.c **** 			if(*cbp=='U'){
 11178              		.loc 1 239 12 view .LVU3808
 11179 1ade 2146     		mov	r1, r4
 11180 1ae0 3246     		mov	r2, r6
 11181 1ae2 2846     		mov	r0, r5
 11182 1ae4 FFF7FEFF 		bl	DCircle
 11183              	.LVL784:
 11184 1ae8 0D9B     		ldr	r3, [sp, #52]
 11185 1aea 93F90010 		ldrsb	r1, [r3]
 11186 1aee FEF760BC 		b	.L522
 11187              	.LVL785:
 11188              	.L1117:
 237:../USER/main.c **** 			if(*cbp=='R'){
 11189              		.loc 1 237 5 is_stmt 1 view .LVU3809
 237:../USER/main.c **** 			if(*cbp=='R'){
 11190              		.loc 1 237 8 is_stmt 0 view .LVU3810
 11191 1af2 5A1C     		adds	r2, r3, #1
 11192 1af4 0D92     		str	r2, [sp, #52]
 237:../USER/main.c **** 			if(*cbp=='R'){
 11193              		.loc 1 237 12 is_stmt 1 view .LVU3811
 11194              	.LVL786:
 11195              	.LBB1666:
 11196              	.LBI1666:
 178:../USER/main.c ****   long num = 0; int hd;
 11197              		.loc 1 178 6 view .LVU3812
 11198              	.LBB1667:
 179:../USER/main.c ****   if(**buf==0x0d) return -1;
 11199              		.loc 1 179 3 view .LVU3813
 179:../USER/main.c ****   if(**buf==0x0d) return -1;
 11200              		.loc 1 179 17 view .LVU3814
 180:../USER/main.c ****   while(**buf==' ') (*buf)++; /* spip sp*/
 11201              		.loc 1 180 3 view .LVU3815
 180:../USER/main.c ****   while(**buf==' ') (*buf)++; /* spip sp*/
 11202              		.loc 1 180 5 is_stmt 0 view .LVU3816
 11203 1af6 93F90130 		ldrsb	r3, [r3, #1]
 11204 1afa 0D2B     		cmp	r3, #13
 11205 1afc 00F04C82 		beq	.L940
 11206 1b00 0DA8     		add	r0, sp, #52
 11207              	.LVL787:
 180:../USER/main.c ****   while(**buf==' ') (*buf)++; /* spip sp*/
 11208              		.loc 1 180 5 view .LVU3817
 11209 1b02 FFF7FEFF 		bl	getsh.part.0
 11210              	.LVL788:
 180:../USER/main.c ****   while(**buf==' ') (*buf)++; /* spip sp*/
 11211              		.loc 1 180 5 view .LVU3818
 11212              	.LBE1667:
 11213              	.LBE1666:
 11214              	.LBB1670:
 11215              	.LBB1671:
 11216 1b06 0D9B     		ldr	r3, [sp, #52]
 11217              	.LBE1671:
 11218              	.LBE1670:
 11219              	.LBB1676:
 11220              	.LBB1668:
 11221 1b08 0446     		mov	r4, r0
 11222              	.LVL789:
 180:../USER/main.c ****   while(**buf==' ') (*buf)++; /* spip sp*/
 11223              		.loc 1 180 5 view .LVU3819
 11224              	.LBE1668:
 11225              	.LBE1676:
 11226              	.LBB1677:
 11227              	.LBI1670:
 178:../USER/main.c ****   long num = 0; int hd;
 11228              		.loc 1 178 6 is_stmt 1 view .LVU3820
 11229              	.LBB1672:
 179:../USER/main.c ****   if(**buf==0x0d) return -1;
 11230              		.loc 1 179 3 view .LVU3821
 179:../USER/main.c ****   if(**buf==0x0d) return -1;
 11231              		.loc 1 179 17 view .LVU3822
 180:../USER/main.c ****   while(**buf==' ') (*buf)++; /* spip sp*/
 11232              		.loc 1 180 3 view .LVU3823
 180:../USER/main.c ****   while(**buf==' ') (*buf)++; /* spip sp*/
 11233              		.loc 1 180 5 is_stmt 0 view .LVU3824
 11234 1b0a 93F90030 		ldrsb	r3, [r3]
 11235 1b0e 0D2B     		cmp	r3, #13
 11236 1b10 00F0C982 		beq	.L941
 11237 1b14 0DA8     		add	r0, sp, #52
 11238              	.LVL790:
 180:../USER/main.c ****   while(**buf==' ') (*buf)++; /* spip sp*/
 11239              		.loc 1 180 5 view .LVU3825
 11240 1b16 FFF7FEFF 		bl	getsh.part.0
 11241              	.LVL791:
 180:../USER/main.c ****   while(**buf==' ') (*buf)++; /* spip sp*/
 11242              		.loc 1 180 5 view .LVU3826
 11243              	.LBE1672:
 11244              	.LBE1677:
 11245              	.LBB1678:
 11246              	.LBB1679:
 180:../USER/main.c ****   while(**buf==' ') (*buf)++; /* spip sp*/
 11247              		.loc 1 180 6 view .LVU3827
 11248 1b1a 0D9B     		ldr	r3, [sp, #52]
 11249              	.LBE1679:
 11250              	.LBE1678:
 11251              	.LBB1686:
 11252              	.LBB1673:
 11253 1b1c 0546     		mov	r5, r0
 11254              	.LVL792:
 180:../USER/main.c ****   while(**buf==' ') (*buf)++; /* spip sp*/
 11255              		.loc 1 180 6 view .LVU3828
 11256              	.LBE1673:
 11257              	.LBE1686:
 11258              	.LBB1687:
 11259              	.LBI1678:
 178:../USER/main.c ****   long num = 0; int hd;
 11260              		.loc 1 178 6 is_stmt 1 view .LVU3829
 11261              	.LBB1680:
 179:../USER/main.c ****   if(**buf==0x0d) return -1;
 11262              		.loc 1 179 3 view .LVU3830
 179:../USER/main.c ****   if(**buf==0x0d) return -1;
 11263              		.loc 1 179 17 view .LVU3831
 180:../USER/main.c ****   while(**buf==' ') (*buf)++; /* spip sp*/
 11264              		.loc 1 180 3 view .LVU3832
 180:../USER/main.c ****   while(**buf==' ') (*buf)++; /* spip sp*/
 11265              		.loc 1 180 5 is_stmt 0 view .LVU3833
 11266 1b1e 93F90030 		ldrsb	r3, [r3]
 11267 1b22 0D2B     		cmp	r3, #13
 11268 1b24 00F0BC82 		beq	.L942
 11269 1b28 0DA8     		add	r0, sp, #52
 11270              	.LVL793:
 180:../USER/main.c ****   while(**buf==' ') (*buf)++; /* spip sp*/
 11271              		.loc 1 180 5 view .LVU3834
 11272 1b2a FFF7FEFF 		bl	getsh.part.0
 11273              	.LVL794:
 180:../USER/main.c ****   while(**buf==' ') (*buf)++; /* spip sp*/
 11274              		.loc 1 180 5 view .LVU3835
 11275 1b2e 0246     		mov	r2, r0
 11276              	.LVL795:
 11277              	.L521:
 180:../USER/main.c ****   while(**buf==' ') (*buf)++; /* spip sp*/
 11278              		.loc 1 180 5 view .LVU3836
 11279              	.LBE1680:
 11280              	.LBE1687:
 237:../USER/main.c **** 			if(*cbp=='R'){
 11281              		.loc 1 237 12 view .LVU3837
 11282 1b30 2946     		mov	r1, r5
 11283 1b32 2046     		mov	r0, r4
 11284 1b34 FFF7FEFF 		bl	DPaint
 11285              	.LVL796:
 11286 1b38 0D9B     		ldr	r3, [sp, #52]
 11287 1b3a 93F90010 		ldrsb	r1, [r3]
 11288 1b3e FEF735BC 		b	.L520
 11289              	.LVL797:
 11290              	.L1116:
 235:../USER/main.c **** 			if(*cbp=='Q'){
 11291              		.loc 1 235 5 is_stmt 1 view .LVU3838
 235:../USER/main.c **** 			if(*cbp=='Q'){
 11292              		.loc 1 235 8 is_stmt 0 view .LVU3839
 11293 1b42 5A1C     		adds	r2, r3, #1
 11294 1b44 0D92     		str	r2, [sp, #52]
 235:../USER/main.c **** 			if(*cbp=='Q'){
 11295              		.loc 1 235 12 is_stmt 1 view .LVU3840
 11296              	.LVL798:
 11297              	.LBB1688:
 11298              	.LBI1688:
 178:../USER/main.c ****   long num = 0; int hd;
 11299              		.loc 1 178 6 view .LVU3841
 11300              	.LBB1689:
 179:../USER/main.c ****   if(**buf==0x0d) return -1;
 11301              		.loc 1 179 3 view .LVU3842
 179:../USER/main.c ****   if(**buf==0x0d) return -1;
 11302              		.loc 1 179 17 view .LVU3843
 180:../USER/main.c ****   while(**buf==' ') (*buf)++; /* spip sp*/
 11303              		.loc 1 180 3 view .LVU3844
 180:../USER/main.c ****   while(**buf==' ') (*buf)++; /* spip sp*/
 11304              		.loc 1 180 5 is_stmt 0 view .LVU3845
 11305 1b46 93F90130 		ldrsb	r3, [r3, #1]
 11306 1b4a 0D2B     		cmp	r3, #13
 11307 1b4c 00F04682 		beq	.L937
 11308 1b50 0DA8     		add	r0, sp, #52
 11309              	.LVL799:
 180:../USER/main.c ****   while(**buf==' ') (*buf)++; /* spip sp*/
 11310              		.loc 1 180 5 view .LVU3846
 11311 1b52 FFF7FEFF 		bl	getsh.part.0
 11312              	.LVL800:
 180:../USER/main.c ****   while(**buf==' ') (*buf)++; /* spip sp*/
 11313              		.loc 1 180 5 view .LVU3847
 11314              	.LBE1689:
 11315              	.LBE1688:
 11316              	.LBB1692:
 11317              	.LBB1693:
 11318 1b56 0D9B     		ldr	r3, [sp, #52]
 11319              	.LBE1693:
 11320              	.LBE1692:
 11321              	.LBB1698:
 11322              	.LBB1690:
 11323 1b58 0446     		mov	r4, r0
 11324              	.LVL801:
 180:../USER/main.c ****   while(**buf==' ') (*buf)++; /* spip sp*/
 11325              		.loc 1 180 5 view .LVU3848
 11326              	.LBE1690:
 11327              	.LBE1698:
 11328              	.LBB1699:
 11329              	.LBI1692:
 178:../USER/main.c ****   long num = 0; int hd;
 11330              		.loc 1 178 6 is_stmt 1 view .LVU3849
 11331              	.LBB1694:
 179:../USER/main.c ****   if(**buf==0x0d) return -1;
 11332              		.loc 1 179 3 view .LVU3850
 179:../USER/main.c ****   if(**buf==0x0d) return -1;
 11333              		.loc 1 179 17 view .LVU3851
 180:../USER/main.c ****   while(**buf==' ') (*buf)++; /* spip sp*/
 11334              		.loc 1 180 3 view .LVU3852
 180:../USER/main.c ****   while(**buf==' ') (*buf)++; /* spip sp*/
 11335              		.loc 1 180 5 is_stmt 0 view .LVU3853
 11336 1b5a 93F90030 		ldrsb	r3, [r3]
 11337 1b5e 0D2B     		cmp	r3, #13
 11338 1b60 00F09A82 		beq	.L938
 11339 1b64 0DA8     		add	r0, sp, #52
 11340              	.LVL802:
 180:../USER/main.c ****   while(**buf==' ') (*buf)++; /* spip sp*/
 11341              		.loc 1 180 5 view .LVU3854
 11342 1b66 FFF7FEFF 		bl	getsh.part.0
 11343              	.LVL803:
 180:../USER/main.c ****   while(**buf==' ') (*buf)++; /* spip sp*/
 11344              		.loc 1 180 5 view .LVU3855
 11345              	.LBE1694:
 11346              	.LBE1699:
 11347              	.LBB1700:
 11348              	.LBB1701:
 180:../USER/main.c ****   while(**buf==' ') (*buf)++; /* spip sp*/
 11349              		.loc 1 180 6 view .LVU3856
 11350 1b6a 0D9B     		ldr	r3, [sp, #52]
 11351              	.LBE1701:
 11352              	.LBE1700:
 11353              	.LBB1706:
 11354              	.LBB1695:
 11355 1b6c 0546     		mov	r5, r0
 11356              	.LVL804:
 180:../USER/main.c ****   while(**buf==' ') (*buf)++; /* spip sp*/
 11357              		.loc 1 180 6 view .LVU3857
 11358              	.LBE1695:
 11359              	.LBE1706:
 11360              	.LBB1707:
 11361              	.LBI1700:
 178:../USER/main.c ****   long num = 0; int hd;
 11362              		.loc 1 178 6 is_stmt 1 view .LVU3858
 11363              	.LBB1702:
 179:../USER/main.c ****   if(**buf==0x0d) return -1;
 11364              		.loc 1 179 3 view .LVU3859
 179:../USER/main.c ****   if(**buf==0x0d) return -1;
 11365              		.loc 1 179 17 view .LVU3860
 180:../USER/main.c ****   while(**buf==' ') (*buf)++; /* spip sp*/
 11366              		.loc 1 180 3 view .LVU3861
 180:../USER/main.c ****   while(**buf==' ') (*buf)++; /* spip sp*/
 11367              		.loc 1 180 5 is_stmt 0 view .LVU3862
 11368 1b6e 93F90030 		ldrsb	r3, [r3]
 11369 1b72 0D2B     		cmp	r3, #13
 11370 1b74 00F08D82 		beq	.L939
 11371 1b78 0DA8     		add	r0, sp, #52
 11372              	.LVL805:
 180:../USER/main.c ****   while(**buf==' ') (*buf)++; /* spip sp*/
 11373              		.loc 1 180 5 view .LVU3863
 11374 1b7a FFF7FEFF 		bl	getsh.part.0
 11375              	.LVL806:
 180:../USER/main.c ****   while(**buf==' ') (*buf)++; /* spip sp*/
 11376              		.loc 1 180 5 view .LVU3864
 11377 1b7e 0246     		mov	r2, r0
 11378              	.LVL807:
 11379              	.L519:
 180:../USER/main.c ****   while(**buf==' ') (*buf)++; /* spip sp*/
 11380              		.loc 1 180 5 view .LVU3865
 11381              	.LBE1702:
 11382              	.LBE1707:
 235:../USER/main.c **** 			if(*cbp=='Q'){
 11383              		.loc 1 235 12 view .LVU3866
 11384 1b80 2946     		mov	r1, r5
 11385 1b82 2046     		mov	r0, r4
 11386 1b84 FFF7FEFF 		bl	pset
 11387              	.LVL808:
 11388 1b88 0D9B     		ldr	r3, [sp, #52]
 11389 1b8a 93F90010 		ldrsb	r1, [r3]
 11390 1b8e FEF70ABC 		b	.L518
 11391              	.LVL809:
 11392              	.L1125:
 265:../USER/main.c **** 	        adr = getsh(cbpp);
 11393              		.loc 1 265 25 is_stmt 1 discriminator 1 view .LVU3867
 265:../USER/main.c **** 	        adr = getsh(cbpp);
 11394              		.loc 1 265 34 discriminator 1 view .LVU3868
 265:../USER/main.c **** 	        adr = getsh(cbpp);
 11395              		.loc 1 265 29 is_stmt 0 discriminator 1 view .LVU3869
 11396 1b92 0222     		movs	r2, #2
 265:../USER/main.c **** 	        adr = getsh(cbpp);
 11397              		.loc 1 265 37 discriminator 1 view .LVU3870
 11398 1b94 0DF19A03 		add	r3, sp, #154
 11399 1b98 0D93     		str	r3, [sp, #52]
 11400 1b9a 9DF99A30 		ldrsb	r3, [sp, #154]
 265:../USER/main.c **** 	        adr = getsh(cbpp);
 11401              		.loc 1 265 29 discriminator 1 view .LVU3871
 11402 1b9e 0492     		str	r2, [sp, #16]
 11403              	.LVL810:
 266:../USER/main.c **** 	        while(cmd!='.'){
 11404              		.loc 1 266 10 is_stmt 1 discriminator 1 view .LVU3872
 11405              	.LBB1708:
 178:../USER/main.c ****   long num = 0; int hd;
 11406              		.loc 1 178 6 discriminator 1 view .LVU3873
 11407              	.LBB1058:
 179:../USER/main.c ****   if(**buf==0x0d) return -1;
 11408              		.loc 1 179 3 discriminator 1 view .LVU3874
 179:../USER/main.c ****   if(**buf==0x0d) return -1;
 11409              		.loc 1 179 17 discriminator 1 view .LVU3875
 180:../USER/main.c ****   while(**buf==' ') (*buf)++; /* spip sp*/
 11410              		.loc 1 180 3 discriminator 1 view .LVU3876
 180:../USER/main.c ****   while(**buf==' ') (*buf)++; /* spip sp*/
 11411              		.loc 1 180 5 is_stmt 0 discriminator 1 view .LVU3877
 11412 1ba0 0D2B     		cmp	r3, #13
 11413 1ba2 7EF4AEAC 		bne	.L1204
 11414              	.L955:
 180:../USER/main.c ****   while(**buf==' ') (*buf)++; /* spip sp*/
 11415              		.loc 1 180 26 view .LVU3878
 11416 1ba6 4FF0FF3B 		mov	fp, #-1
 11417 1baa FEF7AEBC 		b	.L1096
 11418              	.LVL811:
 11419              	.L1113:
 180:../USER/main.c ****   while(**buf==' ') (*buf)++; /* spip sp*/
 11420              		.loc 1 180 26 view .LVU3879
 11421              	.LBE1058:
 11422              	.LBE1708:
 229:../USER/main.c **** 			if(*cbp=='L'){
 11423              		.loc 1 229 5 is_stmt 1 view .LVU3880
 229:../USER/main.c **** 			if(*cbp=='L'){
 11424              		.loc 1 229 8 is_stmt 0 view .LVU3881
 11425 1bae 5A1C     		adds	r2, r3, #1
 11426 1bb0 0D92     		str	r2, [sp, #52]
 229:../USER/main.c **** 			if(*cbp=='L'){
 11427              		.loc 1 229 12 is_stmt 1 view .LVU3882
 11428              	.LVL812:
 11429              	.LBB1709:
 11430              	.LBI1709:
 178:../USER/main.c ****   long num = 0; int hd;
 11431              		.loc 1 178 6 view .LVU3883
 11432              	.LBB1710:
 179:../USER/main.c ****   if(**buf==0x0d) return -1;
 11433              		.loc 1 179 3 view .LVU3884
 179:../USER/main.c ****   if(**buf==0x0d) return -1;
 11434              		.loc 1 179 17 view .LVU3885
 180:../USER/main.c ****   while(**buf==' ') (*buf)++; /* spip sp*/
 11435              		.loc 1 180 3 view .LVU3886
 180:../USER/main.c ****   while(**buf==' ') (*buf)++; /* spip sp*/
 11436              		.loc 1 180 5 is_stmt 0 view .LVU3887
 11437 1bb2 93F90130 		ldrsb	r3, [r3, #1]
 11438 1bb6 0D2B     		cmp	r3, #13
 11439 1bb8 00F0F381 		beq	.L928
 11440 1bbc 0DA8     		add	r0, sp, #52
 11441              	.LVL813:
 180:../USER/main.c ****   while(**buf==' ') (*buf)++; /* spip sp*/
 11442              		.loc 1 180 5 view .LVU3888
 11443 1bbe FFF7FEFF 		bl	getsh.part.0
 11444              	.LVL814:
 180:../USER/main.c ****   while(**buf==' ') (*buf)++; /* spip sp*/
 11445              		.loc 1 180 5 view .LVU3889
 11446              	.LBE1710:
 11447              	.LBE1709:
 11448              	.LBB1713:
 11449              	.LBB1714:
 11450 1bc2 0D9B     		ldr	r3, [sp, #52]
 11451              	.LBE1714:
 11452              	.LBE1713:
 11453              	.LBB1719:
 11454              	.LBB1711:
 11455 1bc4 0446     		mov	r4, r0
 11456              	.LVL815:
 180:../USER/main.c ****   while(**buf==' ') (*buf)++; /* spip sp*/
 11457              		.loc 1 180 5 view .LVU3890
 11458              	.LBE1711:
 11459              	.LBE1719:
 11460              	.LBB1720:
 11461              	.LBI1713:
 178:../USER/main.c ****   long num = 0; int hd;
 11462              		.loc 1 178 6 is_stmt 1 view .LVU3891
 11463              	.LBB1715:
 179:../USER/main.c ****   if(**buf==0x0d) return -1;
 11464              		.loc 1 179 3 view .LVU3892
 179:../USER/main.c ****   if(**buf==0x0d) return -1;
 11465              		.loc 1 179 17 view .LVU3893
 180:../USER/main.c ****   while(**buf==' ') (*buf)++; /* spip sp*/
 11466              		.loc 1 180 3 view .LVU3894
 180:../USER/main.c ****   while(**buf==' ') (*buf)++; /* spip sp*/
 11467              		.loc 1 180 5 is_stmt 0 view .LVU3895
 11468 1bc6 93F90030 		ldrsb	r3, [r3]
 11469 1bca 0D2B     		cmp	r3, #13
 11470 1bcc 00F05D82 		beq	.L929
 11471 1bd0 0DA8     		add	r0, sp, #52
 11472              	.LVL816:
 180:../USER/main.c ****   while(**buf==' ') (*buf)++; /* spip sp*/
 11473              		.loc 1 180 5 view .LVU3896
 11474 1bd2 FFF7FEFF 		bl	getsh.part.0
 11475              	.LVL817:
 180:../USER/main.c ****   while(**buf==' ') (*buf)++; /* spip sp*/
 11476              		.loc 1 180 5 view .LVU3897
 11477              	.LBE1715:
 11478              	.LBE1720:
 11479              	.LBB1721:
 11480              	.LBB1722:
 180:../USER/main.c ****   while(**buf==' ') (*buf)++; /* spip sp*/
 11481              		.loc 1 180 6 view .LVU3898
 11482 1bd6 0D9B     		ldr	r3, [sp, #52]
 11483              	.LBE1722:
 11484              	.LBE1721:
 11485              	.LBB1727:
 11486              	.LBB1716:
 11487 1bd8 0546     		mov	r5, r0
 11488              	.LVL818:
 180:../USER/main.c ****   while(**buf==' ') (*buf)++; /* spip sp*/
 11489              		.loc 1 180 6 view .LVU3899
 11490              	.LBE1716:
 11491              	.LBE1727:
 11492              	.LBB1728:
 11493              	.LBI1721:
 178:../USER/main.c ****   long num = 0; int hd;
 11494              		.loc 1 178 6 is_stmt 1 view .LVU3900
 11495              	.LBB1723:
 179:../USER/main.c ****   if(**buf==0x0d) return -1;
 11496              		.loc 1 179 3 view .LVU3901
 179:../USER/main.c ****   if(**buf==0x0d) return -1;
 11497              		.loc 1 179 17 view .LVU3902
 180:../USER/main.c ****   while(**buf==' ') (*buf)++; /* spip sp*/
 11498              		.loc 1 180 3 view .LVU3903
 180:../USER/main.c ****   while(**buf==' ') (*buf)++; /* spip sp*/
 11499              		.loc 1 180 5 is_stmt 0 view .LVU3904
 11500 1bda 93F90030 		ldrsb	r3, [r3]
 11501 1bde 0D2B     		cmp	r3, #13
 11502 1be0 00F05082 		beq	.L930
 11503 1be4 0DA8     		add	r0, sp, #52
 11504              	.LVL819:
 180:../USER/main.c ****   while(**buf==' ') (*buf)++; /* spip sp*/
 11505              		.loc 1 180 5 view .LVU3905
 11506 1be6 FFF7FEFF 		bl	getsh.part.0
 11507              	.LVL820:
 180:../USER/main.c ****   while(**buf==' ') (*buf)++; /* spip sp*/
 11508              		.loc 1 180 5 view .LVU3906
 11509 1bea 0246     		mov	r2, r0
 11510              	.LVL821:
 11511              	.L510:
 180:../USER/main.c ****   while(**buf==' ') (*buf)++; /* spip sp*/
 11512              		.loc 1 180 5 view .LVU3907
 11513              	.LBE1723:
 11514              	.LBE1728:
 229:../USER/main.c **** 			if(*cbp=='L'){
 11515              		.loc 1 229 12 view .LVU3908
 11516 1bec 2946     		mov	r1, r5
 11517 1bee 0A23     		movs	r3, #10
 11518 1bf0 2046     		mov	r0, r4
 11519 1bf2 FFF7FEFF 		bl	move_vram
 11520              	.LVL822:
 11521 1bf6 0D9B     		ldr	r3, [sp, #52]
 11522 1bf8 93F90010 		ldrsb	r1, [r3]
 230:../USER/main.c **** 				cbp++; DLine((int)getsh(cbpp),(int)getsh(cbpp),(int)getsh(cbpp),(int)getsh(cbpp),(int)getsh(cbp
 11523              		.loc 1 230 4 is_stmt 1 view .LVU3909
 230:../USER/main.c **** 				cbp++; DLine((int)getsh(cbpp),(int)getsh(cbpp),(int)getsh(cbpp),(int)getsh(cbpp),(int)getsh(cbp
 11524              		.loc 1 230 6 is_stmt 0 view .LVU3910
 11525 1bfc 4C29     		cmp	r1, #76
 11526 1bfe 7EF4CCAB 		bne	.L512
 11527              	.LVL823:
 11528              	.L1114:
 231:../USER/main.c **** 			if(*cbp=='M'){
 11529              		.loc 1 231 5 is_stmt 1 view .LVU3911
 231:../USER/main.c **** 			if(*cbp=='M'){
 11530              		.loc 1 231 8 is_stmt 0 view .LVU3912
 11531 1c02 5A1C     		adds	r2, r3, #1
 11532 1c04 0D92     		str	r2, [sp, #52]
 231:../USER/main.c **** 			if(*cbp=='M'){
 11533              		.loc 1 231 12 is_stmt 1 view .LVU3913
 11534              	.LVL824:
 11535              	.LBB1729:
 11536              	.LBI1729:
 178:../USER/main.c ****   long num = 0; int hd;
 11537              		.loc 1 178 6 view .LVU3914
 11538              	.LBB1730:
 179:../USER/main.c ****   if(**buf==0x0d) return -1;
 11539              		.loc 1 179 3 view .LVU3915
 179:../USER/main.c ****   if(**buf==0x0d) return -1;
 11540              		.loc 1 179 17 view .LVU3916
 180:../USER/main.c ****   while(**buf==' ') (*buf)++; /* spip sp*/
 11541              		.loc 1 180 3 view .LVU3917
 180:../USER/main.c ****   while(**buf==' ') (*buf)++; /* spip sp*/
 11542              		.loc 1 180 5 is_stmt 0 view .LVU3918
 11543 1c06 93F90130 		ldrsb	r3, [r3, #1]
 11544 1c0a 0D2B     		cmp	r3, #13
 11545 1c0c 00F0FB81 		beq	.L931
 11546 1c10 0DA8     		add	r0, sp, #52
 11547              	.LVL825:
 180:../USER/main.c ****   while(**buf==' ') (*buf)++; /* spip sp*/
 11548              		.loc 1 180 5 view .LVU3919
 11549 1c12 FFF7FEFF 		bl	getsh.part.0
 11550              	.LVL826:
 180:../USER/main.c ****   while(**buf==' ') (*buf)++; /* spip sp*/
 11551              		.loc 1 180 5 view .LVU3920
 11552              	.LBE1730:
 11553              	.LBE1729:
 11554              	.LBB1732:
 11555              	.LBB1733:
 11556 1c16 0D9B     		ldr	r3, [sp, #52]
 11557 1c18 85B2     		uxth	r5, r0
 11558              	.LVL827:
 180:../USER/main.c ****   while(**buf==' ') (*buf)++; /* spip sp*/
 11559              		.loc 1 180 5 view .LVU3921
 11560              	.LBE1733:
 11561              	.LBI1732:
 178:../USER/main.c ****   long num = 0; int hd;
 11562              		.loc 1 178 6 is_stmt 1 view .LVU3922
 11563              	.LBB1734:
 179:../USER/main.c ****   if(**buf==0x0d) return -1;
 11564              		.loc 1 179 3 view .LVU3923
 179:../USER/main.c ****   if(**buf==0x0d) return -1;
 11565              		.loc 1 179 17 view .LVU3924
 180:../USER/main.c ****   while(**buf==' ') (*buf)++; /* spip sp*/
 11566              		.loc 1 180 3 view .LVU3925
 180:../USER/main.c ****   while(**buf==' ') (*buf)++; /* spip sp*/
 11567              		.loc 1 180 5 is_stmt 0 view .LVU3926
 11568 1c1a 93F90030 		ldrsb	r3, [r3]
 11569 1c1e 0D2B     		cmp	r3, #13
 11570 1c20 00F0E981 		beq	.L932
 11571 1c24 0DA8     		add	r0, sp, #52
 11572              	.LVL828:
 180:../USER/main.c ****   while(**buf==' ') (*buf)++; /* spip sp*/
 11573              		.loc 1 180 5 view .LVU3927
 11574 1c26 FFF7FEFF 		bl	getsh.part.0
 11575              	.LVL829:
 180:../USER/main.c ****   while(**buf==' ') (*buf)++; /* spip sp*/
 11576              		.loc 1 180 5 view .LVU3928
 11577              	.LBE1734:
 11578              	.LBE1732:
 11579              	.LBB1735:
 11580              	.LBB1736:
 180:../USER/main.c ****   while(**buf==' ') (*buf)++; /* spip sp*/
 11581              		.loc 1 180 6 view .LVU3929
 11582 1c2a 0D9B     		ldr	r3, [sp, #52]
 11583              	.LBE1736:
 11584              	.LBE1735:
 231:../USER/main.c **** 			if(*cbp=='M'){
 11585              		.loc 1 231 12 view .LVU3930
 11586 1c2c 84B2     		uxth	r4, r0
 11587              	.LVL830:
 11588              	.LBB1738:
 11589              	.LBI1735:
 178:../USER/main.c ****   long num = 0; int hd;
 11590              		.loc 1 178 6 is_stmt 1 view .LVU3931
 11591              	.LBB1737:
 179:../USER/main.c ****   if(**buf==0x0d) return -1;
 11592              		.loc 1 179 3 view .LVU3932
 179:../USER/main.c ****   if(**buf==0x0d) return -1;
 11593              		.loc 1 179 17 view .LVU3933
 180:../USER/main.c ****   while(**buf==' ') (*buf)++; /* spip sp*/
 11594              		.loc 1 180 3 view .LVU3934
 180:../USER/main.c ****   while(**buf==' ') (*buf)++; /* spip sp*/
 11595              		.loc 1 180 5 is_stmt 0 view .LVU3935
 11596 1c2e 93F90030 		ldrsb	r3, [r3]
 11597 1c32 0D2B     		cmp	r3, #13
 11598 1c34 00F0E181 		beq	.L513
 11599 1c38 0DA8     		add	r0, sp, #52
 11600              	.LVL831:
 180:../USER/main.c ****   while(**buf==' ') (*buf)++; /* spip sp*/
 11601              		.loc 1 180 5 view .LVU3936
 11602 1c3a FFF7FEFF 		bl	getsh.part.0
 11603              	.LVL832:
 180:../USER/main.c ****   while(**buf==' ') (*buf)++; /* spip sp*/
 11604              		.loc 1 180 5 view .LVU3937
 11605              	.LBE1737:
 11606              	.LBE1738:
 11607              	.LBB1739:
 11608              	.LBB1740:
 180:../USER/main.c ****   while(**buf==' ') (*buf)++; /* spip sp*/
 11609              		.loc 1 180 6 view .LVU3938
 11610 1c3e 0D9B     		ldr	r3, [sp, #52]
 11611              	.LBE1740:
 11612              	.LBE1739:
 231:../USER/main.c **** 			if(*cbp=='M'){
 11613              		.loc 1 231 12 view .LVU3939
 11614 1c40 86B2     		uxth	r6, r0
 11615              	.LVL833:
 11616              	.LBB1744:
 11617              	.LBI1739:
 178:../USER/main.c ****   long num = 0; int hd;
 11618              		.loc 1 178 6 is_stmt 1 view .LVU3940
 11619              	.LBB1741:
 179:../USER/main.c ****   if(**buf==0x0d) return -1;
 11620              		.loc 1 179 3 view .LVU3941
 179:../USER/main.c ****   if(**buf==0x0d) return -1;
 11621              		.loc 1 179 17 view .LVU3942
 180:../USER/main.c ****   while(**buf==' ') (*buf)++; /* spip sp*/
 11622              		.loc 1 180 3 view .LVU3943
 180:../USER/main.c ****   while(**buf==' ') (*buf)++; /* spip sp*/
 11623              		.loc 1 180 5 is_stmt 0 view .LVU3944
 11624 1c42 93F90030 		ldrsb	r3, [r3]
 11625 1c46 0D2B     		cmp	r3, #13
 11626 1c48 00F0D981 		beq	.L514
 11627 1c4c 0DA8     		add	r0, sp, #52
 11628              	.LVL834:
 180:../USER/main.c ****   while(**buf==' ') (*buf)++; /* spip sp*/
 11629              		.loc 1 180 5 view .LVU3945
 11630 1c4e FFF7FEFF 		bl	getsh.part.0
 11631              	.LVL835:
 180:../USER/main.c ****   while(**buf==' ') (*buf)++; /* spip sp*/
 11632              		.loc 1 180 5 view .LVU3946
 11633              	.LBE1741:
 11634              	.LBE1744:
 11635              	.LBB1745:
 11636              	.LBB1746:
 180:../USER/main.c ****   while(**buf==' ') (*buf)++; /* spip sp*/
 11637              		.loc 1 180 6 view .LVU3947
 11638 1c52 0D9B     		ldr	r3, [sp, #52]
 11639              	.LBE1746:
 11640              	.LBE1745:
 231:../USER/main.c **** 			if(*cbp=='M'){
 11641              		.loc 1 231 12 view .LVU3948
 11642 1c54 1FFA80FB 		uxth	fp, r0
 11643              	.LVL836:
 11644              	.LBB1750:
 11645              	.LBI1745:
 178:../USER/main.c ****   long num = 0; int hd;
 11646              		.loc 1 178 6 is_stmt 1 view .LVU3949
 11647              	.LBB1747:
 179:../USER/main.c ****   if(**buf==0x0d) return -1;
 11648              		.loc 1 179 3 view .LVU3950
 179:../USER/main.c ****   if(**buf==0x0d) return -1;
 11649              		.loc 1 179 17 view .LVU3951
 180:../USER/main.c ****   while(**buf==' ') (*buf)++; /* spip sp*/
 11650              		.loc 1 180 3 view .LVU3952
 180:../USER/main.c ****   while(**buf==' ') (*buf)++; /* spip sp*/
 11651              		.loc 1 180 5 is_stmt 0 view .LVU3953
 11652 1c58 93F90030 		ldrsb	r3, [r3]
 11653 1c5c 0D2B     		cmp	r3, #13
 11654 1c5e 00F0FE81 		beq	.L933
 11655 1c62 0DA8     		add	r0, sp, #52
 11656              	.LVL837:
 180:../USER/main.c ****   while(**buf==' ') (*buf)++; /* spip sp*/
 11657              		.loc 1 180 5 view .LVU3954
 11658 1c64 FFF7FEFF 		bl	getsh.part.0
 11659              	.LVL838:
 180:../USER/main.c ****   while(**buf==' ') (*buf)++; /* spip sp*/
 11660              		.loc 1 180 5 view .LVU3955
 11661 1c68 80B2     		uxth	r0, r0
 11662              	.LVL839:
 11663              	.L515:
 180:../USER/main.c ****   while(**buf==' ') (*buf)++; /* spip sp*/
 11664              		.loc 1 180 5 view .LVU3956
 11665              	.LBE1747:
 11666              	.LBE1750:
 231:../USER/main.c **** 			if(*cbp=='M'){
 11667              		.loc 1 231 12 view .LVU3957
 11668 1c6a 0090     		str	r0, [sp]
 11669 1c6c 5B46     		mov	r3, fp
 11670 1c6e 2146     		mov	r1, r4
 11671 1c70 3246     		mov	r2, r6
 11672 1c72 2846     		mov	r0, r5
 11673 1c74 FFF7FEFF 		bl	DLine
 11674              	.LVL840:
 11675 1c78 0D9B     		ldr	r3, [sp, #52]
 11676 1c7a 93F90010 		ldrsb	r1, [r3]
 232:../USER/main.c **** 				cbp++; move_vram((int)getsh(cbpp),(int)getsh(cbpp),(int)getsh(cbpp), 12); }
 11677              		.loc 1 232 4 is_stmt 1 view .LVU3958
 232:../USER/main.c **** 				cbp++; move_vram((int)getsh(cbpp),(int)getsh(cbpp),(int)getsh(cbpp), 12); }
 11678              		.loc 1 232 6 is_stmt 0 view .LVU3959
 11679 1c7e 4D29     		cmp	r1, #77
 11680 1c80 7EF48EAB 		bne	.L516
 11681              	.LVL841:
 11682              	.L1115:
 233:../USER/main.c **** 			if(*cbp=='P'){
 11683              		.loc 1 233 5 is_stmt 1 view .LVU3960
 233:../USER/main.c **** 			if(*cbp=='P'){
 11684              		.loc 1 233 8 is_stmt 0 view .LVU3961
 11685 1c84 5A1C     		adds	r2, r3, #1
 11686 1c86 0D92     		str	r2, [sp, #52]
 233:../USER/main.c **** 			if(*cbp=='P'){
 11687              		.loc 1 233 12 is_stmt 1 view .LVU3962
 11688              	.LVL842:
 11689              	.LBB1751:
 11690              	.LBI1751:
 178:../USER/main.c ****   long num = 0; int hd;
 11691              		.loc 1 178 6 view .LVU3963
 11692              	.LBB1752:
 179:../USER/main.c ****   if(**buf==0x0d) return -1;
 11693              		.loc 1 179 3 view .LVU3964
 179:../USER/main.c ****   if(**buf==0x0d) return -1;
 11694              		.loc 1 179 17 view .LVU3965
 180:../USER/main.c ****   while(**buf==' ') (*buf)++; /* spip sp*/
 11695              		.loc 1 180 3 view .LVU3966
 180:../USER/main.c ****   while(**buf==' ') (*buf)++; /* spip sp*/
 11696              		.loc 1 180 5 is_stmt 0 view .LVU3967
 11697 1c88 93F90130 		ldrsb	r3, [r3, #1]
 11698 1c8c 0D2B     		cmp	r3, #13
 11699 1c8e 00F09D81 		beq	.L934
 11700 1c92 0DA8     		add	r0, sp, #52
 11701              	.LVL843:
 180:../USER/main.c ****   while(**buf==' ') (*buf)++; /* spip sp*/
 11702              		.loc 1 180 5 view .LVU3968
 11703 1c94 FFF7FEFF 		bl	getsh.part.0
 11704              	.LVL844:
 180:../USER/main.c ****   while(**buf==' ') (*buf)++; /* spip sp*/
 11705              		.loc 1 180 5 view .LVU3969
 11706              	.LBE1752:
 11707              	.LBE1751:
 11708              	.LBB1755:
 11709              	.LBB1756:
 11710 1c98 0D9B     		ldr	r3, [sp, #52]
 11711              	.LBE1756:
 11712              	.LBE1755:
 11713              	.LBB1761:
 11714              	.LBB1753:
 11715 1c9a 0446     		mov	r4, r0
 11716              	.LVL845:
 180:../USER/main.c ****   while(**buf==' ') (*buf)++; /* spip sp*/
 11717              		.loc 1 180 5 view .LVU3970
 11718              	.LBE1753:
 11719              	.LBE1761:
 11720              	.LBB1762:
 11721              	.LBI1755:
 178:../USER/main.c ****   long num = 0; int hd;
 11722              		.loc 1 178 6 is_stmt 1 view .LVU3971
 11723              	.LBB1757:
 179:../USER/main.c ****   if(**buf==0x0d) return -1;
 11724              		.loc 1 179 3 view .LVU3972
 179:../USER/main.c ****   if(**buf==0x0d) return -1;
 11725              		.loc 1 179 17 view .LVU3973
 180:../USER/main.c ****   while(**buf==' ') (*buf)++; /* spip sp*/
 11726              		.loc 1 180 3 view .LVU3974
 180:../USER/main.c ****   while(**buf==' ') (*buf)++; /* spip sp*/
 11727              		.loc 1 180 5 is_stmt 0 view .LVU3975
 11728 1c9c 93F90030 		ldrsb	r3, [r3]
 11729 1ca0 0D2B     		cmp	r3, #13
 11730 1ca2 00F0E581 		beq	.L935
 11731 1ca6 0DA8     		add	r0, sp, #52
 11732              	.LVL846:
 180:../USER/main.c ****   while(**buf==' ') (*buf)++; /* spip sp*/
 11733              		.loc 1 180 5 view .LVU3976
 11734 1ca8 FFF7FEFF 		bl	getsh.part.0
 11735              	.LVL847:
 180:../USER/main.c ****   while(**buf==' ') (*buf)++; /* spip sp*/
 11736              		.loc 1 180 5 view .LVU3977
 11737              	.LBE1757:
 11738              	.LBE1762:
 11739              	.LBB1763:
 11740              	.LBB1764:
 180:../USER/main.c ****   while(**buf==' ') (*buf)++; /* spip sp*/
 11741              		.loc 1 180 6 view .LVU3978
 11742 1cac 0D9B     		ldr	r3, [sp, #52]
 11743              	.LBE1764:
 11744              	.LBE1763:
 11745              	.LBB1769:
 11746              	.LBB1758:
 11747 1cae 0546     		mov	r5, r0
 11748              	.LVL848:
 180:../USER/main.c ****   while(**buf==' ') (*buf)++; /* spip sp*/
 11749              		.loc 1 180 6 view .LVU3979
 11750              	.LBE1758:
 11751              	.LBE1769:
 11752              	.LBB1770:
 11753              	.LBI1763:
 178:../USER/main.c ****   long num = 0; int hd;
 11754              		.loc 1 178 6 is_stmt 1 view .LVU3980
 11755              	.LBB1765:
 179:../USER/main.c ****   if(**buf==0x0d) return -1;
 11756              		.loc 1 179 3 view .LVU3981
 179:../USER/main.c ****   if(**buf==0x0d) return -1;
 11757              		.loc 1 179 17 view .LVU3982
 180:../USER/main.c ****   while(**buf==' ') (*buf)++; /* spip sp*/
 11758              		.loc 1 180 3 view .LVU3983
 180:../USER/main.c ****   while(**buf==' ') (*buf)++; /* spip sp*/
 11759              		.loc 1 180 5 is_stmt 0 view .LVU3984
 11760 1cb0 93F90030 		ldrsb	r3, [r3]
 11761 1cb4 0D2B     		cmp	r3, #13
 11762 1cb6 00F0D881 		beq	.L936
 11763 1cba 0DA8     		add	r0, sp, #52
 11764              	.LVL849:
 180:../USER/main.c ****   while(**buf==' ') (*buf)++; /* spip sp*/
 11765              		.loc 1 180 5 view .LVU3985
 11766 1cbc FFF7FEFF 		bl	getsh.part.0
 11767              	.LVL850:
 180:../USER/main.c ****   while(**buf==' ') (*buf)++; /* spip sp*/
 11768              		.loc 1 180 5 view .LVU3986
 11769 1cc0 0246     		mov	r2, r0
 11770              	.LVL851:
 11771              	.L517:
 180:../USER/main.c ****   while(**buf==' ') (*buf)++; /* spip sp*/
 11772              		.loc 1 180 5 view .LVU3987
 11773              	.LBE1765:
 11774              	.LBE1770:
 233:../USER/main.c **** 			if(*cbp=='P'){
 11775              		.loc 1 233 12 view .LVU3988
 11776 1cc2 2946     		mov	r1, r5
 11777 1cc4 0C23     		movs	r3, #12
 11778 1cc6 2046     		mov	r0, r4
 11779 1cc8 FFF7FEFF 		bl	move_vram
 11780              	.LVL852:
 11781 1ccc 0D9B     		ldr	r3, [sp, #52]
 11782 1cce 93F90010 		ldrsb	r1, [r3]
 11783 1cd2 FEF765BB 		b	.L516
 11784              	.L1222:
 11785 1cd6 00BF     		.align	2
 11786              	.L1221:
 11787 1cd8 04000000 		.word	wddt+4
 11788 1cdc 00000140 		.word	1073807360
 11789              	.LVL853:
 11790              	.L1112:
 227:../USER/main.c **** 			if(*cbp=='F') {
 11791              		.loc 1 227 5 is_stmt 1 view .LVU3989
 227:../USER/main.c **** 			if(*cbp=='F') {
 11792              		.loc 1 227 8 is_stmt 0 view .LVU3990
 11793 1ce0 5A1C     		adds	r2, r3, #1
 11794 1ce2 0D92     		str	r2, [sp, #52]
 227:../USER/main.c **** 			if(*cbp=='F') {
 11795              		.loc 1 227 12 is_stmt 1 view .LVU3991
 11796              	.LVL854:
 11797              	.LBB1771:
 11798              	.LBI1771:
 178:../USER/main.c ****   long num = 0; int hd;
 11799              		.loc 1 178 6 view .LVU3992
 11800              	.LBB1772:
 179:../USER/main.c ****   if(**buf==0x0d) return -1;
 11801              		.loc 1 179 3 view .LVU3993
 179:../USER/main.c ****   if(**buf==0x0d) return -1;
 11802              		.loc 1 179 17 view .LVU3994
 180:../USER/main.c ****   while(**buf==' ') (*buf)++; /* spip sp*/
 11803              		.loc 1 180 3 view .LVU3995
 180:../USER/main.c ****   while(**buf==' ') (*buf)++; /* spip sp*/
 11804              		.loc 1 180 5 is_stmt 0 view .LVU3996
 11805 1ce4 93F90130 		ldrsb	r3, [r3, #1]
 11806 1ce8 0D2B     		cmp	r3, #13
 11807 1cea 00F09A81 		beq	.L925
 11808 1cee 0DA8     		add	r0, sp, #52
 11809              	.LVL855:
 180:../USER/main.c ****   while(**buf==' ') (*buf)++; /* spip sp*/
 11810              		.loc 1 180 5 view .LVU3997
 11811 1cf0 FFF7FEFF 		bl	getsh.part.0
 11812              	.LVL856:
 180:../USER/main.c ****   while(**buf==' ') (*buf)++; /* spip sp*/
 11813              		.loc 1 180 5 view .LVU3998
 11814              	.LBE1772:
 11815              	.LBE1771:
 11816              	.LBB1775:
 11817              	.LBB1776:
 11818 1cf4 0D9B     		ldr	r3, [sp, #52]
 11819              	.LBE1776:
 11820              	.LBE1775:
 11821              	.LBB1784:
 11822              	.LBB1773:
 11823 1cf6 0546     		mov	r5, r0
 11824              	.LVL857:
 180:../USER/main.c ****   while(**buf==' ') (*buf)++; /* spip sp*/
 11825              		.loc 1 180 5 view .LVU3999
 11826              	.LBE1773:
 11827              	.LBE1784:
 11828              	.LBB1785:
 11829              	.LBI1775:
 178:../USER/main.c ****   long num = 0; int hd;
 11830              		.loc 1 178 6 is_stmt 1 view .LVU4000
 11831              	.LBB1777:
 179:../USER/main.c ****   if(**buf==0x0d) return -1;
 11832              		.loc 1 179 3 view .LVU4001
 179:../USER/main.c ****   if(**buf==0x0d) return -1;
 11833              		.loc 1 179 17 view .LVU4002
 180:../USER/main.c ****   while(**buf==' ') (*buf)++; /* spip sp*/
 11834              		.loc 1 180 3 view .LVU4003
 180:../USER/main.c ****   while(**buf==' ') (*buf)++; /* spip sp*/
 11835              		.loc 1 180 5 is_stmt 0 view .LVU4004
 11836 1cf8 93F90030 		ldrsb	r3, [r3]
 11837 1cfc 0D2B     		cmp	r3, #13
 11838 1cfe 00F07281 		beq	.L926
 11839 1d02 0DA8     		add	r0, sp, #52
 11840              	.LVL858:
 180:../USER/main.c ****   while(**buf==' ') (*buf)++; /* spip sp*/
 11841              		.loc 1 180 5 view .LVU4005
 11842 1d04 FFF7FEFF 		bl	getsh.part.0
 11843              	.LVL859:
 180:../USER/main.c ****   while(**buf==' ') (*buf)++; /* spip sp*/
 11844              		.loc 1 180 5 view .LVU4006
 11845              	.LBE1777:
 11846              	.LBE1785:
 11847              	.LBB1786:
 11848              	.LBB1787:
 180:../USER/main.c ****   while(**buf==' ') (*buf)++; /* spip sp*/
 11849              		.loc 1 180 6 view .LVU4007
 11850 1d08 0D9B     		ldr	r3, [sp, #52]
 11851              	.LBE1787:
 11852              	.LBE1786:
 11853              	.LBB1790:
 11854              	.LBB1778:
 11855 1d0a 0446     		mov	r4, r0
 11856              	.LVL860:
 180:../USER/main.c ****   while(**buf==' ') (*buf)++; /* spip sp*/
 11857              		.loc 1 180 6 view .LVU4008
 11858              	.LBE1778:
 11859              	.LBE1790:
 11860              	.LBB1791:
 11861              	.LBI1786:
 178:../USER/main.c ****   long num = 0; int hd;
 11862              		.loc 1 178 6 is_stmt 1 view .LVU4009
 11863              	.LBB1788:
 179:../USER/main.c ****   if(**buf==0x0d) return -1;
 11864              		.loc 1 179 3 view .LVU4010
 179:../USER/main.c ****   if(**buf==0x0d) return -1;
 11865              		.loc 1 179 17 view .LVU4011
 180:../USER/main.c ****   while(**buf==' ') (*buf)++; /* spip sp*/
 11866              		.loc 1 180 3 view .LVU4012
 180:../USER/main.c ****   while(**buf==' ') (*buf)++; /* spip sp*/
 11867              		.loc 1 180 5 is_stmt 0 view .LVU4013
 11868 1d0c 93F90030 		ldrsb	r3, [r3]
 11869 1d10 0D2B     		cmp	r3, #13
 11870 1d12 00F06A81 		beq	.L505
 11871 1d16 0DA8     		add	r0, sp, #52
 11872              	.LVL861:
 180:../USER/main.c ****   while(**buf==' ') (*buf)++; /* spip sp*/
 11873              		.loc 1 180 5 view .LVU4014
 11874 1d18 FFF7FEFF 		bl	getsh.part.0
 11875              	.LVL862:
 180:../USER/main.c ****   while(**buf==' ') (*buf)++; /* spip sp*/
 11876              		.loc 1 180 5 view .LVU4015
 11877              	.LBE1788:
 11878              	.LBE1791:
 11879              	.LBB1792:
 11880              	.LBB1793:
 180:../USER/main.c ****   while(**buf==' ') (*buf)++; /* spip sp*/
 11881              		.loc 1 180 6 view .LVU4016
 11882 1d1c 0D9B     		ldr	r3, [sp, #52]
 11883              	.LBE1793:
 11884              	.LBE1792:
 11885              	.LBB1798:
 11886              	.LBB1789:
 11887 1d1e 0646     		mov	r6, r0
 11888              	.LVL863:
 180:../USER/main.c ****   while(**buf==' ') (*buf)++; /* spip sp*/
 11889              		.loc 1 180 6 view .LVU4017
 11890              	.LBE1789:
 11891              	.LBE1798:
 11892              	.LBB1799:
 11893              	.LBI1792:
 178:../USER/main.c ****   long num = 0; int hd;
 11894              		.loc 1 178 6 is_stmt 1 view .LVU4018
 11895              	.LBB1794:
 179:../USER/main.c ****   if(**buf==0x0d) return -1;
 11896              		.loc 1 179 3 view .LVU4019
 179:../USER/main.c ****   if(**buf==0x0d) return -1;
 11897              		.loc 1 179 17 view .LVU4020
 180:../USER/main.c ****   while(**buf==' ') (*buf)++; /* spip sp*/
 11898              		.loc 1 180 3 view .LVU4021
 180:../USER/main.c ****   while(**buf==' ') (*buf)++; /* spip sp*/
 11899              		.loc 1 180 5 is_stmt 0 view .LVU4022
 11900 1d20 93F90030 		ldrsb	r3, [r3]
 11901 1d24 0D2B     		cmp	r3, #13
 11902 1d26 00F06281 		beq	.L506
 11903 1d2a 0DA8     		add	r0, sp, #52
 11904              	.LVL864:
 180:../USER/main.c ****   while(**buf==' ') (*buf)++; /* spip sp*/
 11905              		.loc 1 180 5 view .LVU4023
 11906 1d2c FFF7FEFF 		bl	getsh.part.0
 11907              	.LVL865:
 180:../USER/main.c ****   while(**buf==' ') (*buf)++; /* spip sp*/
 11908              		.loc 1 180 5 view .LVU4024
 11909              	.LBE1794:
 11910              	.LBE1799:
 11911              	.LBB1800:
 11912              	.LBB1801:
 180:../USER/main.c ****   while(**buf==' ') (*buf)++; /* spip sp*/
 11913              		.loc 1 180 6 view .LVU4025
 11914 1d30 0D9B     		ldr	r3, [sp, #52]
 11915              	.LBE1801:
 11916              	.LBE1800:
 11917              	.LBB1806:
 11918              	.LBB1795:
 11919 1d32 8346     		mov	fp, r0
 11920              	.LVL866:
 180:../USER/main.c ****   while(**buf==' ') (*buf)++; /* spip sp*/
 11921              		.loc 1 180 6 view .LVU4026
 11922              	.LBE1795:
 11923              	.LBE1806:
 11924              	.LBB1807:
 11925              	.LBI1800:
 178:../USER/main.c ****   long num = 0; int hd;
 11926              		.loc 1 178 6 is_stmt 1 view .LVU4027
 11927              	.LBB1802:
 179:../USER/main.c ****   if(**buf==0x0d) return -1;
 11928              		.loc 1 179 3 view .LVU4028
 179:../USER/main.c ****   if(**buf==0x0d) return -1;
 11929              		.loc 1 179 17 view .LVU4029
 180:../USER/main.c ****   while(**buf==' ') (*buf)++; /* spip sp*/
 11930              		.loc 1 180 3 view .LVU4030
 180:../USER/main.c ****   while(**buf==' ') (*buf)++; /* spip sp*/
 11931              		.loc 1 180 5 is_stmt 0 view .LVU4031
 11932 1d34 93F90030 		ldrsb	r3, [r3]
 11933 1d38 0D2B     		cmp	r3, #13
 11934 1d3a 00F0A081 		beq	.L927
 11935 1d3e 0DA8     		add	r0, sp, #52
 11936              	.LVL867:
 180:../USER/main.c ****   while(**buf==' ') (*buf)++; /* spip sp*/
 11937              		.loc 1 180 5 view .LVU4032
 11938 1d40 FFF7FEFF 		bl	getsh.part.0
 11939              	.LVL868:
 11940              	.L507:
 180:../USER/main.c ****   while(**buf==' ') (*buf)++; /* spip sp*/
 11941              		.loc 1 180 5 view .LVU4033
 11942              	.LBE1802:
 11943              	.LBE1807:
 227:../USER/main.c **** 			if(*cbp=='F') {
 11944              		.loc 1 227 12 view .LVU4034
 11945 1d44 0090     		str	r0, [sp]
 11946 1d46 5B46     		mov	r3, fp
 11947 1d48 2146     		mov	r1, r4
 11948 1d4a 3246     		mov	r2, r6
 11949 1d4c 2846     		mov	r0, r5
 11950 1d4e FFF7FEFF 		bl	dispfull
 11951              	.LVL869:
 11952 1d52 0D9B     		ldr	r3, [sp, #52]
 11953 1d54 93F90010 		ldrsb	r1, [r3]
 11954 1d58 FEF719BB 		b	.L504
 11955              	.LVL870:
 11956              	.L1121:
 260:../USER/main.c **** 	    	if(*cbp=='G'){ dt = GPIO_ReadBits(GPIO0); puth4(dt); }
 11957              		.loc 1 260 8 is_stmt 1 view .LVU4035
 260:../USER/main.c **** 	    	if(*cbp=='G'){ dt = GPIO_ReadBits(GPIO0); puth4(dt); }
 11958              		.loc 1 260 11 is_stmt 0 view .LVU4036
 11959 1d5c 531C     		adds	r3, r2, #1
 11960 1d5e 0D93     		str	r3, [sp, #52]
 260:../USER/main.c **** 	    	if(*cbp=='G'){ dt = GPIO_ReadBits(GPIO0); puth4(dt); }
 11961              		.loc 1 260 15 is_stmt 1 view .LVU4037
 11962              	.LVL871:
 11963              	.LBB1808:
 11964              	.LBI1808:
 178:../USER/main.c ****   long num = 0; int hd;
 11965              		.loc 1 178 6 view .LVU4038
 11966              	.LBB1809:
 179:../USER/main.c ****   if(**buf==0x0d) return -1;
 11967              		.loc 1 179 3 view .LVU4039
 179:../USER/main.c ****   if(**buf==0x0d) return -1;
 11968              		.loc 1 179 17 view .LVU4040
 180:../USER/main.c ****   while(**buf==' ') (*buf)++; /* spip sp*/
 11969              		.loc 1 180 3 view .LVU4041
 180:../USER/main.c ****   while(**buf==' ') (*buf)++; /* spip sp*/
 11970              		.loc 1 180 5 is_stmt 0 view .LVU4042
 11971 1d60 92F90130 		ldrsb	r3, [r2, #1]
 11972 1d64 0D2B     		cmp	r3, #13
 11973 1d66 00F05881 		beq	.L952
 11974 1d6a 0DA8     		add	r0, sp, #52
 11975              	.LVL872:
 180:../USER/main.c ****   while(**buf==' ') (*buf)++; /* spip sp*/
 11976              		.loc 1 180 5 view .LVU4043
 11977 1d6c FFF7FEFF 		bl	getsh.part.0
 11978              	.LVL873:
 180:../USER/main.c ****   while(**buf==' ') (*buf)++; /* spip sp*/
 11979              		.loc 1 180 5 view .LVU4044
 11980              	.LBE1809:
 11981              	.LBE1808:
 11982              	.LBB1812:
 11983              	.LBB1813:
 11984 1d70 0D9B     		ldr	r3, [sp, #52]
 11985              	.LBE1813:
 11986              	.LBE1812:
 11987              	.LBB1817:
 11988              	.LBB1810:
 11989 1d72 0446     		mov	r4, r0
 11990              	.LVL874:
 180:../USER/main.c ****   while(**buf==' ') (*buf)++; /* spip sp*/
 11991              		.loc 1 180 5 view .LVU4045
 11992              	.LBE1810:
 11993              	.LBE1817:
 11994              	.LBB1818:
 11995              	.LBI1812:
 178:../USER/main.c ****   long num = 0; int hd;
 11996              		.loc 1 178 6 is_stmt 1 view .LVU4046
 11997              	.LBB1814:
 179:../USER/main.c ****   if(**buf==0x0d) return -1;
 11998              		.loc 1 179 3 view .LVU4047
 179:../USER/main.c ****   if(**buf==0x0d) return -1;
 11999              		.loc 1 179 17 view .LVU4048
 180:../USER/main.c ****   while(**buf==' ') (*buf)++; /* spip sp*/
 12000              		.loc 1 180 3 view .LVU4049
 180:../USER/main.c ****   while(**buf==' ') (*buf)++; /* spip sp*/
 12001              		.loc 1 180 5 is_stmt 0 view .LVU4050
 12002 1d74 93F90030 		ldrsb	r3, [r3]
 12003 1d78 0D2B     		cmp	r3, #13
 12004 1d7a 00F07D81 		beq	.L953
 12005 1d7e 0DA8     		add	r0, sp, #52
 12006              	.LVL875:
 180:../USER/main.c ****   while(**buf==' ') (*buf)++; /* spip sp*/
 12007              		.loc 1 180 5 view .LVU4051
 12008 1d80 FFF7FEFF 		bl	getsh.part.0
 12009              	.LVL876:
 180:../USER/main.c ****   while(**buf==' ') (*buf)++; /* spip sp*/
 12010              		.loc 1 180 5 view .LVU4052
 12011 1d84 0146     		mov	r1, r0
 12012              	.LVL877:
 12013              	.L572:
 180:../USER/main.c ****   while(**buf==' ') (*buf)++; /* spip sp*/
 12014              		.loc 1 180 5 view .LVU4053
 12015              	.LBE1814:
 12016              	.LBE1818:
 260:../USER/main.c **** 	    	if(*cbp=='G'){ dt = GPIO_ReadBits(GPIO0); puth4(dt); }
 12017              		.loc 1 260 20 view .LVU4054
 12018 1d86 2046     		mov	r0, r4
 12019 1d88 FFF7FEFF 		bl	pget
 12020              	.LVL878:
 12021 1d8c 0446     		mov	r4, r0
 12022              	.LVL879:
 260:../USER/main.c **** 	    	if(*cbp=='G'){ dt = GPIO_ReadBits(GPIO0); puth4(dt); }
 12023              		.loc 1 260 61 is_stmt 1 view .LVU4055
 12024              	.LBB1819:
 12025              	.LBI1819:
 152:../USER/main.c **** void puth6(dt) long dt;{ int dh,dl; dh = dt >> 16; dl = dt & 0xffff; puth2(dh); puth4(dl); }
 12026              		.loc 1 152 6 view .LVU4056
 12027              	.LBB1820:
 152:../USER/main.c **** void puth6(dt) long dt;{ int dh,dl; dh = dt >> 16; dl = dt & 0xffff; puth2(dh); puth4(dl); }
 12028              		.loc 1 152 25 view .LVU4057
 12029              	.LBB1821:
 12030              	.LBB1822:
 151:../USER/main.c **** void puth4(dt) int dt;{ puth2((dt >> 8) & 0xff); puth2(dt & 0xff); }
 12031              		.loc 1 151 34 is_stmt 0 view .LVU4058
 12032 1d8e C0F30333 		ubfx	r3, r0, #12, #4
 12033 1d92 D8B2     		uxtb	r0, r3
 12034              	.LVL880:
 12035              	.LBB1823:
 12036              	.LBB1824:
 150:../USER/main.c **** void puth2(dt) int dt;{ puth((dt >> 4) & 0xf); puth(dt & 0xf); }
 12037              		.loc 1 150 26 view .LVU4059
 12038 1d94 092B     		cmp	r3, #9
 150:../USER/main.c **** void puth2(dt) int dt;{ puth((dt >> 4) & 0xf); puth(dt & 0xf); }
 12039              		.loc 1 150 34 view .LVU4060
 12040 1d96 D4BF     		ite	le
 12041 1d98 3030     		addle	r0, r0, #48
 150:../USER/main.c **** void puth2(dt) int dt;{ puth((dt >> 4) & 0xf); puth(dt & 0xf); }
 12042              		.loc 1 150 55 view .LVU4061
 12043 1d9a 3730     		addgt	r0, r0, #55
 12044              	.LBE1824:
 12045              	.LBE1823:
 12046              	.LBE1822:
 12047              	.LBE1821:
 152:../USER/main.c **** void puth6(dt) long dt;{ int dh,dl; dh = dt >> 16; dl = dt & 0xffff; puth2(dh); puth4(dl); }
 12048              		.loc 1 152 35 view .LVU4062
 12049 1d9c 2512     		asrs	r5, r4, #8
 12050              	.LVL881:
 12051              	.LBB1830:
 12052              	.LBI1821:
 151:../USER/main.c **** void puth4(dt) int dt;{ puth2((dt >> 8) & 0xff); puth2(dt & 0xff); }
 12053              		.loc 1 151 6 is_stmt 1 view .LVU4063
 12054              	.LBB1829:
 151:../USER/main.c **** void puth4(dt) int dt;{ puth2((dt >> 8) & 0xff); puth2(dt & 0xff); }
 12055              		.loc 1 151 25 view .LVU4064
 12056              	.LBB1826:
 12057              	.LBI1823:
 150:../USER/main.c **** void puth2(dt) int dt;{ puth((dt >> 4) & 0xf); puth(dt & 0xf); }
 12058              		.loc 1 150 6 view .LVU4065
 12059              	.LBB1825:
 150:../USER/main.c **** void puth2(dt) int dt;{ puth((dt >> 4) & 0xf); puth(dt & 0xf); }
 12060              		.loc 1 150 24 view .LVU4066
 150:../USER/main.c **** void puth2(dt) int dt;{ puth((dt >> 4) & 0xf); puth(dt & 0xf); }
 12061              		.loc 1 150 34 view .LVU4067
 150:../USER/main.c **** void puth2(dt) int dt;{ puth((dt >> 4) & 0xf); puth(dt & 0xf); }
 12062              		.loc 1 150 55 view .LVU4068
 12063 1d9e FFF7FEFF 		bl	putch_uart
 12064              	.LVL882:
 150:../USER/main.c **** void puth2(dt) int dt;{ puth((dt >> 4) & 0xf); puth(dt & 0xf); }
 12065              		.loc 1 150 55 is_stmt 0 view .LVU4069
 12066              	.LBE1825:
 12067              	.LBE1826:
 151:../USER/main.c **** void puth4(dt) int dt;{ puth2((dt >> 8) & 0xff); puth2(dt & 0xff); }
 12068              		.loc 1 151 48 is_stmt 1 view .LVU4070
 12069 1da2 05F00F03 		and	r3, r5, #15
 12070              	.LVL883:
 12071              	.LBB1827:
 12072              	.LBI1827:
 150:../USER/main.c **** void puth2(dt) int dt;{ puth((dt >> 4) & 0xf); puth(dt & 0xf); }
 12073              		.loc 1 150 6 view .LVU4071
 12074              	.LBB1828:
 150:../USER/main.c **** void puth2(dt) int dt;{ puth((dt >> 4) & 0xf); puth(dt & 0xf); }
 12075              		.loc 1 150 24 view .LVU4072
 150:../USER/main.c **** void puth2(dt) int dt;{ puth((dt >> 4) & 0xf); puth(dt & 0xf); }
 12076              		.loc 1 150 34 view .LVU4073
 150:../USER/main.c **** void puth2(dt) int dt;{ puth((dt >> 4) & 0xf); puth(dt & 0xf); }
 12077              		.loc 1 150 55 view .LVU4074
 12078 1da6 D8B2     		uxtb	r0, r3
 150:../USER/main.c **** void puth2(dt) int dt;{ puth((dt >> 4) & 0xf); puth(dt & 0xf); }
 12079              		.loc 1 150 26 is_stmt 0 view .LVU4075
 12080 1da8 092B     		cmp	r3, #9
 150:../USER/main.c **** void puth2(dt) int dt;{ puth((dt >> 4) & 0xf); puth(dt & 0xf); }
 12081              		.loc 1 150 34 view .LVU4076
 12082 1daa D4BF     		ite	le
 12083 1dac 3030     		addle	r0, r0, #48
 150:../USER/main.c **** void puth2(dt) int dt;{ puth((dt >> 4) & 0xf); puth(dt & 0xf); }
 12084              		.loc 1 150 55 view .LVU4077
 12085 1dae 3730     		addgt	r0, r0, #55
 12086 1db0 FFF7FEFF 		bl	putch_uart
 12087              	.LVL884:
 150:../USER/main.c **** void puth2(dt) int dt;{ puth((dt >> 4) & 0xf); puth(dt & 0xf); }
 12088              		.loc 1 150 55 view .LVU4078
 12089              	.LBE1828:
 12090              	.LBE1827:
 12091              	.LBE1829:
 12092              	.LBE1830:
 152:../USER/main.c **** void puth6(dt) long dt;{ int dh,dl; dh = dt >> 16; dl = dt & 0xffff; puth2(dh); puth4(dl); }
 12093              		.loc 1 152 50 is_stmt 1 view .LVU4079
 12094              	.LBB1831:
 12095              	.LBI1831:
 151:../USER/main.c **** void puth4(dt) int dt;{ puth2((dt >> 8) & 0xff); puth2(dt & 0xff); }
 12096              		.loc 1 151 6 view .LVU4080
 12097              	.LBB1832:
 151:../USER/main.c **** void puth4(dt) int dt;{ puth2((dt >> 8) & 0xff); puth2(dt & 0xff); }
 12098              		.loc 1 151 25 view .LVU4081
 151:../USER/main.c **** void puth4(dt) int dt;{ puth2((dt >> 8) & 0xff); puth2(dt & 0xff); }
 12099              		.loc 1 151 34 is_stmt 0 view .LVU4082
 12100 1db4 C4F30313 		ubfx	r3, r4, #4, #4
 12101              	.LVL885:
 12102              	.LBB1833:
 12103              	.LBI1833:
 150:../USER/main.c **** void puth2(dt) int dt;{ puth((dt >> 4) & 0xf); puth(dt & 0xf); }
 12104              		.loc 1 150 6 is_stmt 1 view .LVU4083
 12105              	.LBB1834:
 150:../USER/main.c **** void puth2(dt) int dt;{ puth((dt >> 4) & 0xf); puth(dt & 0xf); }
 12106              		.loc 1 150 24 view .LVU4084
 150:../USER/main.c **** void puth2(dt) int dt;{ puth((dt >> 4) & 0xf); puth(dt & 0xf); }
 12107              		.loc 1 150 34 view .LVU4085
 150:../USER/main.c **** void puth2(dt) int dt;{ puth((dt >> 4) & 0xf); puth(dt & 0xf); }
 12108              		.loc 1 150 55 view .LVU4086
 12109 1db8 D8B2     		uxtb	r0, r3
 150:../USER/main.c **** void puth2(dt) int dt;{ puth((dt >> 4) & 0xf); puth(dt & 0xf); }
 12110              		.loc 1 150 26 is_stmt 0 view .LVU4087
 12111 1dba 092B     		cmp	r3, #9
 150:../USER/main.c **** void puth2(dt) int dt;{ puth((dt >> 4) & 0xf); puth(dt & 0xf); }
 12112              		.loc 1 150 34 view .LVU4088
 12113 1dbc D4BF     		ite	le
 12114 1dbe 3030     		addle	r0, r0, #48
 150:../USER/main.c **** void puth2(dt) int dt;{ puth((dt >> 4) & 0xf); puth(dt & 0xf); }
 12115              		.loc 1 150 55 view .LVU4089
 12116 1dc0 3730     		addgt	r0, r0, #55
 12117              	.LBE1834:
 12118              	.LBE1833:
 151:../USER/main.c **** void puth4(dt) int dt;{ puth2((dt >> 8) & 0xff); puth2(dt & 0xff); }
 12119              		.loc 1 151 48 view .LVU4090
 12120 1dc2 04F00F04 		and	r4, r4, #15
 12121              	.LVL886:
 12122              	.LBB1836:
 12123              	.LBB1835:
 150:../USER/main.c **** void puth2(dt) int dt;{ puth((dt >> 4) & 0xf); puth(dt & 0xf); }
 12124              		.loc 1 150 55 view .LVU4091
 12125 1dc6 FFF7FEFF 		bl	putch_uart
 12126              	.LVL887:
 150:../USER/main.c **** void puth2(dt) int dt;{ puth((dt >> 4) & 0xf); puth(dt & 0xf); }
 12127              		.loc 1 150 55 view .LVU4092
 12128              	.LBE1835:
 12129              	.LBE1836:
 151:../USER/main.c **** void puth4(dt) int dt;{ puth2((dt >> 8) & 0xff); puth2(dt & 0xff); }
 12130              		.loc 1 151 48 is_stmt 1 view .LVU4093
 12131              	.LBB1837:
 12132              	.LBI1837:
 150:../USER/main.c **** void puth2(dt) int dt;{ puth((dt >> 4) & 0xf); puth(dt & 0xf); }
 12133              		.loc 1 150 6 view .LVU4094
 12134              	.LBB1838:
 150:../USER/main.c **** void puth2(dt) int dt;{ puth((dt >> 4) & 0xf); puth(dt & 0xf); }
 12135              		.loc 1 150 24 view .LVU4095
 150:../USER/main.c **** void puth2(dt) int dt;{ puth((dt >> 4) & 0xf); puth(dt & 0xf); }
 12136              		.loc 1 150 34 view .LVU4096
 150:../USER/main.c **** void puth2(dt) int dt;{ puth((dt >> 4) & 0xf); puth(dt & 0xf); }
 12137              		.loc 1 150 55 view .LVU4097
 12138 1dca E0B2     		uxtb	r0, r4
 150:../USER/main.c **** void puth2(dt) int dt;{ puth((dt >> 4) & 0xf); puth(dt & 0xf); }
 12139              		.loc 1 150 26 is_stmt 0 view .LVU4098
 12140 1dcc 092C     		cmp	r4, #9
 150:../USER/main.c **** void puth2(dt) int dt;{ puth((dt >> 4) & 0xf); puth(dt & 0xf); }
 12141              		.loc 1 150 34 view .LVU4099
 12142 1dce D4BF     		ite	le
 12143 1dd0 3030     		addle	r0, r0, #48
 150:../USER/main.c **** void puth2(dt) int dt;{ puth((dt >> 4) & 0xf); puth(dt & 0xf); }
 12144              		.loc 1 150 55 view .LVU4100
 12145 1dd2 3730     		addgt	r0, r0, #55
 12146 1dd4 FFF7FEFF 		bl	putch_uart
 12147              	.LVL888:
 12148 1dd8 0D9B     		ldr	r3, [sp, #52]
 12149 1dda 93F90030 		ldrsb	r3, [r3]
 12150 1dde FEF709BB 		b	.L571
 12151              	.LVL889:
 12152              	.L1111:
 150:../USER/main.c **** void puth2(dt) int dt;{ puth((dt >> 4) & 0xf); puth(dt & 0xf); }
 12153              		.loc 1 150 55 view .LVU4101
 12154              	.LBE1838:
 12155              	.LBE1837:
 12156              	.LBE1832:
 12157              	.LBE1831:
 12158              	.LBE1820:
 12159              	.LBE1819:
 224:../USER/main.c **** 	    	}
 12160              		.loc 1 224 8 is_stmt 1 view .LVU4102
 224:../USER/main.c **** 	    	}
 12161              		.loc 1 224 11 is_stmt 0 view .LVU4103
 12162 1de2 5A1C     		adds	r2, r3, #1
 12163 1de4 0D92     		str	r2, [sp, #52]
 224:../USER/main.c **** 	    	}
 12164              		.loc 1 224 15 is_stmt 1 view .LVU4104
 12165              	.LVL890:
 12166              	.LBB1839:
 12167              	.LBI1839:
 178:../USER/main.c ****   long num = 0; int hd;
 12168              		.loc 1 178 6 view .LVU4105
 12169              	.LBB1840:
 179:../USER/main.c ****   if(**buf==0x0d) return -1;
 12170              		.loc 1 179 3 view .LVU4106
 179:../USER/main.c ****   if(**buf==0x0d) return -1;
 12171              		.loc 1 179 17 view .LVU4107
 180:../USER/main.c ****   while(**buf==' ') (*buf)++; /* spip sp*/
 12172              		.loc 1 180 3 view .LVU4108
 180:../USER/main.c ****   while(**buf==' ') (*buf)++; /* spip sp*/
 12173              		.loc 1 180 5 is_stmt 0 view .LVU4109
 12174 1de6 93F90130 		ldrsb	r3, [r3, #1]
 12175 1dea 0D2B     		cmp	r3, #13
 12176 1dec 00F0E880 		beq	.L922
 12177 1df0 0DA8     		add	r0, sp, #52
 12178              	.LVL891:
 180:../USER/main.c ****   while(**buf==' ') (*buf)++; /* spip sp*/
 12179              		.loc 1 180 5 view .LVU4110
 12180 1df2 FFF7FEFF 		bl	getsh.part.0
 12181              	.LVL892:
 180:../USER/main.c ****   while(**buf==' ') (*buf)++; /* spip sp*/
 12182              		.loc 1 180 5 view .LVU4111
 12183              	.LBE1840:
 12184              	.LBE1839:
 12185              	.LBB1843:
 12186              	.LBB1844:
 12187 1df6 0D9B     		ldr	r3, [sp, #52]
 12188              	.LBE1844:
 12189              	.LBE1843:
 12190              	.LBB1849:
 12191              	.LBB1841:
 12192 1df8 0546     		mov	r5, r0
 12193              	.LVL893:
 180:../USER/main.c ****   while(**buf==' ') (*buf)++; /* spip sp*/
 12194              		.loc 1 180 5 view .LVU4112
 12195              	.LBE1841:
 12196              	.LBE1849:
 12197              	.LBB1850:
 12198              	.LBI1843:
 178:../USER/main.c ****   long num = 0; int hd;
 12199              		.loc 1 178 6 is_stmt 1 view .LVU4113
 12200              	.LBB1845:
 179:../USER/main.c ****   if(**buf==0x0d) return -1;
 12201              		.loc 1 179 3 view .LVU4114
 179:../USER/main.c ****   if(**buf==0x0d) return -1;
 12202              		.loc 1 179 17 view .LVU4115
 180:../USER/main.c ****   while(**buf==' ') (*buf)++; /* spip sp*/
 12203              		.loc 1 180 3 view .LVU4116
 180:../USER/main.c ****   while(**buf==' ') (*buf)++; /* spip sp*/
 12204              		.loc 1 180 5 is_stmt 0 view .LVU4117
 12205 1dfa 93F90030 		ldrsb	r3, [r3]
 12206 1dfe 0D2B     		cmp	r3, #13
 12207 1e00 00F0D480 		beq	.L923
 12208 1e04 0DA8     		add	r0, sp, #52
 12209              	.LVL894:
 180:../USER/main.c ****   while(**buf==' ') (*buf)++; /* spip sp*/
 12210              		.loc 1 180 5 view .LVU4118
 12211 1e06 FFF7FEFF 		bl	getsh.part.0
 12212              	.LVL895:
 180:../USER/main.c ****   while(**buf==' ') (*buf)++; /* spip sp*/
 12213              		.loc 1 180 5 view .LVU4119
 12214              	.LBE1845:
 12215              	.LBE1850:
 12216              	.LBB1851:
 12217              	.LBB1852:
 180:../USER/main.c ****   while(**buf==' ') (*buf)++; /* spip sp*/
 12218              		.loc 1 180 6 view .LVU4120
 12219 1e0a 0D9B     		ldr	r3, [sp, #52]
 12220              	.LBE1852:
 12221              	.LBE1851:
 12222              	.LBB1855:
 12223              	.LBB1846:
 12224 1e0c 0446     		mov	r4, r0
 12225              	.LVL896:
 180:../USER/main.c ****   while(**buf==' ') (*buf)++; /* spip sp*/
 12226              		.loc 1 180 6 view .LVU4121
 12227              	.LBE1846:
 12228              	.LBE1855:
 12229              	.LBB1856:
 12230              	.LBI1851:
 178:../USER/main.c ****   long num = 0; int hd;
 12231              		.loc 1 178 6 is_stmt 1 view .LVU4122
 12232              	.LBB1853:
 179:../USER/main.c ****   if(**buf==0x0d) return -1;
 12233              		.loc 1 179 3 view .LVU4123
 179:../USER/main.c ****   if(**buf==0x0d) return -1;
 12234              		.loc 1 179 17 view .LVU4124
 180:../USER/main.c ****   while(**buf==' ') (*buf)++; /* spip sp*/
 12235              		.loc 1 180 3 view .LVU4125
 180:../USER/main.c ****   while(**buf==' ') (*buf)++; /* spip sp*/
 12236              		.loc 1 180 5 is_stmt 0 view .LVU4126
 12237 1e0e 93F90030 		ldrsb	r3, [r3]
 12238 1e12 0D2B     		cmp	r3, #13
 12239 1e14 00F0CC80 		beq	.L500
 12240 1e18 0DA8     		add	r0, sp, #52
 12241              	.LVL897:
 180:../USER/main.c ****   while(**buf==' ') (*buf)++; /* spip sp*/
 12242              		.loc 1 180 5 view .LVU4127
 12243 1e1a FFF7FEFF 		bl	getsh.part.0
 12244              	.LVL898:
 180:../USER/main.c ****   while(**buf==' ') (*buf)++; /* spip sp*/
 12245              		.loc 1 180 5 view .LVU4128
 12246              	.LBE1853:
 12247              	.LBE1856:
 12248              	.LBB1857:
 12249              	.LBB1858:
 180:../USER/main.c ****   while(**buf==' ') (*buf)++; /* spip sp*/
 12250              		.loc 1 180 6 view .LVU4129
 12251 1e1e 0D9B     		ldr	r3, [sp, #52]
 12252              	.LBE1858:
 12253              	.LBE1857:
 12254              	.LBB1863:
 12255              	.LBB1854:
 12256 1e20 0646     		mov	r6, r0
 12257              	.LVL899:
 180:../USER/main.c ****   while(**buf==' ') (*buf)++; /* spip sp*/
 12258              		.loc 1 180 6 view .LVU4130
 12259              	.LBE1854:
 12260              	.LBE1863:
 12261              	.LBB1864:
 12262              	.LBI1857:
 178:../USER/main.c ****   long num = 0; int hd;
 12263              		.loc 1 178 6 is_stmt 1 view .LVU4131
 12264              	.LBB1859:
 179:../USER/main.c ****   if(**buf==0x0d) return -1;
 12265              		.loc 1 179 3 view .LVU4132
 179:../USER/main.c ****   if(**buf==0x0d) return -1;
 12266              		.loc 1 179 17 view .LVU4133
 180:../USER/main.c ****   while(**buf==' ') (*buf)++; /* spip sp*/
 12267              		.loc 1 180 3 view .LVU4134
 180:../USER/main.c ****   while(**buf==' ') (*buf)++; /* spip sp*/
 12268              		.loc 1 180 5 is_stmt 0 view .LVU4135
 12269 1e22 93F90030 		ldrsb	r3, [r3]
 12270 1e26 0D2B     		cmp	r3, #13
 12271 1e28 00F0C480 		beq	.L501
 12272 1e2c 0DA8     		add	r0, sp, #52
 12273              	.LVL900:
 180:../USER/main.c ****   while(**buf==' ') (*buf)++; /* spip sp*/
 12274              		.loc 1 180 5 view .LVU4136
 12275 1e2e FFF7FEFF 		bl	getsh.part.0
 12276              	.LVL901:
 180:../USER/main.c ****   while(**buf==' ') (*buf)++; /* spip sp*/
 12277              		.loc 1 180 5 view .LVU4137
 12278              	.LBE1859:
 12279              	.LBE1864:
 12280              	.LBB1865:
 12281              	.LBB1866:
 180:../USER/main.c ****   while(**buf==' ') (*buf)++; /* spip sp*/
 12282              		.loc 1 180 6 view .LVU4138
 12283 1e32 0D9B     		ldr	r3, [sp, #52]
 12284              	.LBE1866:
 12285              	.LBE1865:
 12286              	.LBB1870:
 12287              	.LBB1860:
 12288 1e34 8346     		mov	fp, r0
 12289              	.LVL902:
 180:../USER/main.c ****   while(**buf==' ') (*buf)++; /* spip sp*/
 12290              		.loc 1 180 6 view .LVU4139
 12291              	.LBE1860:
 12292              	.LBE1870:
 12293              	.LBB1871:
 12294              	.LBI1865:
 178:../USER/main.c ****   long num = 0; int hd;
 12295              		.loc 1 178 6 is_stmt 1 view .LVU4140
 12296              	.LBB1867:
 179:../USER/main.c ****   if(**buf==0x0d) return -1;
 12297              		.loc 1 179 3 view .LVU4141
 179:../USER/main.c ****   if(**buf==0x0d) return -1;
 12298              		.loc 1 179 17 view .LVU4142
 180:../USER/main.c ****   while(**buf==' ') (*buf)++; /* spip sp*/
 12299              		.loc 1 180 3 view .LVU4143
 180:../USER/main.c ****   while(**buf==' ') (*buf)++; /* spip sp*/
 12300              		.loc 1 180 5 is_stmt 0 view .LVU4144
 12301 1e36 93F90030 		ldrsb	r3, [r3]
 12302 1e3a 0D2B     		cmp	r3, #13
 12303 1e3c 00F0BC80 		beq	.L502
 12304 1e40 0DA8     		add	r0, sp, #52
 12305              	.LVL903:
 180:../USER/main.c ****   while(**buf==' ') (*buf)++; /* spip sp*/
 12306              		.loc 1 180 5 view .LVU4145
 12307 1e42 FFF7FEFF 		bl	getsh.part.0
 12308              	.LVL904:
 180:../USER/main.c ****   while(**buf==' ') (*buf)++; /* spip sp*/
 12309              		.loc 1 180 5 view .LVU4146
 12310              	.LBE1867:
 12311              	.LBE1871:
 12312              	.LBB1872:
 12313              	.LBB1873:
 180:../USER/main.c ****   while(**buf==' ') (*buf)++; /* spip sp*/
 12314              		.loc 1 180 6 view .LVU4147
 12315 1e46 0D9A     		ldr	r2, [sp, #52]
 12316              	.LBE1873:
 12317              	.LBE1872:
 12318              	.LBB1879:
 12319              	.LBB1868:
 12320 1e48 0346     		mov	r3, r0
 12321              	.LVL905:
 180:../USER/main.c ****   while(**buf==' ') (*buf)++; /* spip sp*/
 12322              		.loc 1 180 6 view .LVU4148
 12323              	.LBE1868:
 12324              	.LBE1879:
 12325              	.LBB1880:
 12326              	.LBI1872:
 178:../USER/main.c ****   long num = 0; int hd;
 12327              		.loc 1 178 6 is_stmt 1 view .LVU4149
 12328              	.LBB1874:
 179:../USER/main.c ****   if(**buf==0x0d) return -1;
 12329              		.loc 1 179 3 view .LVU4150
 179:../USER/main.c ****   if(**buf==0x0d) return -1;
 12330              		.loc 1 179 17 view .LVU4151
 180:../USER/main.c ****   while(**buf==' ') (*buf)++; /* spip sp*/
 12331              		.loc 1 180 3 view .LVU4152
 180:../USER/main.c ****   while(**buf==' ') (*buf)++; /* spip sp*/
 12332              		.loc 1 180 5 is_stmt 0 view .LVU4153
 12333 1e4a 92F90020 		ldrsb	r2, [r2]
 12334 1e4e 0D2A     		cmp	r2, #13
 12335 1e50 00F00881 		beq	.L924
 12336 1e54 0390     		str	r0, [sp, #12]
 12337 1e56 0DA8     		add	r0, sp, #52
 12338              	.LVL906:
 180:../USER/main.c ****   while(**buf==' ') (*buf)++; /* spip sp*/
 12339              		.loc 1 180 5 view .LVU4154
 12340 1e58 FFF7FEFF 		bl	getsh.part.0
 12341              	.LVL907:
 180:../USER/main.c ****   while(**buf==' ') (*buf)++; /* spip sp*/
 12342              		.loc 1 180 5 view .LVU4155
 12343 1e5c 039B     		ldr	r3, [sp, #12]
 12344              	.LVL908:
 12345              	.L503:
 180:../USER/main.c ****   while(**buf==' ') (*buf)++; /* spip sp*/
 12346              		.loc 1 180 5 view .LVU4156
 12347              	.LBE1874:
 12348              	.LBE1880:
 224:../USER/main.c **** 	    	}
 12349              		.loc 1 224 15 view .LVU4157
 12350 1e5e CDE90030 		strd	r3, r0, [sp]
 12351 1e62 2146     		mov	r1, r4
 12352 1e64 5B46     		mov	r3, fp
 12353 1e66 3246     		mov	r2, r6
 12354 1e68 2846     		mov	r0, r5
 12355 1e6a FFF7FEFF 		bl	set_vramm
 12356              	.LVL909:
 12357 1e6e 0D9B     		ldr	r3, [sp, #52]
 12358 1e70 93F90010 		ldrsb	r1, [r3]
 12359 1e74 FEF788BA 		b	.L499
 12360              	.LVL910:
 12361              	.L559:
 12362              	.LBB1881:
 12363              	.LBB1626:
 12364              	.LBB1624:
 144:../USER/main.c **** 	}
 12365              		.loc 1 144 3 is_stmt 1 view .LVU4158
 12366 1e78 2020     		movs	r0, #32
 12367 1e7a FFF7FEFF 		bl	SPI_WriteData
 12368              	.LVL911:
 12369              	.L552:
 12370              	.LBB1620:
 12371              	.LBB1621:
 123:../USER/main.c **** 	if(kinbwp>=256) kinbwp = 0;
 12372              		.loc 1 123 11 is_stmt 0 view .LVU4159
 12373 1e7e 4FF04025 		mov	r5, #1073758208
 12374 1e82 18E0     		b	.L565
 12375              	.LVL912:
 12376              	.L1206:
 123:../USER/main.c **** 	if(kinbwp>=256) kinbwp = 0;
 12377              		.loc 1 123 11 view .LVU4160
 12378 1e84 D8F80030 		ldr	r3, [r8]
 12379              	.L561:
 121:../USER/main.c **** 	//
 12380              		.loc 1 121 2 is_stmt 1 view .LVU4161
 121:../USER/main.c **** 	//
 12381              		.loc 1 121 18 view .LVU4162
 121:../USER/main.c **** 	//
 12382              		.loc 1 121 4 is_stmt 0 view .LVU4163
 12383 1e88 FF2B     		cmp	r3, #255
 12384 1e8a 02DD     		ble	.L562
 121:../USER/main.c **** 	//
 12385              		.loc 1 121 25 view .LVU4164
 12386 1e8c 0023     		movs	r3, #0
 12387 1e8e C8F80070 		str	r7, [r8]
 12388              	.L562:
 123:../USER/main.c **** 	if(kinbwp>=256) kinbwp = 0;
 12389              		.loc 1 123 39 is_stmt 1 view .LVU4165
 123:../USER/main.c **** 	if(kinbwp>=256) kinbwp = 0;
 12390              		.loc 1 123 2 view .LVU4166
 123:../USER/main.c **** 	if(kinbwp>=256) kinbwp = 0;
 12391              		.loc 1 123 11 is_stmt 0 view .LVU4167
 12392 1e92 6968     		ldr	r1, [r5, #4]
 123:../USER/main.c **** 	if(kinbwp>=256) kinbwp = 0;
 12393              		.loc 1 123 52 view .LVU4168
 12394 1e94 5A1C     		adds	r2, r3, #1
 123:../USER/main.c **** 	if(kinbwp>=256) kinbwp = 0;
 12395              		.loc 1 123 4 view .LVU4169
 12396 1e96 8807     		lsls	r0, r1, #30
 12397              	.LVL913:
 123:../USER/main.c **** 	if(kinbwp>=256) kinbwp = 0;
 12398              		.loc 1 123 4 view .LVU4170
 12399 1e98 09D5     		bpl	.L564
 124:../USER/main.c **** 	//
 12400              		.loc 1 124 25 view .LVU4171
 12401 1e9a B2F5807F 		cmp	r2, #256
 12402 1e9e 14BF     		ite	ne
 12403 1ea0 1146     		movne	r1, r2
 12404 1ea2 3946     		moveq	r1, r7
 123:../USER/main.c **** 	if(kinbwp>=256) kinbwp = 0;
 12405              		.loc 1 123 63 view .LVU4172
 12406 1ea4 2868     		ldr	r0, [r5]
 124:../USER/main.c **** 	//
 12407              		.loc 1 124 25 view .LVU4173
 12408 1ea6 C8F80010 		str	r1, [r8]
 123:../USER/main.c **** 	if(kinbwp>=256) kinbwp = 0;
 12409              		.loc 1 123 56 view .LVU4174
 12410 1eaa 09F80300 		strb	r0, [r9, r3]
 124:../USER/main.c **** 	//
 12411              		.loc 1 124 2 is_stmt 1 view .LVU4175
 12412              	.L564:
 124:../USER/main.c **** 	//
 12413              		.loc 1 124 2 is_stmt 0 view .LVU4176
 12414              	.LBE1621:
 12415              	.LBE1620:
 147:../USER/main.c **** }
 12416              		.loc 1 147 27 is_stmt 1 view .LVU4177
 147:../USER/main.c **** }
 12417              		.loc 1 147 32 is_stmt 0 view .LVU4178
 12418 1eae 2020     		movs	r0, #32
 12419 1eb0 FFF7FEFF 		bl	disp_vram
 12420              	.LVL914:
 147:../USER/main.c **** }
 12421              		.loc 1 147 2 view .LVU4179
 12422 1eb4 60B1     		cbz	r0, .L1205
 12423              	.LVL915:
 12424              	.L565:
 147:../USER/main.c **** }
 12425              		.loc 1 147 2 is_stmt 1 view .LVU4180
 147:../USER/main.c **** }
 12426              		.loc 1 147 10 view .LVU4181
 147:../USER/main.c **** }
 12427              		.loc 1 147 14 view .LVU4182
 12428              	.LBB1623:
 12429              	.LBI1620:
 116:../USER/main.c **** 	char ch;
 12430              		.loc 1 116 6 view .LVU4183
 12431              	.LBB1622:
 117:../USER/main.c **** 	//
 12432              		.loc 1 117 2 view .LVU4184
 119:../USER/main.c **** 	if(ch!=0) kinbuf[kinbwp++] = ch;
 12433              		.loc 1 119 2 view .LVU4185
 119:../USER/main.c **** 	if(ch!=0) kinbuf[kinbwp++] = ch;
 12434              		.loc 1 119 7 is_stmt 0 view .LVU4186
 12435 1eb6 FFF7FEFF 		bl	SPI_ReadData
 12436              	.LVL916:
 120:../USER/main.c **** 	if(kinbwp>=256) kinbwp = 0;
 12437              		.loc 1 120 12 is_stmt 1 view .LVU4187
 119:../USER/main.c **** 	if(ch!=0) kinbuf[kinbwp++] = ch;
 12438              		.loc 1 119 5 is_stmt 0 view .LVU4188
 12439 1eba 40B2     		sxtb	r0, r0
 12440              	.LVL917:
 120:../USER/main.c **** 	if(kinbwp>=256) kinbwp = 0;
 12441              		.loc 1 120 2 is_stmt 1 view .LVU4189
 120:../USER/main.c **** 	if(kinbwp>=256) kinbwp = 0;
 12442              		.loc 1 120 4 is_stmt 0 view .LVU4190
 12443 1ebc 0028     		cmp	r0, #0
 12444 1ebe E1D0     		beq	.L1206
 120:../USER/main.c **** 	if(kinbwp>=256) kinbwp = 0;
 12445              		.loc 1 120 25 view .LVU4191
 12446 1ec0 D8F80020 		ldr	r2, [r8]
 12447 1ec4 531C     		adds	r3, r2, #1
 120:../USER/main.c **** 	if(kinbwp>=256) kinbwp = 0;
 12448              		.loc 1 120 29 view .LVU4192
 12449 1ec6 09F80200 		strb	r0, [r9, r2]
 120:../USER/main.c **** 	if(kinbwp>=256) kinbwp = 0;
 12450              		.loc 1 120 25 view .LVU4193
 12451 1eca C8F80030 		str	r3, [r8]
 12452 1ece DBE7     		b	.L561
 12453              	.LVL918:
 12454              	.L1205:
 120:../USER/main.c **** 	if(kinbwp>=256) kinbwp = 0;
 12455              		.loc 1 120 25 view .LVU4194
 12456              	.LBE1622:
 12457              	.LBE1623:
 12458              	.LBE1624:
 12459              	.LBE1626:
 257:../USER/main.c **** 	    	}
 12460              		.loc 1 257 42 is_stmt 1 discriminator 3 view .LVU4195
 257:../USER/main.c **** 	    	}
 12461              		.loc 1 257 54 is_stmt 0 discriminator 3 view .LVU4196
 12462 1ed0 14F8015F 		ldrb	r5, [r4, #1]!	@ zero_extendqisi2
 12463              	.LVL919:
 12464              	.LBB1627:
 12465              	.LBI1627:
 151:../USER/main.c **** void puth4(dt) int dt;{ puth2((dt >> 8) & 0xff); puth2(dt & 0xff); }
 12466              		.loc 1 151 6 is_stmt 1 discriminator 3 view .LVU4197
 12467              	.LBB1628:
 151:../USER/main.c **** void puth4(dt) int dt;{ puth2((dt >> 8) & 0xff); puth2(dt & 0xff); }
 12468              		.loc 1 151 25 discriminator 3 view .LVU4198
 151:../USER/main.c **** void puth4(dt) int dt;{ puth2((dt >> 8) & 0xff); puth2(dt & 0xff); }
 12469              		.loc 1 151 34 is_stmt 0 discriminator 3 view .LVU4199
 12470 1ed4 2B11     		asrs	r3, r5, #4
 12471              	.LVL920:
 12472              	.LBB1629:
 12473              	.LBI1629:
 150:../USER/main.c **** void puth2(dt) int dt;{ puth((dt >> 4) & 0xf); puth(dt & 0xf); }
 12474              		.loc 1 150 6 is_stmt 1 discriminator 3 view .LVU4200
 12475              	.LBB1630:
 150:../USER/main.c **** void puth2(dt) int dt;{ puth((dt >> 4) & 0xf); puth(dt & 0xf); }
 12476              		.loc 1 150 24 discriminator 3 view .LVU4201
 150:../USER/main.c **** void puth2(dt) int dt;{ puth((dt >> 4) & 0xf); puth(dt & 0xf); }
 12477              		.loc 1 150 34 discriminator 3 view .LVU4202
 150:../USER/main.c **** void puth2(dt) int dt;{ puth((dt >> 4) & 0xf); puth(dt & 0xf); }
 12478              		.loc 1 150 55 discriminator 3 view .LVU4203
 12479 1ed6 D8B2     		uxtb	r0, r3
 150:../USER/main.c **** void puth2(dt) int dt;{ puth((dt >> 4) & 0xf); puth(dt & 0xf); }
 12480              		.loc 1 150 26 is_stmt 0 discriminator 3 view .LVU4204
 12481 1ed8 092B     		cmp	r3, #9
 150:../USER/main.c **** void puth2(dt) int dt;{ puth((dt >> 4) & 0xf); puth(dt & 0xf); }
 12482              		.loc 1 150 34 discriminator 3 view .LVU4205
 12483 1eda D4BF     		ite	le
 12484 1edc 3030     		addle	r0, r0, #48
 150:../USER/main.c **** void puth2(dt) int dt;{ puth((dt >> 4) & 0xf); puth(dt & 0xf); }
 12485              		.loc 1 150 55 discriminator 3 view .LVU4206
 12486 1ede 3730     		addgt	r0, r0, #55
 12487 1ee0 FFF7FEFF 		bl	putch_uart
 12488              	.LVL921:
 150:../USER/main.c **** void puth2(dt) int dt;{ puth((dt >> 4) & 0xf); puth(dt & 0xf); }
 12489              		.loc 1 150 55 discriminator 3 view .LVU4207
 12490              	.LBE1630:
 12491              	.LBE1629:
 151:../USER/main.c **** void puth4(dt) int dt;{ puth2((dt >> 8) & 0xff); puth2(dt & 0xff); }
 12492              		.loc 1 151 48 is_stmt 1 discriminator 3 view .LVU4208
 12493 1ee4 05F00F00 		and	r0, r5, #15
 12494              	.LVL922:
 12495              	.LBB1631:
 12496              	.LBI1631:
 150:../USER/main.c **** void puth2(dt) int dt;{ puth((dt >> 4) & 0xf); puth(dt & 0xf); }
 12497              		.loc 1 150 6 discriminator 3 view .LVU4209
 12498              	.LBB1632:
 150:../USER/main.c **** void puth2(dt) int dt;{ puth((dt >> 4) & 0xf); puth(dt & 0xf); }
 12499              		.loc 1 150 24 discriminator 3 view .LVU4210
 150:../USER/main.c **** void puth2(dt) int dt;{ puth((dt >> 4) & 0xf); puth(dt & 0xf); }
 12500              		.loc 1 150 34 discriminator 3 view .LVU4211
 150:../USER/main.c **** void puth2(dt) int dt;{ puth((dt >> 4) & 0xf); puth(dt & 0xf); }
 12501              		.loc 1 150 55 discriminator 3 view .LVU4212
 150:../USER/main.c **** void puth2(dt) int dt;{ puth((dt >> 4) & 0xf); puth(dt & 0xf); }
 12502              		.loc 1 150 26 is_stmt 0 discriminator 3 view .LVU4213
 12503 1ee8 0928     		cmp	r0, #9
 150:../USER/main.c **** void puth2(dt) int dt;{ puth((dt >> 4) & 0xf); puth(dt & 0xf); }
 12504              		.loc 1 150 34 discriminator 3 view .LVU4214
 12505 1eea 94BF     		ite	ls
 12506 1eec 3030     		addls	r0, r0, #48
 12507              	.LVL923:
 150:../USER/main.c **** void puth2(dt) int dt;{ puth((dt >> 4) & 0xf); puth(dt & 0xf); }
 12508              		.loc 1 150 55 discriminator 3 view .LVU4215
 12509 1eee 3730     		addhi	r0, r0, #55
 12510 1ef0 FFF7FEFF 		bl	putch_uart
 12511              	.LVL924:
 150:../USER/main.c **** void puth2(dt) int dt;{ puth((dt >> 4) & 0xf); puth(dt & 0xf); }
 12512              		.loc 1 150 55 discriminator 3 view .LVU4216
 12513              	.LBE1632:
 12514              	.LBE1631:
 12515              	.LBE1628:
 12516              	.LBE1627:
 257:../USER/main.c **** 	    	}
 12517              		.loc 1 257 8 discriminator 3 view .LVU4217
 12518 1ef4 0DF1D703 		add	r3, sp, #215
 12519 1ef8 A342     		cmp	r3, r4
 12520 1efa 7FF460AD 		bne	.L570
 12521 1efe 0D9A     		ldr	r2, [sp, #52]
 12522 1f00 92F90030 		ldrsb	r3, [r2]
 12523 1f04 FEF773BA 		b	.L549
 12524              	.LVL925:
 12525              	.L1202:
 12526              	.LBB1633:
 12527              	.LBB1625:
 137:../USER/main.c **** 	else {
 12528              		.loc 1 137 3 is_stmt 1 view .LVU4218
 12529 1f08 2021     		movs	r1, #32
 12530 1f0a 4FF04020 		mov	r0, #1073758208
 12531 1f0e FFF7FEFF 		bl	UART_SendChar
 12532              	.LVL926:
 12533 1f12 B4E7     		b	.L552
 12534              	.LVL927:
 12535              	.L1110:
 137:../USER/main.c **** 	else {
 12536              		.loc 1 137 3 is_stmt 0 view .LVU4219
 12537              	.LBE1625:
 12538              	.LBE1633:
 12539              	.LBE1881:
 218:../USER/main.c **** 	    		while(dt!=-1){
 12540              		.loc 1 218 8 is_stmt 1 view .LVU4220
 12541              	.LBB1882:
 12542              	.LBB1883:
 180:../USER/main.c ****   while(**buf==' ') (*buf)++; /* spip sp*/
 12543              		.loc 1 180 6 is_stmt 0 view .LVU4221
 12544 1f14 9DF99A10 		ldrsb	r1, [sp, #154]
 12545              	.LBE1883:
 12546              	.LBE1882:
 218:../USER/main.c **** 	    		while(dt!=-1){
 12547              		.loc 1 218 11 view .LVU4222
 12548 1f18 0DF19A03 		add	r3, sp, #154
 12549              	.LVL928:
 12550              	.LBB1898:
 12551              	.LBB1894:
 180:../USER/main.c ****   while(**buf==' ') (*buf)++; /* spip sp*/
 12552              		.loc 1 180 5 view .LVU4223
 12553 1f1c 0D29     		cmp	r1, #13
 12554              	.LBE1894:
 12555              	.LBE1898:
 218:../USER/main.c **** 	    		while(dt!=-1){
 12556              		.loc 1 218 11 view .LVU4224
 12557 1f1e 0D93     		str	r3, [sp, #52]
 218:../USER/main.c **** 	    		while(dt!=-1){
 12558              		.loc 1 218 15 is_stmt 1 view .LVU4225
 12559              	.LVL929:
 219:../USER/main.c **** 	    			dt = getsh(cbpp); if(dt!=-1) SPI_WriteData(dt);
 12560              		.loc 1 219 8 view .LVU4226
 220:../USER/main.c **** 	    		}
 12561              		.loc 1 220 9 view .LVU4227
 12562              	.LBB1899:
 12563              	.LBI1882:
 178:../USER/main.c ****   long num = 0; int hd;
 12564              		.loc 1 178 6 view .LVU4228
 12565              	.LBB1895:
 179:../USER/main.c ****   if(**buf==0x0d) return -1;
 12566              		.loc 1 179 3 view .LVU4229
 179:../USER/main.c ****   if(**buf==0x0d) return -1;
 12567              		.loc 1 179 17 view .LVU4230
 180:../USER/main.c ****   while(**buf==' ') (*buf)++; /* spip sp*/
 12568              		.loc 1 180 3 view .LVU4231
 180:../USER/main.c ****   while(**buf==' ') (*buf)++; /* spip sp*/
 12569              		.loc 1 180 5 is_stmt 0 view .LVU4232
 12570 1f20 05D1     		bne	.L1095
 12571 1f22 FEF78CB8 		b	.L279
 12572              	.LVL930:
 12573              	.L1207:
 12574              	.LBB1884:
 12575              	.LBB1885:
 181:../USER/main.c ****   while( (hd=ishex(**buf)) != -1){ num = num * 16 + hd; (*buf)++; }
 12576              		.loc 1 181 21 is_stmt 1 view .LVU4233
 181:../USER/main.c ****   while( (hd=ishex(**buf)) != -1){ num = num * 16 + hd; (*buf)++; }
 12577              		.loc 1 181 27 is_stmt 0 view .LVU4234
 12578 1f26 0133     		adds	r3, r3, #1
 12579 1f28 0D93     		str	r3, [sp, #52]
 181:../USER/main.c ****   while( (hd=ishex(**buf)) != -1){ num = num * 16 + hd; (*buf)++; }
 12580              		.loc 1 181 9 view .LVU4235
 12581 1f2a 93F90010 		ldrsb	r1, [r3]
 12582              	.L1095:
 181:../USER/main.c ****   while( (hd=ishex(**buf)) != -1){ num = num * 16 + hd; (*buf)++; }
 12583              		.loc 1 181 8 view .LVU4236
 12584 1f2e 2029     		cmp	r1, #32
 179:../USER/main.c ****   if(**buf==0x0d) return -1;
 12585              		.loc 1 179 8 view .LVU4237
 12586 1f30 18BF     		it	ne
 12587 1f32 0020     		movne	r0, #0
 181:../USER/main.c ****   while( (hd=ishex(**buf)) != -1){ num = num * 16 + hd; (*buf)++; }
 12588              		.loc 1 181 8 view .LVU4238
 12589 1f34 F7D0     		beq	.L1207
 12590              	.LVL931:
 12591              	.LBB1886:
 12592              	.LBI1886:
 168:../USER/main.c ****   int hd;
 12593              		.loc 1 168 5 is_stmt 1 view .LVU4239
 12594              	.LBB1887:
 169:../USER/main.c ****   if(ch>='0' && ch<='9') hd = ch - 0x30;
 12595              		.loc 1 169 3 view .LVU4240
 170:../USER/main.c ****   else if(ch>='A' && ch<='F') hd = ch - 0x37;
 12596              		.loc 1 170 3 view .LVU4241
 170:../USER/main.c ****   else if(ch>='A' && ch<='F') hd = ch - 0x37;
 12597              		.loc 1 170 26 view .LVU4242
 171:../USER/main.c ****   else hd = -1;
 12598              		.loc 1 171 8 view .LVU4243
 171:../USER/main.c ****   else hd = -1;
 12599              		.loc 1 171 31 view .LVU4244
 170:../USER/main.c ****   else if(ch>='A' && ch<='F') hd = ch - 0x37;
 12600              		.loc 1 170 14 is_stmt 0 view .LVU4245
 12601 1f36 CAB2     		uxtb	r2, r1
 170:../USER/main.c ****   else if(ch>='A' && ch<='F') hd = ch - 0x37;
 12602              		.loc 1 170 5 view .LVU4246
 12603 1f38 A2F13004 		sub	r4, r2, #48
 12604 1f3c 092C     		cmp	r4, #9
 171:../USER/main.c ****   else hd = -1;
 12605              		.loc 1 171 10 view .LVU4247
 12606 1f3e A2F14102 		sub	r2, r2, #65
 170:../USER/main.c ****   else if(ch>='A' && ch<='F') hd = ch - 0x37;
 12607              		.loc 1 170 5 view .LVU4248
 12608 1f42 10D8     		bhi	.L493
 12609              	.L1208:
 170:../USER/main.c ****   else if(ch>='A' && ch<='F') hd = ch - 0x37;
 12610              		.loc 1 170 29 view .LVU4249
 12611 1f44 A1F13002 		sub	r2, r1, #48
 12612              	.LVL932:
 170:../USER/main.c ****   else if(ch>='A' && ch<='F') hd = ch - 0x37;
 12613              		.loc 1 170 29 view .LVU4250
 12614              	.LBE1887:
 12615              	.LBE1886:
 182:../USER/main.c ****   return num;
 12616              		.loc 1 182 36 is_stmt 1 view .LVU4251
 12617              	.LBB1891:
 12618              	.LBB1888:
 173:../USER/main.c **** }
 12619              		.loc 1 173 3 view .LVU4252
 173:../USER/main.c **** }
 12620              		.loc 1 173 3 is_stmt 0 view .LVU4253
 12621              	.LBE1888:
 12622              	.LBE1891:
 182:../USER/main.c ****   return num;
 12623              		.loc 1 182 8 view .LVU4254
 12624 1f48 561C     		adds	r6, r2, #1
 12625 1f4a 12D0     		beq	.L495
 12626              	.LVL933:
 12627              	.L496:
 182:../USER/main.c ****   return num;
 12628              		.loc 1 182 63 view .LVU4255
 12629 1f4c 0133     		adds	r3, r3, #1
 12630 1f4e 0D93     		str	r3, [sp, #52]
 12631 1f50 93F90010 		ldrsb	r1, [r3]
 182:../USER/main.c ****   return num;
 12632              		.loc 1 182 40 view .LVU4256
 12633 1f54 02EB0010 		add	r0, r2, r0, lsl #4
 182:../USER/main.c ****   return num;
 12634              		.loc 1 182 57 is_stmt 1 view .LVU4257
 12635              	.LVL934:
 12636              	.LBB1892:
 168:../USER/main.c ****   int hd;
 12637              		.loc 1 168 5 view .LVU4258
 12638              	.LBB1889:
 169:../USER/main.c ****   if(ch>='0' && ch<='9') hd = ch - 0x30;
 12639              		.loc 1 169 3 view .LVU4259
 170:../USER/main.c ****   else if(ch>='A' && ch<='F') hd = ch - 0x37;
 12640              		.loc 1 170 3 view .LVU4260
 170:../USER/main.c ****   else if(ch>='A' && ch<='F') hd = ch - 0x37;
 12641              		.loc 1 170 26 view .LVU4261
 171:../USER/main.c ****   else hd = -1;
 12642              		.loc 1 171 8 view .LVU4262
 171:../USER/main.c ****   else hd = -1;
 12643              		.loc 1 171 31 view .LVU4263
 170:../USER/main.c ****   else if(ch>='A' && ch<='F') hd = ch - 0x37;
 12644              		.loc 1 170 14 is_stmt 0 view .LVU4264
 12645 1f58 CAB2     		uxtb	r2, r1
 12646              	.LVL935:
 170:../USER/main.c ****   else if(ch>='A' && ch<='F') hd = ch - 0x37;
 12647              		.loc 1 170 5 view .LVU4265
 12648 1f5a A2F13004 		sub	r4, r2, #48
 12649 1f5e 092C     		cmp	r4, #9
 171:../USER/main.c ****   else hd = -1;
 12650              		.loc 1 171 10 view .LVU4266
 12651 1f60 A2F14102 		sub	r2, r2, #65
 170:../USER/main.c ****   else if(ch>='A' && ch<='F') hd = ch - 0x37;
 12652              		.loc 1 170 5 view .LVU4267
 12653 1f64 EED9     		bls	.L1208
 12654              	.LVL936:
 12655              	.L493:
 171:../USER/main.c ****   else hd = -1;
 12656              		.loc 1 171 10 view .LVU4268
 12657 1f66 052A     		cmp	r2, #5
 12658 1f68 03D8     		bhi	.L495
 171:../USER/main.c ****   else hd = -1;
 12659              		.loc 1 171 34 view .LVU4269
 12660 1f6a A1F13702 		sub	r2, r1, #55
 12661              	.LVL937:
 171:../USER/main.c ****   else hd = -1;
 12662              		.loc 1 171 34 view .LVU4270
 12663              	.LBE1889:
 12664              	.LBE1892:
 182:../USER/main.c ****   return num;
 12665              		.loc 1 182 36 is_stmt 1 view .LVU4271
 12666              	.LBB1893:
 12667              	.LBB1890:
 173:../USER/main.c **** }
 12668              		.loc 1 173 3 view .LVU4272
 173:../USER/main.c **** }
 12669              		.loc 1 173 3 is_stmt 0 view .LVU4273
 12670              	.LBE1890:
 12671              	.LBE1893:
 182:../USER/main.c ****   return num;
 12672              		.loc 1 182 8 view .LVU4274
 12673 1f6e 561C     		adds	r6, r2, #1
 12674 1f70 ECD1     		bne	.L496
 12675              	.LVL938:
 12676              	.L495:
 182:../USER/main.c ****   return num;
 12677              		.loc 1 182 8 view .LVU4275
 12678              	.LBE1885:
 12679              	.LBE1884:
 12680              	.LBE1895:
 12681              	.LBE1899:
 220:../USER/main.c **** 	    		}
 12682              		.loc 1 220 27 is_stmt 1 view .LVU4276
 220:../USER/main.c **** 	    		}
 12683              		.loc 1 220 29 is_stmt 0 view .LVU4277
 12684 1f72 451C     		adds	r5, r0, #1
 12685 1f74 3EF405AA 		beq	.L488
 220:../USER/main.c **** 	    		}
 12686              		.loc 1 220 38 is_stmt 1 discriminator 1 view .LVU4278
 12687 1f78 C0B2     		uxtb	r0, r0
 12688 1f7a FFF7FEFF 		bl	SPI_WriteData
 12689              	.LVL939:
 220:../USER/main.c **** 	    		}
 12690              		.loc 1 220 38 is_stmt 0 discriminator 1 view .LVU4279
 12691 1f7e 0D9B     		ldr	r3, [sp, #52]
 12692              	.LVL940:
 220:../USER/main.c **** 	    		}
 12693              		.loc 1 220 9 is_stmt 1 discriminator 1 view .LVU4280
 12694              	.LBB1900:
 178:../USER/main.c ****   long num = 0; int hd;
 12695              		.loc 1 178 6 discriminator 1 view .LVU4281
 12696              	.LBB1896:
 179:../USER/main.c ****   if(**buf==0x0d) return -1;
 12697              		.loc 1 179 3 discriminator 1 view .LVU4282
 179:../USER/main.c ****   if(**buf==0x0d) return -1;
 12698              		.loc 1 179 17 discriminator 1 view .LVU4283
 180:../USER/main.c ****   while(**buf==' ') (*buf)++; /* spip sp*/
 12699              		.loc 1 180 3 discriminator 1 view .LVU4284
 180:../USER/main.c ****   while(**buf==' ') (*buf)++; /* spip sp*/
 12700              		.loc 1 180 6 is_stmt 0 discriminator 1 view .LVU4285
 12701 1f80 93F90010 		ldrsb	r1, [r3]
 180:../USER/main.c ****   while(**buf==' ') (*buf)++; /* spip sp*/
 12702              		.loc 1 180 5 discriminator 1 view .LVU4286
 12703 1f84 0D29     		cmp	r1, #13
 12704 1f86 D2D1     		bne	.L1095
 12705 1f88 FEF759B8 		b	.L279
 12706              	.LVL941:
 12707              	.L784:
 180:../USER/main.c ****   while(**buf==' ') (*buf)++; /* spip sp*/
 12708              		.loc 1 180 5 discriminator 1 view .LVU4287
 12709              	.LBE1896:
 12710              	.LBE1900:
 271:../USER/main.c **** 	          dt = getsh(cbpp); cmd = *cbp;
 12711              		.loc 1 271 26 is_stmt 1 view .LVU4288
 271:../USER/main.c **** 	          dt = getsh(cbpp); cmd = *cbp;
 12712              		.loc 1 271 30 is_stmt 0 view .LVU4289
 12713 1f8c 26AB     		add	r3, sp, #152
 12714 1f8e 0D93     		str	r3, [sp, #52]
 272:../USER/main.c **** 	          if(cmd==0x0d && dt>=0){
 12715              		.loc 1 272 12 is_stmt 1 view .LVU4290
 12716              	.LVL942:
 12717              	.LBB1901:
 178:../USER/main.c ****   long num = 0; int hd;
 12718              		.loc 1 178 6 view .LVU4291
 12719              	.LBB1583:
 179:../USER/main.c ****   if(**buf==0x0d) return -1;
 12720              		.loc 1 179 3 view .LVU4292
 179:../USER/main.c ****   if(**buf==0x0d) return -1;
 12721              		.loc 1 179 17 view .LVU4293
 180:../USER/main.c ****   while(**buf==' ') (*buf)++; /* spip sp*/
 12722              		.loc 1 180 3 view .LVU4294
 12723              	.LBE1583:
 12724              	.LBE1901:
 12725              		.loc 1 289 29 is_stmt 0 view .LVU4295
 12726 1f90 049B     		ldr	r3, [sp, #16]
 12727 1f92 9B44     		add	fp, fp, r3
 12728 1f94 FEF7B9BA 		b	.L1096
 12729              	.LVL943:
 12730              	.L940:
 12731              	.LBB1902:
 12732              	.LBB1669:
 180:../USER/main.c ****   while(**buf==' ') (*buf)++; /* spip sp*/
 12733              		.loc 1 180 26 view .LVU4296
 12734 1f98 4FF0FF34 		mov	r4, #-1
 12735              	.LBE1669:
 12736              	.LBE1902:
 12737              	.LBB1903:
 12738              	.LBB1674:
 12739 1f9c 2546     		mov	r5, r4
 12740              	.LBE1674:
 12741              	.LBE1903:
 12742              	.LBB1904:
 12743              	.LBB1681:
 12744 1f9e 2246     		mov	r2, r4
 12745 1fa0 C6E5     		b	.L521
 12746              	.LVL944:
 12747              	.L928:
 180:../USER/main.c ****   while(**buf==' ') (*buf)++; /* spip sp*/
 12748              		.loc 1 180 26 view .LVU4297
 12749              	.LBE1681:
 12750              	.LBE1904:
 12751              	.LBB1905:
 12752              	.LBB1712:
 12753 1fa2 4FF0FF34 		mov	r4, #-1
 12754              	.LBE1712:
 12755              	.LBE1905:
 12756              	.LBB1906:
 12757              	.LBB1717:
 12758 1fa6 2546     		mov	r5, r4
 12759              	.LBE1717:
 12760              	.LBE1906:
 12761              	.LBB1907:
 12762              	.LBB1724:
 12763 1fa8 2246     		mov	r2, r4
 12764 1faa 1FE6     		b	.L510
 12765              	.LVL945:
 12766              	.L923:
 180:../USER/main.c ****   while(**buf==' ') (*buf)++; /* spip sp*/
 12767              		.loc 1 180 26 view .LVU4298
 12768              	.LBE1724:
 12769              	.LBE1907:
 12770              	.LBB1908:
 12771              	.LBB1847:
 12772 1fac 4FF0FF34 		mov	r4, #-1
 12773              	.LVL946:
 12774              	.L500:
 180:../USER/main.c ****   while(**buf==' ') (*buf)++; /* spip sp*/
 12775              		.loc 1 180 26 view .LVU4299
 12776              	.LBE1847:
 12777              	.LBE1908:
 12778              	.LBB1909:
 178:../USER/main.c ****   long num = 0; int hd;
 12779              		.loc 1 178 6 is_stmt 1 view .LVU4300
 12780              	.LBB1861:
 179:../USER/main.c ****   if(**buf==0x0d) return -1;
 12781              		.loc 1 179 3 view .LVU4301
 179:../USER/main.c ****   if(**buf==0x0d) return -1;
 12782              		.loc 1 179 17 view .LVU4302
 180:../USER/main.c ****   while(**buf==' ') (*buf)++; /* spip sp*/
 12783              		.loc 1 180 3 view .LVU4303
 12784              	.LBE1861:
 12785              	.LBE1909:
 12786              	.LBB1910:
 12787              	.LBB1779:
 180:../USER/main.c ****   while(**buf==' ') (*buf)++; /* spip sp*/
 12788              		.loc 1 180 26 is_stmt 0 view .LVU4304
 12789 1fb0 4FF0FF36 		mov	r6, #-1
 12790              	.LVL947:
 12791              	.L501:
 180:../USER/main.c ****   while(**buf==' ') (*buf)++; /* spip sp*/
 12792              		.loc 1 180 26 view .LVU4305
 12793              	.LBE1779:
 12794              	.LBE1910:
 12795              	.LBB1911:
 178:../USER/main.c ****   long num = 0; int hd;
 12796              		.loc 1 178 6 is_stmt 1 view .LVU4306
 12797              	.LBB1869:
 179:../USER/main.c ****   if(**buf==0x0d) return -1;
 12798              		.loc 1 179 3 view .LVU4307
 179:../USER/main.c ****   if(**buf==0x0d) return -1;
 12799              		.loc 1 179 17 view .LVU4308
 180:../USER/main.c ****   while(**buf==' ') (*buf)++; /* spip sp*/
 12800              		.loc 1 180 3 view .LVU4309
 12801              	.LBE1869:
 12802              	.LBE1911:
 12803              	.LBB1912:
 12804              	.LBB1780:
 180:../USER/main.c ****   while(**buf==' ') (*buf)++; /* spip sp*/
 12805              		.loc 1 180 26 is_stmt 0 view .LVU4310
 12806 1fb4 4FF0FF3B 		mov	fp, #-1
 12807              	.L502:
 12808              	.LVL948:
 180:../USER/main.c ****   while(**buf==' ') (*buf)++; /* spip sp*/
 12809              		.loc 1 180 26 view .LVU4311
 12810              	.LBE1780:
 12811              	.LBE1912:
 12812              	.LBB1913:
 178:../USER/main.c ****   long num = 0; int hd;
 12813              		.loc 1 178 6 is_stmt 1 view .LVU4312
 12814              	.LBB1875:
 179:../USER/main.c ****   if(**buf==0x0d) return -1;
 12815              		.loc 1 179 3 view .LVU4313
 179:../USER/main.c ****   if(**buf==0x0d) return -1;
 12816              		.loc 1 179 17 view .LVU4314
 180:../USER/main.c ****   while(**buf==' ') (*buf)++; /* spip sp*/
 12817              		.loc 1 180 3 view .LVU4315
 12818              	.LBE1875:
 12819              	.LBE1913:
 12820 1fb8 4FF0FF33 		mov	r3, #-1
 12821              	.LBB1914:
 12822              	.LBB1876:
 180:../USER/main.c ****   while(**buf==' ') (*buf)++; /* spip sp*/
 12823              		.loc 1 180 26 is_stmt 0 view .LVU4316
 12824 1fbc 1846     		mov	r0, r3
 12825 1fbe 4EE7     		b	.L503
 12826              	.LVL949:
 12827              	.L922:
 180:../USER/main.c ****   while(**buf==' ') (*buf)++; /* spip sp*/
 12828              		.loc 1 180 26 view .LVU4317
 12829              	.LBE1876:
 12830              	.LBE1914:
 12831              	.LBB1915:
 12832              	.LBB1842:
 12833 1fc0 4FF0FF35 		mov	r5, #-1
 12834              	.LBE1842:
 12835              	.LBE1915:
 12836              	.LBB1916:
 12837              	.LBB1781:
 12838 1fc4 4FF0FF36 		mov	r6, #-1
 12839              	.LBE1781:
 12840              	.LBE1916:
 12841              	.LBB1917:
 12842              	.LBB1848:
 12843 1fc8 2C46     		mov	r4, r5
 12844              	.LVL950:
 180:../USER/main.c ****   while(**buf==' ') (*buf)++; /* spip sp*/
 12845              		.loc 1 180 26 view .LVU4318
 12846              	.LBE1848:
 12847              	.LBE1917:
 12848              	.LBB1918:
 178:../USER/main.c ****   long num = 0; int hd;
 12849              		.loc 1 178 6 is_stmt 1 view .LVU4319
 12850              	.LBB1862:
 179:../USER/main.c ****   if(**buf==0x0d) return -1;
 12851              		.loc 1 179 3 view .LVU4320
 179:../USER/main.c ****   if(**buf==0x0d) return -1;
 12852              		.loc 1 179 17 view .LVU4321
 180:../USER/main.c ****   while(**buf==' ') (*buf)++; /* spip sp*/
 12853              		.loc 1 180 3 view .LVU4322
 12854 1fca F3E7     		b	.L501
 12855              	.LVL951:
 12856              	.L934:
 180:../USER/main.c ****   while(**buf==' ') (*buf)++; /* spip sp*/
 12857              		.loc 1 180 3 is_stmt 0 view .LVU4323
 12858              	.LBE1862:
 12859              	.LBE1918:
 12860              	.LBB1919:
 12861              	.LBB1754:
 180:../USER/main.c ****   while(**buf==' ') (*buf)++; /* spip sp*/
 12862              		.loc 1 180 26 view .LVU4324
 12863 1fcc 4FF0FF34 		mov	r4, #-1
 12864              	.LBE1754:
 12865              	.LBE1919:
 12866              	.LBB1920:
 12867              	.LBB1759:
 12868 1fd0 2546     		mov	r5, r4
 12869              	.LBE1759:
 12870              	.LBE1920:
 12871              	.LBB1921:
 12872              	.LBB1766:
 12873 1fd2 2246     		mov	r2, r4
 12874 1fd4 75E6     		b	.L517
 12875              	.LVL952:
 12876              	.L919:
 180:../USER/main.c ****   while(**buf==' ') (*buf)++; /* spip sp*/
 12877              		.loc 1 180 26 view .LVU4325
 12878              	.LBE1766:
 12879              	.LBE1921:
 209:../USER/main.c **** 	        for(i=0; i<8; i++){
 12880              		.loc 1 209 26 view .LVU4326
 12881 1fd6 0B98     		ldr	r0, [sp, #44]
 12882 1fd8 FEF7F2BA 		b	.L354
 12883              	.LVL953:
 12884              	.L937:
 12885              	.LBB1922:
 12886              	.LBB1691:
 180:../USER/main.c ****   while(**buf==' ') (*buf)++; /* spip sp*/
 12887              		.loc 1 180 26 view .LVU4327
 12888 1fdc 4FF0FF34 		mov	r4, #-1
 12889              	.LBE1691:
 12890              	.LBE1922:
 12891              	.LBB1923:
 12892              	.LBB1696:
 12893 1fe0 2546     		mov	r5, r4
 12894              	.LBE1696:
 12895              	.LBE1923:
 12896              	.LBB1924:
 12897              	.LBB1703:
 12898 1fe2 2246     		mov	r2, r4
 12899 1fe4 CCE5     		b	.L519
 12900              	.LVL954:
 12901              	.L926:
 180:../USER/main.c ****   while(**buf==' ') (*buf)++; /* spip sp*/
 12902              		.loc 1 180 26 view .LVU4328
 12903              	.LBE1703:
 12904              	.LBE1924:
 12905              	.LBB1925:
 12906              	.LBB1782:
 12907 1fe6 4FF0FF34 		mov	r4, #-1
 12908              	.LVL955:
 12909              	.L505:
 180:../USER/main.c ****   while(**buf==' ') (*buf)++; /* spip sp*/
 12910              		.loc 1 180 26 view .LVU4329
 12911              	.LBE1782:
 12912              	.LBE1925:
 12913              	.LBB1926:
 178:../USER/main.c ****   long num = 0; int hd;
 12914              		.loc 1 178 6 is_stmt 1 view .LVU4330
 12915              	.LBB1796:
 179:../USER/main.c ****   if(**buf==0x0d) return -1;
 12916              		.loc 1 179 3 view .LVU4331
 179:../USER/main.c ****   if(**buf==0x0d) return -1;
 12917              		.loc 1 179 17 view .LVU4332
 180:../USER/main.c ****   while(**buf==' ') (*buf)++; /* spip sp*/
 12918              		.loc 1 180 3 view .LVU4333
 12919              	.LBE1796:
 12920              	.LBE1926:
 231:../USER/main.c **** 			if(*cbp=='M'){
 12921              		.loc 1 231 12 is_stmt 0 view .LVU4334
 12922 1fea 4FF0FF36 		mov	r6, #-1
 12923              	.LVL956:
 12924              	.L506:
 12925              	.LBB1927:
 178:../USER/main.c ****   long num = 0; int hd;
 12926              		.loc 1 178 6 is_stmt 1 view .LVU4335
 12927              	.LBB1803:
 179:../USER/main.c ****   if(**buf==0x0d) return -1;
 12928              		.loc 1 179 3 view .LVU4336
 179:../USER/main.c ****   if(**buf==0x0d) return -1;
 12929              		.loc 1 179 17 view .LVU4337
 180:../USER/main.c ****   while(**buf==' ') (*buf)++; /* spip sp*/
 12930              		.loc 1 180 3 view .LVU4338
 12931              	.LBE1803:
 12932              	.LBE1927:
 12933              	.LBB1928:
 12934              	.LBB1877:
 180:../USER/main.c ****   while(**buf==' ') (*buf)++; /* spip sp*/
 12935              		.loc 1 180 26 is_stmt 0 view .LVU4339
 12936 1fee 4FF0FF3B 		mov	fp, #-1
 12937              	.LBE1877:
 12938              	.LBE1928:
 12939              	.LBB1929:
 12940              	.LBB1804:
 12941 1ff2 5846     		mov	r0, fp
 12942 1ff4 A6E6     		b	.L507
 12943              	.LVL957:
 12944              	.L932:
 180:../USER/main.c ****   while(**buf==' ') (*buf)++; /* spip sp*/
 12945              		.loc 1 180 26 view .LVU4340
 12946              	.LBE1804:
 12947              	.LBE1929:
 231:../USER/main.c **** 			if(*cbp=='M'){
 12948              		.loc 1 231 12 view .LVU4341
 12949 1ff6 4FF6FF74 		movw	r4, #65535
 12950              	.LVL958:
 12951              	.L513:
 12952              	.LBB1930:
 178:../USER/main.c ****   long num = 0; int hd;
 12953              		.loc 1 178 6 is_stmt 1 view .LVU4342
 12954              	.LBB1742:
 179:../USER/main.c ****   if(**buf==0x0d) return -1;
 12955              		.loc 1 179 3 view .LVU4343
 179:../USER/main.c ****   if(**buf==0x0d) return -1;
 12956              		.loc 1 179 17 view .LVU4344
 180:../USER/main.c ****   while(**buf==' ') (*buf)++; /* spip sp*/
 12957              		.loc 1 180 3 view .LVU4345
 12958              	.LBE1742:
 12959              	.LBE1930:
 231:../USER/main.c **** 			if(*cbp=='M'){
 12960              		.loc 1 231 12 is_stmt 0 view .LVU4346
 12961 1ffa 4FF6FF76 		movw	r6, #65535
 12962              	.LVL959:
 12963              	.L514:
 12964              	.LBB1931:
 178:../USER/main.c ****   long num = 0; int hd;
 12965              		.loc 1 178 6 is_stmt 1 view .LVU4347
 12966              	.LBB1748:
 179:../USER/main.c ****   if(**buf==0x0d) return -1;
 12967              		.loc 1 179 3 view .LVU4348
 179:../USER/main.c ****   if(**buf==0x0d) return -1;
 12968              		.loc 1 179 17 view .LVU4349
 180:../USER/main.c ****   while(**buf==' ') (*buf)++; /* spip sp*/
 12969              		.loc 1 180 3 view .LVU4350
 12970              	.LBE1748:
 12971              	.LBE1931:
 12972              	.LBB1932:
 12973              	.LBB1897:
 180:../USER/main.c ****   while(**buf==' ') (*buf)++; /* spip sp*/
 12974              		.loc 1 180 5 is_stmt 0 view .LVU4351
 12975 1ffe 4FF6FF70 		movw	r0, #65535
 12976              	.LBE1897:
 12977              	.LBE1932:
 231:../USER/main.c **** 			if(*cbp=='M'){
 12978              		.loc 1 231 12 view .LVU4352
 12979 2002 8346     		mov	fp, r0
 12980 2004 31E6     		b	.L515
 12981              	.LVL960:
 12982              	.L931:
 12983              	.LBB1933:
 12984              	.LBB1731:
 180:../USER/main.c ****   while(**buf==' ') (*buf)++; /* spip sp*/
 12985              		.loc 1 180 5 view .LVU4353
 12986 2006 4FF6FF75 		movw	r5, #65535
 12987              	.LBE1731:
 12988              	.LBE1933:
 231:../USER/main.c **** 			if(*cbp=='M'){
 12989              		.loc 1 231 12 view .LVU4354
 12990 200a 4FF6FF76 		movw	r6, #65535
 12991 200e 2C46     		mov	r4, r5
 12992              	.LVL961:
 12993              	.LBB1934:
 178:../USER/main.c ****   long num = 0; int hd;
 12994              		.loc 1 178 6 is_stmt 1 view .LVU4355
 12995              	.LBB1743:
 179:../USER/main.c ****   if(**buf==0x0d) return -1;
 12996              		.loc 1 179 3 view .LVU4356
 179:../USER/main.c ****   if(**buf==0x0d) return -1;
 12997              		.loc 1 179 17 view .LVU4357
 180:../USER/main.c ****   while(**buf==' ') (*buf)++; /* spip sp*/
 12998              		.loc 1 180 3 view .LVU4358
 12999 2010 F5E7     		b	.L514
 13000              	.LVL962:
 13001              	.L950:
 180:../USER/main.c ****   while(**buf==' ') (*buf)++; /* spip sp*/
 13002              		.loc 1 180 3 is_stmt 0 view .LVU4359
 13003              	.LBE1743:
 13004              	.LBE1934:
 13005              	.LBB1935:
 13006              	.LBB1634:
 13007              	.LBB1606:
 180:../USER/main.c ****   while(**buf==' ') (*buf)++; /* spip sp*/
 13008              		.loc 1 180 26 view .LVU4360
 13009 2012 4FF0FF34 		mov	r4, #-1
 13010              	.LBE1606:
 13011              	.LBE1634:
 13012              	.LBB1635:
 13013              	.LBB1610:
 13014 2016 2146     		mov	r1, r4
 13015 2018 C4E4     		b	.L550
 13016              	.LVL963:
 13017              	.L952:
 180:../USER/main.c ****   while(**buf==' ') (*buf)++; /* spip sp*/
 13018              		.loc 1 180 26 view .LVU4361
 13019              	.LBE1610:
 13020              	.LBE1635:
 13021              	.LBE1935:
 13022              	.LBB1936:
 13023              	.LBB1811:
 13024 201a 4FF0FF34 		mov	r4, #-1
 13025              	.LBE1811:
 13026              	.LBE1936:
 13027              	.LBB1937:
 13028              	.LBB1815:
 13029 201e 2146     		mov	r1, r4
 13030 2020 B1E6     		b	.L572
 13031              	.LVL964:
 13032              	.L925:
 180:../USER/main.c ****   while(**buf==' ') (*buf)++; /* spip sp*/
 13033              		.loc 1 180 26 view .LVU4362
 13034              	.LBE1815:
 13035              	.LBE1937:
 13036              	.LBB1938:
 13037              	.LBB1774:
 13038 2022 4FF0FF35 		mov	r5, #-1
 13039              	.LBE1774:
 13040              	.LBE1938:
 231:../USER/main.c **** 			if(*cbp=='M'){
 13041              		.loc 1 231 12 view .LVU4363
 13042 2026 4FF0FF36 		mov	r6, #-1
 13043              	.LBB1939:
 13044              	.LBB1783:
 180:../USER/main.c ****   while(**buf==' ') (*buf)++; /* spip sp*/
 13045              		.loc 1 180 26 view .LVU4364
 13046 202a 2C46     		mov	r4, r5
 13047              	.LVL965:
 180:../USER/main.c ****   while(**buf==' ') (*buf)++; /* spip sp*/
 13048              		.loc 1 180 26 view .LVU4365
 13049              	.LBE1783:
 13050              	.LBE1939:
 13051              	.LBB1940:
 178:../USER/main.c ****   long num = 0; int hd;
 13052              		.loc 1 178 6 is_stmt 1 view .LVU4366
 13053              	.LBB1797:
 179:../USER/main.c ****   if(**buf==0x0d) return -1;
 13054              		.loc 1 179 3 view .LVU4367
 179:../USER/main.c ****   if(**buf==0x0d) return -1;
 13055              		.loc 1 179 17 view .LVU4368
 180:../USER/main.c ****   while(**buf==' ') (*buf)++; /* spip sp*/
 13056              		.loc 1 180 3 view .LVU4369
 13057 202c DFE7     		b	.L506
 13058              	.LVL966:
 13059              	.L948:
 180:../USER/main.c ****   while(**buf==' ') (*buf)++; /* spip sp*/
 13060              		.loc 1 180 3 is_stmt 0 view .LVU4370
 13061              	.LBE1797:
 13062              	.LBE1940:
 13063              	.LBB1941:
 13064              	.LBB1016:
 180:../USER/main.c ****   while(**buf==' ') (*buf)++; /* spip sp*/
 13065              		.loc 1 180 5 view .LVU4371
 13066 202e 4FF0FF31 		mov	r1, #-1
 13067 2032 FEF7CFB9 		b	.L527
 13068              	.LVL967:
 13069              	.L946:
 180:../USER/main.c ****   while(**buf==' ') (*buf)++; /* spip sp*/
 13070              		.loc 1 180 5 view .LVU4372
 13071              	.LBE1016:
 13072              	.LBE1941:
 13073              	.LBB1942:
 13074              	.LBB1641:
 180:../USER/main.c ****   while(**buf==' ') (*buf)++; /* spip sp*/
 13075              		.loc 1 180 26 view .LVU4373
 13076 2036 4FF0FF34 		mov	r4, #-1
 13077              	.LBE1641:
 13078              	.LBE1942:
 13079              	.LBB1943:
 13080              	.LBB1645:
 13081 203a 2146     		mov	r1, r4
 13082 203c 1EE5     		b	.L526
 13083              	.LVL968:
 13084              	.L944:
 180:../USER/main.c ****   while(**buf==' ') (*buf)++; /* spip sp*/
 13085              		.loc 1 180 26 view .LVU4374
 13086              	.LBE1645:
 13087              	.LBE1943:
 239:../USER/main.c **** 			if(*cbp=='U'){
 13088              		.loc 1 239 12 view .LVU4375
 13089 203e 4FF6FF74 		movw	r4, #65535
 13090              	.LVL969:
 13091              	.L523:
 13092              	.LBB1944:
 178:../USER/main.c ****   long num = 0; int hd;
 13093              		.loc 1 178 6 is_stmt 1 view .LVU4376
 13094              	.LBB1662:
 179:../USER/main.c ****   if(**buf==0x0d) return -1;
 13095              		.loc 1 179 3 view .LVU4377
 179:../USER/main.c ****   if(**buf==0x0d) return -1;
 13096              		.loc 1 179 17 view .LVU4378
 180:../USER/main.c ****   while(**buf==' ') (*buf)++; /* spip sp*/
 13097              		.loc 1 180 3 view .LVU4379
 13098              	.LBE1662:
 13099              	.LBE1944:
 13100              	.LBB1945:
 13101              	.LBB1682:
 180:../USER/main.c ****   while(**buf==' ') (*buf)++; /* spip sp*/
 13102              		.loc 1 180 26 is_stmt 0 view .LVU4380
 13103 2042 4FF6FF73 		movw	r3, #65535
 13104              	.LBE1682:
 13105              	.LBE1945:
 239:../USER/main.c **** 			if(*cbp=='U'){
 13106              		.loc 1 239 12 view .LVU4381
 13107 2046 1E46     		mov	r6, r3
 13108 2048 49E5     		b	.L524
 13109              	.LVL970:
 13110              	.L943:
 13111              	.LBB1946:
 13112              	.LBB1651:
 180:../USER/main.c ****   while(**buf==' ') (*buf)++; /* spip sp*/
 13113              		.loc 1 180 5 view .LVU4382
 13114 204a 4FF6FF75 		movw	r5, #65535
 13115              	.LBE1651:
 13116              	.LBE1946:
 13117              	.LBB1947:
 13118              	.LBB1683:
 180:../USER/main.c ****   while(**buf==' ') (*buf)++; /* spip sp*/
 13119              		.loc 1 180 26 view .LVU4383
 13120 204e 4FF6FF73 		movw	r3, #65535
 13121              	.LBE1683:
 13122              	.LBE1947:
 239:../USER/main.c **** 			if(*cbp=='U'){
 13123              		.loc 1 239 12 view .LVU4384
 13124 2052 2C46     		mov	r4, r5
 13125              	.LVL971:
 13126              	.LBB1948:
 178:../USER/main.c ****   long num = 0; int hd;
 13127              		.loc 1 178 6 is_stmt 1 view .LVU4385
 13128              	.LBB1663:
 179:../USER/main.c ****   if(**buf==0x0d) return -1;
 13129              		.loc 1 179 3 view .LVU4386
 179:../USER/main.c ****   if(**buf==0x0d) return -1;
 13130              		.loc 1 179 17 view .LVU4387
 180:../USER/main.c ****   while(**buf==' ') (*buf)++; /* spip sp*/
 13131              		.loc 1 180 3 view .LVU4388
 13132              	.LBE1663:
 13133              	.LBE1948:
 239:../USER/main.c **** 			if(*cbp=='U'){
 13134              		.loc 1 239 12 is_stmt 0 view .LVU4389
 13135 2054 1E46     		mov	r6, r3
 13136 2056 42E5     		b	.L524
 13137              	.LVL972:
 13138              	.L951:
 13139              	.LBB1949:
 13140              	.LBB1636:
 13141              	.LBB1611:
 180:../USER/main.c ****   while(**buf==' ') (*buf)++; /* spip sp*/
 13142              		.loc 1 180 26 view .LVU4390
 13143 2058 4FF0FF31 		mov	r1, #-1
 13144 205c A2E4     		b	.L550
 13145              	.LVL973:
 13146              	.L933:
 180:../USER/main.c ****   while(**buf==' ') (*buf)++; /* spip sp*/
 13147              		.loc 1 180 26 view .LVU4391
 13148              	.LBE1611:
 13149              	.LBE1636:
 13150              	.LBE1949:
 13151              	.LBB1950:
 13152              	.LBB1749:
 180:../USER/main.c ****   while(**buf==' ') (*buf)++; /* spip sp*/
 13153              		.loc 1 180 5 view .LVU4392
 13154 205e 4FF6FF70 		movw	r0, #65535
 13155 2062 02E6     		b	.L515
 13156              	.LVL974:
 13157              	.L924:
 180:../USER/main.c ****   while(**buf==' ') (*buf)++; /* spip sp*/
 13158              		.loc 1 180 5 view .LVU4393
 13159              	.LBE1749:
 13160              	.LBE1950:
 13161              	.LBB1951:
 13162              	.LBB1878:
 180:../USER/main.c ****   while(**buf==' ') (*buf)++; /* spip sp*/
 13163              		.loc 1 180 26 view .LVU4394
 13164 2064 4FF0FF30 		mov	r0, #-1
 13165 2068 F9E6     		b	.L503
 13166              	.LVL975:
 13167              	.L936:
 180:../USER/main.c ****   while(**buf==' ') (*buf)++; /* spip sp*/
 13168              		.loc 1 180 26 view .LVU4395
 13169              	.LBE1878:
 13170              	.LBE1951:
 13171              	.LBB1952:
 13172              	.LBB1767:
 13173 206a 4FF0FF32 		mov	r2, #-1
 13174 206e 28E6     		b	.L517
 13175              	.LVL976:
 13176              	.L935:
 180:../USER/main.c ****   while(**buf==' ') (*buf)++; /* spip sp*/
 13177              		.loc 1 180 26 view .LVU4396
 13178              	.LBE1767:
 13179              	.LBE1952:
 13180              	.LBB1953:
 13181              	.LBB1760:
 13182 2070 4FF0FF35 		mov	r5, #-1
 13183              	.LBE1760:
 13184              	.LBE1953:
 13185              	.LBB1954:
 13186              	.LBB1768:
 13187 2074 2A46     		mov	r2, r5
 13188 2076 24E6     		b	.L517
 13189              	.LVL977:
 13190              	.L953:
 180:../USER/main.c ****   while(**buf==' ') (*buf)++; /* spip sp*/
 13191              		.loc 1 180 26 view .LVU4397
 13192              	.LBE1768:
 13193              	.LBE1954:
 13194              	.LBB1955:
 13195              	.LBB1816:
 13196 2078 4FF0FF31 		mov	r1, #-1
 13197 207c 83E6     		b	.L572
 13198              	.LVL978:
 13199              	.L927:
 180:../USER/main.c ****   while(**buf==' ') (*buf)++; /* spip sp*/
 13200              		.loc 1 180 26 view .LVU4398
 13201              	.LBE1816:
 13202              	.LBE1955:
 13203              	.LBB1956:
 13204              	.LBB1805:
 13205 207e 4FF0FF30 		mov	r0, #-1
 13206 2082 5FE6     		b	.L507
 13207              	.LVL979:
 13208              	.L930:
 180:../USER/main.c ****   while(**buf==' ') (*buf)++; /* spip sp*/
 13209              		.loc 1 180 26 view .LVU4399
 13210              	.LBE1805:
 13211              	.LBE1956:
 13212              	.LBB1957:
 13213              	.LBB1725:
 13214 2084 4FF0FF32 		mov	r2, #-1
 13215 2088 B0E5     		b	.L510
 13216              	.LVL980:
 13217              	.L929:
 180:../USER/main.c ****   while(**buf==' ') (*buf)++; /* spip sp*/
 13218              		.loc 1 180 26 view .LVU4400
 13219              	.LBE1725:
 13220              	.LBE1957:
 13221              	.LBB1958:
 13222              	.LBB1718:
 13223 208a 4FF0FF35 		mov	r5, #-1
 13224              	.LBE1718:
 13225              	.LBE1958:
 13226              	.LBB1959:
 13227              	.LBB1726:
 13228 208e 2A46     		mov	r2, r5
 13229 2090 ACE5     		b	.L510
 13230              	.LVL981:
 13231              	.L939:
 180:../USER/main.c ****   while(**buf==' ') (*buf)++; /* spip sp*/
 13232              		.loc 1 180 26 view .LVU4401
 13233              	.LBE1726:
 13234              	.LBE1959:
 13235              	.LBB1960:
 13236              	.LBB1704:
 13237 2092 4FF0FF32 		mov	r2, #-1
 13238 2096 73E5     		b	.L519
 13239              	.LVL982:
 13240              	.L938:
 180:../USER/main.c ****   while(**buf==' ') (*buf)++; /* spip sp*/
 13241              		.loc 1 180 26 view .LVU4402
 13242              	.LBE1704:
 13243              	.LBE1960:
 13244              	.LBB1961:
 13245              	.LBB1697:
 13246 2098 4FF0FF35 		mov	r5, #-1
 13247              	.LBE1697:
 13248              	.LBE1961:
 13249              	.LBB1962:
 13250              	.LBB1705:
 13251 209c 2A46     		mov	r2, r5
 13252 209e 6FE5     		b	.L519
 13253              	.LVL983:
 13254              	.L942:
 180:../USER/main.c ****   while(**buf==' ') (*buf)++; /* spip sp*/
 13255              		.loc 1 180 26 view .LVU4403
 13256              	.LBE1705:
 13257              	.LBE1962:
 13258              	.LBB1963:
 13259              	.LBB1684:
 13260 20a0 4FF0FF32 		mov	r2, #-1
 13261 20a4 44E5     		b	.L521
 13262              	.LVL984:
 13263              	.L941:
 180:../USER/main.c ****   while(**buf==' ') (*buf)++; /* spip sp*/
 13264              		.loc 1 180 26 view .LVU4404
 13265              	.LBE1684:
 13266              	.LBE1963:
 13267              	.LBB1964:
 13268              	.LBB1675:
 13269 20a6 4FF0FF35 		mov	r5, #-1
 13270              	.LBE1675:
 13271              	.LBE1964:
 13272              	.LBB1965:
 13273              	.LBB1685:
 13274 20aa 2A46     		mov	r2, r5
 13275 20ac 40E5     		b	.L521
 13276              	.LVL985:
 13277              	.L945:
 180:../USER/main.c ****   while(**buf==' ') (*buf)++; /* spip sp*/
 13278              		.loc 1 180 26 view .LVU4405
 13279              	.LBE1685:
 13280              	.LBE1965:
 13281              	.LBB1966:
 13282              	.LBB1664:
 180:../USER/main.c ****   while(**buf==' ') (*buf)++; /* spip sp*/
 13283              		.loc 1 180 5 view .LVU4406
 13284 20ae 4FF6FF73 		movw	r3, #65535
 13285 20b2 14E5     		b	.L524
 13286              	.LVL986:
 13287              	.L947:
 180:../USER/main.c ****   while(**buf==' ') (*buf)++; /* spip sp*/
 13288              		.loc 1 180 5 view .LVU4407
 13289              	.LBE1664:
 13290              	.LBE1966:
 13291              	.LBB1967:
 13292              	.LBB1646:
 180:../USER/main.c ****   while(**buf==' ') (*buf)++; /* spip sp*/
 13293              		.loc 1 180 26 view .LVU4408
 13294 20b4 4FF0FF31 		mov	r1, #-1
 13295 20b8 E0E4     		b	.L526
 13296              	.LBE1646:
 13297              	.LBE1967:
 13298              		.cfi_endproc
 13299              	.LFE52:
 13301              		.global	kinbrp
 13302              		.global	kinbwp
 13303              		.comm	kinbuf,256,4
 13304              		.comm	mdgpioi,4,4
 13305              		.comm	mdgpio,4,4
 13306 20ba 00BF     		.section	.bss.kinbrp,"aw",%nobits
 13307              		.align	2
 13308              		.set	.LANCHOR1,. + 0
 13311              	kinbrp:
 13312 0000 00000000 		.space	4
 13313              		.section	.bss.kinbwp,"aw",%nobits
 13314              		.align	2
 13315              		.set	.LANCHOR0,. + 0
 13318              	kinbwp:
 13319 0000 00000000 		.space	4
 13320              		.section	.rodata.main.str1.4,"aMS",%progbits,1
 13321              		.align	2
 13322              	.LC1:
 13323 0000 0D0A4D6F 		.ascii	"\015\012Mon_TN4K\000"
 13323      6E5F544E 
 13323      344B00
 13324 000b 00       		.space	1
 13325              	.LC2:
 13326 000c 0D0A3E00 		.ascii	"\015\012>\000"
 13327              	.LC3:
 13328 0010 3F3F00   		.ascii	"??\000"
 13329              		.section	.rodata.putadrhd.str1.4,"aMS",%progbits,1
 13330              		.align	2
 13331              	.LC0:
 13332 0000 0D0A00   		.ascii	"\015\012\000"
 13333              		.text
 13334              	.Letext0:
 13335              		.file 2 "c:\\app\\gowin\\gmd\\toolchain\\arm_toolchain\\arm-none-eabi\\include\\machine\\_default_
 13336              		.file 3 "c:\\app\\gowin\\gmd\\toolchain\\arm_toolchain\\arm-none-eabi\\include\\sys\\_stdint.h"
 13337              		.file 4 "C:\\kitaprg\\GMD_RefDesign\\cm3_mon\\CORE/core_cm3.h"
 13338              		.file 5 "C:\\kitaprg\\GMD_RefDesign\\cm3_mon\\SYSTEM/system_gw1ns4c.h"
 13339              		.file 6 "C:\\kitaprg\\GMD_RefDesign\\cm3_mon\\SYSTEM/gw1ns4c.h"
 13340              		.file 7 "C:\\kitaprg\\GMD_RefDesign\\cm3_mon\\PERIPHERAL\\Includes/gw1ns4c_gpio.h"
 13341              		.file 8 "C:\\kitaprg\\GMD_RefDesign\\cm3_mon\\PERIPHERAL\\Includes/gw1ns4c_uart.h"
 13342              		.file 9 "C:\\kitaprg\\GMD_RefDesign\\cm3_mon\\PERIPHERAL\\Includes/gw1ns4c_spi.h"
 13343              		.file 10 "c:\\app\\gowin\\gmd\\toolchain\\arm_toolchain\\lib\\gcc\\arm-none-eabi\\8.3.1\\include\\
 13344              		.file 11 "c:\\app\\gowin\\gmd\\toolchain\\arm_toolchain\\arm-none-eabi\\include\\sys\\_types.h"
 13345              		.file 12 "c:\\app\\gowin\\gmd\\toolchain\\arm_toolchain\\arm-none-eabi\\include\\sys\\reent.h"
 13346              		.file 13 "c:\\app\\gowin\\gmd\\toolchain\\arm_toolchain\\arm-none-eabi\\include\\sys\\lock.h"
 13347              		.file 14 "c:\\app\\gowin\\gmd\\toolchain\\arm_toolchain\\arm-none-eabi\\include\\stdlib.h"
DEFINED SYMBOLS
                            *ABS*:00000000 main.c
d:\wintmp\cc0XD7W1.s:16     .text.getsh.part.0:00000000 $t
d:\wintmp\cc0XD7W1.s:24     .text.getsh.part.0:00000000 getsh.part.0
d:\wintmp\cc0XD7W1.s:145    .text.GPIOInit:00000000 $t
d:\wintmp\cc0XD7W1.s:153    .text.GPIOInit:00000000 GPIOInit
d:\wintmp\cc0XD7W1.s:205    .text.GPIOInit:00000024 $d
d:\wintmp\cc0XD7W1.s:210    .text.UartInit:00000000 $t
d:\wintmp\cc0XD7W1.s:218    .text.UartInit:00000000 UartInit
d:\wintmp\cc0XD7W1.s:268    .text.SPIInit:00000000 $t
d:\wintmp\cc0XD7W1.s:276    .text.SPIInit:00000000 SPIInit
d:\wintmp\cc0XD7W1.s:311    .text.delay_ms:00000000 $t
d:\wintmp\cc0XD7W1.s:319    .text.delay_ms:00000000 delay_ms
d:\wintmp\cc0XD7W1.s:369    .text.delay_ms:00000028 $d
d:\wintmp\cc0XD7W1.s:374    .text.check_gpio:00000000 $t
d:\wintmp\cc0XD7W1.s:382    .text.check_gpio:00000000 check_gpio
d:\wintmp\cc0XD7W1.s:494    .text.check_gpio:00000058 $d
                            *COM*:00000004 mdgpioi
                            *COM*:00000004 mdgpio
d:\wintmp\cc0XD7W1.s:502    .text.setsup:00000000 $t
d:\wintmp\cc0XD7W1.s:510    .text.setsup:00000000 setsup
d:\wintmp\cc0XD7W1.s:563    .text.key_check:00000000 $t
d:\wintmp\cc0XD7W1.s:571    .text.key_check:00000000 key_check
d:\wintmp\cc0XD7W1.s:654    .text.key_check:00000044 $d
                            *COM*:00000100 kinbuf
d:\wintmp\cc0XD7W1.s:660    .text.getch_uart:00000000 $t
d:\wintmp\cc0XD7W1.s:668    .text.getch_uart:00000000 getch_uart
d:\wintmp\cc0XD7W1.s:823    .text.getch_uart:00000080 $d
d:\wintmp\cc0XD7W1.s:830    .text.putch_uart:00000000 $t
d:\wintmp\cc0XD7W1.s:838    .text.putch_uart:00000000 putch_uart
d:\wintmp\cc0XD7W1.s:1088   .text.putch_uart:000000cc $d
d:\wintmp\cc0XD7W1.s:1096   .text.puth:00000000 $t
d:\wintmp\cc0XD7W1.s:1104   .text.puth:00000000 puth
d:\wintmp\cc0XD7W1.s:1138   .text.puth2:00000000 $t
d:\wintmp\cc0XD7W1.s:1146   .text.puth2:00000000 puth2
d:\wintmp\cc0XD7W1.s:1242   .text.puth4:00000000 $t
d:\wintmp\cc0XD7W1.s:1250   .text.puth4:00000000 puth4
d:\wintmp\cc0XD7W1.s:1431   .text.puth6:00000000 $t
d:\wintmp\cc0XD7W1.s:1439   .text.puth6:00000000 puth6
d:\wintmp\cc0XD7W1.s:1723   .text.puth8:00000000 $t
d:\wintmp\cc0XD7W1.s:1731   .text.puth8:00000000 puth8
d:\wintmp\cc0XD7W1.s:2104   .text.putsuart:00000000 $t
d:\wintmp\cc0XD7W1.s:2112   .text.putsuart:00000000 putsuart
d:\wintmp\cc0XD7W1.s:2155   .text.getsuart:00000000 $t
d:\wintmp\cc0XD7W1.s:2163   .text.getsuart:00000000 getsuart
d:\wintmp\cc0XD7W1.s:2384   .text.getsuart:000000ac $d
d:\wintmp\cc0XD7W1.s:2391   .text.ishex:00000000 $t
d:\wintmp\cc0XD7W1.s:2399   .text.ishex:00000000 ishex
d:\wintmp\cc0XD7W1.s:2444   .text.getssu:00000000 $t
d:\wintmp\cc0XD7W1.s:2452   .text.getssu:00000000 getssu
d:\wintmp\cc0XD7W1.s:2743   .text.getssu:000000e8 $d
d:\wintmp\cc0XD7W1.s:2750   .text.putadrhd:00000000 $t
d:\wintmp\cc0XD7W1.s:2758   .text.putadrhd:00000000 putadrhd
d:\wintmp\cc0XD7W1.s:3143   .text.putadrhd:000000b8 $d
d:\wintmp\cc0XD7W1.s:3148   .text.getsh:00000000 $t
d:\wintmp\cc0XD7W1.s:3156   .text.getsh:00000000 getsh
d:\wintmp\cc0XD7W1.s:3298   .text.startup.main:00000000 $t
d:\wintmp\cc0XD7W1.s:3306   .text.startup.main:00000000 main
d:\wintmp\cc0XD7W1.s:4094   .text.startup.main:000002ac $d
d:\wintmp\cc0XD7W1.s:4117   .text.startup.main:000002d8 $t
d:\wintmp\cc0XD7W1.s:4159   .text.startup.main:00000300 $d
d:\wintmp\cc0XD7W1.s:4169   .text.startup.main:0000031c $t
d:\wintmp\cc0XD7W1.s:5217   .text.startup.main:000006d4 $d
d:\wintmp\cc0XD7W1.s:5223   .text.startup.main:000006e0 $t
d:\wintmp\cc0XD7W1.s:6525   .text.startup.main:00000abc $d
d:\wintmp\cc0XD7W1.s:6529   .text.startup.main:00000ac0 $t
d:\wintmp\cc0XD7W1.s:7351   .text.startup.main:00000dd8 $d
d:\wintmp\cc0XD7W1.s:7355   .text.startup.main:00000ddc $t
d:\wintmp\cc0XD7W1.s:8695   .text.startup.main:000012a4 $d
d:\wintmp\cc0XD7W1.s:8702   .text.startup.main:000012a8 $t
d:\wintmp\cc0XD7W1.s:9711   .text.startup.main:00001610 $d
d:\wintmp\cc0XD7W1.s:9716   .text.startup.main:00001618 $t
d:\wintmp\cc0XD7W1.s:11787  .text.startup.main:00001cd8 $d
d:\wintmp\cc0XD7W1.s:11793  .text.startup.main:00001ce0 $t
d:\wintmp\cc0XD7W1.s:13311  .bss.kinbrp:00000000 kinbrp
d:\wintmp\cc0XD7W1.s:13318  .bss.kinbwp:00000000 kinbwp
d:\wintmp\cc0XD7W1.s:13307  .bss.kinbrp:00000000 $d
d:\wintmp\cc0XD7W1.s:13314  .bss.kinbwp:00000000 $d
d:\wintmp\cc0XD7W1.s:13321  .rodata.main.str1.4:00000000 $d
d:\wintmp\cc0XD7W1.s:13330  .rodata.putadrhd.str1.4:00000000 $d
                           .group:00000000 wm4.0.881e6aea30f26d002fa34da4862e4bcf
                           .group:00000000 wm4.gw1ns4c.h.42.b574272a1988cda7506b1103a6ee000e
                           .group:00000000 wm4.core_cm3.h.25.d35e9a9b04ec4aaebae9bf79fff061f9
                           .group:00000000 wm4._newlib_version.h.4.9ba035841e762c3308916a0ce96032e7
                           .group:00000000 wm4.features.h.33.318b64d71e0957639cfb30f1db1f7ec8
                           .group:00000000 wm4._default_types.h.15.247e5cd201eca3442cbf5404108c4935
                           .group:00000000 wm4._intsup.h.10.48bafbb683905c4daa4565a85aeeb264
                           .group:00000000 wm4._stdint.h.10.c24fa3af3bc1706662bb5593a907e841
                           .group:00000000 wm4.stdint.h.23.d53047a68f4a85177f80b422d52785ed
                           .group:00000000 wm4.core_cm3.h.113.418486a6827cd861c086288012ae5e2b
                           .group:00000000 wm4.gw1ns4c.h.318.1c2396dae4397f7395410f9554aa71af
                           .group:00000000 wm4.gw1ns4c_gpio.h.80.0c581660eee051be7914b6ea1f39cc1a
                           .group:00000000 wm4.gw1ns4c_wdog.h.16.8a3a0f1d8c60adc0580b7852c78f55c8
                           .group:00000000 wm4.gw1ns4c_uart.h.16.3be05e6b03c62d460c8c05b141d1c023
                           .group:00000000 wm4.gw1ns4c_timer.h.16.f5209a1e64a528f95e8d85c71081528f
                           .group:00000000 wm4.gw1ns4c_spi.h.16.810014cb7f012daf88d29d7d2b7aba9e
                           .group:00000000 wm4.gw1ns4c_i2c.h.16.05421c18011a5a09c18d5f4cc6da69a8
                           .group:00000000 wm4.gw1ns4c_misc.h.16.65dc2339a60ecdd9b90897e72d3b061a
                           .group:00000000 wm4.gw1ns4c_syscon.h.16.40f8fc44d5bd6529877ce8d20de4e3a1
                           .group:00000000 wm4.newlib.h.8.f6e543eac3f2f65163ba2ffe3b04987b
                           .group:00000000 wm4.ieeefp.h.77.5499ed899a78229fbaf6d102924f4714
                           .group:00000000 wm4.config.h.224.c701144a7b0518c6ee9b9b5465b79f81
                           .group:00000000 wm4._ansi.h.31.de524f58584151836e90d8620a16f8e8
                           .group:00000000 wm4.stdio.h.31.7c0e28c411445f3f9c5b11accf882760
                           .group:00000000 wm4.stddef.h.187.2ff233552538c6ff9b8575ca8ea52cb3
                           .group:00000000 wm4.cdefs.h.49.6260d97adb8d27534cbdc0f868b8ea87
                           .group:00000000 wm4.stddef.h.39.ec95e8feac892e292b69dc7ae75b0d64
                           .group:00000000 wm4.stdarg.h.34.3a23a216c0c293b3d2ea2e89281481e6
                           .group:00000000 wm4._types.h.20.dd0d04dca3800a0d2a6129b87f3adbb2
                           .group:00000000 wm4.stddef.h.161.5349cb105733e8777bfb0cf53c4e3f34
                           .group:00000000 wm4._types.h.127.34941de1b2539d59d5cac00e0dd27a45
                           .group:00000000 wm4.reent.h.17.e292bf8b0bec6c96e131a54347145a30
                           .group:00000000 wm4.lock.h.2.1461d1fff82dffe8bfddc23307f6484f
                           .group:00000000 wm4.reent.h.77.dcd6129ff07fe81bd5636db29abe53b2
                           .group:00000000 wm4.types.h.40.8b6acba56cefbb11746718204edc8f5e
                           .group:00000000 wm4._endian.h.31.65a10590763c3dde1ac4a7f66d7d4891
                           .group:00000000 wm4.endian.h.9.49f3a4695c1b61e8a0808de3c4a106cb
                           .group:00000000 wm4._timeval.h.30.0e8bfd94e85db17dda3286ee81496fe6
                           .group:00000000 wm4.timespec.h.41.d855182eb0e690443ab8651bcedca6e1
                           .group:00000000 wm4.select.h.19.97ca6fd0c752a0f3b6719fd314d361e6
                           .group:00000000 wm4.types.h.51.5571ec98f267d17d3c670b7a3ba33afa
                           .group:00000000 wm4.sched.h.22.c60982713a5c428609783c78f9c78d95
                           .group:00000000 wm4._pthreadtypes.h.36.fcee9961c35163dde6267ef772ad1972
                           .group:00000000 wm4.stdio.h.2.4aa87247282eca6c8f36f9de33d8df1a
                           .group:00000000 wm4.stdio.h.81.932d0c162786b883f622b8d05c120c78
                           .group:00000000 wm4.stdlib.h.13.4ed386f5c1a80d71e72172885d946ef2
                           .group:00000000 wm4.stddef.h.161.19e15733342b50ead2919490b095303e
                           .group:00000000 wm4.alloca.h.8.dfc0c703c47ec3e69746825b17d9e66d
                           .group:00000000 wm4.stdlib.h.56.f4862cfbf4363a1db01842d5bdf72c18
                           .group:00000000 wm4.string.h.8.c4b8571ce60dff2817f43fec8b86aecd

UNDEFINED SYMBOLS
GPIO_Init
GPIO_SetBit
UART_Init
SPI_Init
SystemCoreClock
GPIO_ReadBits
GPIO_WriteBits
SPI_ReadData
SPI_WriteData
disp_vram
UART_SendChar
SystemInit
basic
get_vram
dispscroll
DCircle
DPaint
pset
move_vram
DLine
wddt
dispfull
pget
set_vramm
