   1              		.cpu cortex-m3
   2              		.eabi_attribute 20, 1
   3              		.eabi_attribute 21, 1
   4              		.eabi_attribute 23, 3
   5              		.eabi_attribute 24, 1
   6              		.eabi_attribute 25, 1
   7              		.eabi_attribute 26, 1
   8              		.eabi_attribute 30, 2
   9              		.eabi_attribute 34, 1
  10              		.eabi_attribute 18, 4
  11              		.file	"retarget.c"
  12              		.text
  13              	.Ltext0:
  14              		.cfi_sections	.debug_frame
  15              		.section	.text._write,"ax",%progbits
  16              		.align	1
  17              		.p2align 2,,3
  18              		.global	_write
  19              		.arch armv7-m
  20              		.syntax unified
  21              		.thumb
  22              		.thumb_func
  23              		.fpu softvfp
  25              	_write:
  26              	.LVL0:
  27              	.LFB32:
  28              		.file 1 "../USER/retarget.c"
   1:../USER/retarget.c **** /*
   2:../USER/retarget.c ****  * *****************************************************************************************
   3:../USER/retarget.c ****  *
   4:../USER/retarget.c ****  * 		Copyright (C) 2014-2021 Gowin Semiconductor Technology Co.,Ltd.
   5:../USER/retarget.c ****  * 		
   6:../USER/retarget.c ****  * @file        retarget.c
   7:../USER/retarget.c ****  * @author      Embedded Development Team
   8:../USER/retarget.c ****  * @version     V1.x.x
   9:../USER/retarget.c ****  * @date        2021-01-01 09:00:00
  10:../USER/retarget.c ****  * @brief       UART printf and scanf retarget function.
  11:../USER/retarget.c ****  ******************************************************************************************
  12:../USER/retarget.c ****  */
  13:../USER/retarget.c **** 
  14:../USER/retarget.c **** /* Includes ------------------------------------------------------------------*/
  15:../USER/retarget.c **** #include "gw1ns4c.h"
  16:../USER/retarget.c **** #include <stdio.h>
  17:../USER/retarget.c **** #include <sys/stat.h>
  18:../USER/retarget.c **** 
  19:../USER/retarget.c **** __attribute__ ((used))  int _write (int fd, char *ptr, int len)
  20:../USER/retarget.c **** {
  29              		.loc 1 20 1 view -0
  30              		.cfi_startproc
  31              		@ args = 0, pretend = 0, frame = 0
  32              		@ frame_needed = 0, uses_anonymous_args = 0
  21:../USER/retarget.c ****   size_t i;
  33              		.loc 1 21 3 view .LVU1
  22:../USER/retarget.c **** 
  23:../USER/retarget.c ****   for (i=0; i<len; i++)
  34              		.loc 1 23 3 view .LVU2
  20:../USER/retarget.c ****   size_t i;
  35              		.loc 1 20 1 is_stmt 0 view .LVU3
  36 0000 70B5     		push	{r4, r5, r6, lr}
  37              		.cfi_def_cfa_offset 16
  38              		.cfi_offset 4, -16
  39              		.cfi_offset 5, -12
  40              		.cfi_offset 6, -8
  41              		.cfi_offset 14, -4
  42              		.loc 1 23 3 view .LVU4
  43 0002 1646     		mov	r6, r2
  44 0004 4AB1     		cbz	r2, .L2
  45 0006 4C1E     		subs	r4, r1, #1
  46 0008 A518     		adds	r5, r4, r2
  47              	.LVL1:
  48              	.L3:
  24:../USER/retarget.c ****   {
  25:../USER/retarget.c ****     UART_SendChar(UART0,ptr[i]); // call character output function
  49              		.loc 1 25 5 is_stmt 1 discriminator 3 view .LVU5
  50 000a 14F9011F 		ldrsb	r1, [r4, #1]!
  51              	.LVL2:
  52              		.loc 1 25 5 is_stmt 0 discriminator 3 view .LVU6
  53 000e 4FF04020 		mov	r0, #1073758208
  54 0012 FFF7FEFF 		bl	UART_SendChar
  55              	.LVL3:
  23:../USER/retarget.c ****   {
  56              		.loc 1 23 3 discriminator 3 view .LVU7
  57 0016 AC42     		cmp	r4, r5
  58 0018 F7D1     		bne	.L3
  59              	.LVL4:
  60              	.L2:
  26:../USER/retarget.c ****   }
  27:../USER/retarget.c **** 
  28:../USER/retarget.c ****   return len;
  61              		.loc 1 28 3 is_stmt 1 view .LVU8
  29:../USER/retarget.c **** }
  62              		.loc 1 29 1 is_stmt 0 view .LVU9
  63 001a 3046     		mov	r0, r6
  64 001c 70BD     		pop	{r4, r5, r6, pc}
  65              		.loc 1 29 1 view .LVU10
  66              		.cfi_endproc
  67              	.LFE32:
  69 001e 00BF     		.text
  70              	.Letext0:
  71              		.file 2 "c:\\app\\gowin\\gmd\\toolchain\\arm_toolchain\\arm-none-eabi\\include\\machine\\_default_
  72              		.file 3 "c:\\app\\gowin\\gmd\\toolchain\\arm_toolchain\\arm-none-eabi\\include\\sys\\_stdint.h"
  73              		.file 4 "C:\\kitaprg\\GMD_RefDesign\\cm3_mon\\CORE/core_cm3.h"
  74              		.file 5 "C:\\kitaprg\\GMD_RefDesign\\cm3_mon\\SYSTEM/system_gw1ns4c.h"
  75              		.file 6 "C:\\kitaprg\\GMD_RefDesign\\cm3_mon\\SYSTEM/gw1ns4c.h"
  76              		.file 7 "c:\\app\\gowin\\gmd\\toolchain\\arm_toolchain\\lib\\gcc\\arm-none-eabi\\8.3.1\\include\\s
  77              		.file 8 "c:\\app\\gowin\\gmd\\toolchain\\arm_toolchain\\arm-none-eabi\\include\\sys\\_types.h"
  78              		.file 9 "c:\\app\\gowin\\gmd\\toolchain\\arm_toolchain\\arm-none-eabi\\include\\sys\\reent.h"
  79              		.file 10 "c:\\app\\gowin\\gmd\\toolchain\\arm_toolchain\\arm-none-eabi\\include\\sys\\lock.h"
  80              		.file 11 "c:\\app\\gowin\\gmd\\toolchain\\arm_toolchain\\arm-none-eabi\\include\\time.h"
  81              		.file 12 "C:\\kitaprg\\GMD_RefDesign\\cm3_mon\\PERIPHERAL\\Includes/gw1ns4c_uart.h"